Error[e46]: Undefined external "??divu32_a" referred in main ( D:\SVN\SieELF\SieELF\ScrTool2\Release_NEWSGOLD\Obj\main.r79 )
Error[e46]: Undefined external "??div32_a" referred in main ( D:\SVN\SieELF\SieELF\ScrTool2\Release_NEWSGOLD\Obj\main.r79 )
Error[e46]: Undefined external "strtoul" referred in main ( D:\SVN\SieELF\SieELF\ScrTool2\Release_NEWSGOLD\Obj\main.r79 )
################################################################################
#                                                                              #
#      IAR Universal Linker V4.60I/386                                         #
#                                                                              #
#           Link time     =  10/Feb/2012  14:48:51                             #
#           Target CPU    =  ARM                                               #
#           List file     =  D:\SVN\SieELF\SieELF\ScrTool2\Release_NEWSGOLD\Li #
#                            st\ScrTool_NSG.map                                #
#           Output file 1 =  D:\SVN\SieELF\SieELF\ScrTool2\Release_NEWSGOLD\ex #
#                            e\ScrTool_NSG.elf                                 #
#                            Format: elf, variant: -ynpra                      #
#           Command line  =  D:\SVN\SieELF\SieELF\ScrTool2\Release_NEWSGOLD\Ob #
#                            j\conf_loader.r79                                 #
#                            D:\SVN\SieELF\SieELF\ScrTool2\Release_NEWSGOLD\Ob #
#                            j\config_data.r79                                 #
#                            D:\SVN\SieELF\SieELF\ScrTool2\Release_NEWSGOLD\Ob #
#                            j\func.r79                                        #
#                            D:\SVN\SieELF\SieELF\ScrTool2\Release_NEWSGOLD\Ob #
#                            j\main.r79                                        #
#                            -o                                                #
#                            D:\SVN\SieELF\SieELF\ScrTool2\Release_NEWSGOLD\ex #
#                            e\ScrTool_NSG.elf                                 #
#                            -Felf -l                                          #
#                            D:\SVN\SieELF\SieELF\ScrTool2\Release_NEWSGOLD\Li #
#                            st\ScrTool_NSG.map                                #
#                            -xmsnio                                           #
#                            "-ID:\Program Files\IAR\Embedded Workbench 4.0 Ev #
#                            aluation\ARM\LIB\"                                #
#                            -f D:\SVN\SieELF\SieELF\ScrTool2\test.xcl         #
#                            (-carm -V(CODE)CODE_AREA,12                       #
#                            -V(DATA)DATA_AREA,12                              #
#                            -Z(CODE_AREA)ELFBEGIN,DATA_ID,START,CODE,DATA_C,I #
#                            NITTAB,DATA_Z,DATA_N,CONFIG_C=0-FFFFFFFF          #
#                            -Z(DATA_AREA)DATA_I=0-FFFFFFFF) -ynpra -s main    #
#                                                                              #
#                        Copyright 1987-2007 IAR Systems. All rights reserved. #
################################################################################





                ****************************************
                *                                      *
                *           CROSS REFERENCE            *
                *                                      *
                ****************************************

       Program entry at : CODE_AREA 00003940  Relocatable, from module : main




                ****************************************
                *                                      *
                *            RUNTIME MODEL             *
                *                                      *
                ****************************************

  StackAlign4  = USED
  __cpu_mode   = __pcs__interwork
  __data_model = absolute
  __endian     = little
  __rt_version = 6



                ****************************************
                *                                      *
                *              MODULE MAP              *
                *                                      *
                ****************************************


  DEFINED ABSOLUTE ENTRIES
    *************************************************************************

  DEFINED ABSOLUTE ENTRIES
    *************************************************************************

  FILE NAME : D:\SVN\SieELF\SieELF\ScrTool2\Release_NEWSGOLD\Obj\conf_loader.r79
  PROGRAM MODULE, NAME : conf_loader

  SEGMENTS IN THE MODULE
  ======================
DATA_I
  Relative segment, address: DATA_AREA 00000000 - 00000003 (0x4 bytes), align: 2
  Segment part 4.             Intra module refs:   LoadConfigData
           ENTRY                   ADDRESS         REF BY
           =====                   =======         ======
           cfn                     00000000        Segment part 120 (main)
    -------------------------------------------------------------------------
CODE
  Segment part 6. NOT NEEDED.
    -------------------------------------------------------------------------
CODE
  Relative segment, address: CODE_AREA 000002F4 - 000003EF (0xfc bytes), align: 2
  Segment part 7.             Intra module refs:   InitConfig
           ENTRY                   ADDRESS         REF BY
           =====                   =======         ======
           LoadConfigData          000002F4 
               stack 1 = 00000000 ( 00000024 )
    -------------------------------------------------------------------------
CODE
  Segment part 8. NOT NEEDED.
    -------------------------------------------------------------------------
CODE
  Relative segment, address: CODE_AREA 000003F0 - 00000417 (0x28 bytes), align: 2
  Segment part 9.
           ENTRY                   ADDRESS         REF BY
           =====                   =======         ======
           InitConfig              000003F0        DaemonOnMessage (main)
                                                   main (main)
               stack 1 = 00000000 ( 00000008 )
    -------------------------------------------------------------------------
CSTACK
  Segment part 1. NOT NEEDED.
    -------------------------------------------------------------------------
DATA_ID
  Relative segment, address: CODE_AREA 00000000 - 00000003 (0x4 bytes), align: 2
  Segment part 5.             Intra module refs:   cfn
    -------------------------------------------------------------------------
DATA_ID
  Segment part 10. NOT NEEDED.
           ENTRY                   ADDRESS         REF BY
           =====                   =======         ======
           ?*?DATA_ID              
    -------------------------------------------------------------------------
INITTAB
  Relative segment, address: CODE_AREA 0000442C - 00004437 (0xc bytes), align: 2
  Segment part 11. ROOT.
           ENTRY                   ADDRESS         REF BY
           =====                   =======         ======
           ?init?tab?DATA_I        0000442C 
    -------------------------------------------------------------------------
CONFIG_C
  Segment part 12. NOT NEEDED.
    -------------------------------------------------------------------------
DATA_C
  Relative segment, address: CODE_AREA 00004428 - 00004428 (0x1 bytes), align: 0
  Segment part 2.             Intra module refs:   Segment part 5
    -------------------------------------------------------------------------
DATA_C
  Relative segment, address: CODE_AREA 00003A00 - 00003A37 (0x38 bytes), align: 2
  Segment part 3.             Intra module refs:   InitConfig

    *************************************************************************

  FILE NAME : D:\SVN\SieELF\SieELF\ScrTool2\Release_NEWSGOLD\Obj\config_data.r79
  PROGRAM MODULE, NAME : config_data

  SEGMENTS IN THE MODULE
  ======================
CONFIG_C
  Relative segment, address: CODE_AREA 000045D0 - 000045FB (0x2c bytes), align: 2
  Segment part 2. ROOT.
           ENTRY                   ADDRESS         REF BY
           =====                   =======         ======
           cfghdr0                 000045D0        LoadConfigData (conf_loader)
    -------------------------------------------------------------------------
CONFIG_C
  Relative segment, address: CODE_AREA 000045FC - 000045FF (0x4 bytes), align: 2
  Segment part 3. ROOT.
           ENTRY                   ADDRESS         REF BY
           =====                   =======         ======
           TASK_ENA                000045FC        Segment part 135 (main)
                                                   Segment part 93 (main)
    -------------------------------------------------------------------------
CONFIG_C
  Relative segment, address: CODE_AREA 00004600 - 0000462B (0x2c bytes), align: 2
  Segment part 4. ROOT.
           ENTRY                   ADDRESS         REF BY
           =====                   =======         ======
           SCR11                   00004600 
    -------------------------------------------------------------------------
CONFIG_C
  Relative segment, address: CODE_AREA 0000462C - 00004657 (0x2c bytes), align: 2
  Segment part 5. ROOT.
           ENTRY                   ADDRESS         REF BY
           =====                   =======         ======
           SCR1_1                  0000462C 
    -------------------------------------------------------------------------
CONFIG_C
  Relative segment, address: CODE_AREA 00004658 - 0000465B (0x4 bytes), align: 2
  Segment part 6. ROOT.
           ENTRY                   ADDRESS         REF BY
           =====                   =======         ======
           TEXT_ENA                00004658        InitShow (main)
    -------------------------------------------------------------------------
CONFIG_C
  Relative segment, address: CODE_AREA 0000465C - 00004687 (0x2c bytes), align: 2
  Segment part 7. ROOT.
           ENTRY                   ADDRESS         REF BY
           =====                   =======         ======
           SCR1_3                  0000465C 
    -------------------------------------------------------------------------
CONFIG_C
  Relative segment, address: CODE_AREA 00004688 - 000046A7 (0x20 bytes), align: 2
  Segment part 8. ROOT.
           ENTRY                   ADDRESS         REF BY
           =====                   =======         ======
           TEXT_CP                 00004688        InitScreen (main)
    -------------------------------------------------------------------------
CONFIG_C
  Relative segment, address: CODE_AREA 000046A8 - 000046D3 (0x2c bytes), align: 2
  Segment part 9. ROOT.
           ENTRY                   ADDRESS         REF BY
           =====                   =======         ======
           SCR1_2                  000046A8 
    -------------------------------------------------------------------------
CONFIG_C
  Relative segment, address: CODE_AREA 000046D4 - 000046D7 (0x4 bytes), align: 2
  Segment part 10. ROOT.
           ENTRY                   ADDRESS         REF BY
           =====                   =======         ======
           TEXT_X                  000046D4        InitScreen (main)
    -------------------------------------------------------------------------
CONFIG_C
  Relative segment, address: CODE_AREA 000046D8 - 000046DB (0x4 bytes), align: 2
  Segment part 11. ROOT.
           ENTRY                   ADDRESS         REF BY
           =====                   =======         ======
           TEXT_Y                  000046D8        InitScreen (main)
    -------------------------------------------------------------------------
CONFIG_C
  Relative segment, address: CODE_AREA 000046DC - 00004707 (0x2c bytes), align: 2
  Segment part 12. ROOT.
           ENTRY                   ADDRESS         REF BY
           =====                   =======         ======
           SCR1_4                  000046DC 
    -------------------------------------------------------------------------
CONFIG_C
  Relative segment, address: CODE_AREA 00004708 - 0000470B (0x4 bytes), align: 2
  Segment part 13. ROOT.
           ENTRY                   ADDRESS         REF BY
           =====                   =======         ======
           TEXT_CS                 00004708        InitShow (main)
    -------------------------------------------------------------------------
CONFIG_C
  Relative segment, address: CODE_AREA 0000470C - 00004737 (0x2c bytes), align: 2
  Segment part 14. ROOT.
           ENTRY                   ADDRESS         REF BY
           =====                   =======         ======
           SCR1_5                  0000470C 
    -------------------------------------------------------------------------
CONFIG_C
  Relative segment, address: CODE_AREA 00004738 - 0000473B (0x4 bytes), align: 2
  Segment part 15. ROOT.
           ENTRY                   ADDRESS         REF BY
           =====                   =======         ======
           TEXT_CB                 00004738        InitShow (main)
    -------------------------------------------------------------------------
CONFIG_C
  Relative segment, address: CODE_AREA 0000473C - 00004767 (0x2c bytes), align: 2
  Segment part 16. ROOT.
           ENTRY                   ADDRESS         REF BY
           =====                   =======         ======
           SCR1_6                  0000473C 
    -------------------------------------------------------------------------
CONFIG_C
  Relative segment, address: CODE_AREA 00004768 - 0000476B (0x4 bytes), align: 2
  Segment part 17. ROOT.
           ENTRY                   ADDRESS         REF BY
           =====                   =======         ======
           TEXT_T                  00004768        InitShow (main)
    -------------------------------------------------------------------------
CONFIG_C
  Relative segment, address: CODE_AREA 0000476C - 00004797 (0x2c bytes), align: 2
  Segment part 18. ROOT.
           ENTRY                   ADDRESS         REF BY
           =====                   =======         ======
           SCR1_7                  0000476C 
    -------------------------------------------------------------------------
CONFIG_C
  Relative segment, address: CODE_AREA 00004798 - 0000479B (0x4 bytes), align: 2
  Segment part 19. ROOT.
           ENTRY                   ADDRESS         REF BY
           =====                   =======         ======
           TEXT_FT                 00004798        InitShow (main)
    -------------------------------------------------------------------------
CONFIG_C
  Relative segment, address: CODE_AREA 0000479C - 000047C7 (0x2c bytes), align: 2
  Segment part 20. ROOT.
           ENTRY                   ADDRESS         REF BY
           =====                   =======         ======
           SCR10                   0000479C 
    -------------------------------------------------------------------------
CONFIG_C
  Relative segment, address: CODE_AREA 000047C8 - 000047F3 (0x2c bytes), align: 2
  Segment part 21. ROOT.
           ENTRY                   ADDRESS         REF BY
           =====                   =======         ======
           mBAR1                   000047C8 
    -------------------------------------------------------------------------
CONFIG_C
  Relative segment, address: CODE_AREA 000047F4 - 0000481F (0x2c bytes), align: 2
  Segment part 22. ROOT.
           ENTRY                   ADDRESS         REF BY
           =====                   =======         ======
           BAR_0                   000047F4 
    -------------------------------------------------------------------------
CONFIG_C
  Relative segment, address: CODE_AREA 00004820 - 00004823 (0x4 bytes), align: 2
  Segment part 23. ROOT.
           ENTRY                   ADDRESS         REF BY
           =====                   =======         ======
           DEST_ENA                00004820        DrawGUI (main)
    -------------------------------------------------------------------------
CONFIG_C
  Relative segment, address: CODE_AREA 00004824 - 0000484F (0x2c bytes), align: 2
  Segment part 24. ROOT.
           ENTRY                   ADDRESS         REF BY
           =====                   =======         ======
           SCR                     00004824 
    -------------------------------------------------------------------------
CONFIG_C
  Relative segment, address: CODE_AREA 00004850 - 00004853 (0x4 bytes), align: 2
  Segment part 25. ROOT.
           ENTRY                   ADDRESS         REF BY
           =====                   =======         ======
           INFO_ENA                00004850        DaemonOnMessage (main)
    -------------------------------------------------------------------------
CONFIG_C
  Relative segment, address: CODE_AREA 00004854 - 000048D3 (0x80 bytes), align: 2
  Segment part 26. ROOT.
           ENTRY                   ADDRESS         REF BY
           =====                   =======         ======
           BOX01                   00004854 
    -------------------------------------------------------------------------
CONFIG_C
  Relative segment, address: CODE_AREA 000048D4 - 000048FF (0x2c bytes), align: 2
  Segment part 27. ROOT.
           ENTRY                   ADDRESS         REF BY
           =====                   =======         ======
           BAR_3                   000048D4 
    -------------------------------------------------------------------------
CONFIG_C
  Relative segment, address: CODE_AREA 00004900 - 00004903 (0x4 bytes), align: 2
  Segment part 28. ROOT.
           ENTRY                   ADDRESS         REF BY
           =====                   =======         ======
           CALL_BTN                00004900        Segment part 115 (main)
    -------------------------------------------------------------------------
CONFIG_C
  Relative segment, address: CODE_AREA 00004904 - 000049E3 (0xe0 bytes), align: 2
  Segment part 29. ROOT.
           ENTRY                   ADDRESS         REF BY
           =====                   =======         ======
           BOX02                   00004904 
    -------------------------------------------------------------------------
CONFIG_C
  Relative segment, address: CODE_AREA 000049E4 - 00004A0F (0x2c bytes), align: 2
  Segment part 30. ROOT.
           ENTRY                   ADDRESS         REF BY
           =====                   =======         ======
           BAR_1                   000049E4 
    -------------------------------------------------------------------------
CONFIG_C
  Relative segment, address: CODE_AREA 00004A10 - 00004A13 (0x4 bytes), align: 2
  Segment part 31. ROOT.
           ENTRY                   ADDRESS         REF BY
           =====                   =======         ======
           REFRESH                 00004A10        DaemonOnMessage (main)
    -------------------------------------------------------------------------
CONFIG_C
  Relative segment, address: CODE_AREA 00004A14 - 00004A3F (0x2c bytes), align: 2
  Segment part 32. ROOT.
           ENTRY                   ADDRESS         REF BY
           =====                   =======         ======
           BAR_2                   00004A14 
    -------------------------------------------------------------------------
CONFIG_C
  Relative segment, address: CODE_AREA 00004A40 - 00004A43 (0x4 bytes), align: 2
  Segment part 33. ROOT.
           ENTRY                   ADDRESS         REF BY
           =====                   =======         ======
           AUTO_CLOSE              00004A40        DrawGUI (main)
    -------------------------------------------------------------------------
CONFIG_C
  Relative segment, address: CODE_AREA 00004A44 - 00004A6F (0x2c bytes), align: 2
  Segment part 34. ROOT.
           ENTRY                   ADDRESS         REF BY
           =====                   =======         ======
           BAR_5                   00004A44 
    -------------------------------------------------------------------------
CONFIG_C
  Relative segment, address: CODE_AREA 00004A70 - 00004A73 (0x4 bytes), align: 2
  Segment part 35. ROOT.
           ENTRY                   ADDRESS         REF BY
           =====                   =======         ======
           MODE_KBD                00004A70        DaemonKeyHook (main)
    -------------------------------------------------------------------------
CONFIG_C
  Relative segment, address: CODE_AREA 00004A74 - 00004AD3 (0x60 bytes), align: 2
  Segment part 36. ROOT.
           ENTRY                   ADDRESS         REF BY
           =====                   =======         ======
           BOX03                   00004A74 
    -------------------------------------------------------------------------
CONFIG_C
  Relative segment, address: CODE_AREA 00004AD4 - 00004AFF (0x2c bytes), align: 2
  Segment part 37. ROOT.
           ENTRY                   ADDRESS         REF BY
           =====                   =======         ======
           BAR_7                   00004AD4 
    -------------------------------------------------------------------------
CONFIG_C
  Relative segment, address: CODE_AREA 00004B00 - 00004B03 (0x4 bytes), align: 2
  Segment part 38. ROOT.
           ENTRY                   ADDRESS         REF BY
           =====                   =======         ======
           OFFSET                  00004B00        DrawGUI (main)
    -------------------------------------------------------------------------
CONFIG_C
  Relative segment, address: CODE_AREA 00004B04 - 00004B2F (0x2c bytes), align: 2
  Segment part 39. ROOT.
           ENTRY                   ADDRESS         REF BY
           =====                   =======         ======
           PSize                   00004B04 
    -------------------------------------------------------------------------
CONFIG_C
  Relative segment, address: CODE_AREA 00004B30 - 00004B33 (0x4 bytes), align: 2
  Segment part 40. ROOT.
           ENTRY                   ADDRESS         REF BY
           =====                   =======         ======
           PicSize                 00004B30        DrawGUI (main)
    -------------------------------------------------------------------------
CONFIG_C
  Relative segment, address: CODE_AREA 00004B34 - 00004B5F (0x2c bytes), align: 2
  Segment part 41. ROOT.
           ENTRY                   ADDRESS         REF BY
           =====                   =======         ======
           BAR_8                   00004B34 
    -------------------------------------------------------------------------
CONFIG_C
  Relative segment, address: CODE_AREA 00004B60 - 00004B63 (0x4 bytes), align: 2
  Segment part 42. ROOT.
           ENTRY                   ADDRESS         REF BY
           =====                   =======         ======
           ATEXT_CS                00004B60        DrawGUI (main)
    -------------------------------------------------------------------------
CONFIG_C
  Relative segment, address: CODE_AREA 00004B64 - 00004B8F (0x2c bytes), align: 2
  Segment part 43. ROOT.
           ENTRY                   ADDRESS         REF BY
           =====                   =======         ======
           BAR_9                   00004B64 
    -------------------------------------------------------------------------
CONFIG_C
  Relative segment, address: CODE_AREA 00004B90 - 00004B93 (0x4 bytes), align: 2
  Segment part 44. ROOT.
           ENTRY                   ADDRESS         REF BY
           =====                   =======         ======
           ATEXT_FT                00004B90        DrawGUI (main)
    -------------------------------------------------------------------------
CONFIG_C
  Relative segment, address: CODE_AREA 00004B94 - 00004BBF (0x2c bytes), align: 2
  Segment part 45. ROOT.
           ENTRY                   ADDRESS         REF BY
           =====                   =======         ======
           BAR_A                   00004B94 
    -------------------------------------------------------------------------
CONFIG_C
  Relative segment, address: CODE_AREA 00004BC0 - 00004BC3 (0x4 bytes), align: 2
  Segment part 46. ROOT.
           ENTRY                   ADDRESS         REF BY
           =====                   =======         ======
           PBDCol                  00004BC0        DrawGUI (main)
    -------------------------------------------------------------------------
CONFIG_C
  Relative segment, address: CODE_AREA 00004BC4 - 00004BEF (0x2c bytes), align: 2
  Segment part 47. ROOT.
           ENTRY                   ADDRESS         REF BY
           =====                   =======         ======
           BAR_B                   00004BC4 
    -------------------------------------------------------------------------
CONFIG_C
  Relative segment, address: CODE_AREA 00004BF0 - 00004BF3 (0x4 bytes), align: 2
  Segment part 48. ROOT.
           ENTRY                   ADDRESS         REF BY
           =====                   =======         ======
           PBGCol                  00004BF0        DrawGUI (main)
    -------------------------------------------------------------------------
CONFIG_C
  Relative segment, address: CODE_AREA 00004BF4 - 00004C1F (0x2c bytes), align: 2
  Segment part 49. ROOT.
           ENTRY                   ADDRESS         REF BY
           =====                   =======         ======
           BAR_C                   00004BF4 
    -------------------------------------------------------------------------
CONFIG_C
  Relative segment, address: CODE_AREA 00004C20 - 00004C23 (0x4 bytes), align: 2
  Segment part 50. ROOT.
           ENTRY                   ADDRESS         REF BY
           =====                   =======         ======
           BBDCol                  00004C20        DrawGUI (main)
    -------------------------------------------------------------------------
CONFIG_C
  Relative segment, address: CODE_AREA 00004C24 - 00004C4F (0x2c bytes), align: 2
  Segment part 51. ROOT.
           ENTRY                   ADDRESS         REF BY
           =====                   =======         ======
           BAR_J                   00004C24 
    -------------------------------------------------------------------------
CONFIG_C
  Relative segment, address: CODE_AREA 00004C50 - 00004C53 (0x4 bytes), align: 2
  Segment part 52. ROOT.
           ENTRY                   ADDRESS         REF BY
           =====                   =======         ======
           SHOW_EXT                00004C50        FindBCFGFile (main)
    -------------------------------------------------------------------------
CONFIG_C
  Relative segment, address: CODE_AREA 00004C54 - 00004C7F (0x2c bytes), align: 2
  Segment part 53. ROOT.
           ENTRY                   ADDRESS         REF BY
           =====                   =======         ======
           mBAR0                   00004C54 
    -------------------------------------------------------------------------
CONFIG_C
  Relative segment, address: CODE_AREA 00004C80 - 00004CAB (0x2c bytes), align: 2
  Segment part 54. ROOT.
           ENTRY                   ADDRESS         REF BY
           =====                   =======         ======
           mMENU1                  00004C80 
    -------------------------------------------------------------------------
CONFIG_C
  Relative segment, address: CODE_AREA 00004CAC - 00004CD7 (0x2c bytes), align: 2
  Segment part 55. ROOT.
           ENTRY                   ADDRESS         REF BY
           =====                   =======         ======
           BAR_I                   00004CAC 
    -------------------------------------------------------------------------
CONFIG_C
  Relative segment, address: CODE_AREA 00004CD8 - 00004D0B (0x34 bytes), align: 2
  Segment part 56. ROOT.
           ENTRY                   ADDRESS         REF BY
           =====                   =======         ======
           AITO                    00004CD8        InitMenu (main)
    -------------------------------------------------------------------------
CONFIG_C
  Relative segment, address: CODE_AREA 00004D0C - 00004D37 (0x2c bytes), align: 2
  Segment part 57. ROOT.
           ENTRY                   ADDRESS         REF BY
           =====                   =======         ======
           BAR_H                   00004D0C 
    -------------------------------------------------------------------------
CONFIG_C
  Relative segment, address: CODE_AREA 00004D38 - 00004D6B (0x34 bytes), align: 2
  Segment part 58. ROOT.
           ENTRY                   ADDRESS         REF BY
           =====                   =======         ======
           AIRT                    00004D38        InitMenu (main)
    -------------------------------------------------------------------------
CONFIG_C
  Relative segment, address: CODE_AREA 00004D6C - 00004D97 (0x2c bytes), align: 2
  Segment part 59. ROOT.
           ENTRY                   ADDRESS         REF BY
           =====                   =======         ======
           BAR_G                   00004D6C 
    -------------------------------------------------------------------------
CONFIG_C
  Relative segment, address: CODE_AREA 00004D98 - 00004DCB (0x34 bytes), align: 2
  Segment part 60. ROOT.
           ENTRY                   ADDRESS         REF BY
           =====                   =======         ======
           AILK                    00004D98        InitMenu (main)
    -------------------------------------------------------------------------
CONFIG_C
  Relative segment, address: CODE_AREA 00004DCC - 00004DF7 (0x2c bytes), align: 2
  Segment part 61. ROOT.
           ENTRY                   ADDRESS         REF BY
           =====                   =======         ======
           BAR_E                   00004DCC 
    -------------------------------------------------------------------------
CONFIG_C
  Relative segment, address: CODE_AREA 00004DF8 - 00004E2B (0x34 bytes), align: 2
  Segment part 62. ROOT.
           ENTRY                   ADDRESS         REF BY
           =====                   =======         ======
           AIST                    00004DF8        InitMenu (main)
    -------------------------------------------------------------------------
CONFIG_C
  Relative segment, address: CODE_AREA 00004E2C - 00004E57 (0x2c bytes), align: 2
  Segment part 63. ROOT.
           ENTRY                   ADDRESS         REF BY
           =====                   =======         ======
           BAR_F                   00004E2C 
    -------------------------------------------------------------------------
CONFIG_C
  Relative segment, address: CODE_AREA 00004E58 - 00004E8B (0x34 bytes), align: 2
  Segment part 64. ROOT.
           ENTRY                   ADDRESS         REF BY
           =====                   =======         ======
           AINO                    00004E58        DrawGUI (main)
    -------------------------------------------------------------------------
CONFIG_C
  Relative segment, address: CODE_AREA 00004E8C - 00004EB7 (0x2c bytes), align: 2
  Segment part 65. ROOT.
           ENTRY                   ADDRESS         REF BY
           =====                   =======         ======
           mMENU0                  00004E8C 
    -------------------------------------------------------------------------
CONFIG_C
  Relative segment, address: CODE_AREA 00004EB8 - 00004EE3 (0x2c bytes), align: 2
  Segment part 66. ROOT.
           ENTRY                   ADDRESS         REF BY
           =====                   =======         ======
           mAPP1                   00004EB8 
    -------------------------------------------------------------------------
CONFIG_C
  Relative segment, address: CODE_AREA 00004EE4 - 00004F0F (0x2c bytes), align: 2
  Segment part 67. ROOT.
           ENTRY                   ADDRESS         REF BY
           =====                   =======         ======
           mA041                   00004EE4 
    -------------------------------------------------------------------------
CONFIG_C
  Relative segment, address: CODE_AREA 00004F10 - 00004F3B (0x2c bytes), align: 2
  Segment part 68. ROOT.
           ENTRY                   ADDRESS         REF BY
           =====                   =======         ======
           A04_4                   00004F10 
    -------------------------------------------------------------------------
CONFIG_C
  Relative segment, address: CODE_AREA 00004F3C - 00004F3F (0x4 bytes), align: 2
  Segment part 69. ROOT.
           ENTRY                   ADDRESS         REF BY
           =====                   =======         ======
           AT04                    00004F3C        InitMenu (main)
    -------------------------------------------------------------------------
CONFIG_C
  Relative segment, address: CODE_AREA 00004F40 - 00004FBF (0x80 bytes), align: 2
  Segment part 70. ROOT.
           ENTRY                   ADDRESS         REF BY
           =====                   =======         ======
           BOX05                   00004F40 
    -------------------------------------------------------------------------
CONFIG_C
  Relative segment, address: CODE_AREA 00004FC0 - 00004FEB (0x2c bytes), align: 2
  Segment part 71. ROOT.
           ENTRY                   ADDRESS         REF BY
           =====                   =======         ======
           A04_1                   00004FC0 
    -------------------------------------------------------------------------
CONFIG_C
  Relative segment, address: CODE_AREA 00004FEC - 0000500B (0x20 bytes), align: 2
  Segment part 72. ROOT.
           ENTRY                   ADDRESS         REF BY
           =====                   =======         ======
           AN04                    00004FEC        InitMenu (main)
    -------------------------------------------------------------------------
CONFIG_C
  Relative segment, address: CODE_AREA 0000500C - 00005037 (0x2c bytes), align: 2
  Segment part 73. ROOT.
           ENTRY                   ADDRESS         REF BY
           =====                   =======         ======
           A04_2                   0000500C 
    -------------------------------------------------------------------------
CONFIG_C
  Relative segment, address: CODE_AREA 00005038 - 0000506B (0x34 bytes), align: 2
  Segment part 74. ROOT.
           ENTRY                   ADDRESS         REF BY
           =====                   =======         ======
           AI04                    00005038        InitMenu (main)
    -------------------------------------------------------------------------
CONFIG_C
  Relative segment, address: CODE_AREA 0000506C - 00005097 (0x2c bytes), align: 2
  Segment part 75. ROOT.
           ENTRY                   ADDRESS         REF BY
           =====                   =======         ======
           A04_3                   0000506C 
    -------------------------------------------------------------------------
CONFIG_C
  Relative segment, address: CODE_AREA 00005098 - 000050CB (0x34 bytes), align: 2
  Segment part 76. ROOT.
           ENTRY                   ADDRESS         REF BY
           =====                   =======         ======
           AF04                    00005098        InitMenu (main)
    -------------------------------------------------------------------------
CONFIG_C
  Relative segment, address: CODE_AREA 000050CC - 000050F7 (0x2c bytes), align: 2
  Segment part 77. ROOT.
           ENTRY                   ADDRESS         REF BY
           =====                   =======         ======
           mA040                   000050CC 
    -------------------------------------------------------------------------
CONFIG_C
  Relative segment, address: CODE_AREA 000050F8 - 00005123 (0x2c bytes), align: 2
  Segment part 78. ROOT.
           ENTRY                   ADDRESS         REF BY
           =====                   =======         ======
           mA051                   000050F8 
    -------------------------------------------------------------------------
CONFIG_C
  Relative segment, address: CODE_AREA 00005124 - 0000514F (0x2c bytes), align: 2
  Segment part 79. ROOT.
           ENTRY                   ADDRESS         REF BY
           =====                   =======         ======
           A05_4                   00005124 
    -------------------------------------------------------------------------
CONFIG_C
  Relative segment, address: CODE_AREA 00005150 - 00005153 (0x4 bytes), align: 2
  Segment part 80. ROOT.
           ENTRY                   ADDRESS         REF BY
           =====                   =======         ======
           AT05                    00005150        InitMenu (main)
    -------------------------------------------------------------------------
CONFIG_C
  Relative segment, address: CODE_AREA 00005154 - 000051D3 (0x80 bytes), align: 2
  Segment part 81. ROOT.
           ENTRY                   ADDRESS         REF BY
           =====                   =======         ======
           BOX06                   00005154 
    -------------------------------------------------------------------------
CONFIG_C
  Relative segment, address: CODE_AREA 000051D4 - 000051FF (0x2c bytes), align: 2
  Segment part 82. ROOT.
           ENTRY                   ADDRESS         REF BY
           =====                   =======         ======
           A05_1                   000051D4 
    -------------------------------------------------------------------------
CONFIG_C
  Relative segment, address: CODE_AREA 00005200 - 0000521F (0x20 bytes), align: 2
  Segment part 83. ROOT.
           ENTRY                   ADDRESS         REF BY
           =====                   =======         ======
           AN05                    00005200        InitMenu (main)
    -------------------------------------------------------------------------
CONFIG_C
  Relative segment, address: CODE_AREA 00005220 - 0000524B (0x2c bytes), align: 2
  Segment part 84. ROOT.
           ENTRY                   ADDRESS         REF BY
           =====                   =======         ======
           A05_2                   00005220 
    -------------------------------------------------------------------------
CONFIG_C
  Relative segment, address: CODE_AREA 0000524C - 0000527F (0x34 bytes), align: 2
  Segment part 85. ROOT.
           ENTRY                   ADDRESS         REF BY
           =====                   =======         ======
           AI05                    0000524C        InitMenu (main)
    -------------------------------------------------------------------------
CONFIG_C
  Relative segment, address: CODE_AREA 00005280 - 000052AB (0x2c bytes), align: 2
  Segment part 86. ROOT.
           ENTRY                   ADDRESS         REF BY
           =====                   =======         ======
           A05_3                   00005280 
    -------------------------------------------------------------------------
CONFIG_C
  Relative segment, address: CODE_AREA 000052AC - 000052DF (0x34 bytes), align: 2
  Segment part 87. ROOT.
           ENTRY                   ADDRESS         REF BY
           =====                   =======         ======
           AF05                    000052AC        InitMenu (main)
    -------------------------------------------------------------------------
CONFIG_C
  Relative segment, address: CODE_AREA 000052E0 - 0000530B (0x2c bytes), align: 2
  Segment part 88. ROOT.
           ENTRY                   ADDRESS         REF BY
           =====                   =======         ======
           mA050                   000052E0 
    -------------------------------------------------------------------------
CONFIG_C
  Relative segment, address: CODE_AREA 0000530C - 00005337 (0x2c bytes), align: 2
  Segment part 89. ROOT.
           ENTRY                   ADDRESS         REF BY
           =====                   =======         ======
           mA061                   0000530C 
    -------------------------------------------------------------------------
CONFIG_C
  Relative segment, address: CODE_AREA 00005338 - 00005363 (0x2c bytes), align: 2
  Segment part 90. ROOT.
           ENTRY                   ADDRESS         REF BY
           =====                   =======         ======
           A06_4                   00005338 
    -------------------------------------------------------------------------
CONFIG_C
  Relative segment, address: CODE_AREA 00005364 - 00005367 (0x4 bytes), align: 2
  Segment part 91. ROOT.
           ENTRY                   ADDRESS         REF BY
           =====                   =======         ======
           AT06                    00005364        InitMenu (main)
    -------------------------------------------------------------------------
CONFIG_C
  Relative segment, address: CODE_AREA 00005368 - 000053E7 (0x80 bytes), align: 2
  Segment part 92. ROOT.
           ENTRY                   ADDRESS         REF BY
           =====                   =======         ======
           BOX07                   00005368 
    -------------------------------------------------------------------------
CONFIG_C
  Relative segment, address: CODE_AREA 000053E8 - 00005413 (0x2c bytes), align: 2
  Segment part 93. ROOT.
           ENTRY                   ADDRESS         REF BY
           =====                   =======         ======
           A06_1                   000053E8 
    -------------------------------------------------------------------------
CONFIG_C
  Relative segment, address: CODE_AREA 00005414 - 00005433 (0x20 bytes), align: 2
  Segment part 94. ROOT.
           ENTRY                   ADDRESS         REF BY
           =====                   =======         ======
           AN06                    00005414        InitMenu (main)
    -------------------------------------------------------------------------
CONFIG_C
  Relative segment, address: CODE_AREA 00005434 - 0000545F (0x2c bytes), align: 2
  Segment part 95. ROOT.
           ENTRY                   ADDRESS         REF BY
           =====                   =======         ======
           A06_2                   00005434 
    -------------------------------------------------------------------------
CONFIG_C
  Relative segment, address: CODE_AREA 00005460 - 00005493 (0x34 bytes), align: 2
  Segment part 96. ROOT.
           ENTRY                   ADDRESS         REF BY
           =====                   =======         ======
           AI06                    00005460        InitMenu (main)
    -------------------------------------------------------------------------
CONFIG_C
  Relative segment, address: CODE_AREA 00005494 - 000054BF (0x2c bytes), align: 2
  Segment part 97. ROOT.
           ENTRY                   ADDRESS         REF BY
           =====                   =======         ======
           A06_3                   00005494 
    -------------------------------------------------------------------------
CONFIG_C
  Relative segment, address: CODE_AREA 000054C0 - 000054F3 (0x34 bytes), align: 2
  Segment part 98. ROOT.
           ENTRY                   ADDRESS         REF BY
           =====                   =======         ======
           AF06                    000054C0        InitMenu (main)
    -------------------------------------------------------------------------
CONFIG_C
  Relative segment, address: CODE_AREA 000054F4 - 0000551F (0x2c bytes), align: 2
  Segment part 99. ROOT.
           ENTRY                   ADDRESS         REF BY
           =====                   =======         ======
           mA060                   000054F4 
    -------------------------------------------------------------------------
CONFIG_C
  Relative segment, address: CODE_AREA 00005520 - 0000554B (0x2c bytes), align: 2
  Segment part 100. ROOT.
           ENTRY                   ADDRESS         REF BY
           =====                   =======         ======
           mA071                   00005520 
    -------------------------------------------------------------------------
CONFIG_C
  Relative segment, address: CODE_AREA 0000554C - 00005577 (0x2c bytes), align: 2
  Segment part 101. ROOT.
           ENTRY                   ADDRESS         REF BY
           =====                   =======         ======
           A07_4                   0000554C 
    -------------------------------------------------------------------------
CONFIG_C
  Relative segment, address: CODE_AREA 00005578 - 0000557B (0x4 bytes), align: 2
  Segment part 102. ROOT.
           ENTRY                   ADDRESS         REF BY
           =====                   =======         ======
           AT07                    00005578        InitMenu (main)
    -------------------------------------------------------------------------
CONFIG_C
  Relative segment, address: CODE_AREA 0000557C - 000055FB (0x80 bytes), align: 2
  Segment part 103. ROOT.
           ENTRY                   ADDRESS         REF BY
           =====                   =======         ======
           BOX08                   0000557C 
    -------------------------------------------------------------------------
CONFIG_C
  Relative segment, address: CODE_AREA 000055FC - 00005627 (0x2c bytes), align: 2
  Segment part 104. ROOT.
           ENTRY                   ADDRESS         REF BY
           =====                   =======         ======
           A07_1                   000055FC 
    -------------------------------------------------------------------------
CONFIG_C
  Relative segment, address: CODE_AREA 00005628 - 00005647 (0x20 bytes), align: 2
  Segment part 105. ROOT.
           ENTRY                   ADDRESS         REF BY
           =====                   =======         ======
           AN07                    00005628        InitMenu (main)
    -------------------------------------------------------------------------
CONFIG_C
  Relative segment, address: CODE_AREA 00005648 - 00005673 (0x2c bytes), align: 2
  Segment part 106. ROOT.
           ENTRY                   ADDRESS         REF BY
           =====                   =======         ======
           A07_2                   00005648 
    -------------------------------------------------------------------------
CONFIG_C
  Relative segment, address: CODE_AREA 00005674 - 000056A7 (0x34 bytes), align: 2
  Segment part 107. ROOT.
           ENTRY                   ADDRESS         REF BY
           =====                   =======         ======
           AI07                    00005674        InitMenu (main)
    -------------------------------------------------------------------------
CONFIG_C
  Relative segment, address: CODE_AREA 000056A8 - 000056D3 (0x2c bytes), align: 2
  Segment part 108. ROOT.
           ENTRY                   ADDRESS         REF BY
           =====                   =======         ======
           A07_3                   000056A8 
    -------------------------------------------------------------------------
CONFIG_C
  Relative segment, address: CODE_AREA 000056D4 - 00005707 (0x34 bytes), align: 2
  Segment part 109. ROOT.
           ENTRY                   ADDRESS         REF BY
           =====                   =======         ======
           AF07                    000056D4        InitMenu (main)
    -------------------------------------------------------------------------
CONFIG_C
  Relative segment, address: CODE_AREA 00005708 - 00005733 (0x2c bytes), align: 2
  Segment part 110. ROOT.
           ENTRY                   ADDRESS         REF BY
           =====                   =======         ======
           mA070                   00005708 
    -------------------------------------------------------------------------
CONFIG_C
  Relative segment, address: CODE_AREA 00005734 - 0000575F (0x2c bytes), align: 2
  Segment part 111. ROOT.
           ENTRY                   ADDRESS         REF BY
           =====                   =======         ======
           mA081                   00005734 
    -------------------------------------------------------------------------
CONFIG_C
  Relative segment, address: CODE_AREA 00005760 - 0000578B (0x2c bytes), align: 2
  Segment part 112. ROOT.
           ENTRY                   ADDRESS         REF BY
           =====                   =======         ======
           A08_4                   00005760 
    -------------------------------------------------------------------------
CONFIG_C
  Relative segment, address: CODE_AREA 0000578C - 0000578F (0x4 bytes), align: 2
  Segment part 113. ROOT.
           ENTRY                   ADDRESS         REF BY
           =====                   =======         ======
           AT08                    0000578C        InitMenu (main)
    -------------------------------------------------------------------------
CONFIG_C
  Relative segment, address: CODE_AREA 00005790 - 0000580F (0x80 bytes), align: 2
  Segment part 114. ROOT.
           ENTRY                   ADDRESS         REF BY
           =====                   =======         ======
           BOXA08                  00005790 
    -------------------------------------------------------------------------
CONFIG_C
  Relative segment, address: CODE_AREA 00005810 - 0000583B (0x2c bytes), align: 2
  Segment part 115. ROOT.
           ENTRY                   ADDRESS         REF BY
           =====                   =======         ======
           A08_1                   00005810 
    -------------------------------------------------------------------------
CONFIG_C
  Relative segment, address: CODE_AREA 0000583C - 0000585B (0x20 bytes), align: 2
  Segment part 116. ROOT.
           ENTRY                   ADDRESS         REF BY
           =====                   =======         ======
           AN08                    0000583C        InitMenu (main)
    -------------------------------------------------------------------------
CONFIG_C
  Relative segment, address: CODE_AREA 0000585C - 00005887 (0x2c bytes), align: 2
  Segment part 117. ROOT.
           ENTRY                   ADDRESS         REF BY
           =====                   =======         ======
           A08_2                   0000585C 
    -------------------------------------------------------------------------
CONFIG_C
  Relative segment, address: CODE_AREA 00005888 - 000058BB (0x34 bytes), align: 2
  Segment part 118. ROOT.
           ENTRY                   ADDRESS         REF BY
           =====                   =======         ======
           AI08                    00005888        InitMenu (main)
    -------------------------------------------------------------------------
CONFIG_C
  Relative segment, address: CODE_AREA 000058BC - 000058E7 (0x2c bytes), align: 2
  Segment part 119. ROOT.
           ENTRY                   ADDRESS         REF BY
           =====                   =======         ======
           A08_3                   000058BC 
    -------------------------------------------------------------------------
CONFIG_C
  Relative segment, address: CODE_AREA 000058E8 - 0000591B (0x34 bytes), align: 2
  Segment part 120. ROOT.
           ENTRY                   ADDRESS         REF BY
           =====                   =======         ======
           AF08                    000058E8        InitMenu (main)
    -------------------------------------------------------------------------
CONFIG_C
  Relative segment, address: CODE_AREA 0000591C - 00005947 (0x2c bytes), align: 2
  Segment part 121. ROOT.
           ENTRY                   ADDRESS         REF BY
           =====                   =======         ======
           mA080                   0000591C 
    -------------------------------------------------------------------------
CONFIG_C
  Relative segment, address: CODE_AREA 00005948 - 00005973 (0x2c bytes), align: 2
  Segment part 122. ROOT.
           ENTRY                   ADDRESS         REF BY
           =====                   =======         ======
           mA091                   00005948 
    -------------------------------------------------------------------------
CONFIG_C
  Relative segment, address: CODE_AREA 00005974 - 0000599F (0x2c bytes), align: 2
  Segment part 123. ROOT.
           ENTRY                   ADDRESS         REF BY
           =====                   =======         ======
           A09_4                   00005974 
    -------------------------------------------------------------------------
CONFIG_C
  Relative segment, address: CODE_AREA 000059A0 - 000059A3 (0x4 bytes), align: 2
  Segment part 124. ROOT.
           ENTRY                   ADDRESS         REF BY
           =====                   =======         ======
           AT09                    000059A0        InitMenu (main)
    -------------------------------------------------------------------------
CONFIG_C
  Relative segment, address: CODE_AREA 000059A4 - 00005A23 (0x80 bytes), align: 2
  Segment part 125. ROOT.
           ENTRY                   ADDRESS         REF BY
           =====                   =======         ======
           BOX09                   000059A4 
    -------------------------------------------------------------------------
CONFIG_C
  Relative segment, address: CODE_AREA 00005A24 - 00005A4F (0x2c bytes), align: 2
  Segment part 126. ROOT.
           ENTRY                   ADDRESS         REF BY
           =====                   =======         ======
           A09_1                   00005A24 
    -------------------------------------------------------------------------
CONFIG_C
  Relative segment, address: CODE_AREA 00005A50 - 00005A6F (0x20 bytes), align: 2
  Segment part 127. ROOT.
           ENTRY                   ADDRESS         REF BY
           =====                   =======         ======
           AN09                    00005A50        InitMenu (main)
    -------------------------------------------------------------------------
CONFIG_C
  Relative segment, address: CODE_AREA 00005A70 - 00005A9B (0x2c bytes), align: 2
  Segment part 128. ROOT.
           ENTRY                   ADDRESS         REF BY
           =====                   =======         ======
           A09_2                   00005A70 
    -------------------------------------------------------------------------
CONFIG_C
  Relative segment, address: CODE_AREA 00005A9C - 00005ACF (0x34 bytes), align: 2
  Segment part 129. ROOT.
           ENTRY                   ADDRESS         REF BY
           =====                   =======         ======
           AI09                    00005A9C        InitMenu (main)
    -------------------------------------------------------------------------
CONFIG_C
  Relative segment, address: CODE_AREA 00005AD0 - 00005AFB (0x2c bytes), align: 2
  Segment part 130. ROOT.
           ENTRY                   ADDRESS         REF BY
           =====                   =======         ======
           A09_3                   00005AD0 
    -------------------------------------------------------------------------
CONFIG_C
  Relative segment, address: CODE_AREA 00005AFC - 00005B2F (0x34 bytes), align: 2
  Segment part 131. ROOT.
           ENTRY                   ADDRESS         REF BY
           =====                   =======         ======
           AF09                    00005AFC        InitMenu (main)
    -------------------------------------------------------------------------
CONFIG_C
  Relative segment, address: CODE_AREA 00005B30 - 00005B5B (0x2c bytes), align: 2
  Segment part 132. ROOT.
           ENTRY                   ADDRESS         REF BY
           =====                   =======         ======
           mA090                   00005B30 
    -------------------------------------------------------------------------
CONFIG_C
  Relative segment, address: CODE_AREA 00005B5C - 00005B87 (0x2c bytes), align: 2
  Segment part 133. ROOT.
           ENTRY                   ADDRESS         REF BY
           =====                   =======         ======
           mA101                   00005B5C 
    -------------------------------------------------------------------------
CONFIG_C
  Relative segment, address: CODE_AREA 00005B88 - 00005BB3 (0x2c bytes), align: 2
  Segment part 134. ROOT.
           ENTRY                   ADDRESS         REF BY
           =====                   =======         ======
           A10_4                   00005B88 
    -------------------------------------------------------------------------
CONFIG_C
  Relative segment, address: CODE_AREA 00005BB4 - 00005BB7 (0x4 bytes), align: 2
  Segment part 135. ROOT.
           ENTRY                   ADDRESS         REF BY
           =====                   =======         ======
           AT10                    00005BB4        InitMenu (main)
    -------------------------------------------------------------------------
CONFIG_C
  Relative segment, address: CODE_AREA 00005BB8 - 00005C37 (0x80 bytes), align: 2
  Segment part 136. ROOT.
           ENTRY                   ADDRESS         REF BY
           =====                   =======         ======
           BOX10                   00005BB8 
    -------------------------------------------------------------------------
CONFIG_C
  Relative segment, address: CODE_AREA 00005C38 - 00005C63 (0x2c bytes), align: 2
  Segment part 137. ROOT.
           ENTRY                   ADDRESS         REF BY
           =====                   =======         ======
           A10_1                   00005C38 
    -------------------------------------------------------------------------
CONFIG_C
  Relative segment, address: CODE_AREA 00005C64 - 00005C83 (0x20 bytes), align: 2
  Segment part 138. ROOT.
           ENTRY                   ADDRESS         REF BY
           =====                   =======         ======
           AN10                    00005C64        InitMenu (main)
    -------------------------------------------------------------------------
CONFIG_C
  Relative segment, address: CODE_AREA 00005C84 - 00005CAF (0x2c bytes), align: 2
  Segment part 139. ROOT.
           ENTRY                   ADDRESS         REF BY
           =====                   =======         ======
           A10_2                   00005C84 
    -------------------------------------------------------------------------
CONFIG_C
  Relative segment, address: CODE_AREA 00005CB0 - 00005CE3 (0x34 bytes), align: 2
  Segment part 140. ROOT.
           ENTRY                   ADDRESS         REF BY
           =====                   =======         ======
           AI10                    00005CB0        InitMenu (main)
    -------------------------------------------------------------------------
CONFIG_C
  Relative segment, address: CODE_AREA 00005CE4 - 00005D0F (0x2c bytes), align: 2
  Segment part 141. ROOT.
           ENTRY                   ADDRESS         REF BY
           =====                   =======         ======
           A10_3                   00005CE4 
    -------------------------------------------------------------------------
CONFIG_C
  Relative segment, address: CODE_AREA 00005D10 - 00005D43 (0x34 bytes), align: 2
  Segment part 142. ROOT.
           ENTRY                   ADDRESS         REF BY
           =====                   =======         ======
           AF10                    00005D10        InitMenu (main)
    -------------------------------------------------------------------------
CONFIG_C
  Relative segment, address: CODE_AREA 00005D44 - 00005D6F (0x2c bytes), align: 2
  Segment part 143. ROOT.
           ENTRY                   ADDRESS         REF BY
           =====                   =======         ======
           mA100                   00005D44 
    -------------------------------------------------------------------------
CONFIG_C
  Relative segment, address: CODE_AREA 00005D70 - 00005D9B (0x2c bytes), align: 2
  Segment part 144. ROOT.
           ENTRY                   ADDRESS         REF BY
           =====                   =======         ======
           mA111                   00005D70 
    -------------------------------------------------------------------------
CONFIG_C
  Relative segment, address: CODE_AREA 00005D9C - 00005DC7 (0x2c bytes), align: 2
  Segment part 145. ROOT.
           ENTRY                   ADDRESS         REF BY
           =====                   =======         ======
           A11_4                   00005D9C 
    -------------------------------------------------------------------------
CONFIG_C
  Relative segment, address: CODE_AREA 00005DC8 - 00005DCB (0x4 bytes), align: 2
  Segment part 146. ROOT.
           ENTRY                   ADDRESS         REF BY
           =====                   =======         ======
           AT11                    00005DC8        InitMenu (main)
    -------------------------------------------------------------------------
CONFIG_C
  Relative segment, address: CODE_AREA 00005DCC - 00005E4B (0x80 bytes), align: 2
  Segment part 147. ROOT.
           ENTRY                   ADDRESS         REF BY
           =====                   =======         ======
           BOX11                   00005DCC 
    -------------------------------------------------------------------------
CONFIG_C
  Relative segment, address: CODE_AREA 00005E4C - 00005E77 (0x2c bytes), align: 2
  Segment part 148. ROOT.
           ENTRY                   ADDRESS         REF BY
           =====                   =======         ======
           A11_1                   00005E4C 
    -------------------------------------------------------------------------
CONFIG_C
  Relative segment, address: CODE_AREA 00005E78 - 00005E97 (0x20 bytes), align: 2
  Segment part 149. ROOT.
           ENTRY                   ADDRESS         REF BY
           =====                   =======         ======
           AN11                    00005E78        InitMenu (main)
    -------------------------------------------------------------------------
CONFIG_C
  Relative segment, address: CODE_AREA 00005E98 - 00005EC3 (0x2c bytes), align: 2
  Segment part 150. ROOT.
           ENTRY                   ADDRESS         REF BY
           =====                   =======         ======
           A11_2                   00005E98 
    -------------------------------------------------------------------------
CONFIG_C
  Relative segment, address: CODE_AREA 00005EC4 - 00005EF7 (0x34 bytes), align: 2
  Segment part 151. ROOT.
           ENTRY                   ADDRESS         REF BY
           =====                   =======         ======
           AI11                    00005EC4        InitMenu (main)
    -------------------------------------------------------------------------
CONFIG_C
  Relative segment, address: CODE_AREA 00005EF8 - 00005F23 (0x2c bytes), align: 2
  Segment part 152. ROOT.
           ENTRY                   ADDRESS         REF BY
           =====                   =======         ======
           A11_3                   00005EF8 
    -------------------------------------------------------------------------
CONFIG_C
  Relative segment, address: CODE_AREA 00005F24 - 00005F57 (0x34 bytes), align: 2
  Segment part 153. ROOT.
           ENTRY                   ADDRESS         REF BY
           =====                   =======         ======
           AF11                    00005F24        InitMenu (main)
    -------------------------------------------------------------------------
CONFIG_C
  Relative segment, address: CODE_AREA 00005F58 - 00005F83 (0x2c bytes), align: 2
  Segment part 154. ROOT.
           ENTRY                   ADDRESS         REF BY
           =====                   =======         ======
           mA110                   00005F58 
    -------------------------------------------------------------------------
CONFIG_C
  Relative segment, address: CODE_AREA 00005F84 - 00005FAF (0x2c bytes), align: 2
  Segment part 155. ROOT.
           ENTRY                   ADDRESS         REF BY
           =====                   =======         ======
           mA121                   00005F84 
    -------------------------------------------------------------------------
CONFIG_C
  Relative segment, address: CODE_AREA 00005FB0 - 00005FDB (0x2c bytes), align: 2
  Segment part 156. ROOT.
           ENTRY                   ADDRESS         REF BY
           =====                   =======         ======
           A12_4                   00005FB0 
    -------------------------------------------------------------------------
CONFIG_C
  Relative segment, address: CODE_AREA 00005FDC - 00005FDF (0x4 bytes), align: 2
  Segment part 157. ROOT.
           ENTRY                   ADDRESS         REF BY
           =====                   =======         ======
           AT12                    00005FDC        InitMenu (main)
    -------------------------------------------------------------------------
CONFIG_C
  Relative segment, address: CODE_AREA 00005FE0 - 0000605F (0x80 bytes), align: 2
  Segment part 158. ROOT.
           ENTRY                   ADDRESS         REF BY
           =====                   =======         ======
           BOX12                   00005FE0 
    -------------------------------------------------------------------------
CONFIG_C
  Relative segment, address: CODE_AREA 00006060 - 0000608B (0x2c bytes), align: 2
  Segment part 159. ROOT.
           ENTRY                   ADDRESS         REF BY
           =====                   =======         ======
           A12_1                   00006060 
    -------------------------------------------------------------------------
CONFIG_C
  Relative segment, address: CODE_AREA 0000608C - 000060AB (0x20 bytes), align: 2
  Segment part 160. ROOT.
           ENTRY                   ADDRESS         REF BY
           =====                   =======         ======
           AN12                    0000608C        InitMenu (main)
    -------------------------------------------------------------------------
CONFIG_C
  Relative segment, address: CODE_AREA 000060AC - 000060D7 (0x2c bytes), align: 2
  Segment part 161. ROOT.
           ENTRY                   ADDRESS         REF BY
           =====                   =======         ======
           A12_2                   000060AC 
    -------------------------------------------------------------------------
CONFIG_C
  Relative segment, address: CODE_AREA 000060D8 - 0000610B (0x34 bytes), align: 2
  Segment part 162. ROOT.
           ENTRY                   ADDRESS         REF BY
           =====                   =======         ======
           AI12                    000060D8        InitMenu (main)
    -------------------------------------------------------------------------
CONFIG_C
  Relative segment, address: CODE_AREA 0000610C - 00006137 (0x2c bytes), align: 2
  Segment part 163. ROOT.
           ENTRY                   ADDRESS         REF BY
           =====                   =======         ======
           A12_3                   0000610C 
    -------------------------------------------------------------------------
CONFIG_C
  Relative segment, address: CODE_AREA 00006138 - 0000616B (0x34 bytes), align: 2
  Segment part 164. ROOT.
           ENTRY                   ADDRESS         REF BY
           =====                   =======         ======
           AF12                    00006138        InitMenu (main)
    -------------------------------------------------------------------------
CONFIG_C
  Relative segment, address: CODE_AREA 0000616C - 00006197 (0x2c bytes), align: 2
  Segment part 165. ROOT.
           ENTRY                   ADDRESS         REF BY
           =====                   =======         ======
           mA120                   0000616C 
    -------------------------------------------------------------------------
CONFIG_C
  Relative segment, address: CODE_AREA 00006198 - 000061C3 (0x2c bytes), align: 2
  Segment part 166. ROOT.
           ENTRY                   ADDRESS         REF BY
           =====                   =======         ======
           mA131                   00006198 
    -------------------------------------------------------------------------
CONFIG_C
  Relative segment, address: CODE_AREA 000061C4 - 000061EF (0x2c bytes), align: 2
  Segment part 167. ROOT.
           ENTRY                   ADDRESS         REF BY
           =====                   =======         ======
           A13_4                   000061C4 
    -------------------------------------------------------------------------
CONFIG_C
  Relative segment, address: CODE_AREA 000061F0 - 000061F3 (0x4 bytes), align: 2
  Segment part 168. ROOT.
           ENTRY                   ADDRESS         REF BY
           =====                   =======         ======
           AT13                    000061F0        InitMenu (main)
    -------------------------------------------------------------------------
CONFIG_C
  Relative segment, address: CODE_AREA 000061F4 - 00006273 (0x80 bytes), align: 2
  Segment part 169. ROOT.
           ENTRY                   ADDRESS         REF BY
           =====                   =======         ======
           BOX13                   000061F4 
    -------------------------------------------------------------------------
CONFIG_C
  Relative segment, address: CODE_AREA 00006274 - 0000629F (0x2c bytes), align: 2
  Segment part 170. ROOT.
           ENTRY                   ADDRESS         REF BY
           =====                   =======         ======
           A13_1                   00006274 
    -------------------------------------------------------------------------
CONFIG_C
  Relative segment, address: CODE_AREA 000062A0 - 000062BF (0x20 bytes), align: 2
  Segment part 171. ROOT.
           ENTRY                   ADDRESS         REF BY
           =====                   =======         ======
           AN13                    000062A0        InitMenu (main)
    -------------------------------------------------------------------------
CONFIG_C
  Relative segment, address: CODE_AREA 000062C0 - 000062EB (0x2c bytes), align: 2
  Segment part 172. ROOT.
           ENTRY                   ADDRESS         REF BY
           =====                   =======         ======
           A13_2                   000062C0 
    -------------------------------------------------------------------------
CONFIG_C
  Relative segment, address: CODE_AREA 000062EC - 0000631F (0x34 bytes), align: 2
  Segment part 173. ROOT.
           ENTRY                   ADDRESS         REF BY
           =====                   =======         ======
           AI13                    000062EC        InitMenu (main)
    -------------------------------------------------------------------------
CONFIG_C
  Relative segment, address: CODE_AREA 00006320 - 0000634B (0x2c bytes), align: 2
  Segment part 174. ROOT.
           ENTRY                   ADDRESS         REF BY
           =====                   =======         ======
           A13_3                   00006320 
    -------------------------------------------------------------------------
CONFIG_C
  Relative segment, address: CODE_AREA 0000634C - 0000637F (0x34 bytes), align: 2
  Segment part 175. ROOT.
           ENTRY                   ADDRESS         REF BY
           =====                   =======         ======
           AF13                    0000634C        InitMenu (main)
    -------------------------------------------------------------------------
CONFIG_C
  Relative segment, address: CODE_AREA 00006380 - 000063AB (0x2c bytes), align: 2
  Segment part 176. ROOT.
           ENTRY                   ADDRESS         REF BY
           =====                   =======         ======
           mA130                   00006380 
    -------------------------------------------------------------------------
CONFIG_C
  Relative segment, address: CODE_AREA 000063AC - 000063D7 (0x2c bytes), align: 2
  Segment part 177. ROOT.
           ENTRY                   ADDRESS         REF BY
           =====                   =======         ======
           mAPP0                   000063AC 
    -------------------------------------------------------------------------
CONFIG_C
  Relative segment, address: CODE_AREA 000063D8 - 00006403 (0x2c bytes), align: 2
  Segment part 178. ROOT.
           ENTRY                   ADDRESS         REF BY
           =====                   =======         ======
           SCR1                    000063D8 
    -------------------------------------------------------------------------
CONFIG_C
  Relative segment, address: CODE_AREA 00006404 - 0000642F (0x2c bytes), align: 2
  Segment part 179. ROOT.
           ENTRY                   ADDRESS         REF BY
           =====                   =======         ======
           SCR21                   00006404 
    -------------------------------------------------------------------------
CONFIG_C
  Relative segment, address: CODE_AREA 00006430 - 0000645B (0x2c bytes), align: 2
  Segment part 180. ROOT.
           ENTRY                   ADDRESS         REF BY
           =====                   =======         ======
           SCR2_1                  00006430 
    -------------------------------------------------------------------------
CONFIG_C
  Relative segment, address: CODE_AREA 0000645C - 0000645F (0x4 bytes), align: 2
  Segment part 181. ROOT.
           ENTRY                   ADDRESS         REF BY
           =====                   =======         ======
           TEMP_ENA                0000645C        InitShow (main)
    -------------------------------------------------------------------------
CONFIG_C
  Relative segment, address: CODE_AREA 00006460 - 0000648B (0x2c bytes), align: 2
  Segment part 182. ROOT.
           ENTRY                   ADDRESS         REF BY
           =====                   =======         ======
           SCR2_2                  00006460 
    -------------------------------------------------------------------------
CONFIG_C
  Relative segment, address: CODE_AREA 0000648C - 0000648F (0x4 bytes), align: 2
  Segment part 183. ROOT.
           ENTRY                   ADDRESS         REF BY
           =====                   =======         ======
           TEMP_X                  0000648C        InitScreen (main)
    -------------------------------------------------------------------------
CONFIG_C
  Relative segment, address: CODE_AREA 00006490 - 00006493 (0x4 bytes), align: 2
  Segment part 184. ROOT.
           ENTRY                   ADDRESS         REF BY
           =====                   =======         ======
           TEMP_Y                  00006490        InitScreen (main)
    -------------------------------------------------------------------------
CONFIG_C
  Relative segment, address: CODE_AREA 00006494 - 000064BF (0x2c bytes), align: 2
  Segment part 185. ROOT.
           ENTRY                   ADDRESS         REF BY
           =====                   =======         ======
           SCR2_3                  00006494 
    -------------------------------------------------------------------------
CONFIG_C
  Relative segment, address: CODE_AREA 000064C0 - 000064C3 (0x4 bytes), align: 2
  Segment part 186. ROOT.
           ENTRY                   ADDRESS         REF BY
           =====                   =======         ======
           TEMP_CS                 000064C0        InitShow (main)
    -------------------------------------------------------------------------
CONFIG_C
  Relative segment, address: CODE_AREA 000064C4 - 000064EF (0x2c bytes), align: 2
  Segment part 187. ROOT.
           ENTRY                   ADDRESS         REF BY
           =====                   =======         ======
           SCR2_4                  000064C4 
    -------------------------------------------------------------------------
CONFIG_C
  Relative segment, address: CODE_AREA 000064F0 - 000064F3 (0x4 bytes), align: 2
  Segment part 188. ROOT.
           ENTRY                   ADDRESS         REF BY
           =====                   =======         ======
           TEMP_CB                 000064F0        InitShow (main)
    -------------------------------------------------------------------------
CONFIG_C
  Relative segment, address: CODE_AREA 000064F4 - 0000651F (0x2c bytes), align: 2
  Segment part 189. ROOT.
           ENTRY                   ADDRESS         REF BY
           =====                   =======         ======
           SCR2_5                  000064F4 
    -------------------------------------------------------------------------
CONFIG_C
  Relative segment, address: CODE_AREA 00006520 - 00006523 (0x4 bytes), align: 2
  Segment part 190. ROOT.
           ENTRY                   ADDRESS         REF BY
           =====                   =======         ======
           TEMP_T                  00006520        InitShow (main)
    -------------------------------------------------------------------------
CONFIG_C
  Relative segment, address: CODE_AREA 00006524 - 0000654F (0x2c bytes), align: 2
  Segment part 191. ROOT.
           ENTRY                   ADDRESS         REF BY
           =====                   =======         ======
           SCR2_6                  00006524 
    -------------------------------------------------------------------------
CONFIG_C
  Relative segment, address: CODE_AREA 00006550 - 00006553 (0x4 bytes), align: 2
  Segment part 192. ROOT.
           ENTRY                   ADDRESS         REF BY
           =====                   =======         ======
           TEMP_FT                 00006550        InitShow (main)
    -------------------------------------------------------------------------
CONFIG_C
  Relative segment, address: CODE_AREA 00006554 - 0000657F (0x2c bytes), align: 2
  Segment part 193. ROOT.
           ENTRY                   ADDRESS         REF BY
           =====                   =======         ======
           SCR20                   00006554 
    -------------------------------------------------------------------------
CONFIG_C
  Relative segment, address: CODE_AREA 00006580 - 000065AB (0x2c bytes), align: 2
  Segment part 194. ROOT.
           ENTRY                   ADDRESS         REF BY
           =====                   =======         ======
           SCR31                   00006580 
    -------------------------------------------------------------------------
CONFIG_C
  Relative segment, address: CODE_AREA 000065AC - 000065D7 (0x2c bytes), align: 2
  Segment part 195. ROOT.
           ENTRY                   ADDRESS         REF BY
           =====                   =======         ======
           SCR3_1                  000065AC 
    -------------------------------------------------------------------------
CONFIG_C
  Relative segment, address: CODE_AREA 000065D8 - 000065DB (0x4 bytes), align: 2
  Segment part 196. ROOT.
           ENTRY                   ADDRESS         REF BY
           =====                   =======         ======
           VOLT_ENA                000065D8        InitShow (main)
    -------------------------------------------------------------------------
CONFIG_C
  Relative segment, address: CODE_AREA 000065DC - 00006607 (0x2c bytes), align: 2
  Segment part 197. ROOT.
           ENTRY                   ADDRESS         REF BY
           =====                   =======         ======
           SCR3_2                  000065DC 
    -------------------------------------------------------------------------
CONFIG_C
  Relative segment, address: CODE_AREA 00006608 - 0000660B (0x4 bytes), align: 2
  Segment part 198. ROOT.
           ENTRY                   ADDRESS         REF BY
           =====                   =======         ======
           VOLT_M                  00006608        InitScreen (main)
    -------------------------------------------------------------------------
CONFIG_C
  Relative segment, address: CODE_AREA 0000660C - 0000664B (0x40 bytes), align: 2
  Segment part 199. ROOT.
           ENTRY                   ADDRESS         REF BY
           =====                   =======         ======
           BOX33                   0000660C 
    -------------------------------------------------------------------------
CONFIG_C
  Relative segment, address: CODE_AREA 0000664C - 00006677 (0x2c bytes), align: 2
  Segment part 200. ROOT.
           ENTRY                   ADDRESS         REF BY
           =====                   =======         ======
           SCR3_3                  0000664C 
    -------------------------------------------------------------------------
CONFIG_C
  Relative segment, address: CODE_AREA 00006678 - 0000667B (0x4 bytes), align: 2
  Segment part 201. ROOT.
           ENTRY                   ADDRESS         REF BY
           =====                   =======         ======
           VOLT_X                  00006678        InitScreen (main)
    -------------------------------------------------------------------------
CONFIG_C
  Relative segment, address: CODE_AREA 0000667C - 0000667F (0x4 bytes), align: 2
  Segment part 202. ROOT.
           ENTRY                   ADDRESS         REF BY
           =====                   =======         ======
           VOLT_Y                  0000667C        InitScreen (main)
    -------------------------------------------------------------------------
CONFIG_C
  Relative segment, address: CODE_AREA 00006680 - 000066AB (0x2c bytes), align: 2
  Segment part 203. ROOT.
           ENTRY                   ADDRESS         REF BY
           =====                   =======         ======
           SCR3_4                  00006680 
    -------------------------------------------------------------------------
CONFIG_C
  Relative segment, address: CODE_AREA 000066AC - 000066AF (0x4 bytes), align: 2
  Segment part 204. ROOT.
           ENTRY                   ADDRESS         REF BY
           =====                   =======         ======
           VOLT_CS                 000066AC        InitShow (main)
    -------------------------------------------------------------------------
CONFIG_C
  Relative segment, address: CODE_AREA 000066B0 - 000066DB (0x2c bytes), align: 2
  Segment part 205. ROOT.
           ENTRY                   ADDRESS         REF BY
           =====                   =======         ======
           SCR3_5                  000066B0 
    -------------------------------------------------------------------------
CONFIG_C
  Relative segment, address: CODE_AREA 000066DC - 000066DF (0x4 bytes), align: 2
  Segment part 206. ROOT.
           ENTRY                   ADDRESS         REF BY
           =====                   =======         ======
           VOLT_CB                 000066DC        InitShow (main)
    -------------------------------------------------------------------------
CONFIG_C
  Relative segment, address: CODE_AREA 000066E0 - 0000670B (0x2c bytes), align: 2
  Segment part 207. ROOT.
           ENTRY                   ADDRESS         REF BY
           =====                   =======         ======
           SCR3_6                  000066E0 
    -------------------------------------------------------------------------
CONFIG_C
  Relative segment, address: CODE_AREA 0000670C - 0000670F (0x4 bytes), align: 2
  Segment part 208. ROOT.
           ENTRY                   ADDRESS         REF BY
           =====                   =======         ======
           VOLT_T                  0000670C        InitShow (main)
    -------------------------------------------------------------------------
CONFIG_C
  Relative segment, address: CODE_AREA 00006710 - 0000673B (0x2c bytes), align: 2
  Segment part 209. ROOT.
           ENTRY                   ADDRESS         REF BY
           =====                   =======         ======
           SCR3_7                  00006710 
    -------------------------------------------------------------------------
CONFIG_C
  Relative segment, address: CODE_AREA 0000673C - 0000673F (0x4 bytes), align: 2
  Segment part 210. ROOT.
           ENTRY                   ADDRESS         REF BY
           =====                   =======         ======
           VOLT_FT                 0000673C        InitShow (main)
    -------------------------------------------------------------------------
CONFIG_C
  Relative segment, address: CODE_AREA 00006740 - 0000676B (0x2c bytes), align: 2
  Segment part 211. ROOT.
           ENTRY                   ADDRESS         REF BY
           =====                   =======         ======
           SCR30                   00006740 
    -------------------------------------------------------------------------
CONFIG_C
  Relative segment, address: CODE_AREA 0000676C - 00006797 (0x2c bytes), align: 2
  Segment part 212. ROOT.
           ENTRY                   ADDRESS         REF BY
           =====                   =======         ======
           SCR41                   0000676C 
    -------------------------------------------------------------------------
CONFIG_C
  Relative segment, address: CODE_AREA 00006798 - 000067C3 (0x2c bytes), align: 2
  Segment part 213. ROOT.
           ENTRY                   ADDRESS         REF BY
           =====                   =======         ======
           SCR4_1                  00006798 
    -------------------------------------------------------------------------
CONFIG_C
  Relative segment, address: CODE_AREA 000067C4 - 000067C7 (0x4 bytes), align: 2
  Segment part 214. ROOT.
           ENTRY                   ADDRESS         REF BY
           =====                   =======         ======
           RAMT_ENA                000067C4        InitShow (main)
    -------------------------------------------------------------------------
CONFIG_C
  Relative segment, address: CODE_AREA 000067C8 - 000067F3 (0x2c bytes), align: 2
  Segment part 215. ROOT.
           ENTRY                   ADDRESS         REF BY
           =====                   =======         ======
           SCR4_2                  000067C8 
    -------------------------------------------------------------------------
CONFIG_C
  Relative segment, address: CODE_AREA 000067F4 - 000067F7 (0x4 bytes), align: 2
  Segment part 216. ROOT.
           ENTRY                   ADDRESS         REF BY
           =====                   =======         ======
           RAMT_X                  000067F4        InitScreen (main)
    -------------------------------------------------------------------------
CONFIG_C
  Relative segment, address: CODE_AREA 000067F8 - 000067FB (0x4 bytes), align: 2
  Segment part 217. ROOT.
           ENTRY                   ADDRESS         REF BY
           =====                   =======         ======
           RAMT_Y                  000067F8        InitScreen (main)
    -------------------------------------------------------------------------
CONFIG_C
  Relative segment, address: CODE_AREA 000067FC - 00006827 (0x2c bytes), align: 2
  Segment part 218. ROOT.
           ENTRY                   ADDRESS         REF BY
           =====                   =======         ======
           SCR4_3                  000067FC 
    -------------------------------------------------------------------------
CONFIG_C
  Relative segment, address: CODE_AREA 00006828 - 0000682B (0x4 bytes), align: 2
  Segment part 219. ROOT.
           ENTRY                   ADDRESS         REF BY
           =====                   =======         ======
           RAMT_CS                 00006828        InitShow (main)
    -------------------------------------------------------------------------
CONFIG_C
  Relative segment, address: CODE_AREA 0000682C - 00006857 (0x2c bytes), align: 2
  Segment part 220. ROOT.
           ENTRY                   ADDRESS         REF BY
           =====                   =======         ======
           SCR4_4                  0000682C 
    -------------------------------------------------------------------------
CONFIG_C
  Relative segment, address: CODE_AREA 00006858 - 0000685B (0x4 bytes), align: 2
  Segment part 221. ROOT.
           ENTRY                   ADDRESS         REF BY
           =====                   =======         ======
           RAMT_CB                 00006858        InitShow (main)
    -------------------------------------------------------------------------
CONFIG_C
  Relative segment, address: CODE_AREA 0000685C - 00006887 (0x2c bytes), align: 2
  Segment part 222. ROOT.
           ENTRY                   ADDRESS         REF BY
           =====                   =======         ======
           SCR4_5                  0000685C 
    -------------------------------------------------------------------------
CONFIG_C
  Relative segment, address: CODE_AREA 00006888 - 0000688B (0x4 bytes), align: 2
  Segment part 223. ROOT.
           ENTRY                   ADDRESS         REF BY
           =====                   =======         ======
           RAMT_T                  00006888        InitShow (main)
    -------------------------------------------------------------------------
CONFIG_C
  Relative segment, address: CODE_AREA 0000688C - 000068B7 (0x2c bytes), align: 2
  Segment part 224. ROOT.
           ENTRY                   ADDRESS         REF BY
           =====                   =======         ======
           SCR4_6                  0000688C 
    -------------------------------------------------------------------------
CONFIG_C
  Relative segment, address: CODE_AREA 000068B8 - 000068BB (0x4 bytes), align: 2
  Segment part 225. ROOT.
           ENTRY                   ADDRESS         REF BY
           =====                   =======         ======
           RAMT_FT                 000068B8        InitShow (main)
    -------------------------------------------------------------------------
CONFIG_C
  Relative segment, address: CODE_AREA 000068BC - 000068E7 (0x2c bytes), align: 2
  Segment part 226. ROOT.
           ENTRY                   ADDRESS         REF BY
           =====                   =======         ======
           SCR40                   000068BC 
    -------------------------------------------------------------------------
CONFIG_C
  Relative segment, address: CODE_AREA 000068E8 - 00006913 (0x2c bytes), align: 2
  Segment part 227. ROOT.
           ENTRY                   ADDRESS         REF BY
           =====                   =======         ======
           SCR51                   000068E8 
    -------------------------------------------------------------------------
CONFIG_C
  Relative segment, address: CODE_AREA 00006914 - 0000693F (0x2c bytes), align: 2
  Segment part 228. ROOT.
           ENTRY                   ADDRESS         REF BY
           =====                   =======         ======
           SCR5_1                  00006914 
    -------------------------------------------------------------------------
CONFIG_C
  Relative segment, address: CODE_AREA 00006940 - 00006943 (0x4 bytes), align: 2
  Segment part 229. ROOT.
           ENTRY                   ADDRESS         REF BY
           =====                   =======         ======
           NETI_ENA                00006940        InitShow (main)
    -------------------------------------------------------------------------
CONFIG_C
  Relative segment, address: CODE_AREA 00006944 - 0000696F (0x2c bytes), align: 2
  Segment part 230. ROOT.
           ENTRY                   ADDRESS         REF BY
           =====                   =======         ======
           SCR5_2                  00006944 
    -------------------------------------------------------------------------
CONFIG_C
  Relative segment, address: CODE_AREA 00006970 - 00006973 (0x4 bytes), align: 2
  Segment part 231. ROOT.
           ENTRY                   ADDRESS         REF BY
           =====                   =======         ======
           NETI_X                  00006970        InitScreen (main)
    -------------------------------------------------------------------------
CONFIG_C
  Relative segment, address: CODE_AREA 00006974 - 00006977 (0x4 bytes), align: 2
  Segment part 232. ROOT.
           ENTRY                   ADDRESS         REF BY
           =====                   =======         ======
           NETI_Y                  00006974        InitScreen (main)
    -------------------------------------------------------------------------
CONFIG_C
  Relative segment, address: CODE_AREA 00006978 - 000069A3 (0x2c bytes), align: 2
  Segment part 233. ROOT.
           ENTRY                   ADDRESS         REF BY
           =====                   =======         ======
           SCR5_3                  00006978 
    -------------------------------------------------------------------------
CONFIG_C
  Relative segment, address: CODE_AREA 000069A4 - 000069A7 (0x4 bytes), align: 2
  Segment part 234. ROOT.
           ENTRY                   ADDRESS         REF BY
           =====                   =======         ======
           NETI_CS                 000069A4        InitShow (main)
    -------------------------------------------------------------------------
CONFIG_C
  Relative segment, address: CODE_AREA 000069A8 - 000069D3 (0x2c bytes), align: 2
  Segment part 235. ROOT.
           ENTRY                   ADDRESS         REF BY
           =====                   =======         ======
           SCR5_4                  000069A8 
    -------------------------------------------------------------------------
CONFIG_C
  Relative segment, address: CODE_AREA 000069D4 - 000069D7 (0x4 bytes), align: 2
  Segment part 236. ROOT.
           ENTRY                   ADDRESS         REF BY
           =====                   =======         ======
           NETI_CB                 000069D4        InitShow (main)
    -------------------------------------------------------------------------
CONFIG_C
  Relative segment, address: CODE_AREA 000069D8 - 00006A03 (0x2c bytes), align: 2
  Segment part 237. ROOT.
           ENTRY                   ADDRESS         REF BY
           =====                   =======         ======
           SCR5_5                  000069D8 
    -------------------------------------------------------------------------
CONFIG_C
  Relative segment, address: CODE_AREA 00006A04 - 00006A07 (0x4 bytes), align: 2
  Segment part 238. ROOT.
           ENTRY                   ADDRESS         REF BY
           =====                   =======         ======
           NETI_T                  00006A04        InitShow (main)
    -------------------------------------------------------------------------
CONFIG_C
  Relative segment, address: CODE_AREA 00006A08 - 00006A33 (0x2c bytes), align: 2
  Segment part 239. ROOT.
           ENTRY                   ADDRESS         REF BY
           =====                   =======         ======
           SCR5_6                  00006A08 
    -------------------------------------------------------------------------
CONFIG_C
  Relative segment, address: CODE_AREA 00006A34 - 00006A37 (0x4 bytes), align: 2
  Segment part 240. ROOT.
           ENTRY                   ADDRESS         REF BY
           =====                   =======         ======
           NETI_FT                 00006A34        InitShow (main)
    -------------------------------------------------------------------------
CONFIG_C
  Relative segment, address: CODE_AREA 00006A38 - 00006A63 (0x2c bytes), align: 2
  Segment part 241. ROOT.
           ENTRY                   ADDRESS         REF BY
           =====                   =======         ======
           SCR50                   00006A38 
    -------------------------------------------------------------------------
CONFIG_C
  Relative segment, address: CODE_AREA 00006A64 - 00006A8F (0x2c bytes), align: 2
  Segment part 242. ROOT.
           ENTRY                   ADDRESS         REF BY
           =====                   =======         ======
           SCR61                   00006A64 
    -------------------------------------------------------------------------
CONFIG_C
  Relative segment, address: CODE_AREA 00006A90 - 00006ABB (0x2c bytes), align: 2
  Segment part 243. ROOT.
           ENTRY                   ADDRESS         REF BY
           =====                   =======         ======
           SCR6_1                  00006A90 
    -------------------------------------------------------------------------
CONFIG_C
  Relative segment, address: CODE_AREA 00006ABC - 00006ABF (0x4 bytes), align: 2
  Segment part 244. ROOT.
           ENTRY                   ADDRESS         REF BY
           =====                   =======         ======
           MGPS_ENA                00006ABC        InitShow (main)
    -------------------------------------------------------------------------
CONFIG_C
  Relative segment, address: CODE_AREA 00006AC0 - 00006AEB (0x2c bytes), align: 2
  Segment part 245. ROOT.
           ENTRY                   ADDRESS         REF BY
           =====                   =======         ======
           SCR6_2                  00006AC0 
    -------------------------------------------------------------------------
CONFIG_C
  Relative segment, address: CODE_AREA 00006AEC - 00006AEF (0x4 bytes), align: 2
  Segment part 246. ROOT.
           ENTRY                   ADDRESS         REF BY
           =====                   =======         ======
           MGPS_X                  00006AEC        InitScreen (main)
    -------------------------------------------------------------------------
CONFIG_C
  Relative segment, address: CODE_AREA 00006AF0 - 00006AF3 (0x4 bytes), align: 2
  Segment part 247. ROOT.
           ENTRY                   ADDRESS         REF BY
           =====                   =======         ======
           MGPS_Y                  00006AF0        InitScreen (main)
    -------------------------------------------------------------------------
CONFIG_C
  Relative segment, address: CODE_AREA 00006AF4 - 00006B1F (0x2c bytes), align: 2
  Segment part 248. ROOT.
           ENTRY                   ADDRESS         REF BY
           =====                   =======         ======
           SCR6_3                  00006AF4 
    -------------------------------------------------------------------------
CONFIG_C
  Relative segment, address: CODE_AREA 00006B20 - 00006B23 (0x4 bytes), align: 2
  Segment part 249. ROOT.
           ENTRY                   ADDRESS         REF BY
           =====                   =======         ======
           MGPS_CS                 00006B20        InitShow (main)
    -------------------------------------------------------------------------
CONFIG_C
  Relative segment, address: CODE_AREA 00006B24 - 00006B4F (0x2c bytes), align: 2
  Segment part 250. ROOT.
           ENTRY                   ADDRESS         REF BY
           =====                   =======         ======
           SCR6_4                  00006B24 
    -------------------------------------------------------------------------
CONFIG_C
  Relative segment, address: CODE_AREA 00006B50 - 00006B53 (0x4 bytes), align: 2
  Segment part 251. ROOT.
           ENTRY                   ADDRESS         REF BY
           =====                   =======         ======
           MGPS_CB                 00006B50        InitShow (main)
    -------------------------------------------------------------------------
CONFIG_C
  Relative segment, address: CODE_AREA 00006B54 - 00006B7F (0x2c bytes), align: 2
  Segment part 252. ROOT.
           ENTRY                   ADDRESS         REF BY
           =====                   =======         ======
           SCR6_5                  00006B54 
    -------------------------------------------------------------------------
CONFIG_C
  Relative segment, address: CODE_AREA 00006B80 - 00006B83 (0x4 bytes), align: 2
  Segment part 253. ROOT.
           ENTRY                   ADDRESS         REF BY
           =====                   =======         ======
           MGPS_T                  00006B80        InitShow (main)
    -------------------------------------------------------------------------
CONFIG_C
  Relative segment, address: CODE_AREA 00006B84 - 00006BAF (0x2c bytes), align: 2
  Segment part 254. ROOT.
           ENTRY                   ADDRESS         REF BY
           =====                   =======         ======
           SCR6_6                  00006B84 
    -------------------------------------------------------------------------
CONFIG_C
  Relative segment, address: CODE_AREA 00006BB0 - 00006BB3 (0x4 bytes), align: 2
  Segment part 255. ROOT.
           ENTRY                   ADDRESS         REF BY
           =====                   =======         ======
           MGPS_FT                 00006BB0        InitShow (main)
    -------------------------------------------------------------------------
CONFIG_C
  Relative segment, address: CODE_AREA 00006BB4 - 00006BDF (0x2c bytes), align: 2
  Segment part 256. ROOT.
           ENTRY                   ADDRESS         REF BY
           =====                   =======         ======
           SCR60                   00006BB4 
    -------------------------------------------------------------------------
CONFIG_C
  Relative segment, address: CODE_AREA 00006BE0 - 00006C0B (0x2c bytes), align: 2
  Segment part 257. ROOT.
           ENTRY                   ADDRESS         REF BY
           =====                   =======         ======
           SCR71                   00006BE0 
    -------------------------------------------------------------------------
CONFIG_C
  Relative segment, address: CODE_AREA 00006C0C - 00006C37 (0x2c bytes), align: 2
  Segment part 258. ROOT.
           ENTRY                   ADDRESS         REF BY
           =====                   =======         ======
           SCR7_1                  00006C0C 
    -------------------------------------------------------------------------
CONFIG_C
  Relative segment, address: CODE_AREA 00006C38 - 00006C3B (0x4 bytes), align: 2
  Segment part 259. ROOT.
           ENTRY                   ADDRESS         REF BY
           =====                   =======         ======
           GPRS_ENA                00006C38        InitShow (main)
    -------------------------------------------------------------------------
CONFIG_C
  Relative segment, address: CODE_AREA 00006C3C - 00006C67 (0x2c bytes), align: 2
  Segment part 260. ROOT.
           ENTRY                   ADDRESS         REF BY
           =====                   =======         ======
           SCR7_2                  00006C3C 
    -------------------------------------------------------------------------
CONFIG_C
  Relative segment, address: CODE_AREA 00006C68 - 00006C6B (0x4 bytes), align: 2
  Segment part 261. ROOT.
           ENTRY                   ADDRESS         REF BY
           =====                   =======         ======
           GPRS_X                  00006C68        InitScreen (main)
    -------------------------------------------------------------------------
CONFIG_C
  Relative segment, address: CODE_AREA 00006C6C - 00006C6F (0x4 bytes), align: 2
  Segment part 262. ROOT.
           ENTRY                   ADDRESS         REF BY
           =====                   =======         ======
           GPRS_Y                  00006C6C        InitScreen (main)
    -------------------------------------------------------------------------
CONFIG_C
  Relative segment, address: CODE_AREA 00006C70 - 00006C9B (0x2c bytes), align: 2
  Segment part 263. ROOT.
           ENTRY                   ADDRESS         REF BY
           =====                   =======         ======
           SCR7_3                  00006C70 
    -------------------------------------------------------------------------
CONFIG_C
  Relative segment, address: CODE_AREA 00006C9C - 00006C9F (0x4 bytes), align: 2
  Segment part 264. ROOT.
           ENTRY                   ADDRESS         REF BY
           =====                   =======         ======
           GPRS_CS                 00006C9C        InitShow (main)
    -------------------------------------------------------------------------
CONFIG_C
  Relative segment, address: CODE_AREA 00006CA0 - 00006CCB (0x2c bytes), align: 2
  Segment part 265. ROOT.
           ENTRY                   ADDRESS         REF BY
           =====                   =======         ======
           SCR7_4                  00006CA0 
    -------------------------------------------------------------------------
CONFIG_C
  Relative segment, address: CODE_AREA 00006CCC - 00006CCF (0x4 bytes), align: 2
  Segment part 266. ROOT.
           ENTRY                   ADDRESS         REF BY
           =====                   =======         ======
           GPRS_CB                 00006CCC        InitShow (main)
    -------------------------------------------------------------------------
CONFIG_C
  Relative segment, address: CODE_AREA 00006CD0 - 00006CFB (0x2c bytes), align: 2
  Segment part 267. ROOT.
           ENTRY                   ADDRESS         REF BY
           =====                   =======         ======
           SCR7_5                  00006CD0 
    -------------------------------------------------------------------------
CONFIG_C
  Relative segment, address: CODE_AREA 00006CFC - 00006CFF (0x4 bytes), align: 2
  Segment part 268. ROOT.
           ENTRY                   ADDRESS         REF BY
           =====                   =======         ======
           GPRS_T                  00006CFC        InitShow (main)
    -------------------------------------------------------------------------
CONFIG_C
  Relative segment, address: CODE_AREA 00006D00 - 00006D2B (0x2c bytes), align: 2
  Segment part 269. ROOT.
           ENTRY                   ADDRESS         REF BY
           =====                   =======         ======
           SCR7_6                  00006D00 
    -------------------------------------------------------------------------
CONFIG_C
  Relative segment, address: CODE_AREA 00006D2C - 00006D2F (0x4 bytes), align: 2
  Segment part 270. ROOT.
           ENTRY                   ADDRESS         REF BY
           =====                   =======         ======
           GPRS_FT                 00006D2C        InitShow (main)
    -------------------------------------------------------------------------
CONFIG_C
  Relative segment, address: CODE_AREA 00006D30 - 00006D5B (0x2c bytes), align: 2
  Segment part 271. ROOT.
           ENTRY                   ADDRESS         REF BY
           =====                   =======         ======
           SCR70                   00006D30 
    -------------------------------------------------------------------------
CONFIG_C
  Relative segment, address: CODE_AREA 00006D5C - 00006D87 (0x2c bytes), align: 2
  Segment part 272. ROOT.
           ENTRY                   ADDRESS         REF BY
           =====                   =======         ======
           SCR81                   00006D5C 
    -------------------------------------------------------------------------
CONFIG_C
  Relative segment, address: CODE_AREA 00006D88 - 00006DB3 (0x2c bytes), align: 2
  Segment part 273. ROOT.
           ENTRY                   ADDRESS         REF BY
           =====                   =======         ======
           SCR8_1                  00006D88 
    -------------------------------------------------------------------------
CONFIG_C
  Relative segment, address: CODE_AREA 00006DB4 - 00006DB7 (0x4 bytes), align: 2
  Segment part 274. ROOT.
           ENTRY                   ADDRESS         REF BY
           =====                   =======         ======
           CPUI_ENA                00006DB4        InitShow (main)
    -------------------------------------------------------------------------
CONFIG_C
  Relative segment, address: CODE_AREA 00006DB8 - 00006DE3 (0x2c bytes), align: 2
  Segment part 275. ROOT.
           ENTRY                   ADDRESS         REF BY
           =====                   =======         ======
           SCR8_2                  00006DB8 
    -------------------------------------------------------------------------
CONFIG_C
  Relative segment, address: CODE_AREA 00006DE4 - 00006DE7 (0x4 bytes), align: 2
  Segment part 276. ROOT.
           ENTRY                   ADDRESS         REF BY
           =====                   =======         ======
           CPUI_X                  00006DE4        InitScreen (main)
    -------------------------------------------------------------------------
CONFIG_C
  Relative segment, address: CODE_AREA 00006DE8 - 00006DEB (0x4 bytes), align: 2
  Segment part 277. ROOT.
           ENTRY                   ADDRESS         REF BY
           =====                   =======         ======
           CPUI_Y                  00006DE8        InitScreen (main)
    -------------------------------------------------------------------------
CONFIG_C
  Relative segment, address: CODE_AREA 00006DEC - 00006E17 (0x2c bytes), align: 2
  Segment part 278. ROOT.
           ENTRY                   ADDRESS         REF BY
           =====                   =======         ======
           SCR8_3                  00006DEC 
    -------------------------------------------------------------------------
CONFIG_C
  Relative segment, address: CODE_AREA 00006E18 - 00006E1B (0x4 bytes), align: 2
  Segment part 279. ROOT.
           ENTRY                   ADDRESS         REF BY
           =====                   =======         ======
           CPUI_CS                 00006E18        InitShow (main)
    -------------------------------------------------------------------------
CONFIG_C
  Relative segment, address: CODE_AREA 00006E1C - 00006E47 (0x2c bytes), align: 2
  Segment part 280. ROOT.
           ENTRY                   ADDRESS         REF BY
           =====                   =======         ======
           SCR8_6                  00006E1C 
    -------------------------------------------------------------------------
CONFIG_C
  Relative segment, address: CODE_AREA 00006E48 - 00006E4B (0x4 bytes), align: 2
  Segment part 281. ROOT.
           ENTRY                   ADDRESS         REF BY
           =====                   =======         ======
           CPUI_CB                 00006E48        InitShow (main)
    -------------------------------------------------------------------------
CONFIG_C
  Relative segment, address: CODE_AREA 00006E4C - 00006E77 (0x2c bytes), align: 2
  Segment part 282. ROOT.
           ENTRY                   ADDRESS         REF BY
           =====                   =======         ======
           SCR8_7                  00006E4C 
    -------------------------------------------------------------------------
CONFIG_C
  Relative segment, address: CODE_AREA 00006E78 - 00006E7B (0x4 bytes), align: 2
  Segment part 283. ROOT.
           ENTRY                   ADDRESS         REF BY
           =====                   =======         ======
           CPUI_T                  00006E78        InitShow (main)
    -------------------------------------------------------------------------
CONFIG_C
  Relative segment, address: CODE_AREA 00006E7C - 00006EA7 (0x2c bytes), align: 2
  Segment part 284. ROOT.
           ENTRY                   ADDRESS         REF BY
           =====                   =======         ======
           SCR8_4                  00006E7C 
    -------------------------------------------------------------------------
CONFIG_C
  Relative segment, address: CODE_AREA 00006EA8 - 00006EAB (0x4 bytes), align: 2
  Segment part 285. ROOT.
           ENTRY                   ADDRESS         REF BY
           =====                   =======         ======
           CPUI_FT                 00006EA8        InitShow (main)
    -------------------------------------------------------------------------
CONFIG_C
  Relative segment, address: CODE_AREA 00006EAC - 00006ED7 (0x2c bytes), align: 2
  Segment part 286. ROOT.
           ENTRY                   ADDRESS         REF BY
           =====                   =======         ======
           SCR80                   00006EAC 
    -------------------------------------------------------------------------
CONFIG_C
  Relative segment, address: CODE_AREA 00006ED8 - 00006F03 (0x2c bytes), align: 2
  Segment part 287. ROOT.
           ENTRY                   ADDRESS         REF BY
           =====                   =======         ======
           SCR0                    00006ED8 
    -------------------------------------------------------------------------
CONFIG_C
  Relative segment, address: CODE_AREA 00006F04 - 00006F2F (0x2c bytes), align: 2
  Segment part 288. ROOT.
           ENTRY                   ADDRESS         REF BY
           =====                   =======         ======
           NEW1                    00006F04 
    -------------------------------------------------------------------------
CONFIG_C
  Relative segment, address: CODE_AREA 00006F30 - 00006F5B (0x2c bytes), align: 2
  Segment part 289. ROOT.
           ENTRY                   ADDRESS         REF BY
           =====                   =======         ======
           SCRB1                   00006F30 
    -------------------------------------------------------------------------
CONFIG_C
  Relative segment, address: CODE_AREA 00006F5C - 00006F87 (0x2c bytes), align: 2
  Segment part 290. ROOT.
           ENTRY                   ADDRESS         REF BY
           =====                   =======         ======
           SCRB_1                  00006F5C 
    -------------------------------------------------------------------------
CONFIG_C
  Relative segment, address: CODE_AREA 00006F88 - 00006F8B (0x4 bytes), align: 2
  Segment part 291. ROOT.
           ENTRY                   ADDRESS         REF BY
           =====                   =======         ======
           WEEK_ENA                00006F88        InitShow (main)
    -------------------------------------------------------------------------
CONFIG_C
  Relative segment, address: CODE_AREA 00006F8C - 00006FB7 (0x2c bytes), align: 2
  Segment part 292. ROOT.
           ENTRY                   ADDRESS         REF BY
           =====                   =======         ======
           SCRB_2                  00006F8C 
    -------------------------------------------------------------------------
CONFIG_C
  Relative segment, address: CODE_AREA 00006FB8 - 00006FBB (0x4 bytes), align: 2
  Segment part 293. ROOT.
           ENTRY                   ADDRESS         REF BY
           =====                   =======         ======
           WEEK_X                  00006FB8        InitScreen (main)
    -------------------------------------------------------------------------
CONFIG_C
  Relative segment, address: CODE_AREA 00006FBC - 00006FBF (0x4 bytes), align: 2
  Segment part 294. ROOT.
           ENTRY                   ADDRESS         REF BY
           =====                   =======         ======
           WEEK_Y                  00006FBC        InitScreen (main)
    -------------------------------------------------------------------------
CONFIG_C
  Relative segment, address: CODE_AREA 00006FC0 - 00006FEB (0x2c bytes), align: 2
  Segment part 295. ROOT.
           ENTRY                   ADDRESS         REF BY
           =====                   =======         ======
           SCRB_3                  00006FC0 
    -------------------------------------------------------------------------
CONFIG_C
  Relative segment, address: CODE_AREA 00006FEC - 00006FEF (0x4 bytes), align: 2
  Segment part 296. ROOT.
           ENTRY                   ADDRESS         REF BY
           =====                   =======         ======
           WEEK_CS                 00006FEC        InitShow (main)
    -------------------------------------------------------------------------
CONFIG_C
  Relative segment, address: CODE_AREA 00006FF0 - 0000701B (0x2c bytes), align: 2
  Segment part 297. ROOT.
           ENTRY                   ADDRESS         REF BY
           =====                   =======         ======
           SCRB_6                  00006FF0 
    -------------------------------------------------------------------------
CONFIG_C
  Relative segment, address: CODE_AREA 0000701C - 0000701F (0x4 bytes), align: 2
  Segment part 298. ROOT.
           ENTRY                   ADDRESS         REF BY
           =====                   =======         ======
           WEEK_CB                 0000701C        InitShow (main)
    -------------------------------------------------------------------------
CONFIG_C
  Relative segment, address: CODE_AREA 00007020 - 0000704B (0x2c bytes), align: 2
  Segment part 299. ROOT.
           ENTRY                   ADDRESS         REF BY
           =====                   =======         ======
           SCRB_5                  00007020 
    -------------------------------------------------------------------------
CONFIG_C
  Relative segment, address: CODE_AREA 0000704C - 0000704F (0x4 bytes), align: 2
  Segment part 300. ROOT.
           ENTRY                   ADDRESS         REF BY
           =====                   =======         ======
           WEEK_FMT                0000704C        InitScreen (main)
    -------------------------------------------------------------------------
CONFIG_C
  Relative segment, address: CODE_AREA 00007050 - 0000710F (0xc0 bytes), align: 2
  Segment part 301. ROOT.
           ENTRY                   ADDRESS         REF BY
           =====                   =======         ======
           BOX52                   00007050 
    -------------------------------------------------------------------------
CONFIG_C
  Relative segment, address: CODE_AREA 00007110 - 0000713B (0x2c bytes), align: 2
  Segment part 302. ROOT.
           ENTRY                   ADDRESS         REF BY
           =====                   =======         ======
           SCRB_7                  00007110 
    -------------------------------------------------------------------------
CONFIG_C
  Relative segment, address: CODE_AREA 0000713C - 0000713F (0x4 bytes), align: 2
  Segment part 303. ROOT.
           ENTRY                   ADDRESS         REF BY
           =====                   =======         ======
           WEEK_T                  0000713C        InitShow (main)
    -------------------------------------------------------------------------
CONFIG_C
  Relative segment, address: CODE_AREA 00007140 - 0000716B (0x2c bytes), align: 2
  Segment part 304. ROOT.
           ENTRY                   ADDRESS         REF BY
           =====                   =======         ======
           SCRB_4                  00007140 
    -------------------------------------------------------------------------
CONFIG_C
  Relative segment, address: CODE_AREA 0000716C - 0000716F (0x4 bytes), align: 2
  Segment part 305. ROOT.
           ENTRY                   ADDRESS         REF BY
           =====                   =======         ======
           WEEK_FT                 0000716C        InitShow (main)
    -------------------------------------------------------------------------
CONFIG_C
  Relative segment, address: CODE_AREA 00007170 - 0000719B (0x2c bytes), align: 2
  Segment part 306. ROOT.
           ENTRY                   ADDRESS         REF BY
           =====                   =======         ======
           SCRB0                   00007170 
    -------------------------------------------------------------------------
CONFIG_C
  Relative segment, address: CODE_AREA 0000719C - 000071C7 (0x2c bytes), align: 2
  Segment part 307. ROOT.
           ENTRY                   ADDRESS         REF BY
           =====                   =======         ======
           SCRC1                   0000719C 
    -------------------------------------------------------------------------
CONFIG_C
  Relative segment, address: CODE_AREA 000071C8 - 000071F3 (0x2c bytes), align: 2
  Segment part 308. ROOT.
           ENTRY                   ADDRESS         REF BY
           =====                   =======         ======
           SCRC_1                  000071C8 
    -------------------------------------------------------------------------
CONFIG_C
  Relative segment, address: CODE_AREA 000071F4 - 000071F7 (0x4 bytes), align: 2
  Segment part 309. ROOT.
           ENTRY                   ADDRESS         REF BY
           =====                   =======         ======
           TIME_ENA                000071F4        InitShow (main)
    -------------------------------------------------------------------------
CONFIG_C
  Relative segment, address: CODE_AREA 000071F8 - 00007223 (0x2c bytes), align: 2
  Segment part 310. ROOT.
           ENTRY                   ADDRESS         REF BY
           =====                   =======         ======
           SCRC_2                  000071F8 
    -------------------------------------------------------------------------
CONFIG_C
  Relative segment, address: CODE_AREA 00007224 - 00007227 (0x4 bytes), align: 2
  Segment part 311. ROOT.
           ENTRY                   ADDRESS         REF BY
           =====                   =======         ======
           TIME_X                  00007224        InitScreen (main)
    -------------------------------------------------------------------------
CONFIG_C
  Relative segment, address: CODE_AREA 00007228 - 0000722B (0x4 bytes), align: 2
  Segment part 312. ROOT.
           ENTRY                   ADDRESS         REF BY
           =====                   =======         ======
           TIME_Y                  00007228        InitScreen (main)
    -------------------------------------------------------------------------
CONFIG_C
  Relative segment, address: CODE_AREA 0000722C - 00007257 (0x2c bytes), align: 2
  Segment part 313. ROOT.
           ENTRY                   ADDRESS         REF BY
           =====                   =======         ======
           SCRC_3                  0000722C 
    -------------------------------------------------------------------------
CONFIG_C
  Relative segment, address: CODE_AREA 00007258 - 0000725B (0x4 bytes), align: 2
  Segment part 314. ROOT.
           ENTRY                   ADDRESS         REF BY
           =====                   =======         ======
           TIME_CS                 00007258        InitShow (main)
    -------------------------------------------------------------------------
CONFIG_C
  Relative segment, address: CODE_AREA 0000725C - 00007287 (0x2c bytes), align: 2
  Segment part 315. ROOT.
           ENTRY                   ADDRESS         REF BY
           =====                   =======         ======
           SCRC_6                  0000725C 
    -------------------------------------------------------------------------
CONFIG_C
  Relative segment, address: CODE_AREA 00007288 - 0000728B (0x4 bytes), align: 2
  Segment part 316. ROOT.
           ENTRY                   ADDRESS         REF BY
           =====                   =======         ======
           TIME_CB                 00007288        InitShow (main)
    -------------------------------------------------------------------------
CONFIG_C
  Relative segment, address: CODE_AREA 0000728C - 000072B7 (0x2c bytes), align: 2
  Segment part 317. ROOT.
           ENTRY                   ADDRESS         REF BY
           =====                   =======         ======
           SCRC_5                  0000728C 
    -------------------------------------------------------------------------
CONFIG_C
  Relative segment, address: CODE_AREA 000072B8 - 000072BB (0x4 bytes), align: 2
  Segment part 318. ROOT.
           ENTRY                   ADDRESS         REF BY
           =====                   =======         ======
           TIME_FMT                000072B8        InitScreen (main)
    -------------------------------------------------------------------------
CONFIG_C
  Relative segment, address: CODE_AREA 000072BC - 0000737B (0xc0 bytes), align: 2
  Segment part 319. ROOT.
           ENTRY                   ADDRESS         REF BY
           =====                   =======         ======
           BOX72                   000072BC 
    -------------------------------------------------------------------------
CONFIG_C
  Relative segment, address: CODE_AREA 0000737C - 000073A7 (0x2c bytes), align: 2
  Segment part 320. ROOT.
           ENTRY                   ADDRESS         REF BY
           =====                   =======         ======
           SCRC_7                  0000737C 
    -------------------------------------------------------------------------
CONFIG_C
  Relative segment, address: CODE_AREA 000073A8 - 000073AB (0x4 bytes), align: 2
  Segment part 321. ROOT.
           ENTRY                   ADDRESS         REF BY
           =====                   =======         ======
           TIME_T                  000073A8        InitShow (main)
    -------------------------------------------------------------------------
CONFIG_C
  Relative segment, address: CODE_AREA 000073AC - 000073D7 (0x2c bytes), align: 2
  Segment part 322. ROOT.
           ENTRY                   ADDRESS         REF BY
           =====                   =======         ======
           SCRC_4                  000073AC 
    -------------------------------------------------------------------------
CONFIG_C
  Relative segment, address: CODE_AREA 000073D8 - 000073DB (0x4 bytes), align: 2
  Segment part 323. ROOT.
           ENTRY                   ADDRESS         REF BY
           =====                   =======         ======
           TIME_FT                 000073D8        InitShow (main)
    -------------------------------------------------------------------------
CONFIG_C
  Relative segment, address: CODE_AREA 000073DC - 00007407 (0x2c bytes), align: 2
  Segment part 324. ROOT.
           ENTRY                   ADDRESS         REF BY
           =====                   =======         ======
           SCRC0                   000073DC 
    -------------------------------------------------------------------------
CONFIG_C
  Relative segment, address: CODE_AREA 00007408 - 00007433 (0x2c bytes), align: 2
  Segment part 325. ROOT.
           ENTRY                   ADDRESS         REF BY
           =====                   =======         ======
           SCRD1                   00007408 
    -------------------------------------------------------------------------
CONFIG_C
  Relative segment, address: CODE_AREA 00007434 - 0000745F (0x2c bytes), align: 2
  Segment part 326. ROOT.
           ENTRY                   ADDRESS         REF BY
           =====                   =======         ======
           SCRD_1                  00007434 
    -------------------------------------------------------------------------
CONFIG_C
  Relative segment, address: CODE_AREA 00007460 - 00007463 (0x4 bytes), align: 2
  Segment part 327. ROOT.
           ENTRY                   ADDRESS         REF BY
           =====                   =======         ======
           DATE_ENA                00007460        InitShow (main)
    -------------------------------------------------------------------------
CONFIG_C
  Relative segment, address: CODE_AREA 00007464 - 0000748F (0x2c bytes), align: 2
  Segment part 328. ROOT.
           ENTRY                   ADDRESS         REF BY
           =====                   =======         ======
           SCRD_2                  00007464 
    -------------------------------------------------------------------------
CONFIG_C
  Relative segment, address: CODE_AREA 00007490 - 00007493 (0x4 bytes), align: 2
  Segment part 329. ROOT.
           ENTRY                   ADDRESS         REF BY
           =====                   =======         ======
           DATE_X                  00007490        InitScreen (main)
    -------------------------------------------------------------------------
CONFIG_C
  Relative segment, address: CODE_AREA 00007494 - 00007497 (0x4 bytes), align: 2
  Segment part 330. ROOT.
           ENTRY                   ADDRESS         REF BY
           =====                   =======         ======
           DATE_Y                  00007494        InitScreen (main)
    -------------------------------------------------------------------------
CONFIG_C
  Relative segment, address: CODE_AREA 00007498 - 000074C3 (0x2c bytes), align: 2
  Segment part 331. ROOT.
           ENTRY                   ADDRESS         REF BY
           =====                   =======         ======
           SCRD_3                  00007498 
    -------------------------------------------------------------------------
CONFIG_C
  Relative segment, address: CODE_AREA 000074C4 - 000074C7 (0x4 bytes), align: 2
  Segment part 332. ROOT.
           ENTRY                   ADDRESS         REF BY
           =====                   =======         ======
           DATE_CS                 000074C4        InitShow (main)
    -------------------------------------------------------------------------
CONFIG_C
  Relative segment, address: CODE_AREA 000074C8 - 000074F3 (0x2c bytes), align: 2
  Segment part 333. ROOT.
           ENTRY                   ADDRESS         REF BY
           =====                   =======         ======
           SCRD_6                  000074C8 
    -------------------------------------------------------------------------
CONFIG_C
  Relative segment, address: CODE_AREA 000074F4 - 000074F7 (0x4 bytes), align: 2
  Segment part 334. ROOT.
           ENTRY                   ADDRESS         REF BY
           =====                   =======         ======
           DATE_CB                 000074F4        InitShow (main)
    -------------------------------------------------------------------------
CONFIG_C
  Relative segment, address: CODE_AREA 000074F8 - 00007523 (0x2c bytes), align: 2
  Segment part 335. ROOT.
           ENTRY                   ADDRESS         REF BY
           =====                   =======         ======
           SCRD_5                  000074F8 
    -------------------------------------------------------------------------
CONFIG_C
  Relative segment, address: CODE_AREA 00007524 - 00007527 (0x4 bytes), align: 2
  Segment part 336. ROOT.
           ENTRY                   ADDRESS         REF BY
           =====                   =======         ======
           DATE_FMT                00007524        InitScreen (main)
    -------------------------------------------------------------------------
CONFIG_C
  Relative segment, address: CODE_AREA 00007528 - 00007667 (0x140 bytes), align: 2
  Segment part 337. ROOT.
           ENTRY                   ADDRESS         REF BY
           =====                   =======         ======
           BOX62                   00007528 
    -------------------------------------------------------------------------
CONFIG_C
  Relative segment, address: CODE_AREA 00007668 - 00007693 (0x2c bytes), align: 2
  Segment part 338. ROOT.
           ENTRY                   ADDRESS         REF BY
           =====                   =======         ======
           SCRD_7                  00007668 
    -------------------------------------------------------------------------
CONFIG_C
  Relative segment, address: CODE_AREA 00007694 - 00007697 (0x4 bytes), align: 2
  Segment part 339. ROOT.
           ENTRY                   ADDRESS         REF BY
           =====                   =======         ======
           DATE_T                  00007694        InitShow (main)
    -------------------------------------------------------------------------
CONFIG_C
  Relative segment, address: CODE_AREA 00007698 - 000076C3 (0x2c bytes), align: 2
  Segment part 340. ROOT.
           ENTRY                   ADDRESS         REF BY
           =====                   =======         ======
           SCRD_4                  00007698 
    -------------------------------------------------------------------------
CONFIG_C
  Relative segment, address: CODE_AREA 000076C4 - 000076C7 (0x4 bytes), align: 2
  Segment part 341. ROOT.
           ENTRY                   ADDRESS         REF BY
           =====                   =======         ======
           DATE_FT                 000076C4        InitShow (main)
    -------------------------------------------------------------------------
CONFIG_C
  Relative segment, address: CODE_AREA 000076C8 - 000076F3 (0x2c bytes), align: 2
  Segment part 342. ROOT.
           ENTRY                   ADDRESS         REF BY
           =====                   =======         ======
           SCRD0                   000076C8 
    -------------------------------------------------------------------------
CONFIG_C
  Relative segment, address: CODE_AREA 000076F4 - 0000771F (0x2c bytes), align: 2
  Segment part 343. ROOT.
           ENTRY                   ADDRESS         REF BY
           =====                   =======         ======
           SCRA1                   000076F4 
    -------------------------------------------------------------------------
CONFIG_C
  Relative segment, address: CODE_AREA 00007720 - 0000774B (0x2c bytes), align: 2
  Segment part 344. ROOT.
           ENTRY                   ADDRESS         REF BY
           =====                   =======         ======
           SCRA_1                  00007720 
    -------------------------------------------------------------------------
CONFIG_C
  Relative segment, address: CODE_AREA 0000774C - 0000774F (0x4 bytes), align: 2
  Segment part 345. ROOT.
           ENTRY                   ADDRESS         REF BY
           =====                   =======         ======
           CHSY_ENA                0000774C        InitShow (main)
    -------------------------------------------------------------------------
CONFIG_C
  Relative segment, address: CODE_AREA 00007750 - 0000777B (0x2c bytes), align: 2
  Segment part 346. ROOT.
           ENTRY                   ADDRESS         REF BY
           =====                   =======         ======
           SCRA_2                  00007750 
    -------------------------------------------------------------------------
CONFIG_C
  Relative segment, address: CODE_AREA 0000777C - 0000777F (0x4 bytes), align: 2
  Segment part 347. ROOT.
           ENTRY                   ADDRESS         REF BY
           =====                   =======         ======
           CHSY_X                  0000777C        InitScreen (main)
    -------------------------------------------------------------------------
CONFIG_C
  Relative segment, address: CODE_AREA 00007780 - 00007783 (0x4 bytes), align: 2
  Segment part 348. ROOT.
           ENTRY                   ADDRESS         REF BY
           =====                   =======         ======
           CHSY_Y                  00007780        InitScreen (main)
    -------------------------------------------------------------------------
CONFIG_C
  Relative segment, address: CODE_AREA 00007784 - 000077AF (0x2c bytes), align: 2
  Segment part 349. ROOT.
           ENTRY                   ADDRESS         REF BY
           =====                   =======         ======
           SCRA_7                  00007784 
    -------------------------------------------------------------------------
CONFIG_C
  Relative segment, address: CODE_AREA 000077B0 - 000077B3 (0x4 bytes), align: 2
  Segment part 350. ROOT.
           ENTRY                   ADDRESS         REF BY
           =====                   =======         ======
           CHSY_T                  000077B0        InitShow (main)
    -------------------------------------------------------------------------
CONFIG_C
  Relative segment, address: CODE_AREA 000077B4 - 000077DF (0x2c bytes), align: 2
  Segment part 351. ROOT.
           ENTRY                   ADDRESS         REF BY
           =====                   =======         ======
           SCRA0                   000077B4 
    -------------------------------------------------------------------------
CONFIG_C
  Relative segment, address: CODE_AREA 000077E0 - 0000780B (0x2c bytes), align: 2
  Segment part 352. ROOT.
           ENTRY                   ADDRESS         REF BY
           =====                   =======         ======
           SCRM1                   000077E0 
    -------------------------------------------------------------------------
CONFIG_C
  Relative segment, address: CODE_AREA 0000780C - 00007837 (0x2c bytes), align: 2
  Segment part 353. ROOT.
           ENTRY                   ADDRESS         REF BY
           =====                   =======         ======
           SCRM_1                  0000780C 
    -------------------------------------------------------------------------
CONFIG_C
  Relative segment, address: CODE_AREA 00007838 - 0000783B (0x4 bytes), align: 2
  Segment part 354. ROOT.
           ENTRY                   ADDRESS         REF BY
           =====                   =======         ======
           CHSM_ENA                00007838        InitShow (main)
    -------------------------------------------------------------------------
CONFIG_C
  Relative segment, address: CODE_AREA 0000783C - 00007867 (0x2c bytes), align: 2
  Segment part 355. ROOT.
           ENTRY                   ADDRESS         REF BY
           =====                   =======         ======
           SCRM_2                  0000783C 
    -------------------------------------------------------------------------
CONFIG_C
  Relative segment, address: CODE_AREA 00007868 - 0000786B (0x4 bytes), align: 2
  Segment part 356. ROOT.
           ENTRY                   ADDRESS         REF BY
           =====                   =======         ======
           CHSM_X                  00007868        InitScreen (main)
    -------------------------------------------------------------------------
CONFIG_C
  Relative segment, address: CODE_AREA 0000786C - 0000786F (0x4 bytes), align: 2
  Segment part 357. ROOT.
           ENTRY                   ADDRESS         REF BY
           =====                   =======         ======
           CHSM_Y                  0000786C        InitScreen (main)
    -------------------------------------------------------------------------
CONFIG_C
  Relative segment, address: CODE_AREA 00007870 - 0000789B (0x2c bytes), align: 2
  Segment part 358. ROOT.
           ENTRY                   ADDRESS         REF BY
           =====                   =======         ======
           SCRM_7                  00007870 
    -------------------------------------------------------------------------
CONFIG_C
  Relative segment, address: CODE_AREA 0000789C - 0000789F (0x4 bytes), align: 2
  Segment part 359. ROOT.
           ENTRY                   ADDRESS         REF BY
           =====                   =======         ======
           CHSM_T                  0000789C        InitShow (main)
    -------------------------------------------------------------------------
CONFIG_C
  Relative segment, address: CODE_AREA 000078A0 - 000078CB (0x2c bytes), align: 2
  Segment part 360. ROOT.
           ENTRY                   ADDRESS         REF BY
           =====                   =======         ======
           SCRM0                   000078A0 
    -------------------------------------------------------------------------
CONFIG_C
  Relative segment, address: CODE_AREA 000078CC - 000078F7 (0x2c bytes), align: 2
  Segment part 361. ROOT.
           ENTRY                   ADDRESS         REF BY
           =====                   =======         ======
           SCR91                   000078CC 
    -------------------------------------------------------------------------
CONFIG_C
  Relative segment, address: CODE_AREA 000078F8 - 00007923 (0x2c bytes), align: 2
  Segment part 362. ROOT.
           ENTRY                   ADDRESS         REF BY
           =====                   =======         ======
           SCR9_1                  000078F8 
    -------------------------------------------------------------------------
CONFIG_C
  Relative segment, address: CODE_AREA 00007924 - 00007927 (0x4 bytes), align: 2
  Segment part 363. ROOT.
           ENTRY                   ADDRESS         REF BY
           =====                   =======         ======
           CHSD_ENA                00007924        InitShow (main)
    -------------------------------------------------------------------------
CONFIG_C
  Relative segment, address: CODE_AREA 00007928 - 00007953 (0x2c bytes), align: 2
  Segment part 364. ROOT.
           ENTRY                   ADDRESS         REF BY
           =====                   =======         ======
           SCR9_2                  00007928 
    -------------------------------------------------------------------------
CONFIG_C
  Relative segment, address: CODE_AREA 00007954 - 00007957 (0x4 bytes), align: 2
  Segment part 365. ROOT.
           ENTRY                   ADDRESS         REF BY
           =====                   =======         ======
           CHSD_X                  00007954        InitScreen (main)
    -------------------------------------------------------------------------
CONFIG_C
  Relative segment, address: CODE_AREA 00007958 - 0000795B (0x4 bytes), align: 2
  Segment part 366. ROOT.
           ENTRY                   ADDRESS         REF BY
           =====                   =======         ======
           CHSD_Y                  00007958        InitScreen (main)
    -------------------------------------------------------------------------
CONFIG_C
  Relative segment, address: CODE_AREA 0000795C - 00007987 (0x2c bytes), align: 2
  Segment part 367. ROOT.
           ENTRY                   ADDRESS         REF BY
           =====                   =======         ======
           SCR9_7                  0000795C 
    -------------------------------------------------------------------------
CONFIG_C
  Relative segment, address: CODE_AREA 00007988 - 0000798B (0x4 bytes), align: 2
  Segment part 368. ROOT.
           ENTRY                   ADDRESS         REF BY
           =====                   =======         ======
           CHSD_T                  00007988        InitShow (main)
    -------------------------------------------------------------------------
CONFIG_C
  Relative segment, address: CODE_AREA 0000798C - 000079B7 (0x2c bytes), align: 2
  Segment part 369. ROOT.
           ENTRY                   ADDRESS         REF BY
           =====                   =======         ======
           SCR90                   0000798C 
    -------------------------------------------------------------------------
CONFIG_C
  Relative segment, address: CODE_AREA 000079B8 - 000079E3 (0x2c bytes), align: 2
  Segment part 370. ROOT.
           ENTRY                   ADDRESS         REF BY
           =====                   =======         ======
           CHSH1                   000079B8 
    -------------------------------------------------------------------------
CONFIG_C
  Relative segment, address: CODE_AREA 000079E4 - 00007A0F (0x2c bytes), align: 2
  Segment part 371. ROOT.
           ENTRY                   ADDRESS         REF BY
           =====                   =======         ======
           CHSH_1                  000079E4 
    -------------------------------------------------------------------------
CONFIG_C
  Relative segment, address: CODE_AREA 00007A10 - 00007A13 (0x4 bytes), align: 2
  Segment part 372. ROOT.
           ENTRY                   ADDRESS         REF BY
           =====                   =======         ======
           CHSH_ENA                00007A10        InitShow (main)
    -------------------------------------------------------------------------
CONFIG_C
  Relative segment, address: CODE_AREA 00007A14 - 00007A3F (0x2c bytes), align: 2
  Segment part 373. ROOT.
           ENTRY                   ADDRESS         REF BY
           =====                   =======         ======
           CHSH_2                  00007A14 
    -------------------------------------------------------------------------
CONFIG_C
  Relative segment, address: CODE_AREA 00007A40 - 00007A43 (0x4 bytes), align: 2
  Segment part 374. ROOT.
           ENTRY                   ADDRESS         REF BY
           =====                   =======         ======
           CHSH_X                  00007A40        InitScreen (main)
    -------------------------------------------------------------------------
CONFIG_C
  Relative segment, address: CODE_AREA 00007A44 - 00007A47 (0x4 bytes), align: 2
  Segment part 375. ROOT.
           ENTRY                   ADDRESS         REF BY
           =====                   =======         ======
           CHSH_Y                  00007A44        InitScreen (main)
    -------------------------------------------------------------------------
CONFIG_C
  Relative segment, address: CODE_AREA 00007A48 - 00007A73 (0x2c bytes), align: 2
  Segment part 376. ROOT.
           ENTRY                   ADDRESS         REF BY
           =====                   =======         ======
           CHSH_7                  00007A48 
    -------------------------------------------------------------------------
CONFIG_C
  Relative segment, address: CODE_AREA 00007A74 - 00007A77 (0x4 bytes), align: 2
  Segment part 377. ROOT.
           ENTRY                   ADDRESS         REF BY
           =====                   =======         ======
           CHSH_T                  00007A74        InitShow (main)
    -------------------------------------------------------------------------
CONFIG_C
  Relative segment, address: CODE_AREA 00007A78 - 00007AA3 (0x2c bytes), align: 2
  Segment part 378. ROOT.
           ENTRY                   ADDRESS         REF BY
           =====                   =======         ======
           CHSH0                   00007A78 
    -------------------------------------------------------------------------
CONFIG_C
  Relative segment, address: CODE_AREA 00007AA4 - 00007ACF (0x2c bytes), align: 2
  Segment part 379. ROOT.
           ENTRY                   ADDRESS         REF BY
           =====                   =======         ======
           SCMD1                   00007AA4 
    -------------------------------------------------------------------------
CONFIG_C
  Relative segment, address: CODE_AREA 00007AD0 - 00007AFB (0x2c bytes), align: 2
  Segment part 380. ROOT.
           ENTRY                   ADDRESS         REF BY
           =====                   =======         ======
           SCMD_1                  00007AD0 
    -------------------------------------------------------------------------
CONFIG_C
  Relative segment, address: CODE_AREA 00007AFC - 00007AFF (0x4 bytes), align: 2
  Segment part 381. ROOT.
           ENTRY                   ADDRESS         REF BY
           =====                   =======         ======
           CHMD_ENA                00007AFC        InitShow (main)
    -------------------------------------------------------------------------
CONFIG_C
  Relative segment, address: CODE_AREA 00007B00 - 00007B2B (0x2c bytes), align: 2
  Segment part 382. ROOT.
           ENTRY                   ADDRESS         REF BY
           =====                   =======         ======
           SCMD_2                  00007B00 
    -------------------------------------------------------------------------
CONFIG_C
  Relative segment, address: CODE_AREA 00007B2C - 00007B2F (0x4 bytes), align: 2
  Segment part 383. ROOT.
           ENTRY                   ADDRESS         REF BY
           =====                   =======         ======
           CHMD_X                  00007B2C        InitScreen (main)
    -------------------------------------------------------------------------
CONFIG_C
  Relative segment, address: CODE_AREA 00007B30 - 00007B33 (0x4 bytes), align: 2
  Segment part 384. ROOT.
           ENTRY                   ADDRESS         REF BY
           =====                   =======         ======
           CHMD_Y                  00007B30        InitScreen (main)
    -------------------------------------------------------------------------
CONFIG_C
  Relative segment, address: CODE_AREA 00007B34 - 00007B5F (0x2c bytes), align: 2
  Segment part 385. ROOT.
           ENTRY                   ADDRESS         REF BY
           =====                   =======         ======
           SCMD_7                  00007B34 
    -------------------------------------------------------------------------
CONFIG_C
  Relative segment, address: CODE_AREA 00007B60 - 00007B63 (0x4 bytes), align: 2
  Segment part 386. ROOT.
           ENTRY                   ADDRESS         REF BY
           =====                   =======         ======
           CHMD_T                  00007B60        InitShow (main)
    -------------------------------------------------------------------------
CONFIG_C
  Relative segment, address: CODE_AREA 00007B64 - 00007B8F (0x2c bytes), align: 2
  Segment part 387. ROOT.
           ENTRY                   ADDRESS         REF BY
           =====                   =======         ======
           SCMD0                   00007B64 
    -------------------------------------------------------------------------
CONFIG_C
  Relative segment, address: CODE_AREA 00007B90 - 00007BBB (0x2c bytes), align: 2
  Segment part 388. ROOT.
           ENTRY                   ADDRESS         REF BY
           =====                   =======         ======
           SCRA_3                  00007B90 
    -------------------------------------------------------------------------
CONFIG_C
  Relative segment, address: CODE_AREA 00007BBC - 00007BBF (0x4 bytes), align: 2
  Segment part 389. ROOT.
           ENTRY                   ADDRESS         REF BY
           =====                   =======         ======
           CHSY_CS                 00007BBC        InitShow (main)
    -------------------------------------------------------------------------
CONFIG_C
  Relative segment, address: CODE_AREA 00007BC0 - 00007BEB (0x2c bytes), align: 2
  Segment part 390. ROOT.
           ENTRY                   ADDRESS         REF BY
           =====                   =======         ======
           SCRA_4                  00007BC0 
    -------------------------------------------------------------------------
CONFIG_C
  Relative segment, address: CODE_AREA 00007BEC - 00007BEF (0x4 bytes), align: 2
  Segment part 391. ROOT.
           ENTRY                   ADDRESS         REF BY
           =====                   =======         ======
           CHSY_CB                 00007BEC        InitShow (main)
    -------------------------------------------------------------------------
CONFIG_C
  Relative segment, address: CODE_AREA 00007BF0 - 00007C1B (0x2c bytes), align: 2
  Segment part 392. ROOT.
           ENTRY                   ADDRESS         REF BY
           =====                   =======         ======
           CHSH_5                  00007BF0 
    -------------------------------------------------------------------------
CONFIG_C
  Relative segment, address: CODE_AREA 00007C1C - 00007C1F (0x4 bytes), align: 2
  Segment part 393. ROOT.
           ENTRY                   ADDRESS         REF BY
           =====                   =======         ======
           CHSY_FT                 00007C1C        InitShow (main)
    -------------------------------------------------------------------------
CONFIG_C
  Relative segment, address: CODE_AREA 00007C20 - 00007C4B (0x2c bytes), align: 2
  Segment part 394. ROOT.
           ENTRY                   ADDRESS         REF BY
           =====                   =======         ======
           NEW0                    00007C20 
    -------------------------------------------------------------------------
CONFIG_C
  Relative segment, address: CODE_AREA 00007C4C - 00007C77 (0x2c bytes), align: 2
  Segment part 395. ROOT.
           ENTRY                   ADDRESS         REF BY
           =====                   =======         ======
           BIR1                    00007C4C 
    -------------------------------------------------------------------------
CONFIG_C
  Relative segment, address: CODE_AREA 00007C78 - 00007CA3 (0x2c bytes), align: 2
  Segment part 396. ROOT.
           ENTRY                   ADDRESS         REF BY
           =====                   =======         ======
           NBIR1                   00007C78 
    -------------------------------------------------------------------------
CONFIG_C
  Relative segment, address: CODE_AREA 00007CA4 - 00007CCF (0x2c bytes), align: 2
  Segment part 397. ROOT.
           ENTRY                   ADDRESS         REF BY
           =====                   =======         ======
           NBIR_1                  00007CA4 
    -------------------------------------------------------------------------
CONFIG_C
  Relative segment, address: CODE_AREA 00007CD0 - 00007CD3 (0x4 bytes), align: 2
  Segment part 398. ROOT.
           ENTRY                   ADDRESS         REF BY
           =====                   =======         ======
           NBIR_ENA                00007CD0        InitShow (main)
    -------------------------------------------------------------------------
CONFIG_C
  Relative segment, address: CODE_AREA 00007CD4 - 00007CFF (0x2c bytes), align: 2
  Segment part 399. ROOT.
           ENTRY                   ADDRESS         REF BY
           =====                   =======         ======
           NBIR_2                  00007CD4 
    -------------------------------------------------------------------------
CONFIG_C
  Relative segment, address: CODE_AREA 00007D00 - 00007D03 (0x4 bytes), align: 2
  Segment part 400. ROOT.
           ENTRY                   ADDRESS         REF BY
           =====                   =======         ======
           NBIR_X                  00007D00        InitScreen (main)
    -------------------------------------------------------------------------
CONFIG_C
  Relative segment, address: CODE_AREA 00007D04 - 00007D07 (0x4 bytes), align: 2
  Segment part 401. ROOT.
           ENTRY                   ADDRESS         REF BY
           =====                   =======         ======
           NBIR_Y                  00007D04        InitScreen (main)
    -------------------------------------------------------------------------
CONFIG_C
  Relative segment, address: CODE_AREA 00007D08 - 00007D33 (0x2c bytes), align: 2
  Segment part 402. ROOT.
           ENTRY                   ADDRESS         REF BY
           =====                   =======         ======
           NBIR_3                  00007D08 
    -------------------------------------------------------------------------
CONFIG_C
  Relative segment, address: CODE_AREA 00007D34 - 00007D37 (0x4 bytes), align: 2
  Segment part 403. ROOT.
           ENTRY                   ADDRESS         REF BY
           =====                   =======         ======
           NBIR_CS                 00007D34        InitShow (main)
    -------------------------------------------------------------------------
CONFIG_C
  Relative segment, address: CODE_AREA 00007D38 - 00007D63 (0x2c bytes), align: 2
  Segment part 404. ROOT.
           ENTRY                   ADDRESS         REF BY
           =====                   =======         ======
           NBIR_4                  00007D38 
    -------------------------------------------------------------------------
CONFIG_C
  Relative segment, address: CODE_AREA 00007D64 - 00007D67 (0x4 bytes), align: 2
  Segment part 405. ROOT.
           ENTRY                   ADDRESS         REF BY
           =====                   =======         ======
           NBIR_CB                 00007D64        InitShow (main)
    -------------------------------------------------------------------------
CONFIG_C
  Relative segment, address: CODE_AREA 00007D68 - 00007D93 (0x2c bytes), align: 2
  Segment part 406. ROOT.
           ENTRY                   ADDRESS         REF BY
           =====                   =======         ======
           NBIR_7                  00007D68 
    -------------------------------------------------------------------------
CONFIG_C
  Relative segment, address: CODE_AREA 00007D94 - 00007D97 (0x4 bytes), align: 2
  Segment part 407. ROOT.
           ENTRY                   ADDRESS         REF BY
           =====                   =======         ======
           NBIR_T                  00007D94        InitShow (main)
    -------------------------------------------------------------------------
CONFIG_C
  Relative segment, address: CODE_AREA 00007D98 - 00007DC3 (0x2c bytes), align: 2
  Segment part 408. ROOT.
           ENTRY                   ADDRESS         REF BY
           =====                   =======         ======
           NBIR_5                  00007D98 
    -------------------------------------------------------------------------
CONFIG_C
  Relative segment, address: CODE_AREA 00007DC4 - 00007DC7 (0x4 bytes), align: 2
  Segment part 409. ROOT.
           ENTRY                   ADDRESS         REF BY
           =====                   =======         ======
           NBIR_FT                 00007DC4        InitShow (main)
    -------------------------------------------------------------------------
CONFIG_C
  Relative segment, address: CODE_AREA 00007DC8 - 00007DF3 (0x2c bytes), align: 2
  Segment part 410. ROOT.
           ENTRY                   ADDRESS         REF BY
           =====                   =======         ======
           NBIR0                   00007DC8 
    -------------------------------------------------------------------------
CONFIG_C
  Relative segment, address: CODE_AREA 00007DF4 - 00007E1F (0x2c bytes), align: 2
  Segment part 411. ROOT.
           ENTRY                   ADDRESS         REF BY
           =====                   =======         ======
           OBIR1                   00007DF4 
    -------------------------------------------------------------------------
CONFIG_C
  Relative segment, address: CODE_AREA 00007E20 - 00007E4B (0x2c bytes), align: 2
  Segment part 412. ROOT.
           ENTRY                   ADDRESS         REF BY
           =====                   =======         ======
           OBIR_1                  00007E20 
    -------------------------------------------------------------------------
CONFIG_C
  Relative segment, address: CODE_AREA 00007E4C - 00007E4F (0x4 bytes), align: 2
  Segment part 413. ROOT.
           ENTRY                   ADDRESS         REF BY
           =====                   =======         ======
           OBIR_ENA                00007E4C        InitShow (main)
    -------------------------------------------------------------------------
CONFIG_C
  Relative segment, address: CODE_AREA 00007E50 - 00007E7B (0x2c bytes), align: 2
  Segment part 414. ROOT.
           ENTRY                   ADDRESS         REF BY
           =====                   =======         ======
           OBIR_2                  00007E50 
    -------------------------------------------------------------------------
CONFIG_C
  Relative segment, address: CODE_AREA 00007E7C - 00007E7F (0x4 bytes), align: 2
  Segment part 415. ROOT.
           ENTRY                   ADDRESS         REF BY
           =====                   =======         ======
           OBIR_X                  00007E7C        InitScreen (main)
    -------------------------------------------------------------------------
CONFIG_C
  Relative segment, address: CODE_AREA 00007E80 - 00007E83 (0x4 bytes), align: 2
  Segment part 416. ROOT.
           ENTRY                   ADDRESS         REF BY
           =====                   =======         ======
           OBIR_Y                  00007E80        InitScreen (main)
    -------------------------------------------------------------------------
CONFIG_C
  Relative segment, address: CODE_AREA 00007E84 - 00007EAF (0x2c bytes), align: 2
  Segment part 417. ROOT.
           ENTRY                   ADDRESS         REF BY
           =====                   =======         ======
           OBIR_3                  00007E84 
    -------------------------------------------------------------------------
CONFIG_C
  Relative segment, address: CODE_AREA 00007EB0 - 00007EB3 (0x4 bytes), align: 2
  Segment part 418. ROOT.
           ENTRY                   ADDRESS         REF BY
           =====                   =======         ======
           OBIR_CS                 00007EB0        InitShow (main)
    -------------------------------------------------------------------------
CONFIG_C
  Relative segment, address: CODE_AREA 00007EB4 - 00007EDF (0x2c bytes), align: 2
  Segment part 419. ROOT.
           ENTRY                   ADDRESS         REF BY
           =====                   =======         ======
           OBIR_4                  00007EB4 
    -------------------------------------------------------------------------
CONFIG_C
  Relative segment, address: CODE_AREA 00007EE0 - 00007EE3 (0x4 bytes), align: 2
  Segment part 420. ROOT.
           ENTRY                   ADDRESS         REF BY
           =====                   =======         ======
           OBIR_CB                 00007EE0        InitShow (main)
    -------------------------------------------------------------------------
CONFIG_C
  Relative segment, address: CODE_AREA 00007EE4 - 00007F0F (0x2c bytes), align: 2
  Segment part 421. ROOT.
           ENTRY                   ADDRESS         REF BY
           =====                   =======         ======
           OBIR_7                  00007EE4 
    -------------------------------------------------------------------------
CONFIG_C
  Relative segment, address: CODE_AREA 00007F10 - 00007F13 (0x4 bytes), align: 2
  Segment part 422. ROOT.
           ENTRY                   ADDRESS         REF BY
           =====                   =======         ======
           OBIR_T                  00007F10        InitShow (main)
    -------------------------------------------------------------------------
CONFIG_C
  Relative segment, address: CODE_AREA 00007F14 - 00007F3F (0x2c bytes), align: 2
  Segment part 423. ROOT.
           ENTRY                   ADDRESS         REF BY
           =====                   =======         ======
           OBIR_5                  00007F14 
    -------------------------------------------------------------------------
CONFIG_C
  Relative segment, address: CODE_AREA 00007F40 - 00007F43 (0x4 bytes), align: 2
  Segment part 424. ROOT.
           ENTRY                   ADDRESS         REF BY
           =====                   =======         ======
           OBIR_FT                 00007F40        InitShow (main)
    -------------------------------------------------------------------------
CONFIG_C
  Relative segment, address: CODE_AREA 00007F44 - 00007F6F (0x2c bytes), align: 2
  Segment part 425. ROOT.
           ENTRY                   ADDRESS         REF BY
           =====                   =======         ======
           mOBIR0                  00007F44 
    -------------------------------------------------------------------------
CONFIG_C
  Relative segment, address: CODE_AREA 00007F70 - 00007F9B (0x2c bytes), align: 2
  Segment part 426. ROOT.
           ENTRY                   ADDRESS         REF BY
           =====                   =======         ======
           BIRFILE                 00007F70 
    -------------------------------------------------------------------------
CONFIG_C
  Relative segment, address: CODE_AREA 00007F9C - 00007FCF (0x34 bytes), align: 2
  Segment part 427. ROOT.
           ENTRY                   ADDRESS         REF BY
           =====                   =======         ======
           BIRS_FILE               00007F9C        Segment part 124 (main)
    -------------------------------------------------------------------------
CONFIG_C
  Relative segment, address: CODE_AREA 00007FD0 - 00007FFB (0x2c bytes), align: 2
  Segment part 428. ROOT.
           ENTRY                   ADDRESS         REF BY
           =====                   =======         ======
           BIR0                    00007FD0 
    -------------------------------------------------------------------------
CONFIG_C
  Relative segment, address: CODE_AREA 00007FFC - 00008027 (0x2c bytes), align: 2
  Segment part 429. ROOT.
           ENTRY                   ADDRESS         REF BY
           =====                   =======         ======
           ALRM1                   00007FFC 
    -------------------------------------------------------------------------
CONFIG_C
  Relative segment, address: CODE_AREA 00008028 - 00008053 (0x2c bytes), align: 2
  Segment part 430. ROOT.
           ENTRY                   ADDRESS         REF BY
           =====                   =======         ======
           ALRM_1                  00008028 
    -------------------------------------------------------------------------
CONFIG_C
  Relative segment, address: CODE_AREA 00008054 - 00008057 (0x4 bytes), align: 2
  Segment part 431. ROOT.
           ENTRY                   ADDRESS         REF BY
           =====                   =======         ======
           ALRM_ENA                00008054        Segment part 121 (main)
                                                   Segment part 73 (main)
    -------------------------------------------------------------------------
CONFIG_C
  Relative segment, address: CODE_AREA 00008058 - 00008083 (0x2c bytes), align: 2
  Segment part 432. ROOT.
           ENTRY                   ADDRESS         REF BY
           =====                   =======         ======
           ALRM_2                  00008058 
    -------------------------------------------------------------------------
CONFIG_C
  Relative segment, address: CODE_AREA 00008084 - 00008087 (0x4 bytes), align: 2
  Segment part 433. ROOT.
           ENTRY                   ADDRESS         REF BY
           =====                   =======         ======
           ALRV_ENA                00008084        DrawGUI (main)
    -------------------------------------------------------------------------
CONFIG_C
  Relative segment, address: CODE_AREA 00008088 - 000080B3 (0x2c bytes), align: 2
  Segment part 434. ROOT.
           ENTRY                   ADDRESS         REF BY
           =====                   =======         ======
           ALRM_3                  00008088 
    -------------------------------------------------------------------------
CONFIG_C
  Relative segment, address: CODE_AREA 000080B4 - 000080B7 (0x4 bytes), align: 2
  Segment part 435. ROOT.
           ENTRY                   ADDRESS         REF BY
           =====                   =======         ======
           ALIU_ENA                000080B4        DrawGUI (main)
    -------------------------------------------------------------------------
CONFIG_C
  Relative segment, address: CODE_AREA 000080B8 - 000080E3 (0x2c bytes), align: 2
  Segment part 436. ROOT.
           ENTRY                   ADDRESS         REF BY
           =====                   =======         ======
           ALRM_4                  000080B8 
    -------------------------------------------------------------------------
CONFIG_C
  Relative segment, address: CODE_AREA 000080E4 - 000080E7 (0x4 bytes), align: 2
  Segment part 437. ROOT.
           ENTRY                   ADDRESS         REF BY
           =====                   =======         ======
           ALRM_CBK                000080E4        DrawGUI (main)
    -------------------------------------------------------------------------
CONFIG_C
  Relative segment, address: CODE_AREA 000080E8 - 00008113 (0x2c bytes), align: 2
  Segment part 438. ROOT.
           ENTRY                   ADDRESS         REF BY
           =====                   =======         ======
           ALRM_5                  000080E8 
    -------------------------------------------------------------------------
CONFIG_C
  Relative segment, address: CODE_AREA 00008114 - 00008117 (0x4 bytes), align: 2
  Segment part 439. ROOT.
           ENTRY                   ADDRESS         REF BY
           =====                   =======         ======
           ALRM_CTX                00008114        DrawGUI (main)
    -------------------------------------------------------------------------
CONFIG_C
  Relative segment, address: CODE_AREA 00008118 - 00008143 (0x2c bytes), align: 2
  Segment part 440. ROOT.
           ENTRY                   ADDRESS         REF BY
           =====                   =======         ======
           ALRM_6                  00008118 
    -------------------------------------------------------------------------
CONFIG_C
  Relative segment, address: CODE_AREA 00008144 - 00008147 (0x4 bytes), align: 2
  Segment part 441. ROOT.
           ENTRY                   ADDRESS         REF BY
           =====                   =======         ======
           ALRM_FT                 00008144        DrawGUI (main)
    -------------------------------------------------------------------------
CONFIG_C
  Relative segment, address: CODE_AREA 00008148 - 00008173 (0x2c bytes), align: 2
  Segment part 442. ROOT.
           ENTRY                   ADDRESS         REF BY
           =====                   =======         ======
           ALRM_7                  00008148 
    -------------------------------------------------------------------------
CONFIG_C
  Relative segment, address: CODE_AREA 00008174 - 00008177 (0x4 bytes), align: 2
  Segment part 443. ROOT.
           ENTRY                   ADDRESS         REF BY
           =====                   =======         ======
           ALRM_NUM                00008174        TaskCreate (main)
    -------------------------------------------------------------------------
CONFIG_C
  Relative segment, address: CODE_AREA 00008178 - 000081A3 (0x2c bytes), align: 2
  Segment part 444. ROOT.
           ENTRY                   ADDRESS         REF BY
           =====                   =======         ======
           ALRM_8                  00008178 
    -------------------------------------------------------------------------
CONFIG_C
  Relative segment, address: CODE_AREA 000081A4 - 000081A7 (0x4 bytes), align: 2
  Segment part 445. ROOT.
           ENTRY                   ADDRESS         REF BY
           =====                   =======         ======
           ALRM_VOL                000081A4        TaskCreate (main)
    -------------------------------------------------------------------------
CONFIG_C
  Relative segment, address: CODE_AREA 000081A8 - 000081D3 (0x2c bytes), align: 2
  Segment part 446. ROOT.
           ENTRY                   ADDRESS         REF BY
           =====                   =======         ======
           ALRM_9                  000081A8 
    -------------------------------------------------------------------------
CONFIG_C
  Relative segment, address: CODE_AREA 000081D4 - 000081D7 (0x4 bytes), align: 2
  Segment part 447. ROOT.
           ENTRY                   ADDRESS         REF BY
           =====                   =======         ======
           ALRM_VIB                000081D4        DrawGUI (main)
    -------------------------------------------------------------------------
CONFIG_C
  Relative segment, address: CODE_AREA 000081D8 - 00008203 (0x2c bytes), align: 2
  Segment part 448. ROOT.
           ENTRY                   ADDRESS         REF BY
           =====                   =======         ======
           ALRM_A                  000081D8 
    -------------------------------------------------------------------------
CONFIG_C
  Relative segment, address: CODE_AREA 00008204 - 00008207 (0x4 bytes), align: 2
  Segment part 449. ROOT.
           ENTRY                   ADDRESS         REF BY
           =====                   =======         ======
           ALRM_COT                00008204        DrawGUI (main)
    -------------------------------------------------------------------------
CONFIG_C
  Relative segment, address: CODE_AREA 00008208 - 00008233 (0x2c bytes), align: 2
  Segment part 450. ROOT.
           ENTRY                   ADDRESS         REF BY
           =====                   =======         ======
           RINFILE                 00008208 
    -------------------------------------------------------------------------
CONFIG_C
  Relative segment, address: CODE_AREA 00008234 - 00008267 (0x34 bytes), align: 2
  Segment part 451. ROOT.
           ENTRY                   ADDRESS         REF BY
           =====                   =======         ======
           ALRM_FILE               00008234        TaskCreate (main)
    -------------------------------------------------------------------------
CONFIG_C
  Relative segment, address: CODE_AREA 00008268 - 00008293 (0x2c bytes), align: 2
  Segment part 452. ROOT.
           ENTRY                   ADDRESS         REF BY
           =====                   =======         ======
           RINPIC                  00008268 
    -------------------------------------------------------------------------
CONFIG_C
  Relative segment, address: CODE_AREA 00008294 - 000082C7 (0x34 bytes), align: 2
  Segment part 453. ROOT.
           ENTRY                   ADDRESS         REF BY
           =====                   =======         ======
           ALRM_PIC                00008294        DrawGUI (main)
    -------------------------------------------------------------------------
CONFIG_C
  Relative segment, address: CODE_AREA 000082C8 - 000082F3 (0x2c bytes), align: 2
  Segment part 454. ROOT.
           ENTRY                   ADDRESS         REF BY
           =====                   =======         ======
           ALRM0                   000082C8 
    -------------------------------------------------------------------------
CONFIG_C
  Relative segment, address: CODE_AREA 000082F4 - 0000831F (0x2c bytes), align: 2
  Segment part 455. ROOT.
           ENTRY                   ADDRESS         REF BY
           =====                   =======         ======
           SHUT1                   000082F4 
    -------------------------------------------------------------------------
CONFIG_C
  Relative segment, address: CODE_AREA 00008320 - 0000834B (0x2c bytes), align: 2
  Segment part 456. ROOT.
           ENTRY                   ADDRESS         REF BY
           =====                   =======         ======
           SHUT_1                  00008320 
    -------------------------------------------------------------------------
CONFIG_C
  Relative segment, address: CODE_AREA 0000834C - 0000834F (0x4 bytes), align: 2
  Segment part 457. ROOT.
           ENTRY                   ADDRESS         REF BY
           =====                   =======         ======
           SHUT_ENA                0000834C        DaemonOnMessage (main)
    -------------------------------------------------------------------------
CONFIG_C
  Relative segment, address: CODE_AREA 00008350 - 0000837B (0x2c bytes), align: 2
  Segment part 458. ROOT.
           ENTRY                   ADDRESS         REF BY
           =====                   =======         ======
           SHUT_2                  00008350 
    -------------------------------------------------------------------------
CONFIG_C
  Relative segment, address: CODE_AREA 0000837C - 00008383 (0x8 bytes), align: 2
  Segment part 459. ROOT.
           ENTRY                   ADDRESS         REF BY
           =====                   =======         ======
           SHUT_TIME               0000837C        DaemonOnMessage (main)
    -------------------------------------------------------------------------
CONFIG_C
  Relative segment, address: CODE_AREA 00008384 - 000083AF (0x2c bytes), align: 2
  Segment part 460. ROOT.
           ENTRY                   ADDRESS         REF BY
           =====                   =======         ======
           SHUT0                   00008384 
    -------------------------------------------------------------------------
CONFIG_C
  Relative segment, address: CODE_AREA 000083B0 - 000083DB (0x2c bytes), align: 2
  Segment part 461. ROOT.
           ENTRY                   ADDRESS         REF BY
           =====                   =======         ======
           ROOT1                   000083B0 
    -------------------------------------------------------------------------
CONFIG_C
  Relative segment, address: CODE_AREA 000083DC - 00008407 (0x2c bytes), align: 2
  Segment part 462. ROOT.
           ENTRY                   ADDRESS         REF BY
           =====                   =======         ======
           ROOT_1                  000083DC 
    -------------------------------------------------------------------------
CONFIG_C
  Relative segment, address: CODE_AREA 00008408 - 0000840B (0x4 bytes), align: 2
  Segment part 463. ROOT.
           ENTRY                   ADDRESS         REF BY
           =====                   =======         ======
           ROOT_ENA                00008408        DaemonOnMessage (main)
    -------------------------------------------------------------------------
CONFIG_C
  Relative segment, address: CODE_AREA 0000840C - 00008437 (0x2c bytes), align: 2
  Segment part 464. ROOT.
           ENTRY                   ADDRESS         REF BY
           =====                   =======         ======
           ROOT_2                  0000840C 
    -------------------------------------------------------------------------
CONFIG_C
  Relative segment, address: CODE_AREA 00008438 - 0000843F (0x8 bytes), align: 2
  Segment part 465. ROOT.
           ENTRY                   ADDRESS         REF BY
           =====                   =======         ======
           ROOT_TIME               00008438        DaemonOnMessage (main)
    -------------------------------------------------------------------------
CONFIG_C
  Relative segment, address: CODE_AREA 00008440 - 0000846B (0x2c bytes), align: 2
  Segment part 466. ROOT.
           ENTRY                   ADDRESS         REF BY
           =====                   =======         ======
           ROOT0                   00008440 
    -------------------------------------------------------------------------
CSTACK
  Segment part 1. NOT NEEDED.

    *************************************************************************

  FILE NAME : D:\SVN\SieELF\SieELF\ScrTool2\Release_NEWSGOLD\Obj\func.r79
  PROGRAM MODULE, NAME : func

  SEGMENTS IN THE MODULE
  ======================
ELFBEGIN
  Relative segment, address: CODE_AREA 00000000, align: 0
  Segment part 0. ROOT.
           ENTRY                   ADDRESS         REF BY
           =====                   =======         ======
           ELF_BEGIN               00000000        Destructor (main)
    -------------------------------------------------------------------------
CODE
  Relative segment, address: CODE_AREA 00000418 - 0000041F (0x8 bytes), align: 2
  Segment part 1. ROOT.
           ENTRY                   ADDRESS         REF BY
           =====                   =======         ======
           kill_data               00000418        Canvas (main)
                                                   Destructor (main)
           seqkill                 0000041C 

    *************************************************************************

  FILE NAME : D:\SVN\SieELF\SieELF\ScrTool2\Release_NEWSGOLD\Obj\main.r79
  PROGRAM MODULE, NAME : main

  SEGMENTS IN THE MODULE
  ======================
CODE
  Segment part 38. NOT NEEDED.
    -------------------------------------------------------------------------
CODE
  Relative segment, address: CODE_AREA 00000420 - 0000046F (0x50 bytes), align: 2
  Segment part 39.            Intra module refs:   DoIt
                                                   MENU_ONKEY
           LOCAL                   ADDRESS         
           =====                   =======         
           RunAPP                  00000420 
               stack 1 = 00000000 ( 0000000C )
    -------------------------------------------------------------------------
CODE
  Segment part 40. NOT NEEDED.
    -------------------------------------------------------------------------
CODE
  Relative segment, address: CODE_AREA 00000470 - 000005DF (0x170 bytes), align: 2
  Segment part 41.            Intra module refs:   GetLunar
                                                   InitScreen
           LOCAL                   ADDRESS         
           =====                   =======         
           GetLDate                00000470 
               stack 1 = 00000000 ( 00000028 )
    -------------------------------------------------------------------------
CODE
  Segment part 42. NOT NEEDED.
    -------------------------------------------------------------------------
DATA_Z
  Relative segment, address: CODE_AREA 00004444 - 0000444B (0x8 bytes), align: 2
  Segment part 19.            Intra module refs:   GetLDate
    -------------------------------------------------------------------------
CODE
  Relative segment, address: CODE_AREA 000005E0 - 00000BEB (0x60c bytes), align: 2
  Segment part 43.            Intra module refs:   InitScreen
           LOCAL                   ADDRESS         
           =====                   =======         
           GetLunar                000005E0 
               stack 1 = 00000000 ( 00000084 )
    -------------------------------------------------------------------------
CODE
  Segment part 44. NOT NEEDED.
    -------------------------------------------------------------------------
CODE
  Relative segment, address: CODE_AREA 00000BEC - 00000C3F (0x54 bytes), align: 2
  Segment part 45.            Intra module refs:   DrawGUI
                                                   FillScreen
           LOCAL                   ADDRESS         
           =====                   =======         
           PixlsWidth              00000BEC 
               stack 1 = 00000000 ( 00000014 )
    -------------------------------------------------------------------------
CODE
  Segment part 46. NOT NEEDED.
    -------------------------------------------------------------------------
CODE
  Relative segment, address: CODE_AREA 00000C40 - 00000C8B (0x4c bytes), align: 2
  Segment part 47.            Intra module refs:   DaemonOnMessage
                                                   FindBCFGFile
           LOCAL                   ADDRESS         
           =====                   =======         
           strcmp_nocase           00000C40 
    -------------------------------------------------------------------------
CODE
  Segment part 48. NOT NEEDED.
    -------------------------------------------------------------------------
CODE
  Relative segment, address: CODE_AREA 00000C8C - 00000DAB (0x120 bytes), align: 2
  Segment part 49.            Intra module refs:   TaskCreate
           LOCAL                   ADDRESS         
           =====                   =======         
           PlayMusic               00000C8C 
               stack 1 = 00000000 ( 000000F4 )
    -------------------------------------------------------------------------
CODE
  Segment part 50. NOT NEEDED.
    -------------------------------------------------------------------------
CODE
  Relative segment, address: CODE_AREA 00000DAC - 00000E2B (0x80 bytes), align: 2
  Segment part 51.            Intra module refs:   DaemonOnMessage
                                                   InitScreen
           LOCAL                   ADDRESS         
           =====                   =======         
           MidStr                  00000DAC 
               stack 1 = 00000000 ( 00000118 )
    -------------------------------------------------------------------------
CODE
  Segment part 52. NOT NEEDED.
    -------------------------------------------------------------------------
DATA_Z
  Relative segment, address: CODE_AREA 0000444C - 0000448B (0x40 bytes), align: 2
  Segment part 22.            Intra module refs:   Segment part 2
    -------------------------------------------------------------------------
DATA_Z
  Relative segment, address: CODE_AREA 0000448C - 000045CB (0x140 bytes), align: 2
  Segment part 27.            Intra module refs:   FindBCFGFile
                                                   Segment part 112
                                                   Segment part 30
                                                   Segment part 78
    -------------------------------------------------------------------------
DATA_Z
  Relative segment, address: CODE_AREA 000045CC - 000045CD (0x2 bytes), align: 1
  Segment part 28.            Intra module refs:   Segment part 85
    -------------------------------------------------------------------------
DATA_I
  Relative segment, address: DATA_AREA 00000004 - 0000027B (0x278 bytes), align: 2
  Segment part 23.            Intra module refs:   DoIt
                                                   Segment part 130
                                                   Segment part 133
                                                   Segment part 58
                                                   Segment part 69
                                                   Segment part 92
                                                   TaskRedraw
           ENTRY                   ADDRESS         REF BY
           =====                   =======         ======
           OICSMOnClose            00000208 
    -------------------------------------------------------------------------
DATA_I
  Relative segment, address: DATA_AREA 0000027C - 00000287 (0xc bytes), align: 2
  Segment part 25.            Intra module refs:   DaemonKeyHook
    -------------------------------------------------------------------------
CODE
  Relative segment, address: CODE_AREA 00000E2C - 00000E7F (0x54 bytes), align: 2
  Segment part 53.            Intra module refs:   Segment part 30
           LOCAL                   ADDRESS         
           =====                   =======         
           MENU_HOOK               00000E2C 
               stack 1 = 00000000 ( 00000010 )
    -------------------------------------------------------------------------
CODE
  Segment part 54. NOT NEEDED.
    -------------------------------------------------------------------------
CODE
  Relative segment, address: CODE_AREA 00000E80 - 00000F5F (0xe0 bytes), align: 2
  Segment part 55.            Intra module refs:   Segment part 30
           LOCAL                   ADDRESS         
           =====                   =======         
           MENU_DRAW               00000E80 
               stack 1 = 00000000 ( 0000001C )
    -------------------------------------------------------------------------
CODE
  Segment part 56. NOT NEEDED.
    -------------------------------------------------------------------------
DATA_I
  Relative segment, address: DATA_AREA 00000288 - 000002C7 (0x40 bytes), align: 2
  Segment part 29.            Intra module refs:   TaskOnCreate
           ENTRY                   ADDRESS         REF BY
           =====                   =======         ======
           MENU_HDR                00000288 
           MENU_STRUCT             0000029C 
    -------------------------------------------------------------------------
DATA_I
  Relative segment, address: DATA_AREA 000002C8 - 000002D3 (0xc bytes), align: 2
  Segment part 31.            Intra module refs:   Segment part 30
    -------------------------------------------------------------------------
DATA_I
  Relative segment, address: DATA_AREA 000002D4 - 000002EB (0x18 bytes), align: 2
  Segment part 33.            Intra module refs:   Segment part 36
           ENTRY                   ADDRESS         REF BY
           =====                   =======         ======
           MENU_PRESS              000002D4 
    -------------------------------------------------------------------------
DATA_I
  Relative segment, address: DATA_AREA 000002EC - 000002F3 (0x8 bytes), align: 2
  Segment part 35.            Intra module refs:   Segment part 30
           ENTRY                   ADDRESS         REF BY
           =====                   =======         ======
           MENU_TAB                000002EC 
    -------------------------------------------------------------------------
CODE
  Relative segment, address: CODE_AREA 00000F60 - 00001003 (0xa4 bytes), align: 2
  Segment part 57.            Intra module refs:   Segment part 30
           LOCAL                   ADDRESS         
           =====                   =======         
           MENU_ONKEY              00000F60 
               stack 1 = 00000000 ( 00000018 )
    -------------------------------------------------------------------------
CODE
  Relative segment, address: CODE_AREA 00001004 - 00001007 (0x4 bytes), align: 2
  Segment part 58.            Intra module refs:   MENU_ONKEY
    -------------------------------------------------------------------------
CODE
  Segment part 59. NOT NEEDED.
    -------------------------------------------------------------------------
CODE
  Relative segment, address: CODE_AREA 00001008 - 000011AF (0x1a8 bytes), align: 2
  Segment part 60.            Intra module refs:   TaskOnCreate
           LOCAL                   ADDRESS         
           =====                   =======         
           FindBCFGFile            00001008 
               stack 1 = 00000000 ( 000003E4 )
    -------------------------------------------------------------------------
CODE
  Segment part 61. NOT NEEDED.
    -------------------------------------------------------------------------
CODE
  Relative segment, address: CODE_AREA 000011B0 - 0000126B (0xbc bytes), align: 2
  Segment part 62.            Intra module refs:   InitShow
           LOCAL                   ADDRESS         
           =====                   =======         
           SetIDS                  000011B0 
               stack 1 = 00000000 ( 0000000C )
    -------------------------------------------------------------------------
CODE
  Segment part 63. NOT NEEDED.
    -------------------------------------------------------------------------
CODE
  Relative segment, address: CODE_AREA 0000126C - 00001713 (0x4a8 bytes), align: 2
  Segment part 64.            Intra module refs:   DaemonInit
                                                   DaemonOnMessage
           LOCAL                   ADDRESS         
           =====                   =======         
           InitShow                0000126C 
               stack 1 = 00000000 ( 0000003C )
    -------------------------------------------------------------------------
CODE
  Segment part 65. NOT NEEDED.
    -------------------------------------------------------------------------
CODE
  Relative segment, address: CODE_AREA 00001714 - 000017AF (0x9c bytes), align: 2
  Segment part 66.            Intra module refs:   InitScreen
           LOCAL                   ADDRESS         
           =====                   =======         
           FillScreen              00001714 
               stack 1 = 00000000 ( 00000018 )
    -------------------------------------------------------------------------
CODE
  Segment part 67. NOT NEEDED.
    -------------------------------------------------------------------------
CODE
  Relative segment, address: CODE_AREA 000017B0 - 0000203B (0x88c bytes), align: 2
  Segment part 68.            Intra module refs:   DaemonOnMessage
           LOCAL                   ADDRESS         
           =====                   =======         
           InitScreen              000017B0 
               stack 1 = 00000000 ( 0000008C )
    -------------------------------------------------------------------------
CODE
  Relative segment, address: CODE_AREA 0000203C - 0000203F (0x4 bytes), align: 2
  Segment part 69.            Intra module refs:   InitScreen
                                                   InitShow
    -------------------------------------------------------------------------
CODE
  Relative segment, address: CODE_AREA 00002040 - 00002043 (0x4 bytes), align: 2
  Segment part 70.            Intra module refs:   InitScreen
    -------------------------------------------------------------------------
CODE
  Segment part 71. NOT NEEDED.
    -------------------------------------------------------------------------
CODE
  Relative segment, address: CODE_AREA 00002044 - 000029CB (0x988 bytes), align: 2
  Segment part 72.            Intra module refs:   TaskRedraw
           LOCAL                   ADDRESS         
           =====                   =======         
           DrawGUI                 00002044 
               stack 1 = 00000000 ( 000000B8 )
    -------------------------------------------------------------------------
CODE
  Relative segment, address: CODE_AREA 000029CC - 000029CF (0x4 bytes), align: 2
  Segment part 73.            Intra module refs:   DrawGUI
    -------------------------------------------------------------------------
CODE
  Segment part 74. NOT NEEDED.
    -------------------------------------------------------------------------
CODE
  Relative segment, address: CODE_AREA 000029D0 - 000029EF (0x20 bytes), align: 2
  Segment part 75.            Intra module refs:   Canvas
           LOCAL                   ADDRESS         
           =====                   =======         
           TaskRedraw              000029D0 
               stack 1 = 00000000 ( 00000004 )
    -------------------------------------------------------------------------
CODE
  Segment part 76. NOT NEEDED.
    -------------------------------------------------------------------------
CODE
  Relative segment, address: CODE_AREA 000029F0 - 00002A37 (0x48 bytes), align: 2
  Segment part 77.            Intra module refs:   InitMenu
           LOCAL                   ADDRESS         
           =====                   =======         
           APP_TRAF                000029F0 
               stack 1 = 00000000 ( 00000008 )
    -------------------------------------------------------------------------
CODE
  Relative segment, address: CODE_AREA 00002A38 - 00002A3B (0x4 bytes), align: 2
  Segment part 78.            Intra module refs:   APP_TRAF
                                                   DrawGUI
    -------------------------------------------------------------------------
CODE
  Segment part 79. NOT NEEDED.
    -------------------------------------------------------------------------
CODE
  Relative segment, address: CODE_AREA 00002A3C - 00002CC7 (0x28c bytes), align: 2
  Segment part 80.            Intra module refs:   TaskCreate
           LOCAL                   ADDRESS         
           =====                   =======         
           InitMenu                00002A3C 
               stack 1 = 00000000 ( 00000014 )
    -------------------------------------------------------------------------
CODE
  Segment part 81. NOT NEEDED.
    -------------------------------------------------------------------------
CODE
  Relative segment, address: CODE_AREA 00002CC8 - 00002D53 (0x8c bytes), align: 2
  Segment part 82.            Intra module refs:   Canvas
           LOCAL                   ADDRESS         
           =====                   =======         
           TaskCreate              00002CC8 
               stack 1 = 00000000 ( 00000014 )
    -------------------------------------------------------------------------
CODE
  Segment part 83. NOT NEEDED.
    -------------------------------------------------------------------------
CODE
  Relative segment, address: CODE_AREA 00002D54 - 00002DBB (0x68 bytes), align: 2
  Segment part 84.            Intra module refs:   Canvas
           LOCAL                   ADDRESS         
           =====                   =======         
           TaskClose               00002D54 
               stack 1 = 00000000 ( 00000010 )
    -------------------------------------------------------------------------
CODE
  Relative segment, address: CODE_AREA 00002DBC - 00002DBF (0x4 bytes), align: 2
  Segment part 85.            Intra module refs:   TaskClose
                                                   TaskCreate
    -------------------------------------------------------------------------
CODE
  Segment part 86. NOT NEEDED.
    -------------------------------------------------------------------------
CODE
  Relative segment, address: CODE_AREA 00002DC0 - 00002DCB (0xc bytes), align: 2
  Segment part 87.            Intra module refs:   Canvas
           LOCAL                   ADDRESS         
           =====                   =======         
           TaskFocus               00002DC0 
    -------------------------------------------------------------------------
CODE
  Segment part 88. NOT NEEDED.
    -------------------------------------------------------------------------
CODE
  Relative segment, address: CODE_AREA 00002DCC - 00002DDF (0x14 bytes), align: 2
  Segment part 89.            Intra module refs:   Canvas
           LOCAL                   ADDRESS         
           =====                   =======         
           TaskUnfus               00002DCC 
    -------------------------------------------------------------------------
CODE
  Segment part 90. NOT NEEDED.
    -------------------------------------------------------------------------
CODE
  Relative segment, address: CODE_AREA 00002DE0 - 00002F13 (0x134 bytes), align: 2
  Segment part 91.            Intra module refs:   Canvas
           LOCAL                   ADDRESS         
           =====                   =======         
           TaskKeypress            00002DE0 
               stack 1 = 00000000 ( 00000004 )
    -------------------------------------------------------------------------
CODE
  Relative segment, address: CODE_AREA 00002F14 - 00002F17 (0x4 bytes), align: 2
  Segment part 92.            Intra module refs:   APP_TRAF
                                                   DrawGUI
                                                   InitMenu
                                                   TaskClose
                                                   TaskCreate
                                                   TaskKeypress
    -------------------------------------------------------------------------
CODE
  Relative segment, address: CODE_AREA 00002F18 - 00002F1B (0x4 bytes), align: 2
  Segment part 93.            Intra module refs:   DrawGUI
                                                   TaskKeypress
    -------------------------------------------------------------------------
CODE
  Segment part 94. NOT NEEDED.
    -------------------------------------------------------------------------
CODE
  Relative segment, address: CODE_AREA 00002F1C - 00002F1F (0x4 bytes), align: 2
  Segment part 95.            Intra module refs:   Canvas
           LOCAL                   ADDRESS         
           =====                   =======         
           TaskMethod8             00002F1C 
    -------------------------------------------------------------------------
CODE
  Segment part 96. NOT NEEDED.
    -------------------------------------------------------------------------
CODE
  Relative segment, address: CODE_AREA 00002F20, align: 2
  Segment part 97.            Intra module refs:   Canvas
           LOCAL                   ADDRESS         
           =====                   =======         
           TaskMethod9             00002F20 
    -------------------------------------------------------------------------
CODE
  Relative segment, address: CODE_AREA 00002F20 - 00002F27 (0x8 bytes), align: 2
  Segment part 98.            Intra module refs:   TaskMethod8
                                                   TaskMethod9
    -------------------------------------------------------------------------
CODE
  Segment part 99. NOT NEEDED.
    -------------------------------------------------------------------------
CODE
  Relative segment, address: CODE_AREA 00002F28 - 00003013 (0xec bytes), align: 2
  Segment part 100.           Intra module refs:   Segment part 2
           LOCAL                   ADDRESS         
           =====                   =======         
           TaskOnCreate            00002F28 
               stack 1 = 00000000 ( 00000028 )
    -------------------------------------------------------------------------
CODE
  Segment part 101. NOT NEEDED.
    -------------------------------------------------------------------------
CODE
  Relative segment, address: CODE_AREA 00003014 - 00003017 (0x4 bytes), align: 2
  Segment part 102.           Intra module refs:   TaskOnClose
           LOCAL                   ADDRESS         
           =====                   =======         
           TaskKiller              00003014 
    -------------------------------------------------------------------------
CODE
  Segment part 103. NOT NEEDED.
    -------------------------------------------------------------------------
CODE
  Relative segment, address: CODE_AREA 00003018 - 0000302B (0x14 bytes), align: 2
  Segment part 104.           Intra module refs:   Segment part 2
           LOCAL                   ADDRESS         
           =====                   =======         
           TaskOnClose             00003018 
               stack 1 = 00000000 ( 00000004 )
    -------------------------------------------------------------------------
CODE
  Segment part 105. NOT NEEDED.
    -------------------------------------------------------------------------
CODE
  Relative segment, address: CODE_AREA 0000302C - 00003057 (0x2c bytes), align: 2
  Segment part 106.           Intra module refs:   Segment part 2
           LOCAL                   ADDRESS         
           =====                   =======         
           TaskOnMessage           0000302C 
    -------------------------------------------------------------------------
CODE
  Segment part 107. NOT NEEDED.
    -------------------------------------------------------------------------
DATA_C
  Relative segment, address: CODE_AREA 00003A38 - 00003D83 (0x34c bytes), align: 2
  Segment part 2.             Intra module refs:   DrawGUI
                                                   Segment part 109
                                                   Segment part 70
    -------------------------------------------------------------------------
DATA_C
  Segment part 3. NOT NEEDED.
    -------------------------------------------------------------------------
DATA_C
  Relative segment, address: CODE_AREA 00003D84 - 00003D8B (0x8 bytes), align: 2
  Segment part 4.             Intra module refs:   Segment part 34
    -------------------------------------------------------------------------
DATA_C
  Segment part 5. NOT NEEDED.
    -------------------------------------------------------------------------
DATA_C
  Segment part 6. NOT NEEDED.
    -------------------------------------------------------------------------
DATA_C
  Segment part 7. NOT NEEDED.
    -------------------------------------------------------------------------
DATA_C
  Relative segment, address: CODE_AREA 00003D8C - 00003D93 (0x8 bytes), align: 2
  Segment part 8.             Intra module refs:   MENU_DRAW
    -------------------------------------------------------------------------
DATA_C
  Segment part 9. NOT NEEDED.
    -------------------------------------------------------------------------
DATA_C
  Segment part 10. NOT NEEDED.
    -------------------------------------------------------------------------
DATA_C
  Relative segment, address: CODE_AREA 00004429 - 0000442A (0x2 bytes), align: 0
  Segment part 11.            Intra module refs:   Segment part 34
    -------------------------------------------------------------------------
DATA_C
  Relative segment, address: CODE_AREA 00003D94 - 00003D9B (0x8 bytes), align: 2
  Segment part 12.            Intra module refs:   Segment part 34
    -------------------------------------------------------------------------
DATA_C
  Relative segment, address: CODE_AREA 00003D9C - 00003DBB (0x20 bytes), align: 2
  Segment part 13.            Intra module refs:   DaemonOnMessage
                                                   Segment part 20
    -------------------------------------------------------------------------
DATA_C
  Segment part 14. NOT NEEDED.
    -------------------------------------------------------------------------
DATA_C
  Segment part 15. NOT NEEDED.
    -------------------------------------------------------------------------
DATA_C
  Segment part 16. NOT NEEDED.
    -------------------------------------------------------------------------
DATA_C
  Relative segment, address: CODE_AREA 00003DBC - 0000423B (0x480 bytes), align: 2
  Segment part 17.            Intra module refs:   GetLunar
    -------------------------------------------------------------------------
DATA_C
  Relative segment, address: CODE_AREA 0000423C - 000043E3 (0x1a8 bytes), align: 2
  Segment part 18.            Intra module refs:   GetLDate
    -------------------------------------------------------------------------
DATA_C
  Relative segment, address: CODE_AREA 000043E4 - 000043EF (0xc bytes), align: 2
  Segment part 20.            Intra module refs:   Segment part 134
    -------------------------------------------------------------------------
DATA_C
  Relative segment, address: CODE_AREA 000043F0 - 000043F3 (0x4 bytes), align: 2
  Segment part 21.            Intra module refs:   Segment part 2
    -------------------------------------------------------------------------
DATA_C
  Relative segment, address: CODE_AREA 000043F4 - 00004427 (0x34 bytes), align: 2
  Segment part 37.            Intra module refs:   TaskOnCreate
           ENTRY                   ADDRESS         REF BY
           =====                   =======         ======
           Canvas                  00004420 
    -------------------------------------------------------------------------
CODE
  Relative segment, address: CODE_AREA 00003058 - 000030AB (0x54 bytes), align: 2
  Segment part 108.           Intra module refs:   DaemonKeyHook
                                                   DaemonOnMessage
                                                   DoIt
           LOCAL                   ADDRESS         
           =====                   =======         
           BuildGUI                00003058 
               stack 1 = 00000000 ( 00000040 )
    -------------------------------------------------------------------------
CODE
  Relative segment, address: CODE_AREA 000030AC - 000030AF (0x4 bytes), align: 2
  Segment part 109.           Intra module refs:   BuildGUI
                                                   DrawGUI
    -------------------------------------------------------------------------
CODE
  Segment part 110. NOT NEEDED.
    -------------------------------------------------------------------------
CODE
  Relative segment, address: CODE_AREA 000030B0 - 000031B7 (0x108 bytes), align: 2
  Segment part 111.           Intra module refs:   TaskKeypress
           LOCAL                   ADDRESS         
           =====                   =======         
           DoIt                    000030B0 
               stack 1 = 00000000 ( 0000000C )
    -------------------------------------------------------------------------
CODE
  Relative segment, address: CODE_AREA 000031B8 - 000031BB (0x4 bytes), align: 2
  Segment part 112.           Intra module refs:   DoIt
    -------------------------------------------------------------------------
CODE
  Segment part 113. NOT NEEDED.
    -------------------------------------------------------------------------
CODE
  Relative segment, address: CODE_AREA 000031BC - 0000328B (0xd0 bytes), align: 2
  Segment part 114.           Intra module refs:   Segment part 136
           LOCAL                   ADDRESS         
           =====                   =======         
           DaemonKeyHook           000031BC 
               stack 1 = 00000000 ( 0000000C )
    -------------------------------------------------------------------------
CODE
  Relative segment, address: CODE_AREA 0000328C - 0000328F (0x4 bytes), align: 2
  Segment part 115.           Intra module refs:   DaemonKeyHook
                                                   TaskKeypress
    -------------------------------------------------------------------------
CODE
  Segment part 116. NOT NEEDED.
    -------------------------------------------------------------------------
CODE
  Relative segment, address: CODE_AREA 00003290 - 000032B3 (0x24 bytes), align: 2
  Segment part 117.           Intra module refs:   DaemonOnMessage
           LOCAL                   ADDRESS         
           =====                   =======         
           TimerProc               00003290 
               stack 1 = 00000000 ( 00000004 )
    -------------------------------------------------------------------------
CODE
  Segment part 118. NOT NEEDED.
    -------------------------------------------------------------------------
CODE
  Relative segment, address: CODE_AREA 000032B4 - 000037A7 (0x4f4 bytes), align: 2
  Segment part 119.           Intra module refs:   main
           LOCAL                   ADDRESS         
           =====                   =======         
           DaemonOnMessage         000032B4 
               stack 1 = 00000000 ( 00000074 )
    -------------------------------------------------------------------------
CODE
  Relative segment, address: CODE_AREA 000037A8 - 000037AB (0x4 bytes), align: 2
  Segment part 120.           Intra module refs:   DaemonOnMessage
                                                   DoIt
    -------------------------------------------------------------------------
CODE
  Relative segment, address: CODE_AREA 000037AC - 000037AF (0x4 bytes), align: 2
  Segment part 121.           Intra module refs:   DaemonOnMessage
    -------------------------------------------------------------------------
CODE
  Segment part 122. NOT NEEDED.
    -------------------------------------------------------------------------
CODE
  Relative segment, address: CODE_AREA 000037B0 - 0000389B (0xec bytes), align: 2
  Segment part 123.           Intra module refs:   main
           LOCAL                   ADDRESS         
           =====                   =======         
           DaemonInit              000037B0 
               stack 1 = 00000000 ( 00000020 )
    -------------------------------------------------------------------------
CODE
  Relative segment, address: CODE_AREA 0000389C - 0000389F (0x4 bytes), align: 2
  Segment part 124.           Intra module refs:   DaemonInit
                                                   DaemonOnMessage
    -------------------------------------------------------------------------
CODE
  Segment part 125. NOT NEEDED.
    -------------------------------------------------------------------------
CODE
  Relative segment, address: CODE_AREA 000038A0 - 000038BB (0x1c bytes), align: 2
  Segment part 126.           Intra module refs:   Segment part 129
           LOCAL                   ADDRESS         
           =====                   =======         
           Destructor              000038A0 
               stack 1 = 00000000 ( 00000004 )
    -------------------------------------------------------------------------
CODE
  Segment part 127. NOT NEEDED.
    -------------------------------------------------------------------------
CODE
  Relative segment, address: CODE_AREA 000038BC - 0000392F (0x74 bytes), align: 2
  Segment part 128.           Intra module refs:   main
           LOCAL                   ADDRESS         
           =====                   =======         
           DaemonOnClose           000038BC 
               stack 1 = 00000000 ( 0000000C )
    -------------------------------------------------------------------------
CODE
  Relative segment, address: CODE_AREA 00003930 - 0000393B (0xc bytes), align: 2
  Segment part 129.           Intra module refs:   DaemonOnClose
                                                   DoIt
    -------------------------------------------------------------------------
CODE
  Relative segment, address: CODE_AREA 0000393C - 0000393F (0x4 bytes), align: 2
  Segment part 130.           Intra module refs:   DaemonInit
                                                   DaemonOnClose
                                                   DaemonOnMessage
    -------------------------------------------------------------------------
CODE
  Segment part 131. NOT NEEDED.
    -------------------------------------------------------------------------
CODE
  Relative segment, address: CODE_AREA 00003940 - 000039EF (0xb0 bytes), align: 2
  Segment part 132.
           ENTRY                   ADDRESS         REF BY
           =====                   =======         ======
           main                    00003940        Absolute parts (?ABS_ENTRY_MOD)
               stack 1 = 00000000 ( 00000010 )
    -------------------------------------------------------------------------
CODE
  Relative segment, address: CODE_AREA 000039F0 - 000039F3 (0x4 bytes), align: 2
  Segment part 133.           Intra module refs:   BuildGUI
                                                   TaskOnCreate
                                                   main
    -------------------------------------------------------------------------
CODE
  Relative segment, address: CODE_AREA 000039F4 - 000039F7 (0x4 bytes), align: 2
  Segment part 134.           Intra module refs:   TimerProc
                                                   main
    -------------------------------------------------------------------------
CODE
  Relative segment, address: CODE_AREA 000039F8 - 000039FB (0x4 bytes), align: 2
  Segment part 135.           Intra module refs:   DaemonOnMessage
                                                   main
    -------------------------------------------------------------------------
CODE
  Relative segment, address: CODE_AREA 000039FC - 000039FF (0x4 bytes), align: 2
  Segment part 136.           Intra module refs:   DaemonOnClose
                                                   DaemonOnMessage
                                                   main
    -------------------------------------------------------------------------
CODE
  Segment part 137. NOT NEEDED.Intra module refs   DaemonOnMessage
                                                   DrawGUI
                                                   GetLunar
    -------------------------------------------------------------------------
CODE
  Segment part 138. NOT NEEDED.Intra module refs   DrawGUI
                                                   GetLunar
                                                   InitScreen
    -------------------------------------------------------------------------
CODE
  Segment part 139. NOT NEEDED.Intra module refs   DoIt
    -------------------------------------------------------------------------
CODE
  Segment part 140. NOT NEEDED.Intra module refs   DaemonOnMessage
                                                   main
    -------------------------------------------------------------------------
CODE
  Segment part 141. NOT NEEDED.Intra module refs   Destructor
    -------------------------------------------------------------------------
CSTACK
  Segment part 1. NOT NEEDED.
    -------------------------------------------------------------------------
DATA_ID
  Relative segment, address: CODE_AREA 00000004 - 0000027B (0x278 bytes), align: 2
  Segment part 24.            Intra module refs:   OICSMOnClose
    -------------------------------------------------------------------------
DATA_ID
  Relative segment, address: CODE_AREA 0000027C - 00000287 (0xc bytes), align: 2
  Segment part 26.            Intra module refs:   Segment part 25
    -------------------------------------------------------------------------
DATA_ID
  Relative segment, address: CODE_AREA 00000288 - 000002C7 (0x40 bytes), align: 2
  Segment part 30.            Intra module refs:   Segment part 29
    -------------------------------------------------------------------------
DATA_ID
  Relative segment, address: CODE_AREA 000002C8 - 000002D3 (0xc bytes), align: 2
  Segment part 32.            Intra module refs:   Segment part 31
    -------------------------------------------------------------------------
DATA_ID
  Relative segment, address: CODE_AREA 000002D4 - 000002EB (0x18 bytes), align: 2
  Segment part 34.            Intra module refs:   MENU_PRESS
    -------------------------------------------------------------------------
DATA_ID
  Relative segment, address: CODE_AREA 000002EC - 000002F3 (0x8 bytes), align: 2
  Segment part 36.            Intra module refs:   MENU_TAB
    -------------------------------------------------------------------------
DATA_ID
  Segment part 142. TENTATIVE. Used definition from conf_loader
           ENTRY                   ADDRESS         REF BY
           =====                   =======         ======
           ?*?DATA_ID              
    -------------------------------------------------------------------------
INITTAB
  Segment part 143. TENTATIVE. Used definition from conf_loader
           ENTRY                   ADDRESS         REF BY
           =====                   =======         ======
           ?init?tab?DATA_I        
    -------------------------------------------------------------------------
INITTAB
  Relative segment, address: CODE_AREA 00004438 - 00004443 (0xc bytes), align: 2
  Segment part 144. ROOT.
           ENTRY                   ADDRESS         REF BY
           =====                   =======         ======
           ?init?tab?DATA_Z        00004438 




                ****************************************
                *                                      *
                *            MODULE SUMMARY            *
                *                                      *
                ****************************************

Module             CODE   DATA
------             ----   ----
                  (Rel)  (Rel)
conf_loader         353      4
  + shared           12
config_data      16 028
func                  8
main             17 496    752
N/A (alignment)
------           ------    ---
Total:           33 897    756


                ****************************************
                *                                      *
                *              CALL GRAPH              *
                *                                      *
                ****************************************

  ->Sub-tree of type: Indirectly called function tree that does not make
                    : indirect calls (Is not an interrupt and is not flagged
                    : as not overlayable)
                             CSTACK
    | Stack used (prev) :  00000000
  01  MENU_HOOK
      | Stack used (prev) :  00000000
      | + function block  :  00000010
  <-Sub-tree of type: Indirectly called function tree that does not make
                    : indirect calls (Is not an interrupt and is not flagged
                    : as not overlayable)
    | Stack used          :  00000010


  ->Sub-tree of type: Indirectly called function tree that does not make
                    : indirect calls (Is not an interrupt and is not flagged
                    : as not overlayable)
                             CSTACK
    | Stack used (prev) :  00000000
  01  MENU_DRAW
      | Stack used (prev) :  00000000
      | + function block  :  0000001C
  <-Sub-tree of type: Indirectly called function tree that does not make
                    : indirect calls (Is not an interrupt and is not flagged
                    : as not overlayable)
    | Stack used          :  0000001C


  ->Sub-tree of type: Indirectly called function tree that does not make
                    : indirect calls (Is not an interrupt and is not flagged
                    : as not overlayable)
                             CSTACK
    | Stack used (prev) :  00000000
  01  MENU_ONKEY
      | Stack used (prev) :  00000000
      | + function block  :  00000018
  <-Sub-tree of type: Indirectly called function tree that does not make
                    : indirect calls (Is not an interrupt and is not flagged
                    : as not overlayable)
    | Stack used          :  00000018


  ->Sub-tree of type: Indirectly called function tree that does not make
                    : indirect calls (Is not an interrupt and is not flagged
                    : as not overlayable)
                             CSTACK
    | Stack used (prev) :  00000000
  01  DrawGUI
      | Stack used (prev) :  00000000
      | + function block  :  000000B8
  <-Sub-tree of type: Indirectly called function tree that does not make
                    : indirect calls (Is not an interrupt and is not flagged
                    : as not overlayable)
    | Stack used          :  000000B8


  ->Sub-tree of type: Indirectly called function tree that does not make
                    : indirect calls (Is not an interrupt and is not flagged
                    : as not overlayable)
                             CSTACK
    | Stack used (prev) :  00000000
  01  TaskRedraw
      | Stack used (prev) :  00000000
      | + function block  :  00000004
  <-Sub-tree of type: Indirectly called function tree that does not make
                    : indirect calls (Is not an interrupt and is not flagged
                    : as not overlayable)
    | Stack used          :  00000004


  ->Sub-tree of type: Indirectly called function tree that does not make
                    : indirect calls (Is not an interrupt and is not flagged
                    : as not overlayable)
                             CSTACK
    | Stack used (prev) :  00000000
  01  TaskCreate
      | Stack used (prev) :  00000000
      | + function block  :  00000014
  <-Sub-tree of type: Indirectly called function tree that does not make
                    : indirect calls (Is not an interrupt and is not flagged
                    : as not overlayable)
    | Stack used          :  00000014


  ->Sub-tree of type: Indirectly called function tree that does not make
                    : indirect calls (Is not an interrupt and is not flagged
                    : as not overlayable)
                             CSTACK
    | Stack used (prev) :  00000000
  01  TaskClose
      | Stack used (prev) :  00000000
      | + function block  :  00000010
  <-Sub-tree of type: Indirectly called function tree that does not make
                    : indirect calls (Is not an interrupt and is not flagged
                    : as not overlayable)
    | Stack used          :  00000010


  ->Sub-tree of type: Indirectly called function tree that does not make
                    : indirect calls (Is not an interrupt and is not flagged
                    : as not overlayable)
                             CSTACK
    | Stack used (prev) :  00000000
  01  TaskFocus
      | Stack used (prev) :  00000000
      | + function block  :  00000000
  <-Sub-tree of type: Indirectly called function tree that does not make
                    : indirect calls (Is not an interrupt and is not flagged
                    : as not overlayable)
    | Stack used          :  00000000


  ->Sub-tree of type: Indirectly called function tree that does not make
                    : indirect calls (Is not an interrupt and is not flagged
                    : as not overlayable)
                             CSTACK
    | Stack used (prev) :  00000000
  01  TaskUnfus
      | Stack used (prev) :  00000000
      | + function block  :  00000000
  <-Sub-tree of type: Indirectly called function tree that does not make
                    : indirect calls (Is not an interrupt and is not flagged
                    : as not overlayable)
    | Stack used          :  00000000


  ->Sub-tree of type: Indirectly called function tree that does not make
                    : indirect calls (Is not an interrupt and is not flagged
                    : as not overlayable)
                             CSTACK
    | Stack used (prev) :  00000000
  01  TaskKeypress
      | Stack used (prev) :  00000000
      | + function block  :  00000004
  <-Sub-tree of type: Indirectly called function tree that does not make
                    : indirect calls (Is not an interrupt and is not flagged
                    : as not overlayable)
    | Stack used          :  00000004


  ->Sub-tree of type: Indirectly called function tree that does not make
                    : indirect calls (Is not an interrupt and is not flagged
                    : as not overlayable)
                             CSTACK
    | Stack used (prev) :  00000000
  01  TaskMethod8
      | Stack used (prev) :  00000000
      | + function block  :  00000000
  <-Sub-tree of type: Indirectly called function tree that does not make
                    : indirect calls (Is not an interrupt and is not flagged
                    : as not overlayable)
    | Stack used          :  00000000


  ->Sub-tree of type: Indirectly called function tree that does not make
                    : indirect calls (Is not an interrupt and is not flagged
                    : as not overlayable)
                             CSTACK
    | Stack used (prev) :  00000000
  01  TaskMethod9
      | Stack used (prev) :  00000000
      | + function block  :  00000000
  <-Sub-tree of type: Indirectly called function tree that does not make
                    : indirect calls (Is not an interrupt and is not flagged
                    : as not overlayable)
    | Stack used          :  00000000


  ->Sub-tree of type: Indirectly called function tree that does not make
                    : indirect calls (Is not an interrupt and is not flagged
                    : as not overlayable)
                             CSTACK
    | Stack used (prev) :  00000000
  01  TaskOnCreate
      | Stack used (prev) :  00000000
      | + function block  :  00000028
  <-Sub-tree of type: Indirectly called function tree that does not make
                    : indirect calls (Is not an interrupt and is not flagged
                    : as not overlayable)
    | Stack used          :  00000028


  ->Sub-tree of type: Indirectly called function tree that does not make
                    : indirect calls (Is not an interrupt and is not flagged
                    : as not overlayable)
                             CSTACK
    | Stack used (prev) :  00000000
  01  TaskKiller
      | Stack used (prev) :  00000000
      | + function block  :  00000000
  <-Sub-tree of type: Indirectly called function tree that does not make
                    : indirect calls (Is not an interrupt and is not flagged
                    : as not overlayable)
    | Stack used          :  00000000


  ->Sub-tree of type: Indirectly called function tree that does not make
                    : indirect calls (Is not an interrupt and is not flagged
                    : as not overlayable)
                             CSTACK
    | Stack used (prev) :  00000000
  01  TaskOnClose
      | Stack used (prev) :  00000000
      | + function block  :  00000004
  <-Sub-tree of type: Indirectly called function tree that does not make
                    : indirect calls (Is not an interrupt and is not flagged
                    : as not overlayable)
    | Stack used          :  00000004


  ->Sub-tree of type: Indirectly called function tree that does not make
                    : indirect calls (Is not an interrupt and is not flagged
                    : as not overlayable)
                             CSTACK
    | Stack used (prev) :  00000000
  01  TaskOnMessage
      | Stack used (prev) :  00000000
      | + function block  :  00000000
  <-Sub-tree of type: Indirectly called function tree that does not make
                    : indirect calls (Is not an interrupt and is not flagged
                    : as not overlayable)
    | Stack used          :  00000000


  ->Sub-tree of type: Indirectly called function tree that does not make
                    : indirect calls (Is not an interrupt and is not flagged
                    : as not overlayable)
                             CSTACK
    | Stack used (prev) :  00000000
  01  DaemonKeyHook
      | Stack used (prev) :  00000000
      | + function block  :  0000000C
  <-Sub-tree of type: Indirectly called function tree that does not make
                    : indirect calls (Is not an interrupt and is not flagged
                    : as not overlayable)
    | Stack used          :  0000000C


  ->Sub-tree of type: Indirectly called function tree that does not make
                    : indirect calls (Is not an interrupt and is not flagged
                    : as not overlayable)
                             CSTACK
    | Stack used (prev) :  00000000
  01  TimerProc
      | Stack used (prev) :  00000000
      | + function block  :  00000004
  <-Sub-tree of type: Indirectly called function tree that does not make
                    : indirect calls (Is not an interrupt and is not flagged
                    : as not overlayable)
    | Stack used          :  00000004


  ->Sub-tree of type: Indirectly called function tree that does not make
                    : indirect calls (Is not an interrupt and is not flagged
                    : as not overlayable)
                             CSTACK
    | Stack used (prev) :  00000000
  01  DaemonOnMessage
      | Stack used (prev) :  00000000
      | + function block  :  00000074
  <-Sub-tree of type: Indirectly called function tree that does not make
                    : indirect calls (Is not an interrupt and is not flagged
                    : as not overlayable)
    | Stack used          :  00000074


  ->Sub-tree of type: Indirectly called function tree that does not make
                    : indirect calls (Is not an interrupt and is not flagged
                    : as not overlayable)
                             CSTACK
    | Stack used (prev) :  00000000
  01  Destructor
      | Stack used (prev) :  00000000
      | + function block  :  00000004
  <-Sub-tree of type: Indirectly called function tree that does not make
                    : indirect calls (Is not an interrupt and is not flagged
                    : as not overlayable)
    | Stack used          :  00000004


  ->Sub-tree of type: Indirectly called function tree that does not make
                    : indirect calls (Is not an interrupt and is not flagged
                    : as not overlayable)
                             CSTACK
    | Stack used (prev) :  00000000
  01  DaemonOnClose
      | Stack used (prev) :  00000000
      | + function block  :  0000000C
  <-Sub-tree of type: Indirectly called function tree that does not make
                    : indirect calls (Is not an interrupt and is not flagged
                    : as not overlayable)
    | Stack used          :  0000000C


  ->Sub-tree of type: Function tree
                             CSTACK
    | Stack used (prev) :  000000B8
  01  LoadConfigData
      | Stack used (prev) :  000000B8
      | + function block  :  00000024
  <-Sub-tree of type: Function tree
    | Stack used          :  000000DC


  ->Sub-tree of type: Function tree
                             CSTACK
    | Stack used (prev) :  000000DC
  01  InitConfig
      | Stack used (prev) :  000000DC
      | + function block  :  00000008
  <-Sub-tree of type: Function tree
    | Stack used          :  000000E4


  ->Sub-tree of type: Function tree
                             CSTACK
    | Stack used (prev) :  000000E4
  01  RunAPP
      | Stack used (prev) :  000000E4
      | + function block  :  0000000C
  <-Sub-tree of type: Function tree
    | Stack used          :  000000F0


  ->Sub-tree of type: Function tree
                             CSTACK
    | Stack used (prev) :  000000F0
  01  GetLDate
      | Stack used (prev) :  000000F0
      | + function block  :  00000028
  <-Sub-tree of type: Function tree
    | Stack used          :  00000118


  ->Sub-tree of type: Function tree
                             CSTACK
    | Stack used (prev) :  00000118
  01  GetLunar
      | Stack used (prev) :  00000118
      | + function block  :  00000084
  <-Sub-tree of type: Function tree
    | Stack used          :  0000019C


  ->Sub-tree of type: Function tree
                             CSTACK
    | Stack used (prev) :  0000019C
  01  PixlsWidth
      | Stack used (prev) :  0000019C
      | + function block  :  00000014
  <-Sub-tree of type: Function tree
    | Stack used          :  000001B0


  ->Sub-tree of type: Function tree
                             CSTACK
    | Stack used (prev) :  000001B0
  01  strcmp_nocase
      | Stack used (prev) :  000001B0
      | + function block  :  00000000
  <-Sub-tree of type: Function tree
    | Stack used          :  000001B0


  ->Sub-tree of type: Function tree
                             CSTACK
    | Stack used (prev) :  000001B0
  01  PlayMusic
      | Stack used (prev) :  000001B0
      | + function block  :  000000F4
  <-Sub-tree of type: Function tree
    | Stack used          :  000002A4


  ->Sub-tree of type: Function tree
                             CSTACK
    | Stack used (prev) :  000002A4
  01  MidStr
      | Stack used (prev) :  000002A4
      | + function block  :  00000118
  <-Sub-tree of type: Function tree
    | Stack used          :  000003BC


  ->Sub-tree of type: Function tree
                             CSTACK
    | Stack used (prev) :  000003BC
  01  FindBCFGFile
      | Stack used (prev) :  000003BC
      | + function block  :  000003E4
  <-Sub-tree of type: Function tree
    | Stack used          :  000007A0


  ->Sub-tree of type: Function tree
                             CSTACK
    | Stack used (prev) :  000007A0
  01  SetIDS
      | Stack used (prev) :  000007A0
      | + function block  :  0000000C
  <-Sub-tree of type: Function tree
    | Stack used          :  000007AC


  ->Sub-tree of type: Function tree
                             CSTACK
    | Stack used (prev) :  000007AC
  01  InitShow
      | Stack used (prev) :  000007AC
      | + function block  :  0000003C
  <-Sub-tree of type: Function tree
    | Stack used          :  000007E8


  ->Sub-tree of type: Function tree
                             CSTACK
    | Stack used (prev) :  000007E8
  01  FillScreen
      | Stack used (prev) :  000007E8
      | + function block  :  00000018
  <-Sub-tree of type: Function tree
    | Stack used          :  00000800


  ->Sub-tree of type: Function tree
                             CSTACK
    | Stack used (prev) :  00000800
  01  InitScreen
      | Stack used (prev) :  00000800
      | + function block  :  0000008C
  <-Sub-tree of type: Function tree
    | Stack used          :  0000088C


  ->Sub-tree of type: Function tree
                             CSTACK
    | Stack used (prev) :  0000088C
  01  APP_TRAF
      | Stack used (prev) :  0000088C
      | + function block  :  00000008
  <-Sub-tree of type: Function tree
    | Stack used          :  00000894


  ->Sub-tree of type: Function tree
                             CSTACK
    | Stack used (prev) :  00000894
  01  InitMenu
      | Stack used (prev) :  00000894
      | + function block  :  00000014
  <-Sub-tree of type: Function tree
    | Stack used          :  000008A8


  ->Sub-tree of type: Function tree
                             CSTACK
    | Stack used (prev) :  000008A8
  01  BuildGUI
      | Stack used (prev) :  000008A8
      | + function block  :  00000040
  <-Sub-tree of type: Function tree
    | Stack used          :  000008E8


  ->Sub-tree of type: Function tree
                             CSTACK
    | Stack used (prev) :  000008E8
  01  DoIt
      | Stack used (prev) :  000008E8
      | + function block  :  0000000C
  <-Sub-tree of type: Function tree
    | Stack used          :  000008F4


  ->Sub-tree of type: Function tree
                             CSTACK
    | Stack used (prev) :  000008F4
  01  DaemonInit
      | Stack used (prev) :  000008F4
      | + function block  :  00000020
  <-Sub-tree of type: Function tree
    | Stack used          :  00000914


  ->Sub-tree of type: Function tree
                             CSTACK
    | Stack used (prev) :  00000914
  01  main
      | Stack used (prev) :  00000914
      | + function block  :  00000010
  <-Sub-tree of type: Function tree
    | Stack used          :  00000924




                ****************************************
                *                                      *
                *      SEGMENTS IN ADDRESS ORDER       *
                *                                      *
                ****************************************


SEGMENT              SPACE    START ADDRESS   END ADDRESS     SIZE  TYPE  ALIGN
=======              =====    =============   ===========     ====  ====  =====
ELFBEGIN             CODE_AREA           00000000                     rel    0
DATA_ID              CODE_AREA      00000000 - 000002F3         2F4   rel    2
START                CODE_AREA           000002F4                     dse    0
CODE                 CODE_AREA      000002F4 - 000039FF        370C   rel    2
DATA_C               CODE_AREA      00003A00 - 0000442A         A2B   rel    2
INITTAB              CODE_AREA      0000442C - 00004443          18   rel    2
DATA_Z               CODE_AREA      00004444 - 000045CD         18A   rel    2
DATA_N               CODE_AREA           000045CE                     dse    0
CONFIG_C             CODE_AREA      000045D0 - 0000846B        3E9C   rel    2
DATA_I               DATA_AREA      00000000 - 000002F3         2F4   rel    2

                ****************************************
                *                                      *
                *        END OF CROSS REFERENCE        *
                *                                      *
                ****************************************

 33 897 bytes of CODE memory
    756 bytes of DATA memory

Errors: 3
Warnings: none

