###############################################################################
#                                                                             #
#     IAR Systems ARM Assembler V4.42A/W32 14/Feb/2012  15:36:01              #
#     Copyright 1999-2007 IAR Systems. All rights reserved.                   #
#                                                                             #
#           Source file   =  D:\SVN\SieELF\SieELF\x65_PCM_Player\Player\func.asm#
#           List file     =  D:\SVN\SieELF\SieELF\x65_PCM_Player\Player\Release\List\func.lst#
#           Object file   =  D:\SVN\SieELF\SieELF\x65_PCM_Player\Player\Release\Obj\func.r79#
#           Command line  =  D:\SVN\SieELF\SieELF\x65_PCM_Player\Player\func.asm #
#                            -OD:\SVN\SieELF\SieELF\x65_PCM_Player\Player\Release\Obj\ #
#                            -s+ -M<> -w+                                     #
#                            -LD:\SVN\SieELF\SieELF\x65_PCM_Player\Player\Release\List\ #
#                            -cAOM -i -B -t8 -xDI2 --cpu ARM926EJ-S --fpu     #
#                            None                                             #
#                            -ID:\Program Files\IAR\Embedded Workbench 4.0 Evaluation\ARM\INC\ #
#                                                                             #
###############################################################################

                               #define K           r4

                               ----------------------^

                               "D:\SVN\SieELF\SieELF\x65_PCM_Player\Player\AAC
                      \AACDEC\asm\armgcc\sbrqmfsk.s",42  Warning[9]: Macro
                       redefined

                               #define COEF0       r10

                               -----------------------^

                               "D:\SVN\SieELF\SieELF\x65_PCM_Player\Player\AAC
                      \AACDEC\asm\armgcc\sbrqmfsk.s",48  Warning[9]: Macro
                       redefined

                               #define DVAL0       r11

                               -----------------------^

                               "D:\SVN\SieELF\SieELF\x65_PCM_Player\Player\AAC
                      \AACDEC\asm\armgcc\sbrqmfsk.s",49  Warning[9]: Macro
                       redefined

                               #define COEF1       r12

                               -----------------------^

                               "D:\SVN\SieELF\SieELF\x65_PCM_Player\Player\AAC
                      \AACDEC\asm\armgcc\sbrqmfsk.s",50  Warning[9]: Macro
                       redefined

                               #define DVAL1       r14

                               -----------------------^

                               "D:\SVN\SieELF\SieELF\x65_PCM_Player\Player\AAC
                      \AACDEC\asm\armgcc\sbrqmfsk.s",51  Warning[9]: Macro
                       redefined



    1    00000000                      PUBLIC  ELF_BEGIN

    2    00000000                      RSEG    ELFBEGIN:DATA

    3    00000000               

    4    00000000              ELF_BEGIN

    5    00000000              

    6    00000000                      RSEG    CODE:CODE

    7    00000000                      

    8    00000000                      #include "MP3\Polyphase.asm"

    1    00000000                      PUBLIC MULSHIFT32

    2    00000000                      PUBLIC xmp3_PolyphaseMono

    3    00000000                      PUBLIC xmp3_PolyphaseStereo

    4    00000000                      

    5    00000000              

    6    00000000              inline xmp3_PolyphaseStereo:

    7    00000000 F04F2DE9             STMFD    r13!,{r4-r11,r14}

    8    00000004 08D04DE2             SUB      r13,r13,#8

    9    00000008 04008DE5             STR      r0,[r13,#4]

   10    0000000C 8047A0E3             MOV      r4,#0x2000000

   11    00000010 8087A0E3             MOV      r8,#0x2000000

   12    00000014 0050A0E3             MOV      r5,#0

   13    00000018 0090A0E3             MOV      r9,#0

   14    0000001C 04C092E4             LDR      r12,[r2],#4

   15    00000020 04E092E4             LDR      r14,[r2],#4

   16    00000024 000091E5             LDR      r0,[r1,#0]

   17    00000028 5C3091E5             LDR      r3,[r1,#0x5c]

   18    0000002C 904CE5E0             SMLAL    r4,r5,r0,r12

   19    00000030 800091E5             LDR      r0,[r1,#0x80]

   20    00000034 00E06EE2             RSB      r14,r14,#0

   21    00000038 934EE5E0             SMLAL    r4,r5,r3,r14

   22    0000003C DC3091E5             LDR      r3,[r1,#0xdc]

   23    00000040 908CE9E0             SMLAL    r8,r9,r0,r12

   24    00000044 938EE9E0             SMLAL    r8,r9,r3,r14

   25    00000048 04C092E4             LDR      r12,[r2],#4

   26    0000004C 04E092E4             LDR      r14,[r2],#4

   27    00000050 040091E5             LDR      r0,[r1,#4]

   28    00000054 583091E5             LDR      r3,[r1,#0x58]

   29    00000058 904CE5E0             SMLAL    r4,r5,r0,r12

   30    0000005C 840091E5             LDR      r0,[r1,#0x84]

   31    00000060 00E06EE2             RSB      r14,r14,#0

   32    00000064 934EE5E0             SMLAL    r4,r5,r3,r14

   33    00000068 D83091E5             LDR      r3,[r1,#0xd8]

   34    0000006C 908CE9E0             SMLAL    r8,r9,r0,r12

   35    00000070 938EE9E0             SMLAL    r8,r9,r3,r14

   36    00000074 04C092E4             LDR      r12,[r2],#4

   37    00000078 04E092E4             LDR      r14,[r2],#4

   38    0000007C 080091E5             LDR      r0,[r1,#8]

   39    00000080 543091E5             LDR      r3,[r1,#0x54]

   40    00000084 904CE5E0             SMLAL    r4,r5,r0,r12

   41    00000088 880091E5             LDR      r0,[r1,#0x88]

   42    0000008C 00E06EE2             RSB      r14,r14,#0

   43    00000090 934EE5E0             SMLAL    r4,r5,r3,r14

   44    00000094 D43091E5             LDR      r3,[r1,#0xd4]

   45    00000098 908CE9E0             SMLAL    r8,r9,r0,r12

   46    0000009C 938EE9E0             SMLAL    r8,r9,r3,r14

   47    000000A0 04C092E4             LDR      r12,[r2],#4

   48    000000A4 04E092E4             LDR      r14,[r2],#4

   49    000000A8 0C0091E5             LDR      r0,[r1,#0xc]

   50    000000AC 503091E5             LDR      r3,[r1,#0x50]

   51    000000B0 904CE5E0             SMLAL    r4,r5,r0,r12

   52    000000B4 8C0091E5             LDR      r0,[r1,#0x8c]

   53    000000B8 00E06EE2             RSB      r14,r14,#0

   54    000000BC 934EE5E0             SMLAL    r4,r5,r3,r14

   55    000000C0 D03091E5             LDR      r3,[r1,#0xd0]

   56    000000C4 908CE9E0             SMLAL    r8,r9,r0,r12

   57    000000C8 938EE9E0             SMLAL    r8,r9,r3,r14

   58    000000CC 04C092E4             LDR      r12,[r2],#4

   59    000000D0 04E092E4             LDR      r14,[r2],#4

   60    000000D4 100091E5             LDR      r0,[r1,#0x10]

   61    000000D8 4C3091E5             LDR      r3,[r1,#0x4c]

   62    000000DC 904CE5E0             SMLAL    r4,r5,r0,r12

   63    000000E0 900091E5             LDR      r0,[r1,#0x90]

   64    000000E4 00E06EE2             RSB      r14,r14,#0

   65    000000E8 934EE5E0             SMLAL    r4,r5,r3,r14

   66    000000EC CC3091E5             LDR      r3,[r1,#0xcc]

   67    000000F0 908CE9E0             SMLAL    r8,r9,r0,r12

   68    000000F4 938EE9E0             SMLAL    r8,r9,r3,r14

   69    000000F8 04C092E4             LDR      r12,[r2],#4

   70    000000FC 04E092E4             LDR      r14,[r2],#4

   71    00000100 140091E5             LDR      r0,[r1,#0x14]

   72    00000104 483091E5             LDR      r3,[r1,#0x48]

   73    00000108 904CE5E0             SMLAL    r4,r5,r0,r12

   74    0000010C 940091E5             LDR      r0,[r1,#0x94]

   75    00000110 00E06EE2             RSB      r14,r14,#0

   76    00000114 934EE5E0             SMLAL    r4,r5,r3,r14

   77    00000118 C83091E5             LDR      r3,[r1,#0xc8]

   78    0000011C 908CE9E0             SMLAL    r8,r9,r0,r12

   79    00000120 938EE9E0             SMLAL    r8,r9,r3,r14

   80    00000124 04C092E4             LDR      r12,[r2],#4

   81    00000128 04E092E4             LDR      r14,[r2],#4

   82    0000012C 180091E5             LDR      r0,[r1,#0x18]

   83    00000130 443091E5             LDR      r3,[r1,#0x44]

   84    00000134 904CE5E0             SMLAL    r4,r5,r0,r12

   85    00000138 980091E5             LDR      r0,[r1,#0x98]

   86    0000013C 00E06EE2             RSB      r14,r14,#0

   87    00000140 934EE5E0             SMLAL    r4,r5,r3,r14

   88    00000144 C43091E5             LDR      r3,[r1,#0xc4]

   89    00000148 908CE9E0             SMLAL    r8,r9,r0,r12

   90    0000014C 938EE9E0             SMLAL    r8,r9,r3,r14

   91    00000150 04C092E4             LDR      r12,[r2],#4

   92    00000154 04E092E4             LDR      r14,[r2],#4

   93    00000158 1C0091E5             LDR      r0,[r1,#0x1c]

   94    0000015C 403091E5             LDR      r3,[r1,#0x40]

   95    00000160 904CE5E0             SMLAL    r4,r5,r0,r12

   96    00000164 9C0091E5             LDR      r0,[r1,#0x9c]

   97    00000168 00E06EE2             RSB      r14,r14,#0

   98    0000016C 934EE5E0             SMLAL    r4,r5,r3,r14

   99    00000170 C03091E5             LDR      r3,[r1,#0xc0]

  100    00000174 908CE9E0             SMLAL    r8,r9,r0,r12

  101    00000178 938EE9E0             SMLAL    r8,r9,r3,r14

  102    0000017C 04009DE5             LDR      r0,[r13,#4]

  103    00000180 7FECA0E3             MOV      r14,#0x7f00

  104    00000184 FFE08EE3             ORR      r14,r14,#0xff

  105    00000188 244DA0E1             MOV      r4,r4,LSR #26

  106    0000018C 054384E1             ORR      r4,r4,r5,LSL #6

  107    00000190 C4CFA0E1             MOV      r12,r4,ASR #31

  108    00000194 C4075CE1             CMP      r12,r4,ASR #15

  109    00000198 0E402C10             EORNE    r4,r12,r14

  110    0000019C 288DA0E1             MOV      r8,r8,LSR #26

  111    000001A0 098388E1             ORR      r8,r8,r9,LSL #6

  112    000001A4 C8CFA0E1             MOV      r12,r8,ASR #31

  113    000001A8 C8075CE1             CMP      r12,r8,ASR #15

  114    000001AC 0E802C10             EORNE    r8,r12,r14

  115    000001B0 B040C0E1             STRH     r4,[r0,#0]

  116    000001B4 B280C0E1             STRH     r8,[r0,#2]

  117    000001B8 F02F82E2             ADD      r2,r2,#0x3c0

  118    000001BC 401D81E2             ADD      r1,r1,#0x1000

  119    000001C0 8047A0E3             MOV      r4,#0x2000000

  120    000001C4 8087A0E3             MOV      r8,#0x2000000

  121    000001C8 0050A0E3             MOV      r5,#0

  122    000001CC 0090A0E3             MOV      r9,#0

  123    000001D0 04C092E4             LDR      r12,[r2],#4

  124    000001D4 000091E5             LDR      r0,[r1,#0]

  125    000001D8 803091E5             LDR      r3,[r1,#0x80]

  126    000001DC 904CE5E0             SMLAL    r4,r5,r0,r12

  127    000001E0 938CE9E0             SMLAL    r8,r9,r3,r12

  128    000001E4 04C092E4             LDR      r12,[r2],#4

  129    000001E8 040091E5             LDR      r0,[r1,#4]

  130    000001EC 843091E5             LDR      r3,[r1,#0x84]

  131    000001F0 904CE5E0             SMLAL    r4,r5,r0,r12

  132    000001F4 938CE9E0             SMLAL    r8,r9,r3,r12

  133    000001F8 04C092E4             LDR      r12,[r2],#4

  134    000001FC 080091E5             LDR      r0,[r1,#8]

  135    00000200 883091E5             LDR      r3,[r1,#0x88]

  136    00000204 904CE5E0             SMLAL    r4,r5,r0,r12

  137    00000208 938CE9E0             SMLAL    r8,r9,r3,r12

  138    0000020C 04C092E4             LDR      r12,[r2],#4

  139    00000210 0C0091E5             LDR      r0,[r1,#0xc]

  140    00000214 8C3091E5             LDR      r3,[r1,#0x8c]

  141    00000218 904CE5E0             SMLAL    r4,r5,r0,r12

  142    0000021C 938CE9E0             SMLAL    r8,r9,r3,r12

  143    00000220 04C092E4             LDR      r12,[r2],#4

  144    00000224 100091E5             LDR      r0,[r1,#0x10]

  145    00000228 903091E5             LDR      r3,[r1,#0x90]

  146    0000022C 904CE5E0             SMLAL    r4,r5,r0,r12

  147    00000230 938CE9E0             SMLAL    r8,r9,r3,r12

  148    00000234 04C092E4             LDR      r12,[r2],#4

  149    00000238 140091E5             LDR      r0,[r1,#0x14]

  150    0000023C 943091E5             LDR      r3,[r1,#0x94]

  151    00000240 904CE5E0             SMLAL    r4,r5,r0,r12

  152    00000244 938CE9E0             SMLAL    r8,r9,r3,r12

  153    00000248 04C092E4             LDR      r12,[r2],#4

  154    0000024C 180091E5             LDR      r0,[r1,#0x18]

  155    00000250 983091E5             LDR      r3,[r1,#0x98]

  156    00000254 904CE5E0             SMLAL    r4,r5,r0,r12

  157    00000258 938CE9E0             SMLAL    r8,r9,r3,r12

  158    0000025C 04C092E4             LDR      r12,[r2],#4

  159    00000260 1C0091E5             LDR      r0,[r1,#0x1c]

  160    00000264 9C3091E5             LDR      r3,[r1,#0x9c]

  161    00000268 904CE5E0             SMLAL    r4,r5,r0,r12

  162    0000026C 938CE9E0             SMLAL    r8,r9,r3,r12

  163    00000270 04009DE5             LDR      r0,[r13,#4]

  164    00000274 7FECA0E3             MOV      r14,#0x7f00

  165    00000278 FFE08EE3             ORR      r14,r14,#0xff

  166    0000027C 244DA0E1             MOV      r4,r4,LSR #26

  167    00000280 054384E1             ORR      r4,r4,r5,LSL #6

  168    00000284 C4CFA0E1             MOV      r12,r4,ASR #31

  169    00000288 C4075CE1             CMP      r12,r4,ASR #15

  170    0000028C 0E402C10             EORNE    r4,r12,r14

  171    00000290 288DA0E1             MOV      r8,r8,LSR #26

  172    00000294 098388E1             ORR      r8,r8,r9,LSL #6

  173    00000298 C8CFA0E1             MOV      r12,r8,ASR #31

  174    0000029C C8075CE1             CMP      r12,r8,ASR #15

  175    000002A0 0E802C10             EORNE    r8,r12,r14

  176    000002A4 B044C0E1             STRH     r4,[r0,#0x40]

  177    000002A8 B284C0E1             STRH     r8,[r0,#0x42]

  178    000002AC F82F42E2             SUB      r2,r2,#0x3e0

  179    000002B0 F01E41E2             SUB      r1,r1,#0xf00

  180    000002B4 0FC0A0E3             MOV      r12,#0xf

  181    000002B8 040080E2             ADD      r0,r0,#4

  182    000002BC              LoopPS:

  183    000002BC 00C08DE5             STR      r12,[r13,#0]

  184    000002C0 04008DE5             STR      r0,[r13,#4]

  185    000002C4 8047A0E3             MOV      r4,#0x2000000

  186    000002C8 8087A0E3             MOV      r8,#0x2000000

  187    000002CC 8067A0E3             MOV      r6,#0x2000000

  188    000002D0 80A7A0E3             MOV      r10,#0x2000000

  189    000002D4 0050A0E3             MOV      r5,#0

  190    000002D8 0090A0E3             MOV      r9,#0

  191    000002DC 0070A0E3             MOV      r7,#0

  192    000002E0 00B0A0E3             MOV      r11,#0

  193    000002E4 04C092E4             LDR      r12,[r2],#4

  194    000002E8 04E092E4             LDR      r14,[r2],#4

  195    000002EC 000091E5             LDR      r0,[r1,#0]

  196    000002F0 5C3091E5             LDR      r3,[r1,#0x5c]

  197    000002F4 904CE5E0             SMLAL    r4,r5,r0,r12

  198    000002F8 906EE7E0             SMLAL    r6,r7,r0,r14

  199    000002FC 00E06EE2             RSB      r14,r14,#0

  200    00000300 936CE7E0             SMLAL    r6,r7,r3,r12

  201    00000304 934EE5E0             SMLAL    r4,r5,r3,r14

  202    00000308 DC3091E5             LDR      r3,[r1,#0xdc]

  203    0000030C 800091E5             LDR      r0,[r1,#0x80]

  204    00000310 938EE9E0             SMLAL    r8,r9,r3,r14

  205    00000314 93ACEBE0             SMLAL    r10,r11,r3,r12

  206    00000318 00E06EE2             RSB      r14,r14,#0

  207    0000031C 908CE9E0             SMLAL    r8,r9,r0,r12

  208    00000320 90AEEBE0             SMLAL    r10,r11,r0,r14

  209    00000324 04C092E4             LDR      r12,[r2],#4

  210    00000328 04E092E4             LDR      r14,[r2],#4

  211    0000032C 040091E5             LDR      r0,[r1,#4]

  212    00000330 583091E5             LDR      r3,[r1,#0x58]

  213    00000334 904CE5E0             SMLAL    r4,r5,r0,r12

  214    00000338 906EE7E0             SMLAL    r6,r7,r0,r14

  215    0000033C 00E06EE2             RSB      r14,r14,#0

  216    00000340 936CE7E0             SMLAL    r6,r7,r3,r12

  217    00000344 934EE5E0             SMLAL    r4,r5,r3,r14

  218    00000348 D83091E5             LDR      r3,[r1,#0xd8]

  219    0000034C 840091E5             LDR      r0,[r1,#0x84]

  220    00000350 938EE9E0             SMLAL    r8,r9,r3,r14

  221    00000354 93ACEBE0             SMLAL    r10,r11,r3,r12

  222    00000358 00E06EE2             RSB      r14,r14,#0

  223    0000035C 908CE9E0             SMLAL    r8,r9,r0,r12

  224    00000360 90AEEBE0             SMLAL    r10,r11,r0,r14

  225    00000364 04C092E4             LDR      r12,[r2],#4

  226    00000368 04E092E4             LDR      r14,[r2],#4

  227    0000036C 080091E5             LDR      r0,[r1,#8]

  228    00000370 543091E5             LDR      r3,[r1,#0x54]

  229    00000374 904CE5E0             SMLAL    r4,r5,r0,r12

  230    00000378 906EE7E0             SMLAL    r6,r7,r0,r14

  231    0000037C 00E06EE2             RSB      r14,r14,#0

  232    00000380 936CE7E0             SMLAL    r6,r7,r3,r12

  233    00000384 934EE5E0             SMLAL    r4,r5,r3,r14

  234    00000388 D43091E5             LDR      r3,[r1,#0xd4]

  235    0000038C 880091E5             LDR      r0,[r1,#0x88]

  236    00000390 938EE9E0             SMLAL    r8,r9,r3,r14

  237    00000394 93ACEBE0             SMLAL    r10,r11,r3,r12

  238    00000398 00E06EE2             RSB      r14,r14,#0

  239    0000039C 908CE9E0             SMLAL    r8,r9,r0,r12

  240    000003A0 90AEEBE0             SMLAL    r10,r11,r0,r14

  241    000003A4 04C092E4             LDR      r12,[r2],#4

  242    000003A8 04E092E4             LDR      r14,[r2],#4

  243    000003AC 0C0091E5             LDR      r0,[r1,#0xc]

  244    000003B0 503091E5             LDR      r3,[r1,#0x50]

  245    000003B4 904CE5E0             SMLAL    r4,r5,r0,r12

  246    000003B8 906EE7E0             SMLAL    r6,r7,r0,r14

  247    000003BC 00E06EE2             RSB      r14,r14,#0

  248    000003C0 936CE7E0             SMLAL    r6,r7,r3,r12

  249    000003C4 934EE5E0             SMLAL    r4,r5,r3,r14

  250    000003C8 D03091E5             LDR      r3,[r1,#0xd0]

  251    000003CC 8C0091E5             LDR      r0,[r1,#0x8c]

  252    000003D0 938EE9E0             SMLAL    r8,r9,r3,r14

  253    000003D4 93ACEBE0             SMLAL    r10,r11,r3,r12

  254    000003D8 00E06EE2             RSB      r14,r14,#0

  255    000003DC 908CE9E0             SMLAL    r8,r9,r0,r12

  256    000003E0 90AEEBE0             SMLAL    r10,r11,r0,r14

  257    000003E4 04C092E4             LDR      r12,[r2],#4

  258    000003E8 04E092E4             LDR      r14,[r2],#4

  259    000003EC 100091E5             LDR      r0,[r1,#0x10]

  260    000003F0 4C3091E5             LDR      r3,[r1,#0x4c]

  261    000003F4 904CE5E0             SMLAL    r4,r5,r0,r12

  262    000003F8 906EE7E0             SMLAL    r6,r7,r0,r14

  263    000003FC 00E06EE2             RSB      r14,r14,#0

  264    00000400 936CE7E0             SMLAL    r6,r7,r3,r12

  265    00000404 934EE5E0             SMLAL    r4,r5,r3,r14

  266    00000408 CC3091E5             LDR      r3,[r1,#0xcc]

  267    0000040C 900091E5             LDR      r0,[r1,#0x90]

  268    00000410 938EE9E0             SMLAL    r8,r9,r3,r14

  269    00000414 93ACEBE0             SMLAL    r10,r11,r3,r12

  270    00000418 00E06EE2             RSB      r14,r14,#0

  271    0000041C 908CE9E0             SMLAL    r8,r9,r0,r12

  272    00000420 90AEEBE0             SMLAL    r10,r11,r0,r14

  273    00000424 04C092E4             LDR      r12,[r2],#4

  274    00000428 04E092E4             LDR      r14,[r2],#4

  275    0000042C 140091E5             LDR      r0,[r1,#0x14]

  276    00000430 483091E5             LDR      r3,[r1,#0x48]

  277    00000434 904CE5E0             SMLAL    r4,r5,r0,r12

  278    00000438 906EE7E0             SMLAL    r6,r7,r0,r14

  279    0000043C 00E06EE2             RSB      r14,r14,#0

  280    00000440 936CE7E0             SMLAL    r6,r7,r3,r12

  281    00000444 934EE5E0             SMLAL    r4,r5,r3,r14

  282    00000448 C83091E5             LDR      r3,[r1,#0xc8]

  283    0000044C 940091E5             LDR      r0,[r1,#0x94]

  284    00000450 938EE9E0             SMLAL    r8,r9,r3,r14

  285    00000454 93ACEBE0             SMLAL    r10,r11,r3,r12

  286    00000458 00E06EE2             RSB      r14,r14,#0

  287    0000045C 908CE9E0             SMLAL    r8,r9,r0,r12

  288    00000460 90AEEBE0             SMLAL    r10,r11,r0,r14

  289    00000464 04C092E4             LDR      r12,[r2],#4

  290    00000468 04E092E4             LDR      r14,[r2],#4

  291    0000046C 180091E5             LDR      r0,[r1,#0x18]

  292    00000470 443091E5             LDR      r3,[r1,#0x44]

  293    00000474 904CE5E0             SMLAL    r4,r5,r0,r12

  294    00000478 906EE7E0             SMLAL    r6,r7,r0,r14

  295    0000047C 00E06EE2             RSB      r14,r14,#0

  296    00000480 936CE7E0             SMLAL    r6,r7,r3,r12

  297    00000484 934EE5E0             SMLAL    r4,r5,r3,r14

  298    00000488 C43091E5             LDR      r3,[r1,#0xc4]

  299    0000048C 980091E5             LDR      r0,[r1,#0x98]

  300    00000490 938EE9E0             SMLAL    r8,r9,r3,r14

  301    00000494 93ACEBE0             SMLAL    r10,r11,r3,r12

  302    00000498 00E06EE2             RSB      r14,r14,#0

  303    0000049C 908CE9E0             SMLAL    r8,r9,r0,r12

  304    000004A0 90AEEBE0             SMLAL    r10,r11,r0,r14

  305    000004A4 04C092E4             LDR      r12,[r2],#4

  306    000004A8 04E092E4             LDR      r14,[r2],#4

  307    000004AC 1C0091E5             LDR      r0,[r1,#0x1c]

  308    000004B0 403091E5             LDR      r3,[r1,#0x40]

  309    000004B4 904CE5E0             SMLAL    r4,r5,r0,r12

  310    000004B8 906EE7E0             SMLAL    r6,r7,r0,r14

  311    000004BC 00E06EE2             RSB      r14,r14,#0

  312    000004C0 936CE7E0             SMLAL    r6,r7,r3,r12

  313    000004C4 934EE5E0             SMLAL    r4,r5,r3,r14

  314    000004C8 C03091E5             LDR      r3,[r1,#0xc0]

  315    000004CC 9C0091E5             LDR      r0,[r1,#0x9c]

  316    000004D0 938EE9E0             SMLAL    r8,r9,r3,r14

  317    000004D4 93ACEBE0             SMLAL    r10,r11,r3,r12

  318    000004D8 00E06EE2             RSB      r14,r14,#0

  319    000004DC 908CE9E0             SMLAL    r8,r9,r0,r12

  320    000004E0 90AEEBE0             SMLAL    r10,r11,r0,r14

  321    000004E4 401F81E2             ADD      r1,r1,#0x100

  322    000004E8 04009DE5             LDR      r0,[r13,#4]

  323    000004EC 7FECA0E3             MOV      r14,#0x7f00

  324    000004F0 FFE08EE3             ORR      r14,r14,#0xff

  325    000004F4 244DA0E1             MOV      r4,r4,LSR #26

  326    000004F8 054384E1             ORR      r4,r4,r5,LSL #6

  327    000004FC C4CFA0E1             MOV      r12,r4,ASR #31

  328    00000500 C4075CE1             CMP      r12,r4,ASR #15

  329    00000504 0E402C10             EORNE    r4,r12,r14

  330    00000508 288DA0E1             MOV      r8,r8,LSR #26

  331    0000050C 098388E1             ORR      r8,r8,r9,LSL #6

  332    00000510 C8CFA0E1             MOV      r12,r8,ASR #31

  333    00000514 C8075CE1             CMP      r12,r8,ASR #15

  334    00000518 0E802C10             EORNE    r8,r12,r14

  335    0000051C 266DA0E1             MOV      r6,r6,LSR #26

  336    00000520 076386E1             ORR      r6,r6,r7,LSL #6

  337    00000524 C6CFA0E1             MOV      r12,r6,ASR #31

  338    00000528 C6075CE1             CMP      r12,r6,ASR #15

  339    0000052C 0E602C10             EORNE    r6,r12,r14

  340    00000530 2AADA0E1             MOV      r10,r10,LSR #26

  341    00000534 0BA38AE1             ORR      r10,r10,r11,LSL #6

  342    00000538 CACFA0E1             MOV      r12,r10,ASR #31

  343    0000053C CA075CE1             CMP      r12,r10,ASR #15

  344    00000540 0EA02C10             EORNE    r10,r12,r14

  345    00000544 00C09DE5             LDR      r12,[r13,#0]

  346    00000548 8CE180E0             ADD      r14,r0,r12,LSL #3

  347    0000054C B260CEE0             STRH     r6,[r14],#2

  348    00000550 B2A0CEE0             STRH     r10,[r14],#2

  349    00000554 B240C0E0             STRH     r4,[r0],#2

  350    00000558 B280C0E0             STRH     r8,[r0],#2

  351    0000055C 01C05CE2             SUBS     r12,r12,#1

  352    00000560 55FFFF1A             BNE      LoopPS

  353    00000564 08D08DE2             ADD      r13,r13,#8

  354    00000568 F08FBDE8             LDMFD    r13!,{r4-r11,pc}

  355    0000056C              

  356    0000056C              

  357    0000056C               xmp3_PolyphaseMono:

  358    0000056C F04F2DE9             STMFD    r13!,{r4-r11,r14}

  359    00000570 08D04DE2             SUB      r13,r13,#8

  360    00000574 04008DE5             STR      r0,[r13,#4]

  361    00000578 8047A0E3             MOV      r4,#0x2000000

  362    0000057C 0050A0E3             MOV      r5,#0

  363    00000580 04C092E4             LDR      r12,[r2],#4

  364    00000584 04E092E4             LDR      r14,[r2],#4

  365    00000588 000091E5             LDR      r0,[r1,#0]

  366    0000058C 5C3091E5             LDR      r3,[r1,#0x5c]

  367    00000590 00E06EE2             RSB      r14,r14,#0

  368    00000594 904CE5E0             SMLAL    r4,r5,r0,r12

  369    00000598 934EE5E0             SMLAL    r4,r5,r3,r14

  370    0000059C 04C092E4             LDR      r12,[r2],#4

  371    000005A0 04E092E4             LDR      r14,[r2],#4

  372    000005A4 040091E5             LDR      r0,[r1,#4]

  373    000005A8 583091E5             LDR      r3,[r1,#0x58]

  374    000005AC 00E06EE2             RSB      r14,r14,#0

  375    000005B0 904CE5E0             SMLAL    r4,r5,r0,r12

  376    000005B4 934EE5E0             SMLAL    r4,r5,r3,r14

  377    000005B8 04C092E4             LDR      r12,[r2],#4

  378    000005BC 04E092E4             LDR      r14,[r2],#4

  379    000005C0 080091E5             LDR      r0,[r1,#8]

  380    000005C4 543091E5             LDR      r3,[r1,#0x54]

  381    000005C8 00E06EE2             RSB      r14,r14,#0

  382    000005CC 904CE5E0             SMLAL    r4,r5,r0,r12

  383    000005D0 934EE5E0             SMLAL    r4,r5,r3,r14

  384    000005D4 04C092E4             LDR      r12,[r2],#4

  385    000005D8 04E092E4             LDR      r14,[r2],#4

  386    000005DC 0C0091E5             LDR      r0,[r1,#0xc]

  387    000005E0 503091E5             LDR      r3,[r1,#0x50]

  388    000005E4 00E06EE2             RSB      r14,r14,#0

  389    000005E8 904CE5E0             SMLAL    r4,r5,r0,r12

  390    000005EC 934EE5E0             SMLAL    r4,r5,r3,r14

  391    000005F0 04C092E4             LDR      r12,[r2],#4

  392    000005F4 04E092E4             LDR      r14,[r2],#4

  393    000005F8 100091E5             LDR      r0,[r1,#0x10]

  394    000005FC 4C3091E5             LDR      r3,[r1,#0x4c]

  395    00000600 00E06EE2             RSB      r14,r14,#0

  396    00000604 904CE5E0             SMLAL    r4,r5,r0,r12

  397    00000608 934EE5E0             SMLAL    r4,r5,r3,r14

  398    0000060C 04C092E4             LDR      r12,[r2],#4

  399    00000610 04E092E4             LDR      r14,[r2],#4

  400    00000614 140091E5             LDR      r0,[r1,#0x14]

  401    00000618 483091E5             LDR      r3,[r1,#0x48]

  402    0000061C 00E06EE2             RSB      r14,r14,#0

  403    00000620 904CE5E0             SMLAL    r4,r5,r0,r12

  404    00000624 934EE5E0             SMLAL    r4,r5,r3,r14

  405    00000628 04C092E4             LDR      r12,[r2],#4

  406    0000062C 04E092E4             LDR      r14,[r2],#4

  407    00000630 180091E5             LDR      r0,[r1,#0x18]

  408    00000634 443091E5             LDR      r3,[r1,#0x44]

  409    00000638 00E06EE2             RSB      r14,r14,#0

  410    0000063C 904CE5E0             SMLAL    r4,r5,r0,r12

  411    00000640 934EE5E0             SMLAL    r4,r5,r3,r14

  412    00000644 04C092E4             LDR      r12,[r2],#4

  413    00000648 04E092E4             LDR      r14,[r2],#4

  414    0000064C 1C0091E5             LDR      r0,[r1,#0x1c]

  415    00000650 403091E5             LDR      r3,[r1,#0x40]

  416    00000654 00E06EE2             RSB      r14,r14,#0

  417    00000658 904CE5E0             SMLAL    r4,r5,r0,r12

  418    0000065C 934EE5E0             SMLAL    r4,r5,r3,r14

  419    00000660 04009DE5             LDR      r0,[r13,#4]

  420    00000664 7FECA0E3             MOV      r14,#0x7f00

  421    00000668 FFE08EE3             ORR      r14,r14,#0xff

  422    0000066C 244DA0E1             MOV      r4,r4,LSR #26

  423    00000670 054384E1             ORR      r4,r4,r5,LSL #6

  424    00000674 C4CFA0E1             MOV      r12,r4,ASR #31

  425    00000678 C4075CE1             CMP      r12,r4,ASR #15

  426    0000067C 0E402C10             EORNE    r4,r12,r14

  427    00000680 B040C0E1             STRH     r4,[r0,#0]

  428    00000684 F02F82E2             ADD      r2,r2,#0x3c0

  429    00000688 401D81E2             ADD      r1,r1,#0x1000

  430    0000068C 8047A0E3             MOV      r4,#0x2000000

  431    00000690 0050A0E3             MOV      r5,#0

  432    00000694 04C092E4             LDR      r12,[r2],#4

  433    00000698 000091E5             LDR      r0,[r1,#0]

  434    0000069C 904CE5E0             SMLAL    r4,r5,r0,r12

  435    000006A0 04C092E4             LDR      r12,[r2],#4

  436    000006A4 040091E5             LDR      r0,[r1,#4]

  437    000006A8 904CE5E0             SMLAL    r4,r5,r0,r12

  438    000006AC 04C092E4             LDR      r12,[r2],#4

  439    000006B0 080091E5             LDR      r0,[r1,#8]

  440    000006B4 904CE5E0             SMLAL    r4,r5,r0,r12

  441    000006B8 04C092E4             LDR      r12,[r2],#4

  442    000006BC 0C0091E5             LDR      r0,[r1,#0xc]

  443    000006C0 904CE5E0             SMLAL    r4,r5,r0,r12

  444    000006C4 04C092E4             LDR      r12,[r2],#4

  445    000006C8 100091E5             LDR      r0,[r1,#0x10]

  446    000006CC 904CE5E0             SMLAL    r4,r5,r0,r12

  447    000006D0 04C092E4             LDR      r12,[r2],#4

  448    000006D4 140091E5             LDR      r0,[r1,#0x14]

  449    000006D8 904CE5E0             SMLAL    r4,r5,r0,r12

  450    000006DC 04C092E4             LDR      r12,[r2],#4

  451    000006E0 180091E5             LDR      r0,[r1,#0x18]

  452    000006E4 904CE5E0             SMLAL    r4,r5,r0,r12

  453    000006E8 04C092E4             LDR      r12,[r2],#4

  454    000006EC 1C0091E5             LDR      r0,[r1,#0x1c]

  455    000006F0 904CE5E0             SMLAL    r4,r5,r0,r12

  456    000006F4 04009DE5             LDR      r0,[r13,#4]

  457    000006F8 7FECA0E3             MOV      r14,#0x7f00

  458    000006FC FFE08EE3             ORR      r14,r14,#0xff

  459    00000700 244DA0E1             MOV      r4,r4,LSR #26

  460    00000704 054384E1             ORR      r4,r4,r5,LSL #6

  461    00000708 C4CFA0E1             MOV      r12,r4,ASR #31

  462    0000070C C4075CE1             CMP      r12,r4,ASR #15

  463    00000710 0E402C10             EORNE    r4,r12,r14

  464    00000714 B042C0E1             STRH     r4,[r0,#0x20]

  465    00000718 F82F42E2             SUB      r2,r2,#0x3e0

  466    0000071C F01E41E2             SUB      r1,r1,#0xf00

  467    00000720 0FC0A0E3             MOV      r12,#0xf

  468    00000724 020080E2             ADD      r0,r0,#2

  469    00000728              LoopPM:

  470    00000728 00C08DE5             STR      r12,[r13,#0]

  471    0000072C 04008DE5             STR      r0,[r13,#4]

  472    00000730 8047A0E3             MOV      r4,#0x2000000

  473    00000734 8067A0E3             MOV      r6,#0x2000000

  474    00000738 0050A0E3             MOV      r5,#0

  475    0000073C 0070A0E3             MOV      r7,#0

  476    00000740 04C092E4             LDR      r12,[r2],#4

  477    00000744 04E092E4             LDR      r14,[r2],#4

  478    00000748 000091E5             LDR      r0,[r1,#0]

  479    0000074C 5C3091E5             LDR      r3,[r1,#0x5c]

  480    00000750 904CE5E0             SMLAL    r4,r5,r0,r12

  481    00000754 906EE7E0             SMLAL    r6,r7,r0,r14

  482    00000758 00E06EE2             RSB      r14,r14,#0

  483    0000075C 934EE5E0             SMLAL    r4,r5,r3,r14

  484    00000760 936CE7E0             SMLAL    r6,r7,r3,r12

  485    00000764 04C092E4             LDR      r12,[r2],#4

  486    00000768 04E092E4             LDR      r14,[r2],#4

  487    0000076C 040091E5             LDR      r0,[r1,#4]

  488    00000770 583091E5             LDR      r3,[r1,#0x58]

  489    00000774 904CE5E0             SMLAL    r4,r5,r0,r12

  490    00000778 906EE7E0             SMLAL    r6,r7,r0,r14

  491    0000077C 00E06EE2             RSB      r14,r14,#0

  492    00000780 934EE5E0             SMLAL    r4,r5,r3,r14

  493    00000784 936CE7E0             SMLAL    r6,r7,r3,r12

  494    00000788 04C092E4             LDR      r12,[r2],#4

  495    0000078C 04E092E4             LDR      r14,[r2],#4

  496    00000790 080091E5             LDR      r0,[r1,#8]

  497    00000794 543091E5             LDR      r3,[r1,#0x54]

  498    00000798 904CE5E0             SMLAL    r4,r5,r0,r12

  499    0000079C 906EE7E0             SMLAL    r6,r7,r0,r14

  500    000007A0 00E06EE2             RSB      r14,r14,#0

  501    000007A4 934EE5E0             SMLAL    r4,r5,r3,r14

  502    000007A8 936CE7E0             SMLAL    r6,r7,r3,r12

  503    000007AC 04C092E4             LDR      r12,[r2],#4

  504    000007B0 04E092E4             LDR      r14,[r2],#4

  505    000007B4 0C0091E5             LDR      r0,[r1,#0xc]

  506    000007B8 503091E5             LDR      r3,[r1,#0x50]

  507    000007BC 904CE5E0             SMLAL    r4,r5,r0,r12

  508    000007C0 906EE7E0             SMLAL    r6,r7,r0,r14

  509    000007C4 00E06EE2             RSB      r14,r14,#0

  510    000007C8 934EE5E0             SMLAL    r4,r5,r3,r14

  511    000007CC 936CE7E0             SMLAL    r6,r7,r3,r12

  512    000007D0 04C092E4             LDR      r12,[r2],#4

  513    000007D4 04E092E4             LDR      r14,[r2],#4

  514    000007D8 100091E5             LDR      r0,[r1,#0x10]

  515    000007DC 4C3091E5             LDR      r3,[r1,#0x4c]

  516    000007E0 904CE5E0             SMLAL    r4,r5,r0,r12

  517    000007E4 906EE7E0             SMLAL    r6,r7,r0,r14

  518    000007E8 00E06EE2             RSB      r14,r14,#0

  519    000007EC 934EE5E0             SMLAL    r4,r5,r3,r14

  520    000007F0 936CE7E0             SMLAL    r6,r7,r3,r12

  521    000007F4 04C092E4             LDR      r12,[r2],#4

  522    000007F8 04E092E4             LDR      r14,[r2],#4

  523    000007FC 140091E5             LDR      r0,[r1,#0x14]

  524    00000800 483091E5             LDR      r3,[r1,#0x48]

  525    00000804 904CE5E0             SMLAL    r4,r5,r0,r12

  526    00000808 906EE7E0             SMLAL    r6,r7,r0,r14

  527    0000080C 00E06EE2             RSB      r14,r14,#0

  528    00000810 934EE5E0             SMLAL    r4,r5,r3,r14

  529    00000814 936CE7E0             SMLAL    r6,r7,r3,r12

  530    00000818 04C092E4             LDR      r12,[r2],#4

  531    0000081C 04E092E4             LDR      r14,[r2],#4

  532    00000820 180091E5             LDR      r0,[r1,#0x18]

  533    00000824 443091E5             LDR      r3,[r1,#0x44]

  534    00000828 904CE5E0             SMLAL    r4,r5,r0,r12

  535    0000082C 906EE7E0             SMLAL    r6,r7,r0,r14

  536    00000830 00E06EE2             RSB      r14,r14,#0

  537    00000834 934EE5E0             SMLAL    r4,r5,r3,r14

  538    00000838 936CE7E0             SMLAL    r6,r7,r3,r12

  539    0000083C 04C092E4             LDR      r12,[r2],#4

  540    00000840 04E092E4             LDR      r14,[r2],#4

  541    00000844 1C0091E5             LDR      r0,[r1,#0x1c]

  542    00000848 403091E5             LDR      r3,[r1,#0x40]

  543    0000084C 904CE5E0             SMLAL    r4,r5,r0,r12

  544    00000850 906EE7E0             SMLAL    r6,r7,r0,r14

  545    00000854 00E06EE2             RSB      r14,r14,#0

  546    00000858 934EE5E0             SMLAL    r4,r5,r3,r14

  547    0000085C 936CE7E0             SMLAL    r6,r7,r3,r12

  548    00000860 401F81E2             ADD      r1,r1,#0x100

  549    00000864 04009DE5             LDR      r0,[r13,#4]

  550    00000868 7FECA0E3             MOV      r14,#0x7f00

  551    0000086C FFE08EE3             ORR      r14,r14,#0xff

  552    00000870 244DA0E1             MOV      r4,r4,LSR #26

  553    00000874 054384E1             ORR      r4,r4,r5,LSL #6

  554    00000878 C4CFA0E1             MOV      r12,r4,ASR #31

  555    0000087C C4075CE1             CMP      r12,r4,ASR #15

  556    00000880 0E402C10             EORNE    r4,r12,r14

  557    00000884 266DA0E1             MOV      r6,r6,LSR #26

  558    00000888 076386E1             ORR      r6,r6,r7,LSL #6

  559    0000088C C6CFA0E1             MOV      r12,r6,ASR #31

  560    00000890 C6075CE1             CMP      r12,r6,ASR #15

  561    00000894 0E602C10             EORNE    r6,r12,r14

  562    00000898 00C09DE5             LDR      r12,[r13,#0]

  563    0000089C 0CE180E0             ADD      r14,r0,r12,LSL #2

  564    000008A0 B260CEE0             STRH     r6,[r14],#2

  565    000008A4 B240C0E0             STRH     r4,[r0],#2

  566    000008A8 01C05CE2             SUBS     r12,r12,#1

  567    000008AC 9DFFFF1A             BNE      LoopPM

  568    000008B0 08D08DE2             ADD      r13,r13,#8

  569    000008B4 F08FBDE8             LDMFD    r13!,{r4-r11,pc}

  570    000008B8                      

  571    000008B8                      MULSHIFT32:

  572    000008B8 9120C0E0             smull   r2, r0, r1, r0

  573    000008BC 0EF0A0E1             mov             pc, lr

    9    000008C0                      #include "MOD\mix_asm.asm"

    1    000008C0              

    2    00000000               public asm_ExecuteChannel;

    3    00000000               extern LastVals;

    4    00000000               extern samplerate;

    5    00000000               extern ??div32_a;

    6    000008C0              //inline short ExecuteChannel( CHANNEL * chptr
                                )]

    7    000008C0              

    8    000008C0              #define pos 0

    9    000008C0              #define repeat 4

   10    000008C0              #define end 8

   11    000008C0              #define freq 16

   12    000008C0              #define vol 24

   13    000008C0              #define voicemode 36

   14    000008C0              #define fractpos 20

   15    000008C0              #define LastVal 40

   16    000008C0              

   17    000008C0              asm_ExecuteChannel:

   18    000008C0              #define SAMPLERATE R1

   19    000008C0              #define FRACTPOS R2

   20    000008C0              #define FREQ R3

   21    000008C0              #define VOICEMODE R4

   22    000008C0              #define POS R5

   23    000008C0              #define _END R6

   24    000008C0              #define LASTVAL R7

   25    000008C0              #define VOL R8

   26    000008C0              

   27    000008C0 F0412DE9       push{r4-r8,lr}     

   28    000008C4                //if ((!chptr->pos )|(!chptr->vol)) return ( 0
                                );

   29    000008C4 005090E5       ldr POS,[r0,#pos]

   30    000008C8 000055E3       cmp POS,#0

   31    000008CC 0200000A       BEQ Quit

   32    000008D0 188090E5       ldr VOL,[r0,#vol]

   33    000008D4 000058E3       cmp VOL,#0

   34    000008D8 0100001A       bne VolOk

   35    000008DC              Quit:

   36    000008DC 000020E0       eor r0,r0,r0

   37    000008E0 F081BDE8       pop {r4-r8,pc}

   38    000008E4              VolOk:  

   39    000008E4                //

   40    000008E4                

   41    000008E4 287090E5       ldr LASTVAL,[r0,#LastVal]  

   42    000008E8 142090E5       ldr FRACTPOS,[r0,#fractpos]

   43    000008EC 103090E5       ldr FREQ,[r0,#freq]

   44    000008F0 B4149FE5       ldr SAMPLERATE,=samplerate

   45    000008F4 001091E5       ldr SAMPLERATE,[SAMPLERATE]

   46    000008F8                

   47    000008F8               // chptr->fractpos += chptr->freq;

   48    000008F8 022083E0      ADD FRACTPOS,FREQ,FRACTPOS

   49    000008FC              Loop1:

   50    000008FC                //if ( chfractpos >= sr )

   51    000008FC 010052E1       cmp FRACTPOS,SAMPLERATE

   52    00000900 08609035       ldrcc _END,[r0,#end]

   53    00000904 0500003A       BCC QuitLoop1

   54    00000908 086090E5       ldr _END,[r0,#end]

   55    0000090C                //{ 

   56    0000090C                 // chptr->fractpos -= sr;

   57    0000090C 012042E0        sub FRACTPOS,FRACTPOS,SAMPLERATE

   58    00000910                 

   59    00000910                 // if ( chpos < chptr->end ) chptr->LastVal =
                                * chpos;

   60    00000910 060055E1        cmp POS,_END

   61    00000914 D070D531        LDRCCSB LASTVAL,[POS,#0]

   62    00000918                 

   63    00000918                  //chpos++;

   64    00000918 015085E2        ADD POS,POS,#1

   65    0000091C                 

   66    0000091C                  //if ( chpos >= chptr->end )

   67    0000091C                //{//

   68    0000091C                    //CMP POS,_END

   69    0000091C                    //BLT NotEndSample

   70    0000091C                 // if ( chptr->voicemode==1 )return ( 0
                                );

   71    0000091C                    //ldr VOICEMODE,[r0,#voicemode]

   72    0000091C                    //cmp VOICEMODE,#1

   73    0000091C                    //eoreq r0,r0,r0

   74    0000091C                    //popeq{r4-r8,pc}

   75    0000091C                 //     chptr->pos = chptr->repeat;

   76    0000091C                   //LDR POS,[r0,#repeat]

   77    0000091C                //  }

   78    0000091C              //NotEndSample:

   79    0000091C                //goto Loop1

   80    0000091C F6FFFFEA       B Loop1

   81    00000920                //}

   82    00000920              QuitLoop1:

   83    00000920              

   84    00000920                 //if ( chpos >= chptr->end )

   85    00000920                //{//

   86    00000920 060055E1           CMP POS,_END

   87    00000924 060000BA           BLT NotEndSample1

   88    00000928                 // if ( chptr->voicemode==1 )return ( 0
                                );

   89    00000928 244090E5           ldr VOICEMODE,[r0,#voicemode]

   90    0000092C 010054E3           cmp VOICEMODE,#1

   91    00000930 00002000           eoreq r0,r0,r0

   92    00000934 F081BD08           popeq{r4-r8,pc}

   93    00000938                 //     chptr->pos = chptr->repeat;

   94    00000938 044090E5          LDR VOICEMODE,[r0,#repeat]

   95    0000093C 055084E0          ADD POS,VOICEMODE,POS

   96    00000940 065045E0          SUB POS,POS,_END

   97    00000944                //  }

   98    00000944              NotEndSample1:

   99    00000944                 

  100    00000944 142080E5       STR FRACTPOS,[r0,#fractpos]

  101    00000948 005080E5       STR POS,[r0,#pos]

  102    0000094C 287080E5       STR LASTVAL,[r0,#LastVal]

  103    00000950                //

  104    00000950 D000D5E1       LDRSB R0,[POS,#0]

  105    00000954                //return ( ( ( * chpos * chfractpos ) + (
                                chptr->LastVal * ( sr - chfractpos ) )
                                )

  106    00000954                //     / sr * chptr->vol );

  107    00000954                

  108    00000954                //( * chpos * chfractpos )

  109    00000954                //;MUL R0,FRACTPOS,R0

  110    00000954                //( sr - chfractpos )

  111    00000954 026041E0       SUB r6,SAMPLERATE,FRACTPOS        //R6=SAMPLER
                                        ATE-FRACTPOS

  112    00000958                //( chptr->LastVal * ( sr - chfractpos
                                )

  113    00000958 960707E0       MUL LASTVAL,r6,LASTVAL            //LASTVAL=(S
                                             AMPLERATE-FRACTPOS)*LASTVAL

  114    0000095C                //( ( * chpos * chfractpos ) + ( chptr->LastVa
                               l * ( sr - chfractpos ) )

  115    0000095C 927020E0       MLA R0,FRACTPOS,R0,LASTVAL        //R0=(FRACTP
                                        OS*Dat)+(SAMPLERATE-FRACTPOS)*LASTVAL

  116    00000960                //BL ??div32_a

  117    00000960 4017A0E1       Mov r1,r0, asr #14

  118    00000964 A10880E0       add r0,r0,r1, lsr #17

  119    00000968 C007A0E1       mov r0,r0, asr #15

  120    0000096C                

  121    0000096C 980100E0       MUL R0,VOL,R1  

  122    00000970 F081BDE8       pop{r4-r8,pc}

   10    00000974                      #include "AAC\AACDEC\asm\armgcc\sbrcov.s
                               "

    1    00000974              // ***** BEGIN LICENSE BLOCK *****  

    2    00000974              // Source last modified: $Id: sbrcov.s,v 1.1
                                2005/02/26 01:47:35 jrecker Exp $ 

    3    00000974              // 

    4    00000974              // Portions Copyright (c) 1995-2005 RealNetworks
                               , Inc. All Rights Reserved.  

    5    00000974              // 

    6    00000974              // The contents of this file, and the files
                                included with this file, 

    7    00000974              // are subject to the current version of the
                                RealNetworks Public 

    8    00000974              // Source License (the "RPSL") available at
                                

    9    00000974              // http://www.helixcommunity.org/content/rpsl
                                unless you have licensed 

   10    00000974              // the file under the current version of the
                                RealNetworks Community 

   11    00000974              // Source License (the "RCSL") available at
                                

   12    00000974              // http://www.helixcommunity.org/content/rcsl,
                                in which case the RCSL 

   13    00000974              // will apply. You may also obtain the license
                                terms directly from 

   14    00000974              // RealNetworks.  You may not use this file
                                except in compliance with 

   15    00000974              // the RPSL or, if you have a valid RCSL with
                                RealNetworks applicable 

   16    00000974              // to this file, the RCSL.  Please see the
                                applicable RPSL or RCSL for 

   17    00000974              // the rights, obligations and limitations
                                governing use of the 

   18    00000974              // contents of the file. 

   19    00000974              // 

   20    00000974              // This file is part of the Helix DNA Technology
                               . RealNetworks is the 

   21    00000974              // developer and/or licensor of the Original
                                Code and owns the  

   22    00000974              // copyrights in the portions it created.
                                

   23    00000974              //   

   24    00000974              // This file, and the files included with this
                                file, is distributed 

   25    00000974              // and made available on an 'AS IS' basis,
                                WITHOUT WARRANTY OF ANY 

   26    00000974              // KIND, EITHER EXPRESS OR IMPLIED, AND
                                REALNETWORKS HEREBY DISCLAIMS 

   27    00000974              // ALL SUCH WARRANTIES, INCLUDING WITHOUT
                                LIMITATION, ANY WARRANTIES 

   28    00000974              // OF MERCHANTABILITY, FITNESS FOR A PARTICULAR
                                PURPOSE, QUIET 

   29    00000974              // ENJOYMENT OR NON-INFRINGEMENT. 

   30    00000974              //  

   31    00000974              // Technology Compatibility Kit Test Suite(s)
                                Location:  

   32    00000974              //    http://www.helixcommunity.org/content/tck 
                                

   33    00000974              //  

   34    00000974              // Contributor(s):  

   35    00000974              //   

   36    00000974              // ***** END LICENSE BLOCK *****  

   37    00000974              

   38    00000974              

   39    00000974              // commmon

   40    00000974              #define XBUF        r0

   41    00000974              #define ACCBUF      r1

   42    00000974              #define NCT         r2

   43    00000974              #define X0RE        r3

   44    00000974              #define X0IM        r4

   45    00000974              #define X1RE        r5

   46    00000974              #define X1IM        r6

   47    00000974              #define X0IMNEG     r14

   48    00000974              

   49    00000974              // CVKernel1 - in loop

   50    00000974              #define P01RELO     r7

   51    00000974              #define P01REHI     r8

   52    00000974              #define P01IMLO     r9

   53    00000974              #define P01IMHI     r10

   54    00000974              #define P11RELO     r11

   55    00000974              #define P11REHI     r12

   56    00000974              

   57    00000974              // CVKernel1 - out of loop

   58    00000974              #define P12RELO     r7

   59    00000974              #define P12REHI     r8

   60    00000974              #define P12IMLO     r9

   61    00000974              #define P12IMHI     r10

   62    00000974              #define P22RELO     r11

   63    00000974              #define P22REHI     r12

   64    00000974              

   65    00000974              // void CVKernel1(int *XBuf, int *accBuf)

   66    00000974              //   see comments in sbrhfgen.c

   67    00000974              

   68    00000000                     PUBLIC raac_CVKernel1

   69    00000974              raac_CVKernel1:

   70    00000974              

   71    00000974              

   72    00000974                

   73    00000974 F04F2DE9             stmfd   sp!, {r4-r11, r14}

   74    00000978              

   75    00000978 043090E4             ldr     X0RE, [XBUF], #4*(1)

   76    0000097C FC4190E4             ldr     X0IM, [XBUF], #4*(2*64-1)

   77    00000980 045090E4             ldr     X1RE, [XBUF], #4*(1)

   78    00000984 FC6190E4             ldr     X1IM, [XBUF], #4*(2*64-1)

   79    00000988 00E064E2             rsb     X0IMNEG, X0IM, #0

   80    0000098C              

   81    0000098C 9573C8E0             smull   P12RELO, P12REHI, X1RE,
                                                         X0RE

   82    00000990 9674E8E0             smlal   P12RELO, P12REHI, X1IM,
                                                         X0IM

   83    00000994 9396CAE0             smull   P12IMLO, P12IMHI, X0RE,
                                                         X1IM

   84    00000998 9E95EAE0             smlal   P12IMLO, P12IMHI, X0IMNEG,
                                                         X1RE

   85    0000099C 93B3CCE0             smull   P22RELO, P22REHI, X0RE,
                                                         X0RE

   86    000009A0 94B4ECE0             smlal   P22RELO, P22REHI, X0IM,
                                                         X0IM

   87    000009A4              

   88    000009A4 182081E2             add     NCT, ACCBUF, #(4*6)

   89    000009A8 801F82E8             stmia   NCT, {P12RELO-P22REHI}

   90    000009AC              

   91    000009AC 0070A0E3             mov     P01RELO, #0

   92    000009B0 0080A0E3             mov     P01REHI, #0

   93    000009B4 0090A0E3             mov     P01IMLO, #0

   94    000009B8 00A0A0E3             mov     P01IMHI, #0

   95    000009BC 00B0A0E3             mov     P11RELO, #0

   96    000009C0 00C0A0E3             mov     P11REHI, #0

   97    000009C4                      

   98    000009C4 2620A0E3             mov     NCT, #(16*2 + 6)

   99    000009C8              CV1_Loop_Start:

  100    000009C8 0530A0E1             mov     X0RE, X1RE

  101    000009CC 045090E4             ldr     X1RE, [XBUF], #4*(1)

  102    000009D0 0640A0E1             mov     X0IM, X1IM

  103    000009D4 FC6190E4             ldr     X1IM, [XBUF], #4*(2*64-1)

  104    000009D8 00E064E2             rsb     X0IMNEG, X0IM, #0

  105    000009DC                      

  106    000009DC 9573E8E0             smlal   P01RELO, P01REHI, X1RE,
                                                         X0RE

  107    000009E0 9674E8E0             smlal   P01RELO, P01REHI, X1IM,
                                                         X0IM

  108    000009E4 9396EAE0             smlal   P01IMLO, P01IMHI, X0RE,
                                                         X1IM

  109    000009E8 9E95EAE0             smlal   P01IMLO, P01IMHI, X0IMNEG,
                                                         X1RE

  110    000009EC 93B3ECE0             smlal   P11RELO, P11REHI, X0RE,
                                                         X0RE

  111    000009F0 94B4ECE0             smlal   P11RELO, P11REHI, X0IM,
                                                         X0IM

  112    000009F4              

  113    000009F4 012052E2             subs    NCT, NCT, #1

  114    000009F8 F2FFFF1A             bne     CV1_Loop_Start

  115    000009FC              

  116    000009FC 801F81E8             stmia   ACCBUF, {P01RELO-P11REHI}

  117    00000A00              

  118    00000A00 180091E5             ldr     XBUF, [ACCBUF, #4*(6)]      //
                                                      load P12RELO into temp
                                                      buf

  119    00000A04 1C2091E5             ldr     NCT,  [ACCBUF, #4*(7)]      //
                                                      load P12REHI into temp
                                                      buf

  120    00000A08 003063E2             rsb     X0RE, X0RE, #0

  121    00000A0C 077090E0             adds    P12RELO, XBUF, P01RELO      //
                                                         P12RELO and P01RELO
                                                         are same reg

  122    00000A10 0880A2E0             adc     P12REHI, NCT,  P01REHI      //
                                                         P12REHI and P01REHI
                                                         are same reg

  123    00000A14 9573E8E0             smlal   P12RELO, P12REHI, X1RE,
                                                         X0RE

  124    00000A18 967EE8E0             smlal   P12RELO, P12REHI, X1IM,
                                                         X0IMNEG

  125    00000A1C              

  126    00000A1C 200091E5             ldr     XBUF, [ACCBUF, #4*(8)]      //
                                                      load P12IMLO into temp
                                                      buf

  127    00000A20 242091E5             ldr     NCT,  [ACCBUF, #4*(9)]      //
                                                      load P12IMHI into temp
                                                      buf

  128    00000A24 099090E0             adds    P12IMLO, XBUF, P01IMLO      //
                                                         P12IMLO and P01IMLO
                                                         are same reg

  129    00000A28 0AA0A2E0             adc     P12IMHI, NCT,  P01IMHI      //
                                                         P12IMHI and P01IMHI
                                                         are same reg

  130    00000A2C 9396EAE0             smlal   P12IMLO, P12IMHI, X0RE,
                                                         X1IM

  131    00000A30 9495EAE0             smlal   P12IMLO, P12IMHI, X0IM,
                                                         X1RE

  132    00000A34                      

  133    00000A34 280091E5             ldr     XBUF, [ACCBUF, #4*(10)]     //
                                                      load P22RELO into temp
                                                      buf

  134    00000A38 2C2091E5             ldr     NCT,  [ACCBUF, #4*(11)]     //
                                                      load P22REHI into temp
                                                      buf

  135    00000A3C 0BB090E0             adds    P22RELO, XBUF, P11RELO      //
                                                         P22RELO and P11RELO
                                                         are same reg

  136    00000A40 0CC0A2E0             adc     P22REHI, NCT,  P11REHI      //
                                                         P22REHI and P11REHI
                                                         are same reg

  137    00000A44 000063E2             rsb     XBUF, X0RE, #0

  138    00000A48 93B0ECE0             smlal   P22RELO, P22REHI, X0RE,
                                                         XBUF

  139    00000A4C 002064E2             rsb     NCT,  X0IM, #0

  140    00000A50 94B2ECE0             smlal   P22RELO, P22REHI, X0IM,
                                                         NCT

  141    00000A54                      

  142    00000A54 181081E2             add     ACCBUF, ACCBUF, #(4*6)

  143    00000A58 801F81E8             stmia   ACCBUF, {P12RELO-P22REHI}

  144    00000A5C              

  145    00000A5C F08FBDE8         ldmfd   sp!, {r4-r11, pc}

  146    00000A60              

  147    00000A60              // CVKernel2

  148    00000A60              #define P02RELO         r7

  149    00000A60              #define P02REHI         r8

  150    00000A60              #define P02IMLO         r9

  151    00000A60              #define P02IMHI         r10

  152    00000A60              #define X2RE            r11

  153    00000A60              #define X2IM            r12

  154    00000A60              

  155    00000A60              // void CVKernel2(int *XBuf, int *accBuf)

  156    00000A60              //   see comments in sbrhfgen.c

  157    00000A60              

  158    00000000                      PUBLIC raac_CVKernel2

  159    00000A60              raac_CVKernel2:

  160    00000A60 F04F2DE9             stmfd   sp!, {r4-r11, r14}

  161    00000A64                      

  162    00000A64 0070A0E3             mov     P02RELO, #0

  163    00000A68 0080A0E3             mov     P02REHI, #0

  164    00000A6C 0090A0E3             mov     P02IMLO, #0

  165    00000A70 00A0A0E3             mov     P02IMHI, #0

  166    00000A74                      

  167    00000A74 043090E4             ldr     X0RE, [XBUF], #4*(1)

  168    00000A78 FC4190E4             ldr     X0IM, [XBUF], #4*(2*64-1)

  169    00000A7C 045090E4             ldr     X1RE, [XBUF], #4*(1)

  170    00000A80 FC6190E4             ldr     X1IM, [XBUF], #4*(2*64-1)

  171    00000A84              

  172    00000A84 2620A0E3             mov     NCT, #(16*2 + 6)

  173    00000A88              CV2_Loop_Start:

  174    00000A88 04B090E4             ldr     X2RE, [XBUF], #4*(1)

  175    00000A8C FCC190E4             ldr     X2IM, [XBUF], #4*(2*64-1)

  176    00000A90 00E064E2             rsb     X0IMNEG, X0IM, #0

  177    00000A94              

  178    00000A94 9B73E8E0             smlal   P02RELO, P02REHI, X2RE,
                                                         X0RE

  179    00000A98 9C74E8E0             smlal   P02RELO, P02REHI, X2IM,
                                                         X0IM

  180    00000A9C 939CEAE0             smlal   P02IMLO, P02IMHI, X0RE,
                                                         X2IM

  181    00000AA0 9E9BEAE0             smlal   P02IMLO, P02IMHI, X0IMNEG,
                                                         X2RE

  182    00000AA4              

  183    00000AA4 0530A0E1             mov     X0RE, X1RE

  184    00000AA8 0640A0E1             mov     X0IM, X1IM

  185    00000AAC 0B50A0E1             mov     X1RE, X2RE

  186    00000AB0 0C60A0E1             mov     X1IM, X2IM

  187    00000AB4              

  188    00000AB4 012052E2             subs    NCT, NCT, #1

  189    00000AB8 F2FFFF1A             bne     CV2_Loop_Start

  190    00000ABC              

  191    00000ABC 800781E8             stmia   ACCBUF, {P02RELO-P02IMHI}

  192    00000AC0              

  193    00000AC0 F08FBDE8             ldmfd   sp!, {r4-r11, pc}      
                                                   

  194    00000AC4              

   11    00000AC4                      #include "AAC\AACDEC\asm\armgcc\sbrqmfak
                               .s"

    1    00000AC4              // ***** BEGIN LICENSE BLOCK *****  

    2    00000AC4              // Source last modified: $Id: sbrqmfak.s,v 1.1
                                2005/02/26 01:47:35 jrecker Exp $ 

    3    00000AC4              // 

    4    00000AC4              // Portions Copyright (c) 1995-2005 RealNetworks
                               , Inc. All Rights Reserved.  

    5    00000AC4              // 

    6    00000AC4              // The contents of this file, and the files
                                included with this file, 

    7    00000AC4              // are subject to the current version of the
                                RealNetworks Public 

    8    00000AC4              // Source License (the "RPSL") available at
                                

    9    00000AC4              // http://www.helixcommunity.org/content/rpsl
                                unless you have licensed 

   10    00000AC4              // the file under the current version of the
                                RealNetworks Community 

   11    00000AC4              // Source License (the "RCSL") available at
                                

   12    00000AC4              // http://www.helixcommunity.org/content/rcsl,
                                in which case the RCSL 

   13    00000AC4              // will apply. You may also obtain the license
                                terms directly from 

   14    00000AC4              // RealNetworks.  You may not use this file
                                except in compliance with 

   15    00000AC4              // the RPSL or, if you have a valid RCSL with
                                RealNetworks applicable 

   16    00000AC4              // to this file, the RCSL.  Please see the
                                applicable RPSL or RCSL for 

   17    00000AC4              // the rights, obligations and limitations
                                governing use of the 

   18    00000AC4              // contents of the file. 

   19    00000AC4              // 

   20    00000AC4              // This file is part of the Helix DNA Technology
                               . RealNetworks is the 

   21    00000AC4              // developer and/or licensor of the Original
                                Code and owns the  

   22    00000AC4              // copyrights in the portions it created.
                                

   23    00000AC4              //   

   24    00000AC4              // This file, and the files included with this
                                file, is distributed 

   25    00000AC4              // and made available on an 'AS IS' basis,
                                WITHOUT WARRANTY OF ANY 

   26    00000AC4              // KIND, EITHER EXPRESS OR IMPLIED, AND
                                REALNETWORKS HEREBY DISCLAIMS 

   27    00000AC4              // ALL SUCH WARRANTIES, INCLUDING WITHOUT
                                LIMITATION, ANY WARRANTIES 

   28    00000AC4              // OF MERCHANTABILITY, FITNESS FOR A PARTICULAR
                                PURPOSE, QUIET 

   29    00000AC4              // ENJOYMENT OR NON-INFRINGEMENT. 

   30    00000AC4              //  

   31    00000AC4              // Technology Compatibility Kit Test Suite(s)
                                Location:  

   32    00000AC4              //    http://www.helixcommunity.org/content/tck 
                                

   33    00000AC4              //  

   34    00000AC4              // Contributor(s):  

   35    00000AC4              //   

   36    00000AC4              // ***** END LICENSE BLOCK *****  

   37    00000AC4              

   38    00000AC4              #define CPTR0       r0

   39    00000AC4              #define DELAY       r1

   40    00000AC4              #define DIDX        r2

   41    00000AC4              #define UBUF        r3

   42    00000AC4              #define CPTR1       r4

   43    00000AC4              #define K           r5

   44    00000AC4              #define DOFF        r6

   45    00000AC4              #define ULO0        r7

   46    00000AC4              #define UHI0        r8

   47    00000AC4              #define ULO1        r9

   48    00000AC4              #define UHI1        r10

   49    00000AC4              #define COEF0       r11

   50    00000AC4              #define DVAL0       r12

   51    00000AC4              #define COEF1       r14

   52    00000AC4              #define DVAL1       r2   // overlay with
                                DIDX

   53    00000AC4              

   54    00000AC4              //void QMFAnalysisConv(int *cTab, int *delay,
                                int dIdx, int *uBuf)

   55    00000AC4              //   see comments in sbrqmf.c

   56    00000AC4              

   57    00000000                      PUBLIC raac_QMFAnalysisConv

   58    00000AC4              raac_QMFAnalysisConv:

   59    00000AC4                

   60    00000AC4 F04F2DE9             stmfd   sp!, {r4-r11, r14}

   61    00000AC8              

   62    00000AC8 8262A0E1             mov     DOFF, DIDX, lsl #5      // dOff0
                                                      = 32*dIdx

   63    00000ACC 1F6086E2             add     DOFF, DOFF, #31         // dOff0
                                                      = 32*dIdx + 31

   64    00000AD0 A44F80E2             add     CPTR1, CPTR0, #4*(164)  // cPtr1
                                                       = cPtr0 + 164

   65    00000AD4                      

   66    00000AD4                      // special first pass (flip sign for
                                cTab[384], cTab[512])

   67    00000AD4 04B090E4             ldr     COEF0, [CPTR0], #4

   68    00000AD8 04E090E4             ldr     COEF1, [CPTR0], #4

   69    00000ADC 06C191E7             ldr     DVAL0, [DELAY, DOFF, lsl
                                                       #2]

   70    00000AE0 206056E2             subs    DOFF, DOFF, #32

   71    00000AE4 506F86B2             addlt   DOFF, DOFF, #320

   72    00000AE8 062191E7             ldr     DVAL1, [DELAY, DOFF, lsl
                                                       #2]

   73    00000AEC 206056E2             subs    DOFF, DOFF, #32

   74    00000AF0 506F86B2             addlt   DOFF, DOFF, #320

   75    00000AF4 9B7CC8E0             smull   ULO0, UHI0, COEF0, DVAL0

   76    00000AF8 9E92CAE0             smull   ULO1, UHI1, COEF1, DVAL1

   77    00000AFC              

   78    00000AFC 04B090E4             ldr     COEF0, [CPTR0], #4

   79    00000B00 04E090E4             ldr     COEF1, [CPTR0], #4

   80    00000B04 06C191E7             ldr     DVAL0, [DELAY, DOFF, lsl
                                                       #2]

   81    00000B08 206056E2             subs    DOFF, DOFF, #32

   82    00000B0C 506F86B2             addlt   DOFF, DOFF, #320

   83    00000B10 062191E7             ldr     DVAL1, [DELAY, DOFF, lsl
                                                       #2]

   84    00000B14 206056E2             subs    DOFF, DOFF, #32

   85    00000B18 506F86B2             addlt   DOFF, DOFF, #320

   86    00000B1C 9B7CE8E0             smlal   ULO0, UHI0, COEF0, DVAL0

   87    00000B20 9E92EAE0             smlal   ULO1, UHI1, COEF1, DVAL1

   88    00000B24              

   89    00000B24 04B090E4             ldr     COEF0, [CPTR0], #4

   90    00000B28 04E014E4             ldr     COEF1, [CPTR1], #-4

   91    00000B2C 06C191E7             ldr     DVAL0, [DELAY, DOFF, lsl
                                                       #2]

   92    00000B30 206056E2             subs    DOFF, DOFF, #32

   93    00000B34 506F86B2             addlt   DOFF, DOFF, #320

   94    00000B38 062191E7             ldr     DVAL1, [DELAY, DOFF, lsl
                                                       #2]

   95    00000B3C 206056E2             subs    DOFF, DOFF, #32

   96    00000B40 506F86B2             addlt   DOFF, DOFF, #320

   97    00000B44 9B7CE8E0             smlal   ULO0, UHI0, COEF0, DVAL0

   98    00000B48 9E92EAE0             smlal   ULO1, UHI1, COEF1, DVAL1

   99    00000B4C              

  100    00000B4C 04B014E4             ldr     COEF0, [CPTR1], #-4

  101    00000B50 04E014E4             ldr     COEF1, [CPTR1], #-4

  102    00000B54 06C191E7             ldr     DVAL0, [DELAY, DOFF, lsl
                                                       #2]

  103    00000B58 206056E2             subs    DOFF, DOFF, #32

  104    00000B5C 506F86B2             addlt   DOFF, DOFF, #320

  105    00000B60 062191E7             ldr     DVAL1, [DELAY, DOFF, lsl
                                                       #2]

  106    00000B64 206056E2             subs    DOFF, DOFF, #32

  107    00000B68 506F86B2             addlt   DOFF, DOFF, #320

  108    00000B6C 00B06BE2             rsb     COEF0, COEF0, #0

  109    00000B70 9B7CE8E0             smlal   ULO0, UHI0, COEF0, DVAL0

  110    00000B74 9E92EAE0             smlal   ULO1, UHI1, COEF1, DVAL1

  111    00000B78              

  112    00000B78 04B014E4             ldr     COEF0, [CPTR1], #-4

  113    00000B7C 04E014E4             ldr     COEF1, [CPTR1], #-4

  114    00000B80 06C191E7             ldr     DVAL0, [DELAY, DOFF, lsl
                                                       #2]

  115    00000B84 206056E2             subs    DOFF, DOFF, #32

  116    00000B88 506F86B2             addlt   DOFF, DOFF, #320

  117    00000B8C 062191E7             ldr     DVAL1, [DELAY, DOFF, lsl
                                                       #2]

  118    00000B90 206056E2             subs    DOFF, DOFF, #32

  119    00000B94 506F86B2             addlt   DOFF, DOFF, #320

  120    00000B98 00B06BE2             rsb     COEF0, COEF0, #0

  121    00000B9C 9B7CE8E0             smlal   ULO0, UHI0, COEF0, DVAL0

  122    00000BA0 9E92EAE0             smlal   ULO1, UHI1, COEF1, DVAL1

  123    00000BA4              

  124    00000BA4 80A083E5             str     UHI1, [UBUF, #4*32]

  125    00000BA8 048083E4             str     UHI0, [UBUF], #4

  126    00000BAC 016046E2             sub     DOFF, DOFF, #1

  127    00000BB0 1F50A0E3             mov     K, #31

  128    00000BB4              

  129    00000BB4              SRC_Loop_Startfak:

  130    00000BB4 04B090E4             ldr     COEF0, [CPTR0], #4

  131    00000BB8 04E090E4             ldr     COEF1, [CPTR0], #4

  132    00000BBC 06C191E7             ldr     DVAL0, [DELAY, DOFF, lsl
                                                       #2]

  133    00000BC0 206056E2             subs    DOFF, DOFF, #32

  134    00000BC4 506F86B2             addlt   DOFF, DOFF, #320

  135    00000BC8 062191E7             ldr     DVAL1, [DELAY, DOFF, lsl
                                                       #2]

  136    00000BCC 206056E2             subs    DOFF, DOFF, #32

  137    00000BD0 506F86B2             addlt   DOFF, DOFF, #320

  138    00000BD4 9B7CC8E0             smull   ULO0, UHI0, COEF0, DVAL0

  139    00000BD8 9E92CAE0             smull   ULO1, UHI1, COEF1, DVAL1

  140    00000BDC              

  141    00000BDC 04B090E4             ldr     COEF0, [CPTR0], #4

  142    00000BE0 04E090E4             ldr     COEF1, [CPTR0], #4

  143    00000BE4 06C191E7             ldr     DVAL0, [DELAY, DOFF, lsl
                                                       #2]

  144    00000BE8 206056E2             subs    DOFF, DOFF, #32

  145    00000BEC 506F86B2             addlt   DOFF, DOFF, #320

  146    00000BF0 062191E7             ldr     DVAL1, [DELAY, DOFF, lsl
                                                       #2]

  147    00000BF4 206056E2             subs    DOFF, DOFF, #32

  148    00000BF8 506F86B2             addlt   DOFF, DOFF, #320

  149    00000BFC 9B7CE8E0             smlal   ULO0, UHI0, COEF0, DVAL0

  150    00000C00 9E92EAE0             smlal   ULO1, UHI1, COEF1, DVAL1

  151    00000C04              

  152    00000C04 04B090E4             ldr     COEF0, [CPTR0], #4

  153    00000C08 04E014E4             ldr     COEF1, [CPTR1], #-4

  154    00000C0C 06C191E7             ldr     DVAL0, [DELAY, DOFF, lsl
                                                       #2]

  155    00000C10 206056E2             subs    DOFF, DOFF, #32

  156    00000C14 506F86B2             addlt   DOFF, DOFF, #320

  157    00000C18 062191E7             ldr     DVAL1, [DELAY, DOFF, lsl
                                                       #2]

  158    00000C1C 206056E2             subs    DOFF, DOFF, #32

  159    00000C20 506F86B2             addlt   DOFF, DOFF, #320

  160    00000C24 9B7CE8E0             smlal   ULO0, UHI0, COEF0, DVAL0

  161    00000C28 9E92EAE0             smlal   ULO1, UHI1, COEF1, DVAL1

  162    00000C2C              

  163    00000C2C 04B014E4             ldr     COEF0, [CPTR1], #-4

  164    00000C30 04E014E4             ldr     COEF1, [CPTR1], #-4

  165    00000C34 06C191E7             ldr     DVAL0, [DELAY, DOFF, lsl
                                                       #2]

  166    00000C38 206056E2             subs    DOFF, DOFF, #32

  167    00000C3C 506F86B2             addlt   DOFF, DOFF, #320

  168    00000C40 062191E7             ldr     DVAL1, [DELAY, DOFF, lsl
                                                       #2]

  169    00000C44 206056E2             subs    DOFF, DOFF, #32

  170    00000C48 506F86B2             addlt   DOFF, DOFF, #320

  171    00000C4C 9B7CE8E0             smlal   ULO0, UHI0, COEF0, DVAL0

  172    00000C50 9E92EAE0             smlal   ULO1, UHI1, COEF1, DVAL1

  173    00000C54              

  174    00000C54 04B014E4             ldr     COEF0, [CPTR1], #-4

  175    00000C58 04E014E4             ldr     COEF1, [CPTR1], #-4

  176    00000C5C 06C191E7             ldr     DVAL0, [DELAY, DOFF, lsl
                                                       #2]

  177    00000C60 206056E2             subs    DOFF, DOFF, #32

  178    00000C64 506F86B2             addlt   DOFF, DOFF, #320

  179    00000C68 062191E7             ldr     DVAL1, [DELAY, DOFF, lsl
                                                       #2]

  180    00000C6C 206056E2             subs    DOFF, DOFF, #32

  181    00000C70 506F86B2             addlt   DOFF, DOFF, #320

  182    00000C74 9B7CE8E0             smlal   ULO0, UHI0, COEF0, DVAL0

  183    00000C78 9E92EAE0             smlal   ULO1, UHI1, COEF1, DVAL1

  184    00000C7C              

  185    00000C7C 80A083E5             str     UHI1, [UBUF, #4*32]

  186    00000C80 048083E4             str     UHI0, [UBUF], #4

  187    00000C84 016046E2             sub     DOFF, DOFF, #1

  188    00000C88                      

  189    00000C88 015055E2             subs    K, K, #1

  190    00000C8C C8FFFF1A             bne     SRC_Loop_Startfak

  191    00000C90              

  192    00000C90 F08FBDE8             ldmfd   sp!, {r4-r11, pc}

  193    00000C94              

  194    00000C94              

   12    00000C94                      #include "AAC\AACDEC\asm\armgcc\sbrqmfsk
                               .s"

    1    00000C94              // ***** BEGIN LICENSE BLOCK *****  

    2    00000C94              // Source last modified: $Id: sbrqmfsk.s,v 1.1
                                2005/02/26 01:47:35 jrecker Exp $ 

    3    00000C94              // 

    4    00000C94              // Portions Copyright (c) 1995-2005 RealNetworks
                               , Inc. All Rights Reserved.  

    5    00000C94              // 

    6    00000C94              // The contents of this file, and the files
                                included with this file, 

    7    00000C94              // are subject to the current version of the
                                RealNetworks Public 

    8    00000C94              // Source License (the "RPSL") available at
                                

    9    00000C94              // http://www.helixcommunity.org/content/rpsl
                                unless you have licensed 

   10    00000C94              // the file under the current version of the
                                RealNetworks Community 

   11    00000C94              // Source License (the "RCSL") available at
                                

   12    00000C94              // http://www.helixcommunity.org/content/rcsl,
                                in which case the RCSL 

   13    00000C94              // will apply. You may also obtain the license
                                terms directly from 

   14    00000C94              // RealNetworks.  You may not use this file
                                except in compliance with 

   15    00000C94              // the RPSL or, if you have a valid RCSL with
                                RealNetworks applicable 

   16    00000C94              // to this file, the RCSL.  Please see the
                                applicable RPSL or RCSL for 

   17    00000C94              // the rights, obligations and limitations
                                governing use of the 

   18    00000C94              // contents of the file. 

   19    00000C94              // 

   20    00000C94              // This file is part of the Helix DNA Technology
                               . RealNetworks is the 

   21    00000C94              // developer and/or licensor of the Original
                                Code and owns the  

   22    00000C94              // copyrights in the portions it created.
                                

   23    00000C94              //   

   24    00000C94              // This file, and the files included with this
                                file, is distributed 

   25    00000C94              // and made available on an 'AS IS' basis,
                                WITHOUT WARRANTY OF ANY 

   26    00000C94              // KIND, EITHER EXPRESS OR IMPLIED, AND
                                REALNETWORKS HEREBY DISCLAIMS 

   27    00000C94              // ALL SUCH WARRANTIES, INCLUDING WITHOUT
                                LIMITATION, ANY WARRANTIES 

   28    00000C94              // OF MERCHANTABILITY, FITNESS FOR A PARTICULAR
                                PURPOSE, QUIET 

   29    00000C94              // ENJOYMENT OR NON-INFRINGEMENT. 

   30    00000C94              //  

   31    00000C94              // Technology Compatibility Kit Test Suite(s)
                                Location:  

   32    00000C94              //    http://www.helixcommunity.org/content/tck 
                                

   33    00000C94              //  

   34    00000C94              // Contributor(s):  

   35    00000C94              //   

   36    00000C94              // ***** END LICENSE BLOCK *****  

   37    00000C94              

   38    00000C94              #define   CPTR        r0

   39    00000C94              #define DELAY       r1

   40    00000C94              #define DIDX        r2

   41    00000C94              #define OUTBUF      r3

   42    00000C94              #define K           r4

                               #define K           r4

                               ----------------------^

                               "D:\SVN\SieELF\SieELF\x65_PCM_Player\Player\AAC
                      \AACDEC\asm\armgcc\sbrqmfsk.s",42  Warning[9]: Macro
                       redefined

   43    00000C94              #define DOFF0       r5

   44    00000C94              #define DOFF1       r6

   45    00000C94              #define SUMLO       r7

   46    00000C94              #define SUMHI       r8

   47    00000C94              #define NCHANS      r9

   48    00000C94              #define COEF0       r10

                               #define COEF0       r10

                               -----------------------^

                               "D:\SVN\SieELF\SieELF\x65_PCM_Player\Player\AAC
                      \AACDEC\asm\armgcc\sbrqmfsk.s",48  Warning[9]: Macro
                       redefined

   49    00000C94              #define DVAL0       r11

                               #define DVAL0       r11

                               -----------------------^

                               "D:\SVN\SieELF\SieELF\x65_PCM_Player\Player\AAC
                      \AACDEC\asm\armgcc\sbrqmfsk.s",49  Warning[9]: Macro
                       redefined

   50    00000C94              #define COEF1       r12

                               #define COEF1       r12

                               -----------------------^

                               "D:\SVN\SieELF\SieELF\x65_PCM_Player\Player\AAC
                      \AACDEC\asm\armgcc\sbrqmfsk.s",50  Warning[9]: Macro
                       redefined

   51    00000C94              #define DVAL1       r14

                               #define DVAL1       r14

                               -----------------------^

                               "D:\SVN\SieELF\SieELF\x65_PCM_Player\Player\AAC
                      \AACDEC\asm\armgcc\sbrqmfsk.s",51  Warning[9]: Macro
                       redefined

   52    00000C94              

   53    00000C94              #define RND_VAL  4

   54    00000C94              

   55    00000C94              // void QMFSynthesisConv(int *cPtr, int *delay,
                                int dIdx, short *outbuf, int nChans);

   56    00000C94              //   see comments in sbrqmf.c

   57    00000C94              

   58    00000000                      PUBLIC raac_QMFSynthesisConv

   59    00000C94              raac_QMFSynthesisConv:

   60    00000C94                //bx lr

   61    00000C94 F04F2DE9             stmfd   sp!, {r4-r11, r14}

   62    00000C98              

   63    00000C98 24909DE5             ldr     NCHANS,  [r13, #4*9]    // we
                                                         saved 9 registers on
                                                         stack

   64    00000C9C 8253A0E1             mov     DOFF0, DIDX, lsl #7 // dOff0 =
                                                       128*dIdx

   65    00000CA0 016055E2             subs    DOFF1, DOFF0, #1    // dOff1 =
                                                       dOff0 - 1

   66    00000CA4 506E86B2             addlt   DOFF1, DOFF1, #1280 // if (dOff1
                                                       < 0) then dOff1 +=
                                                       1280

   67    00000CA8 4040A0E3             mov K, #64

   68    00000CAC              

   69    00000CAC              SRC_Loop_Start:

   70    00000CAC 04A090E4             ldr     COEF0, [CPTR], #4

   71    00000CB0 04C090E4             ldr     COEF1, [CPTR], #4

   72    00000CB4 05B191E7             ldr     DVAL0, [DELAY, DOFF0, lsl
                                                       #2]

   73    00000CB8 06E191E7             ldr     DVAL1, [DELAY, DOFF1, lsl
                                                       #2]

   74    00000CBC 9A7BC8E0             smull   SUMLO, SUMHI, COEF0, DVAL0

   75    00000CC0 405F55E2             subs    DOFF0, DOFF0, #256

   76    00000CC4 505E85B2             addlt   DOFF0, DOFF0, #1280

   77    00000CC8 9C7EE8E0             smlal   SUMLO, SUMHI, COEF1, DVAL1

   78    00000CCC 406F56E2             subs    DOFF1, DOFF1, #256

   79    00000CD0 506E86B2             addlt   DOFF1, DOFF1, #1280

   80    00000CD4              

   81    00000CD4 04A090E4             ldr     COEF0, [CPTR], #4

   82    00000CD8 04C090E4             ldr     COEF1, [CPTR], #4

   83    00000CDC 05B191E7             ldr     DVAL0, [DELAY, DOFF0, lsl
                                                       #2]

   84    00000CE0 06E191E7             ldr     DVAL1, [DELAY, DOFF1, lsl
                                                       #2]

   85    00000CE4 9A7BE8E0             smlal   SUMLO, SUMHI, COEF0, DVAL0

   86    00000CE8 405F55E2             subs    DOFF0, DOFF0, #256

   87    00000CEC 505E85B2             addlt   DOFF0, DOFF0, #1280

   88    00000CF0 9C7EE8E0             smlal   SUMLO, SUMHI, COEF1, DVAL1

   89    00000CF4 406F56E2             subs    DOFF1, DOFF1, #256

   90    00000CF8 506E86B2             addlt   DOFF1, DOFF1, #1280

   91    00000CFC              

   92    00000CFC 04A090E4             ldr     COEF0, [CPTR], #4

   93    00000D00 04C090E4             ldr     COEF1, [CPTR], #4

   94    00000D04 05B191E7             ldr     DVAL0, [DELAY, DOFF0, lsl
                                                       #2]

   95    00000D08 06E191E7             ldr     DVAL1, [DELAY, DOFF1, lsl
                                                       #2]

   96    00000D0C 9A7BE8E0             smlal   SUMLO, SUMHI, COEF0, DVAL0

   97    00000D10 405F55E2             subs    DOFF0, DOFF0, #256

   98    00000D14 505E85B2             addlt   DOFF0, DOFF0, #1280

   99    00000D18 9C7EE8E0             smlal   SUMLO, SUMHI, COEF1, DVAL1

  100    00000D1C 406F56E2             subs    DOFF1, DOFF1, #256

  101    00000D20 506E86B2             addlt   DOFF1, DOFF1, #1280

  102    00000D24              

  103    00000D24 04A090E4             ldr     COEF0, [CPTR], #4

  104    00000D28 04C090E4             ldr     COEF1, [CPTR], #4

  105    00000D2C 05B191E7             ldr     DVAL0, [DELAY, DOFF0, lsl
                                                       #2]

  106    00000D30 06E191E7             ldr     DVAL1, [DELAY, DOFF1, lsl
                                                       #2]

  107    00000D34 9A7BE8E0             smlal   SUMLO, SUMHI, COEF0, DVAL0

  108    00000D38 405F55E2             subs    DOFF0, DOFF0, #256

  109    00000D3C 505E85B2             addlt   DOFF0, DOFF0, #1280

  110    00000D40 9C7EE8E0             smlal   SUMLO, SUMHI, COEF1, DVAL1

  111    00000D44 406F56E2             subs    DOFF1, DOFF1, #256

  112    00000D48 506E86B2             addlt   DOFF1, DOFF1, #1280

  113    00000D4C              

  114    00000D4C 04A090E4             ldr     COEF0, [CPTR], #4

  115    00000D50 04C090E4             ldr     COEF1, [CPTR], #4

  116    00000D54 05B191E7             ldr     DVAL0, [DELAY, DOFF0, lsl
                                                       #2]

  117    00000D58 06E191E7             ldr     DVAL1, [DELAY, DOFF1, lsl
                                                       #2]

  118    00000D5C 9A7BE8E0             smlal   SUMLO, SUMHI, COEF0, DVAL0

  119    00000D60 405F55E2             subs    DOFF0, DOFF0, #256

  120    00000D64 505E85B2             addlt   DOFF0, DOFF0, #1280

  121    00000D68 9C7EE8E0             smlal   SUMLO, SUMHI, COEF1, DVAL1

  122    00000D6C 406F56E2             subs    DOFF1, DOFF1, #256

  123    00000D70 506E86B2             addlt   DOFF1, DOFF1, #1280

  124    00000D74              

  125    00000D74 015085E2             add     DOFF0, DOFF0, #1

  126    00000D78 016046E2             sub     DOFF1, DOFF1, #1

  127    00000D7C                      

  128    00000D7C 048088E2             add     SUMHI, SUMHI, #RND_VAL

  129    00000D80 C881A0E1             mov     SUMHI, SUMHI, asr #3

  130    00000D84 C87FA0E1             mov     SUMLO, SUMHI, asr #31

  131    00000D88 C80757E1             cmp     SUMLO, SUMHI, asr #15

  132    00000D8C 7F8C2712             eorne   SUMHI, SUMLO, #0x7f00   // takes
                                                       2 instructions for
                                                       immediate value of
                                                       0x7fffffff

  133    00000D90 FF802812             eorne   SUMHI, SUMHI, #0x00ff

  134    00000D94 B080C3E1             strh    SUMHI, [OUTBUF, #0]

  135    00000D98 893083E0             add     OUTBUF, OUTBUF, NCHANS, lsl
                                                        #1

  136    00000D9C                 

  137    00000D9C 014054E2             subs    K, K, #1

  138    00000DA0 C1FFFF1A             bne     SRC_Loop_Start

  139    00000DA4              

  140    00000DA4 F08FBDE8             ldmfd   sp!, {r4-r11, pc}

   13    00000DA8                      

   14    00000000                      PUBLIC  kill_data

   15    00000DA8                      CODE32

   16    00000DA8              kill_data

   17    00000DA8 11FF2FE1             BX      R1

   18    00000DAC              

   19    00000DAC                      END

   19.1  00000DAC                       TABLE

   19.2  00000DAC ........             Reference on line 44 

   19.3  00000DB0                      END (including table)





EOF                  DELIMITER 

\n                   DELIMITER 

                     DELIMITER 

!                    OPERATOR 

!=                   OPERATOR 

%                    OPERATOR 

&                    OPERATOR 

&&                   OPERATOR 

(                    OPERATOR 

(                    DELIMITER 

)                    OPERATOR 

)                    DELIMITER 

*                    OPERATOR 

+                    OPERATOR 

,                    DELIMITER 

-                    OPERATOR 

/                    OPERATOR 

/                    DELIMITER 

:                    Target symbol: 22 

:                    DELIMITER 

;                    Target symbol: 23 

<                    OPERATOR 

<<                   OPERATOR 

<=                   OPERATOR 

<>                   OPERATOR 

=                    OPERATOR 

=                    DIRECTIVE 

==                   OPERATOR 

>                    OPERATOR 

>=                   OPERATOR 

>>                   OPERATOR 

@                    DELIMITER 

ACCBUF               #define, value: r1, line:      41:3       88:3    116:3    118:3    119:3
                                                                    126:3    127:3    133:3    134:3
                                                                    142:3    142:3    143:3    191:3

ADC                  MNEMONIC 

ADCAL                MNEMONIC 

ADCALS               MNEMONIC 

ADCCC                MNEMONIC 

ADCCCS               MNEMONIC 

ADCCS                MNEMONIC 

ADCCSS               MNEMONIC 

ADCEQ                MNEMONIC 

ADCEQS               MNEMONIC 

ADCGE                MNEMONIC 

ADCGES               MNEMONIC 

ADCGT                MNEMONIC 

ADCGTS               MNEMONIC 

ADCHI                MNEMONIC 

ADCHIS               MNEMONIC 

ADCHS                MNEMONIC 

ADCHSS               MNEMONIC 

ADCLE                MNEMONIC 

ADCLES               MNEMONIC 

ADCLO                MNEMONIC 

ADCLOS               MNEMONIC 

ADCLS                MNEMONIC 

ADCLSS               MNEMONIC 

ADCLT                MNEMONIC 

ADCLTS               MNEMONIC 

ADCMI                MNEMONIC 

ADCMIS               MNEMONIC 

ADCNE                MNEMONIC 

ADCNES               MNEMONIC 

ADCPL                MNEMONIC 

ADCPLS               MNEMONIC 

ADCS                 MNEMONIC 

ADCSAL               MNEMONIC 

ADCSCC               MNEMONIC 

ADCSCS               MNEMONIC 

ADCSEQ               MNEMONIC 

ADCSGE               MNEMONIC 

ADCSGT               MNEMONIC 

ADCSHI               MNEMONIC 

ADCSHS               MNEMONIC 

ADCSLE               MNEMONIC 

ADCSLO               MNEMONIC 

ADCSLS               MNEMONIC 

ADCSLT               MNEMONIC 

ADCSMI               MNEMONIC 

ADCSNE               MNEMONIC 

ADCSPL               MNEMONIC 

ADCSVC               MNEMONIC 

ADCSVS               MNEMONIC 

ADCVC                MNEMONIC 

ADCVCS               MNEMONIC 

ADCVS                MNEMONIC 

ADCVSS               MNEMONIC 

ADD                  MNEMONIC 

ADDAL                MNEMONIC 

ADDALS               MNEMONIC 

ADDCC                MNEMONIC 

ADDCCS               MNEMONIC 

ADDCS                MNEMONIC 

ADDCSS               MNEMONIC 

ADDEQ                MNEMONIC 

ADDEQS               MNEMONIC 

ADDGE                MNEMONIC 

ADDGES               MNEMONIC 

ADDGT                MNEMONIC 

ADDGTS               MNEMONIC 

ADDHI                MNEMONIC 

ADDHIS               MNEMONIC 

ADDHS                MNEMONIC 

ADDHSS               MNEMONIC 

ADDLE                MNEMONIC 

ADDLES               MNEMONIC 

ADDLO                MNEMONIC 

ADDLOS               MNEMONIC 

ADDLS                MNEMONIC 

ADDLSS               MNEMONIC 

ADDLT                MNEMONIC 

ADDLTS               MNEMONIC 

ADDMI                MNEMONIC 

ADDMIS               MNEMONIC 

ADDNE                MNEMONIC 

ADDNES               MNEMONIC 

ADDPL                MNEMONIC 

ADDPLS               MNEMONIC 

ADDS                 MNEMONIC 

ADDSAL               MNEMONIC 

ADDSCC               MNEMONIC 

ADDSCS               MNEMONIC 

ADDSEQ               MNEMONIC 

ADDSGE               MNEMONIC 

ADDSGT               MNEMONIC 

ADDSHI               MNEMONIC 

ADDSHS               MNEMONIC 

ADDSLE               MNEMONIC 

ADDSLO               MNEMONIC 

ADDSLS               MNEMONIC 

ADDSLT               MNEMONIC 

ADDSMI               MNEMONIC 

ADDSNE               MNEMONIC 

ADDSPL               MNEMONIC 

ADDSVC               MNEMONIC 

ADDSVS               MNEMONIC 

ADDVC                MNEMONIC 

ADDVCS               MNEMONIC 

ADDVS                MNEMONIC 

ADDVSS               MNEMONIC 

ADDW                 MNEMONIC 

ADR                  MNEMONIC 

ADRAL                MNEMONIC 

ADRCC                MNEMONIC 

ADRCS                MNEMONIC 

ADREQ                MNEMONIC 

ADRGE                MNEMONIC 

ADRGT                MNEMONIC 

ADRHI                MNEMONIC 

ADRHS                MNEMONIC 

ADRL                 MNEMONIC 

ADRLCC               MNEMONIC 

ADRLCS               MNEMONIC 

ADRLE                MNEMONIC 

ADRLEQ               MNEMONIC 

ADRLGE               MNEMONIC 

ADRLGT               MNEMONIC 

ADRLHI               MNEMONIC 

ADRLHS               MNEMONIC 

ADRLLE               MNEMONIC 

ADRLLO               MNEMONIC 

ADRLLS               MNEMONIC 

ADRLLT               MNEMONIC 

ADRLMI               MNEMONIC 

ADRLNE               MNEMONIC 

ADRLO                MNEMONIC 

ADRLPL               MNEMONIC 

ADRLS                MNEMONIC 

ADRLT                MNEMONIC 

ADRLVC               MNEMONIC 

ADRLVS               MNEMONIC 

ADRMI                MNEMONIC 

ADRNE                MNEMONIC 

ADRPL                MNEMONIC 

ADRVC                MNEMONIC 

ADRVS                MNEMONIC 

ALIAS                DIRECTIVE 

ALIGN                DIRECTIVE 

ALIGNRAM             DIRECTIVE 

ALIGNROM             DIRECTIVE 

AND                  MNEMONIC 

ANDAL                MNEMONIC 

ANDALS               MNEMONIC 

ANDCC                MNEMONIC 

ANDCCS               MNEMONIC 

ANDCS                MNEMONIC 

ANDCSS               MNEMONIC 

ANDEQ                MNEMONIC 

ANDEQS               MNEMONIC 

ANDGE                MNEMONIC 

ANDGES               MNEMONIC 

ANDGT                MNEMONIC 

ANDGTS               MNEMONIC 

ANDHI                MNEMONIC 

ANDHIS               MNEMONIC 

ANDHS                MNEMONIC 

ANDHSS               MNEMONIC 

ANDLE                MNEMONIC 

ANDLES               MNEMONIC 

ANDLO                MNEMONIC 

ANDLOS               MNEMONIC 

ANDLS                MNEMONIC 

ANDLSS               MNEMONIC 

ANDLT                MNEMONIC 

ANDLTS               MNEMONIC 

ANDMI                MNEMONIC 

ANDMIS               MNEMONIC 

ANDNE                MNEMONIC 

ANDNES               MNEMONIC 

ANDPL                MNEMONIC 

ANDPLS               MNEMONIC 

ANDS                 MNEMONIC 

ANDSAL               MNEMONIC 

ANDSCC               MNEMONIC 

ANDSCS               MNEMONIC 

ANDSEQ               MNEMONIC 

ANDSGE               MNEMONIC 

ANDSGT               MNEMONIC 

ANDSHI               MNEMONIC 

ANDSHS               MNEMONIC 

ANDSLE               MNEMONIC 

ANDSLO               MNEMONIC 

ANDSLS               MNEMONIC 

ANDSLT               MNEMONIC 

ANDSMI               MNEMONIC 

ANDSNE               MNEMONIC 

ANDSPL               MNEMONIC 

ANDSVC               MNEMONIC 

ANDSVS               MNEMONIC 

ANDVC                MNEMONIC 

ANDVCS               MNEMONIC 

ANDVS                MNEMONIC 

ANDVSS               MNEMONIC 

ARGFRAME             DIRECTIVE 

ARM                  DIRECTIVE 

ASEG                 DIRECTIVE 

ASEGN                DIRECTIVE 

ASL                  MNEMONIC 

ASLS                 MNEMONIC 

ASR                  MNEMONIC 

ASRS                 MNEMONIC 

B                    MNEMONIC 

BAL                  MNEMONIC 

BCC                  MNEMONIC 

BCS                  MNEMONIC 

BEQ                  MNEMONIC 

BFC                  MNEMONIC 

BFI                  MNEMONIC 

BGE                  MNEMONIC 

BGT                  MNEMONIC 

BHI                  MNEMONIC 

BHS                  MNEMONIC 

BIC                  MNEMONIC 

BICAL                MNEMONIC 

BICALS               MNEMONIC 

BICCC                MNEMONIC 

BICCCS               MNEMONIC 

BICCS                MNEMONIC 

BICCSS               MNEMONIC 

BICEQ                MNEMONIC 

BICEQS               MNEMONIC 

BICGE                MNEMONIC 

BICGES               MNEMONIC 

BICGT                MNEMONIC 

BICGTS               MNEMONIC 

BICHI                MNEMONIC 

BICHIS               MNEMONIC 

BICHS                MNEMONIC 

BICHSS               MNEMONIC 

BICLE                MNEMONIC 

BICLES               MNEMONIC 

BICLO                MNEMONIC 

BICLOS               MNEMONIC 

BICLS                MNEMONIC 

BICLSS               MNEMONIC 

BICLT                MNEMONIC 

BICLTS               MNEMONIC 

BICMI                MNEMONIC 

BICMIS               MNEMONIC 

BICNE                MNEMONIC 

BICNES               MNEMONIC 

BICPL                MNEMONIC 

BICPLS               MNEMONIC 

BICS                 MNEMONIC 

BICSAL               MNEMONIC 

BICSCC               MNEMONIC 

BICSCS               MNEMONIC 

BICSEQ               MNEMONIC 

BICSGE               MNEMONIC 

BICSGT               MNEMONIC 

BICSHI               MNEMONIC 

BICSHS               MNEMONIC 

BICSLE               MNEMONIC 

BICSLO               MNEMONIC 

BICSLS               MNEMONIC 

BICSLT               MNEMONIC 

BICSMI               MNEMONIC 

BICSNE               MNEMONIC 

BICSPL               MNEMONIC 

BICSVC               MNEMONIC 

BICSVS               MNEMONIC 

BICVC                MNEMONIC 

BICVCS               MNEMONIC 

BICVS                MNEMONIC 

BICVSS               MNEMONIC 

BIT                  SEGMENT TYPE 

BKPT                 MNEMONIC 

BL                   MNEMONIC 

BLAL                 MNEMONIC 

BLCC                 MNEMONIC 

BLCS                 MNEMONIC 

BLE                  MNEMONIC 

BLEQ                 MNEMONIC 

BLGE                 MNEMONIC 

BLGT                 MNEMONIC 

BLHI                 MNEMONIC 

BLHS                 MNEMONIC 

BLLE                 MNEMONIC 

BLLO                 MNEMONIC 

BLLS                 MNEMONIC 

BLLT                 MNEMONIC 

BLMI                 MNEMONIC 

BLNE                 MNEMONIC 

BLO                  MNEMONIC 

BLOCK                DIRECTIVE 

BLPL                 MNEMONIC 

BLS                  MNEMONIC 

BLT                  MNEMONIC 

BLVC                 MNEMONIC 

BLVS                 MNEMONIC 

BLX                  MNEMONIC 

BLXAL                MNEMONIC 

BLXCC                MNEMONIC 

BLXCS                MNEMONIC 

BLXEQ                MNEMONIC 

BLXGE                MNEMONIC 

BLXGT                MNEMONIC 

BLXHI                MNEMONIC 

BLXHS                MNEMONIC 

BLXLE                MNEMONIC 

BLXLO                MNEMONIC 

BLXLS                MNEMONIC 

BLXLT                MNEMONIC 

BLXMI                MNEMONIC 

BLXNE                MNEMONIC 

BLXPL                MNEMONIC 

BLXVC                MNEMONIC 

BLXVS                MNEMONIC 

BMI                  MNEMONIC 

BNE                  MNEMONIC 

BPL                  MNEMONIC 

BVC                  MNEMONIC 

BVS                  MNEMONIC 

BX                   MNEMONIC 

BXAL                 MNEMONIC 

BXCC                 MNEMONIC 

BXCS                 MNEMONIC 

BXEQ                 MNEMONIC 

BXGE                 MNEMONIC 

BXGT                 MNEMONIC 

BXHI                 MNEMONIC 

BXHS                 MNEMONIC 

BXJ                  MNEMONIC 

BXJAL                MNEMONIC 

BXJCC                MNEMONIC 

BXJCS                MNEMONIC 

BXJEQ                MNEMONIC 

BXJGE                MNEMONIC 

BXJGT                MNEMONIC 

BXJHI                MNEMONIC 

BXJHS                MNEMONIC 

BXJLE                MNEMONIC 

BXJLO                MNEMONIC 

BXJLS                MNEMONIC 

BXJLT                MNEMONIC 

BXJMI                MNEMONIC 

BXJNE                MNEMONIC 

BXJPL                MNEMONIC 

BXJVC                MNEMONIC 

BXJVS                MNEMONIC 

BXLE                 MNEMONIC 

BXLO                 MNEMONIC 

BXLS                 MNEMONIC 

BXLT                 MNEMONIC 

BXMI                 MNEMONIC 

BXNE                 MNEMONIC 

BXPL                 MNEMONIC 

BXVC                 MNEMONIC 

BXVS                 MNEMONIC 

BYTE1                OPERATOR 

BYTE2                OPERATOR 

BYTE3                OPERATOR 

BYTE4                OPERATOR 

C0                   REGISTER 

C1                   REGISTER 

C10                  REGISTER 

C11                  REGISTER 

C12                  REGISTER 

C13                  REGISTER 

C14                  REGISTER 

C15                  REGISTER 

C2                   REGISTER 

C3                   REGISTER 

C4                   REGISTER 

C5                   REGISTER 

C6                   REGISTER 

C7                   REGISTER 

C8                   REGISTER 

C9                   REGISTER 

CASEOFF              DIRECTIVE 

CASEON               DIRECTIVE 

CBNZ                 MNEMONIC 

CBZ                  MNEMONIC 

CDP                  MNEMONIC 

CDP2                 MNEMONIC 

CDPAL                MNEMONIC 

CDPCC                MNEMONIC 

CDPCS                MNEMONIC 

CDPEQ                MNEMONIC 

CDPGE                MNEMONIC 

CDPGT                MNEMONIC 

CDPHI                MNEMONIC 

CDPHS                MNEMONIC 

CDPLE                MNEMONIC 

CDPLO                MNEMONIC 

CDPLS                MNEMONIC 

CDPLT                MNEMONIC 

CDPMI                MNEMONIC 

CDPNE                MNEMONIC 

CDPPL                MNEMONIC 

CDPVC                MNEMONIC 

CDPVS                MNEMONIC 

CFI                  DIRECTIVE 

CLREX                MNEMONIC 

CLZ                  MNEMONIC 

CLZAL                MNEMONIC 

CLZCC                MNEMONIC 

CLZCS                MNEMONIC 

CLZEQ                MNEMONIC 

CLZGE                MNEMONIC 

CLZGT                MNEMONIC 

CLZHI                MNEMONIC 

CLZHS                MNEMONIC 

CLZLE                MNEMONIC 

CLZLO                MNEMONIC 

CLZLS                MNEMONIC 

CLZLT                MNEMONIC 

CLZMI                MNEMONIC 

CLZNE                MNEMONIC 

CLZPL                MNEMONIC 

CLZVC                MNEMONIC 

CLZVS                MNEMONIC 

CMN                  MNEMONIC 

CMNAL                MNEMONIC 

CMNCC                MNEMONIC 

CMNCS                MNEMONIC 

CMNEQ                MNEMONIC 

CMNGE                MNEMONIC 

CMNGT                MNEMONIC 

CMNHI                MNEMONIC 

CMNHS                MNEMONIC 

CMNLE                MNEMONIC 

CMNLO                MNEMONIC 

CMNLS                MNEMONIC 

CMNLT                MNEMONIC 

CMNMI                MNEMONIC 

CMNNE                MNEMONIC 

CMNPL                MNEMONIC 

CMNVC                MNEMONIC 

CMNVS                MNEMONIC 

CMP                  MNEMONIC 

CMPAL                MNEMONIC 

CMPCC                MNEMONIC 

CMPCS                MNEMONIC 

CMPEQ                MNEMONIC 

CMPGE                MNEMONIC 

CMPGT                MNEMONIC 

CMPHI                MNEMONIC 

CMPHS                MNEMONIC 

CMPLE                MNEMONIC 

CMPLO                MNEMONIC 

CMPLS                MNEMONIC 

CMPLT                MNEMONIC 

CMPMI                MNEMONIC 

CMPNE                MNEMONIC 

CMPPL                MNEMONIC 

CMPVC                MNEMONIC 

CMPVS                MNEMONIC 

CODE                 SEGMENT TYPE 

CODE16               DIRECTIVE 

CODE32               DIRECTIVE 

COEF0                #define, value: r10, line:      48:5       48:5     70:5     74:5     81:5
                                                                     85:5     92:5     96:5    103:5
                                                                    107:5    114:5    118:5

COEF1                #define, value: r12, line:      50:5       50:5     71:5     77:5     82:5
                                                                     88:5     93:5     99:5    104:5
                                                                    110:5    115:5    121:5

COL                  DIRECTIVE 

COMMON               DIRECTIVE 

CONST                SEGMENT TYPE 

CPS                  MNEMONIC 

CPSID                MNEMONIC 

CPSIE                MNEMONIC 

CPTR                 #define, value: r0, line:      38:5       70:5     71:5     81:5     82:5
                                                                     92:5     93:5    103:5    104:5
                                                                    114:5    115:5

CPTR0                #define, value: r0, line:      38:4       64:4     67:4     68:4     78:4
                                                                     79:4     89:4    130:4    131:4
                                                                    141:4    142:4    152:4

CPTR1                #define, value: r4, line:      42:4       64:4     90:4    100:4    101:4
                                                                    112:4    113:4    153:4    163:4
                                                                    164:4    174:4    175:4

CPY                  MNEMONIC 

CPYAL                MNEMONIC 

CPYCC                MNEMONIC 

CPYCS                MNEMONIC 

CPYEQ                MNEMONIC 

CPYGE                MNEMONIC 

CPYGT                MNEMONIC 

CPYHI                MNEMONIC 

CPYHS                MNEMONIC 

CPYLE                MNEMONIC 

CPYLO                MNEMONIC 

CPYLS                MNEMONIC 

CPYLT                MNEMONIC 

CPYMI                MNEMONIC 

CPYNE                MNEMONIC 

CPYPL                MNEMONIC 

CPYVC                MNEMONIC 

CPYVS                MNEMONIC 

DATA                 SEGMENT TYPE 

DATA                 DIRECTIVE 

DATE                 OPERATOR 

DC16                 DIRECTIVE 

DC24                 DIRECTIVE 

DC32                 DIRECTIVE 

DC8                  DIRECTIVE 

DCB                  DIRECTIVE 

DCD                  DIRECTIVE 

DCW                  DIRECTIVE 

DEFINE               DIRECTIVE 

DELAY                #define, value: r1, line:      39:5       39:5     72:5     73:5     83:5
                                                                     84:5     94:5     95:5    105:5
                                                                    106:5    116:5    117:5

DF32                 DIRECTIVE 

DF64                 DIRECTIVE 

DIDX                 #define, value: r2, line:      40:5       40:5     64:5

DMB                  MNEMONIC 

DOFF                 #define, value: r6, line:      44:4       62:4     63:4     63:4     69:4
                                                                     70:4     70:4     71:4     71:4
                                                                     72:4     73:4     73:4     74:4
                                                                     74:4     80:4     81:4     81:4
                                                                     82:4     82:4     83:4     84:4
                                                                     84:4     85:4     85:4     91:4
                                                                     92:4     92:4     93:4     93:4
                                                                     94:4     95:4     95:4     96:4
                                                                     96:4    102:4    103:4    103:4
                                                                    104:4    104:4    105:4    106:4
                                                                    106:4    107:4    107:4    114:4
                                                                    115:4    115:4    116:4    116:4
                                                                    117:4    118:4    118:4    119:4
                                                                    119:4    126:4    126:4    132:4
                                                                    133:4    133:4    134:4    134:4
                                                                    135:4    136:4    136:4    137:4
                                                                    137:4    143:4    144:4    144:4
                                                                    145:4    145:4    146:4    147:4
                                                                    147:4    148:4    148:4    154:4
                                                                    155:4    155:4    156:4    156:4
                                                                    157:4    158:4    158:4    159:4
                                                                    159:4    165:4    166:4    166:4
                                                                    167:4    167:4    168:4    169:4
                                                                    169:4    170:4    170:4    176:4
                                                                    177:4    177:4    178:4    178:4
                                                                    179:4    180:4    180:4    181:4
                                                                    181:4    187:4    187:4

DOFF0                #define, value: r5, line:      43:5       64:5     65:5     72:5     75:5
                                                                     75:5     76:5     76:5     83:5
                                                                     86:5     86:5     87:5     87:5
                                                                     94:5     97:5     97:5     98:5
                                                                     98:5    105:5    108:5    108:5
                                                                    109:5    109:5    116:5    119:5
                                                                    119:5    120:5    120:5    125:5
                                                                    125:5

DOFF1                #define, value: r6, line:      44:5       65:5     66:5     66:5     73:5
                                                                     78:5     78:5     79:5     79:5
                                                                     84:5     89:5     89:5     90:5
                                                                     90:5     95:5    100:5    100:5
                                                                    101:5    101:5    106:5    111:5
                                                                    111:5    112:5    112:5    117:5
                                                                    122:5    122:5    123:5    123:5
                                                                    126:5    126:5

DS16                 DIRECTIVE 

DS24                 DIRECTIVE 

DS32                 DIRECTIVE 

DS8                  DIRECTIVE 

DSB                  MNEMONIC 

DVAL0                #define, value: r11, line:      49:5       49:5     72:5     74:5     83:5
                                                                     85:5     94:5     96:5    105:5
                                                                    107:5    116:5    118:5

DVAL1                #define, value: r14, line:      51:5       51:5     73:5     77:5     84:5
                                                                     88:5     95:5     99:5    106:5
                                                                    110:5    117:5    121:5

ELSE                 DIRECTIVE 

ELSEIF               DIRECTIVE 

END                  DIRECTIVE 

ENDIF                DIRECTIVE 

ENDM                 DIRECTIVE 

ENDMOD               DIRECTIVE 

ENDR                 DIRECTIVE 

EOR                  MNEMONIC 

EORAL                MNEMONIC 

EORALS               MNEMONIC 

EORCC                MNEMONIC 

EORCCS               MNEMONIC 

EORCS                MNEMONIC 

EORCSS               MNEMONIC 

EOREQ                MNEMONIC 

EOREQS               MNEMONIC 

EORGE                MNEMONIC 

EORGES               MNEMONIC 

EORGT                MNEMONIC 

EORGTS               MNEMONIC 

EORHI                MNEMONIC 

EORHIS               MNEMONIC 

EORHS                MNEMONIC 

EORHSS               MNEMONIC 

EORLE                MNEMONIC 

EORLES               MNEMONIC 

EORLO                MNEMONIC 

EORLOS               MNEMONIC 

EORLS                MNEMONIC 

EORLSS               MNEMONIC 

EORLT                MNEMONIC 

EORLTS               MNEMONIC 

EORMI                MNEMONIC 

EORMIS               MNEMONIC 

EORNE                MNEMONIC 

EORNES               MNEMONIC 

EORPL                MNEMONIC 

EORPLS               MNEMONIC 

EORS                 MNEMONIC 

EORSAL               MNEMONIC 

EORSCC               MNEMONIC 

EORSCS               MNEMONIC 

EORSEQ               MNEMONIC 

EORSGE               MNEMONIC 

EORSGT               MNEMONIC 

EORSHI               MNEMONIC 

EORSHS               MNEMONIC 

EORSLE               MNEMONIC 

EORSLO               MNEMONIC 

EORSLS               MNEMONIC 

EORSLT               MNEMONIC 

EORSMI               MNEMONIC 

EORSNE               MNEMONIC 

EORSPL               MNEMONIC 

EORSVC               MNEMONIC 

EORSVS               MNEMONIC 

EORVC                MNEMONIC 

EORVCS               MNEMONIC 

EORVS                MNEMONIC 

EORVSS               MNEMONIC 

EQU                  DIRECTIVE 

EVEN                 DIRECTIVE 

EXITM                DIRECTIVE 

EXPORT               DIRECTIVE 

EXTERN               DIRECTIVE 

FABSD                MNEMONIC 

FABSDAL              MNEMONIC 

FABSDCC              MNEMONIC 

FABSDCS              MNEMONIC 

FABSDEQ              MNEMONIC 

FABSDGE              MNEMONIC 

FABSDGT              MNEMONIC 

FABSDHI              MNEMONIC 

FABSDHS              MNEMONIC 

FABSDLE              MNEMONIC 

FABSDLO              MNEMONIC 

FABSDLS              MNEMONIC 

FABSDLT              MNEMONIC 

FABSDMI              MNEMONIC 

FABSDNE              MNEMONIC 

FABSDPL              MNEMONIC 

FABSDVC              MNEMONIC 

FABSDVS              MNEMONIC 

FABSS                MNEMONIC 

FABSSAL              MNEMONIC 

FABSSCC              MNEMONIC 

FABSSCS              MNEMONIC 

FABSSEQ              MNEMONIC 

FABSSGE              MNEMONIC 

FABSSGT              MNEMONIC 

FABSSHI              MNEMONIC 

FABSSHS              MNEMONIC 

FABSSLE              MNEMONIC 

FABSSLO              MNEMONIC 

FABSSLS              MNEMONIC 

FABSSLT              MNEMONIC 

FABSSMI              MNEMONIC 

FABSSNE              MNEMONIC 

FABSSPL              MNEMONIC 

FABSSVC              MNEMONIC 

FABSSVS              MNEMONIC 

FADDD                MNEMONIC 

FADDDAL              MNEMONIC 

FADDDCC              MNEMONIC 

FADDDCS              MNEMONIC 

FADDDEQ              MNEMONIC 

FADDDGE              MNEMONIC 

FADDDGT              MNEMONIC 

FADDDHI              MNEMONIC 

FADDDHS              MNEMONIC 

FADDDLE              MNEMONIC 

FADDDLO              MNEMONIC 

FADDDLS              MNEMONIC 

FADDDLT              MNEMONIC 

FADDDMI              MNEMONIC 

FADDDNE              MNEMONIC 

FADDDPL              MNEMONIC 

FADDDVC              MNEMONIC 

FADDDVS              MNEMONIC 

FADDS                MNEMONIC 

FADDSAL              MNEMONIC 

FADDSCC              MNEMONIC 

FADDSCS              MNEMONIC 

FADDSEQ              MNEMONIC 

FADDSGE              MNEMONIC 

FADDSGT              MNEMONIC 

FADDSHI              MNEMONIC 

FADDSHS              MNEMONIC 

FADDSLE              MNEMONIC 

FADDSLO              MNEMONIC 

FADDSLS              MNEMONIC 

FADDSLT              MNEMONIC 

FADDSMI              MNEMONIC 

FADDSNE              MNEMONIC 

FADDSPL              MNEMONIC 

FADDSVC              MNEMONIC 

FADDSVS              MNEMONIC 

FAR                  SEGMENT TYPE 

FARCODE              SEGMENT TYPE 

FARCONST             SEGMENT TYPE 

FARDATA              SEGMENT TYPE 

FCMPD                MNEMONIC 

FCMPDAL              MNEMONIC 

FCMPDCC              MNEMONIC 

FCMPDCS              MNEMONIC 

FCMPDEQ              MNEMONIC 

FCMPDGE              MNEMONIC 

FCMPDGT              MNEMONIC 

FCMPDHI              MNEMONIC 

FCMPDHS              MNEMONIC 

FCMPDLE              MNEMONIC 

FCMPDLO              MNEMONIC 

FCMPDLS              MNEMONIC 

FCMPDLT              MNEMONIC 

FCMPDMI              MNEMONIC 

FCMPDNE              MNEMONIC 

FCMPDPL              MNEMONIC 

FCMPDVC              MNEMONIC 

FCMPDVS              MNEMONIC 

FCMPED               MNEMONIC 

FCMPEDAL             MNEMONIC 

FCMPEDCC             MNEMONIC 

FCMPEDCS             MNEMONIC 

FCMPEDEQ             MNEMONIC 

FCMPEDGE             MNEMONIC 

FCMPEDGT             MNEMONIC 

FCMPEDHI             MNEMONIC 

FCMPEDHS             MNEMONIC 

FCMPEDLE             MNEMONIC 

FCMPEDLO             MNEMONIC 

FCMPEDLS             MNEMONIC 

FCMPEDLT             MNEMONIC 

FCMPEDMI             MNEMONIC 

FCMPEDNE             MNEMONIC 

FCMPEDPL             MNEMONIC 

FCMPEDVC             MNEMONIC 

FCMPEDVS             MNEMONIC 

FCMPES               MNEMONIC 

FCMPESAL             MNEMONIC 

FCMPESCC             MNEMONIC 

FCMPESCS             MNEMONIC 

FCMPESEQ             MNEMONIC 

FCMPESGE             MNEMONIC 

FCMPESGT             MNEMONIC 

FCMPESHI             MNEMONIC 

FCMPESHS             MNEMONIC 

FCMPESLE             MNEMONIC 

FCMPESLO             MNEMONIC 

FCMPESLS             MNEMONIC 

FCMPESLT             MNEMONIC 

FCMPESMI             MNEMONIC 

FCMPESNE             MNEMONIC 

FCMPESPL             MNEMONIC 

FCMPESVC             MNEMONIC 

FCMPESVS             MNEMONIC 

FCMPEZD              MNEMONIC 

FCMPEZDAL            MNEMONIC 

FCMPEZDCC            MNEMONIC 

FCMPEZDCS            MNEMONIC 

FCMPEZDEQ            MNEMONIC 

FCMPEZDGE            MNEMONIC 

FCMPEZDGT            MNEMONIC 

FCMPEZDHI            MNEMONIC 

FCMPEZDHS            MNEMONIC 

FCMPEZDLE            MNEMONIC 

FCMPEZDLO            MNEMONIC 

FCMPEZDLS            MNEMONIC 

FCMPEZDLT            MNEMONIC 

FCMPEZDMI            MNEMONIC 

FCMPEZDNE            MNEMONIC 

FCMPEZDPL            MNEMONIC 

FCMPEZDVC            MNEMONIC 

FCMPEZDVS            MNEMONIC 

FCMPEZS              MNEMONIC 

FCMPEZSAL            MNEMONIC 

FCMPEZSCC            MNEMONIC 

FCMPEZSCS            MNEMONIC 

FCMPEZSEQ            MNEMONIC 

FCMPEZSGE            MNEMONIC 

FCMPEZSGT            MNEMONIC 

FCMPEZSHI            MNEMONIC 

FCMPEZSHS            MNEMONIC 

FCMPEZSLE            MNEMONIC 

FCMPEZSLO            MNEMONIC 

FCMPEZSLS            MNEMONIC 

FCMPEZSLT            MNEMONIC 

FCMPEZSMI            MNEMONIC 

FCMPEZSNE            MNEMONIC 

FCMPEZSPL            MNEMONIC 

FCMPEZSVC            MNEMONIC 

FCMPEZSVS            MNEMONIC 

FCMPS                MNEMONIC 

FCMPSAL              MNEMONIC 

FCMPSCC              MNEMONIC 

FCMPSCS              MNEMONIC 

FCMPSEQ              MNEMONIC 

FCMPSGE              MNEMONIC 

FCMPSGT              MNEMONIC 

FCMPSHI              MNEMONIC 

FCMPSHS              MNEMONIC 

FCMPSLE              MNEMONIC 

FCMPSLO              MNEMONIC 

FCMPSLS              MNEMONIC 

FCMPSLT              MNEMONIC 

FCMPSMI              MNEMONIC 

FCMPSNE              MNEMONIC 

FCMPSPL              MNEMONIC 

FCMPSVC              MNEMONIC 

FCMPSVS              MNEMONIC 

FCMPZD               MNEMONIC 

FCMPZDAL             MNEMONIC 

FCMPZDCC             MNEMONIC 

FCMPZDCS             MNEMONIC 

FCMPZDEQ             MNEMONIC 

FCMPZDGE             MNEMONIC 

FCMPZDGT             MNEMONIC 

FCMPZDHI             MNEMONIC 

FCMPZDHS             MNEMONIC 

FCMPZDLE             MNEMONIC 

FCMPZDLO             MNEMONIC 

FCMPZDLS             MNEMONIC 

FCMPZDLT             MNEMONIC 

FCMPZDMI             MNEMONIC 

FCMPZDNE             MNEMONIC 

FCMPZDPL             MNEMONIC 

FCMPZDVC             MNEMONIC 

FCMPZDVS             MNEMONIC 

FCMPZS               MNEMONIC 

FCMPZSAL             MNEMONIC 

FCMPZSCC             MNEMONIC 

FCMPZSCS             MNEMONIC 

FCMPZSEQ             MNEMONIC 

FCMPZSGE             MNEMONIC 

FCMPZSGT             MNEMONIC 

FCMPZSHI             MNEMONIC 

FCMPZSHS             MNEMONIC 

FCMPZSLE             MNEMONIC 

FCMPZSLO             MNEMONIC 

FCMPZSLS             MNEMONIC 

FCMPZSLT             MNEMONIC 

FCMPZSMI             MNEMONIC 

FCMPZSNE             MNEMONIC 

FCMPZSPL             MNEMONIC 

FCMPZSVC             MNEMONIC 

FCMPZSVS             MNEMONIC 

FCPYD                MNEMONIC 

FCPYDAL              MNEMONIC 

FCPYDCC              MNEMONIC 

FCPYDCS              MNEMONIC 

FCPYDEQ              MNEMONIC 

FCPYDGE              MNEMONIC 

FCPYDGT              MNEMONIC 

FCPYDHI              MNEMONIC 

FCPYDHS              MNEMONIC 

FCPYDLE              MNEMONIC 

FCPYDLO              MNEMONIC 

FCPYDLS              MNEMONIC 

FCPYDLT              MNEMONIC 

FCPYDMI              MNEMONIC 

FCPYDNE              MNEMONIC 

FCPYDPL              MNEMONIC 

FCPYDVC              MNEMONIC 

FCPYDVS              MNEMONIC 

FCPYS                MNEMONIC 

FCPYSAL              MNEMONIC 

FCPYSCC              MNEMONIC 

FCPYSCS              MNEMONIC 

FCPYSEQ              MNEMONIC 

FCPYSGE              MNEMONIC 

FCPYSGT              MNEMONIC 

FCPYSHI              MNEMONIC 

FCPYSHS              MNEMONIC 

FCPYSLE              MNEMONIC 

FCPYSLO              MNEMONIC 

FCPYSLS              MNEMONIC 

FCPYSLT              MNEMONIC 

FCPYSMI              MNEMONIC 

FCPYSNE              MNEMONIC 

FCPYSPL              MNEMONIC 

FCPYSVC              MNEMONIC 

FCPYSVS              MNEMONIC 

FCVTDS               MNEMONIC 

FCVTDSAL             MNEMONIC 

FCVTDSCC             MNEMONIC 

FCVTDSCS             MNEMONIC 

FCVTDSEQ             MNEMONIC 

FCVTDSGE             MNEMONIC 

FCVTDSGT             MNEMONIC 

FCVTDSHI             MNEMONIC 

FCVTDSHS             MNEMONIC 

FCVTDSLE             MNEMONIC 

FCVTDSLO             MNEMONIC 

FCVTDSLS             MNEMONIC 

FCVTDSLT             MNEMONIC 

FCVTDSMI             MNEMONIC 

FCVTDSNE             MNEMONIC 

FCVTDSPL             MNEMONIC 

FCVTDSVC             MNEMONIC 

FCVTDSVS             MNEMONIC 

FCVTSD               MNEMONIC 

FCVTSDAL             MNEMONIC 

FCVTSDCC             MNEMONIC 

FCVTSDCS             MNEMONIC 

FCVTSDEQ             MNEMONIC 

FCVTSDGE             MNEMONIC 

FCVTSDGT             MNEMONIC 

FCVTSDHI             MNEMONIC 

FCVTSDHS             MNEMONIC 

FCVTSDLE             MNEMONIC 

FCVTSDLO             MNEMONIC 

FCVTSDLS             MNEMONIC 

FCVTSDLT             MNEMONIC 

FCVTSDMI             MNEMONIC 

FCVTSDNE             MNEMONIC 

FCVTSDPL             MNEMONIC 

FCVTSDVC             MNEMONIC 

FCVTSDVS             MNEMONIC 

FDIVD                MNEMONIC 

FDIVDAL              MNEMONIC 

FDIVDCC              MNEMONIC 

FDIVDCS              MNEMONIC 

FDIVDEQ              MNEMONIC 

FDIVDGE              MNEMONIC 

FDIVDGT              MNEMONIC 

FDIVDHI              MNEMONIC 

FDIVDHS              MNEMONIC 

FDIVDLE              MNEMONIC 

FDIVDLO              MNEMONIC 

FDIVDLS              MNEMONIC 

FDIVDLT              MNEMONIC 

FDIVDMI              MNEMONIC 

FDIVDNE              MNEMONIC 

FDIVDPL              MNEMONIC 

FDIVDVC              MNEMONIC 

FDIVDVS              MNEMONIC 

FDIVS                MNEMONIC 

FDIVSAL              MNEMONIC 

FDIVSCC              MNEMONIC 

FDIVSCS              MNEMONIC 

FDIVSEQ              MNEMONIC 

FDIVSGE              MNEMONIC 

FDIVSGT              MNEMONIC 

FDIVSHI              MNEMONIC 

FDIVSHS              MNEMONIC 

FDIVSLE              MNEMONIC 

FDIVSLO              MNEMONIC 

FDIVSLS              MNEMONIC 

FDIVSLT              MNEMONIC 

FDIVSMI              MNEMONIC 

FDIVSNE              MNEMONIC 

FDIVSPL              MNEMONIC 

FDIVSVC              MNEMONIC 

FDIVSVS              MNEMONIC 

FLDD                 MNEMONIC 

FLDDAL               MNEMONIC 

FLDDCC               MNEMONIC 

FLDDCS               MNEMONIC 

FLDDEQ               MNEMONIC 

FLDDGE               MNEMONIC 

FLDDGT               MNEMONIC 

FLDDHI               MNEMONIC 

FLDDHS               MNEMONIC 

FLDDLE               MNEMONIC 

FLDDLO               MNEMONIC 

FLDDLS               MNEMONIC 

FLDDLT               MNEMONIC 

FLDDMI               MNEMONIC 

FLDDNE               MNEMONIC 

FLDDPL               MNEMONIC 

FLDDVC               MNEMONIC 

FLDDVS               MNEMONIC 

FLDMDBD              MNEMONIC 

FLDMDBDAL            MNEMONIC 

FLDMDBDCC            MNEMONIC 

FLDMDBDCS            MNEMONIC 

FLDMDBDEQ            MNEMONIC 

FLDMDBDGE            MNEMONIC 

FLDMDBDGT            MNEMONIC 

FLDMDBDHI            MNEMONIC 

FLDMDBDHS            MNEMONIC 

FLDMDBDLE            MNEMONIC 

FLDMDBDLO            MNEMONIC 

FLDMDBDLS            MNEMONIC 

FLDMDBDLT            MNEMONIC 

FLDMDBDMI            MNEMONIC 

FLDMDBDNE            MNEMONIC 

FLDMDBDPL            MNEMONIC 

FLDMDBDVC            MNEMONIC 

FLDMDBDVS            MNEMONIC 

FLDMDBS              MNEMONIC 

FLDMDBSAL            MNEMONIC 

FLDMDBSCC            MNEMONIC 

FLDMDBSCS            MNEMONIC 

FLDMDBSEQ            MNEMONIC 

FLDMDBSGE            MNEMONIC 

FLDMDBSGT            MNEMONIC 

FLDMDBSHI            MNEMONIC 

FLDMDBSHS            MNEMONIC 

FLDMDBSLE            MNEMONIC 

FLDMDBSLO            MNEMONIC 

FLDMDBSLS            MNEMONIC 

FLDMDBSLT            MNEMONIC 

FLDMDBSMI            MNEMONIC 

FLDMDBSNE            MNEMONIC 

FLDMDBSPL            MNEMONIC 

FLDMDBSVC            MNEMONIC 

FLDMDBSVS            MNEMONIC 

FLDMDBX              MNEMONIC 

FLDMDBXAL            MNEMONIC 

FLDMDBXCC            MNEMONIC 

FLDMDBXCS            MNEMONIC 

FLDMDBXEQ            MNEMONIC 

FLDMDBXGE            MNEMONIC 

FLDMDBXGT            MNEMONIC 

FLDMDBXHI            MNEMONIC 

FLDMDBXHS            MNEMONIC 

FLDMDBXLE            MNEMONIC 

FLDMDBXLO            MNEMONIC 

FLDMDBXLS            MNEMONIC 

FLDMDBXLT            MNEMONIC 

FLDMDBXMI            MNEMONIC 

FLDMDBXNE            MNEMONIC 

FLDMDBXPL            MNEMONIC 

FLDMDBXVC            MNEMONIC 

FLDMDBXVS            MNEMONIC 

FLDMEAD              MNEMONIC 

FLDMEADAL            MNEMONIC 

FLDMEADCC            MNEMONIC 

FLDMEADCS            MNEMONIC 

FLDMEADEQ            MNEMONIC 

FLDMEADGE            MNEMONIC 

FLDMEADGT            MNEMONIC 

FLDMEADHI            MNEMONIC 

FLDMEADHS            MNEMONIC 

FLDMEADLE            MNEMONIC 

FLDMEADLO            MNEMONIC 

FLDMEADLS            MNEMONIC 

FLDMEADLT            MNEMONIC 

FLDMEADMI            MNEMONIC 

FLDMEADNE            MNEMONIC 

FLDMEADPL            MNEMONIC 

FLDMEADVC            MNEMONIC 

FLDMEADVS            MNEMONIC 

FLDMEAS              MNEMONIC 

FLDMEASAL            MNEMONIC 

FLDMEASCC            MNEMONIC 

FLDMEASCS            MNEMONIC 

FLDMEASEQ            MNEMONIC 

FLDMEASGE            MNEMONIC 

FLDMEASGT            MNEMONIC 

FLDMEASHI            MNEMONIC 

FLDMEASHS            MNEMONIC 

FLDMEASLE            MNEMONIC 

FLDMEASLO            MNEMONIC 

FLDMEASLS            MNEMONIC 

FLDMEASLT            MNEMONIC 

FLDMEASMI            MNEMONIC 

FLDMEASNE            MNEMONIC 

FLDMEASPL            MNEMONIC 

FLDMEASVC            MNEMONIC 

FLDMEASVS            MNEMONIC 

FLDMEAX              MNEMONIC 

FLDMEAXAL            MNEMONIC 

FLDMEAXCC            MNEMONIC 

FLDMEAXCS            MNEMONIC 

FLDMEAXEQ            MNEMONIC 

FLDMEAXGE            MNEMONIC 

FLDMEAXGT            MNEMONIC 

FLDMEAXHI            MNEMONIC 

FLDMEAXHS            MNEMONIC 

FLDMEAXLE            MNEMONIC 

FLDMEAXLO            MNEMONIC 

FLDMEAXLS            MNEMONIC 

FLDMEAXLT            MNEMONIC 

FLDMEAXMI            MNEMONIC 

FLDMEAXNE            MNEMONIC 

FLDMEAXPL            MNEMONIC 

FLDMEAXVC            MNEMONIC 

FLDMEAXVS            MNEMONIC 

FLDMFDD              MNEMONIC 

FLDMFDDAL            MNEMONIC 

FLDMFDDCC            MNEMONIC 

FLDMFDDCS            MNEMONIC 

FLDMFDDEQ            MNEMONIC 

FLDMFDDGE            MNEMONIC 

FLDMFDDGT            MNEMONIC 

FLDMFDDHI            MNEMONIC 

FLDMFDDHS            MNEMONIC 

FLDMFDDLE            MNEMONIC 

FLDMFDDLO            MNEMONIC 

FLDMFDDLS            MNEMONIC 

FLDMFDDLT            MNEMONIC 

FLDMFDDMI            MNEMONIC 

FLDMFDDNE            MNEMONIC 

FLDMFDDPL            MNEMONIC 

FLDMFDDVC            MNEMONIC 

FLDMFDDVS            MNEMONIC 

FLDMFDS              MNEMONIC 

FLDMFDSAL            MNEMONIC 

FLDMFDSCC            MNEMONIC 

FLDMFDSCS            MNEMONIC 

FLDMFDSEQ            MNEMONIC 

FLDMFDSGE            MNEMONIC 

FLDMFDSGT            MNEMONIC 

FLDMFDSHI            MNEMONIC 

FLDMFDSHS            MNEMONIC 

FLDMFDSLE            MNEMONIC 

FLDMFDSLO            MNEMONIC 

FLDMFDSLS            MNEMONIC 

FLDMFDSLT            MNEMONIC 

FLDMFDSMI            MNEMONIC 

FLDMFDSNE            MNEMONIC 

FLDMFDSPL            MNEMONIC 

FLDMFDSVC            MNEMONIC 

FLDMFDSVS            MNEMONIC 

FLDMFDX              MNEMONIC 

FLDMFDXAL            MNEMONIC 

FLDMFDXCC            MNEMONIC 

FLDMFDXCS            MNEMONIC 

FLDMFDXEQ            MNEMONIC 

FLDMFDXGE            MNEMONIC 

FLDMFDXGT            MNEMONIC 

FLDMFDXHI            MNEMONIC 

FLDMFDXHS            MNEMONIC 

FLDMFDXLE            MNEMONIC 

FLDMFDXLO            MNEMONIC 

FLDMFDXLS            MNEMONIC 

FLDMFDXLT            MNEMONIC 

FLDMFDXMI            MNEMONIC 

FLDMFDXNE            MNEMONIC 

FLDMFDXPL            MNEMONIC 

FLDMFDXVC            MNEMONIC 

FLDMFDXVS            MNEMONIC 

FLDMIAD              MNEMONIC 

FLDMIADAL            MNEMONIC 

FLDMIADCC            MNEMONIC 

FLDMIADCS            MNEMONIC 

FLDMIADEQ            MNEMONIC 

FLDMIADGE            MNEMONIC 

FLDMIADGT            MNEMONIC 

FLDMIADHI            MNEMONIC 

FLDMIADHS            MNEMONIC 

FLDMIADLE            MNEMONIC 

FLDMIADLO            MNEMONIC 

FLDMIADLS            MNEMONIC 

FLDMIADLT            MNEMONIC 

FLDMIADMI            MNEMONIC 

FLDMIADNE            MNEMONIC 

FLDMIADPL            MNEMONIC 

FLDMIADVC            MNEMONIC 

FLDMIADVS            MNEMONIC 

FLDMIAS              MNEMONIC 

FLDMIASAL            MNEMONIC 

FLDMIASCC            MNEMONIC 

FLDMIASCS            MNEMONIC 

FLDMIASEQ            MNEMONIC 

FLDMIASGE            MNEMONIC 

FLDMIASGT            MNEMONIC 

FLDMIASHI            MNEMONIC 

FLDMIASHS            MNEMONIC 

FLDMIASLE            MNEMONIC 

FLDMIASLO            MNEMONIC 

FLDMIASLS            MNEMONIC 

FLDMIASLT            MNEMONIC 

FLDMIASMI            MNEMONIC 

FLDMIASNE            MNEMONIC 

FLDMIASPL            MNEMONIC 

FLDMIASVC            MNEMONIC 

FLDMIASVS            MNEMONIC 

FLDMIAX              MNEMONIC 

FLDMIAXAL            MNEMONIC 

FLDMIAXCC            MNEMONIC 

FLDMIAXCS            MNEMONIC 

FLDMIAXEQ            MNEMONIC 

FLDMIAXGE            MNEMONIC 

FLDMIAXGT            MNEMONIC 

FLDMIAXHI            MNEMONIC 

FLDMIAXHS            MNEMONIC 

FLDMIAXLE            MNEMONIC 

FLDMIAXLO            MNEMONIC 

FLDMIAXLS            MNEMONIC 

FLDMIAXLT            MNEMONIC 

FLDMIAXMI            MNEMONIC 

FLDMIAXNE            MNEMONIC 

FLDMIAXPL            MNEMONIC 

FLDMIAXVC            MNEMONIC 

FLDMIAXVS            MNEMONIC 

FLDS                 MNEMONIC 

FLDSAL               MNEMONIC 

FLDSCC               MNEMONIC 

FLDSCS               MNEMONIC 

FLDSEQ               MNEMONIC 

FLDSGE               MNEMONIC 

FLDSGT               MNEMONIC 

FLDSHI               MNEMONIC 

FLDSHS               MNEMONIC 

FLDSLE               MNEMONIC 

FLDSLO               MNEMONIC 

FLDSLS               MNEMONIC 

FLDSLT               MNEMONIC 

FLDSMI               MNEMONIC 

FLDSNE               MNEMONIC 

FLDSPL               MNEMONIC 

FLDSVC               MNEMONIC 

FLDSVS               MNEMONIC 

FMACD                MNEMONIC 

FMACDAL              MNEMONIC 

FMACDCC              MNEMONIC 

FMACDCS              MNEMONIC 

FMACDEQ              MNEMONIC 

FMACDGE              MNEMONIC 

FMACDGT              MNEMONIC 

FMACDHI              MNEMONIC 

FMACDHS              MNEMONIC 

FMACDLE              MNEMONIC 

FMACDLO              MNEMONIC 

FMACDLS              MNEMONIC 

FMACDLT              MNEMONIC 

FMACDMI              MNEMONIC 

FMACDNE              MNEMONIC 

FMACDPL              MNEMONIC 

FMACDVC              MNEMONIC 

FMACDVS              MNEMONIC 

FMACS                MNEMONIC 

FMACSAL              MNEMONIC 

FMACSCC              MNEMONIC 

FMACSCS              MNEMONIC 

FMACSEQ              MNEMONIC 

FMACSGE              MNEMONIC 

FMACSGT              MNEMONIC 

FMACSHI              MNEMONIC 

FMACSHS              MNEMONIC 

FMACSLE              MNEMONIC 

FMACSLO              MNEMONIC 

FMACSLS              MNEMONIC 

FMACSLT              MNEMONIC 

FMACSMI              MNEMONIC 

FMACSNE              MNEMONIC 

FMACSPL              MNEMONIC 

FMACSVC              MNEMONIC 

FMACSVS              MNEMONIC 

FMDHR                MNEMONIC 

FMDHRAL              MNEMONIC 

FMDHRCC              MNEMONIC 

FMDHRCS              MNEMONIC 

FMDHREQ              MNEMONIC 

FMDHRGE              MNEMONIC 

FMDHRGT              MNEMONIC 

FMDHRHI              MNEMONIC 

FMDHRHS              MNEMONIC 

FMDHRLE              MNEMONIC 

FMDHRLO              MNEMONIC 

FMDHRLS              MNEMONIC 

FMDHRLT              MNEMONIC 

FMDHRMI              MNEMONIC 

FMDHRNE              MNEMONIC 

FMDHRPL              MNEMONIC 

FMDHRVC              MNEMONIC 

FMDHRVS              MNEMONIC 

FMDLR                MNEMONIC 

FMDLRAL              MNEMONIC 

FMDLRCC              MNEMONIC 

FMDLRCS              MNEMONIC 

FMDLREQ              MNEMONIC 

FMDLRGE              MNEMONIC 

FMDLRGT              MNEMONIC 

FMDLRHI              MNEMONIC 

FMDLRHS              MNEMONIC 

FMDLRLE              MNEMONIC 

FMDLRLO              MNEMONIC 

FMDLRLS              MNEMONIC 

FMDLRLT              MNEMONIC 

FMDLRMI              MNEMONIC 

FMDLRNE              MNEMONIC 

FMDLRPL              MNEMONIC 

FMDLRVC              MNEMONIC 

FMDLRVS              MNEMONIC 

FMDRR                MNEMONIC 

FMDRRAL              MNEMONIC 

FMDRRCC              MNEMONIC 

FMDRRCS              MNEMONIC 

FMDRREQ              MNEMONIC 

FMDRRGE              MNEMONIC 

FMDRRGT              MNEMONIC 

FMDRRHI              MNEMONIC 

FMDRRHS              MNEMONIC 

FMDRRLE              MNEMONIC 

FMDRRLO              MNEMONIC 

FMDRRLS              MNEMONIC 

FMDRRLT              MNEMONIC 

FMDRRMI              MNEMONIC 

FMDRRNE              MNEMONIC 

FMDRRPL              MNEMONIC 

FMDRRVC              MNEMONIC 

FMDRRVS              MNEMONIC 

FMRDH                MNEMONIC 

FMRDHAL              MNEMONIC 

FMRDHCC              MNEMONIC 

FMRDHCS              MNEMONIC 

FMRDHEQ              MNEMONIC 

FMRDHGE              MNEMONIC 

FMRDHGT              MNEMONIC 

FMRDHHI              MNEMONIC 

FMRDHHS              MNEMONIC 

FMRDHLE              MNEMONIC 

FMRDHLO              MNEMONIC 

FMRDHLS              MNEMONIC 

FMRDHLT              MNEMONIC 

FMRDHMI              MNEMONIC 

FMRDHNE              MNEMONIC 

FMRDHPL              MNEMONIC 

FMRDHVC              MNEMONIC 

FMRDHVS              MNEMONIC 

FMRDL                MNEMONIC 

FMRDLAL              MNEMONIC 

FMRDLCC              MNEMONIC 

FMRDLCS              MNEMONIC 

FMRDLEQ              MNEMONIC 

FMRDLGE              MNEMONIC 

FMRDLGT              MNEMONIC 

FMRDLHI              MNEMONIC 

FMRDLHS              MNEMONIC 

FMRDLLE              MNEMONIC 

FMRDLLO              MNEMONIC 

FMRDLLS              MNEMONIC 

FMRDLLT              MNEMONIC 

FMRDLMI              MNEMONIC 

FMRDLNE              MNEMONIC 

FMRDLPL              MNEMONIC 

FMRDLVC              MNEMONIC 

FMRDLVS              MNEMONIC 

FMRRD                MNEMONIC 

FMRRDAL              MNEMONIC 

FMRRDCC              MNEMONIC 

FMRRDCS              MNEMONIC 

FMRRDEQ              MNEMONIC 

FMRRDGE              MNEMONIC 

FMRRDGT              MNEMONIC 

FMRRDHI              MNEMONIC 

FMRRDHS              MNEMONIC 

FMRRDLE              MNEMONIC 

FMRRDLO              MNEMONIC 

FMRRDLS              MNEMONIC 

FMRRDLT              MNEMONIC 

FMRRDMI              MNEMONIC 

FMRRDNE              MNEMONIC 

FMRRDPL              MNEMONIC 

FMRRDVC              MNEMONIC 

FMRRDVS              MNEMONIC 

FMRRS                MNEMONIC 

FMRRSAL              MNEMONIC 

FMRRSCC              MNEMONIC 

FMRRSCS              MNEMONIC 

FMRRSEQ              MNEMONIC 

FMRRSGE              MNEMONIC 

FMRRSGT              MNEMONIC 

FMRRSHI              MNEMONIC 

FMRRSHS              MNEMONIC 

FMRRSLE              MNEMONIC 

FMRRSLO              MNEMONIC 

FMRRSLS              MNEMONIC 

FMRRSLT              MNEMONIC 

FMRRSMI              MNEMONIC 

FMRRSNE              MNEMONIC 

FMRRSPL              MNEMONIC 

FMRRSVC              MNEMONIC 

FMRRSVS              MNEMONIC 

FMRS                 MNEMONIC 

FMRSAL               MNEMONIC 

FMRSCC               MNEMONIC 

FMRSCS               MNEMONIC 

FMRSEQ               MNEMONIC 

FMRSGE               MNEMONIC 

FMRSGT               MNEMONIC 

FMRSHI               MNEMONIC 

FMRSHS               MNEMONIC 

FMRSLE               MNEMONIC 

FMRSLO               MNEMONIC 

FMRSLS               MNEMONIC 

FMRSLT               MNEMONIC 

FMRSMI               MNEMONIC 

FMRSNE               MNEMONIC 

FMRSPL               MNEMONIC 

FMRSVC               MNEMONIC 

FMRSVS               MNEMONIC 

FMRX                 MNEMONIC 

FMRXAL               MNEMONIC 

FMRXCC               MNEMONIC 

FMRXCS               MNEMONIC 

FMRXEQ               MNEMONIC 

FMRXGE               MNEMONIC 

FMRXGT               MNEMONIC 

FMRXHI               MNEMONIC 

FMRXHS               MNEMONIC 

FMRXLE               MNEMONIC 

FMRXLO               MNEMONIC 

FMRXLS               MNEMONIC 

FMRXLT               MNEMONIC 

FMRXMI               MNEMONIC 

FMRXNE               MNEMONIC 

FMRXPL               MNEMONIC 

FMRXVC               MNEMONIC 

FMRXVS               MNEMONIC 

FMSCD                MNEMONIC 

FMSCDAL              MNEMONIC 

FMSCDCC              MNEMONIC 

FMSCDCS              MNEMONIC 

FMSCDEQ              MNEMONIC 

FMSCDGE              MNEMONIC 

FMSCDGT              MNEMONIC 

FMSCDHI              MNEMONIC 

FMSCDHS              MNEMONIC 

FMSCDLE              MNEMONIC 

FMSCDLO              MNEMONIC 

FMSCDLS              MNEMONIC 

FMSCDLT              MNEMONIC 

FMSCDMI              MNEMONIC 

FMSCDNE              MNEMONIC 

FMSCDPL              MNEMONIC 

FMSCDVC              MNEMONIC 

FMSCDVS              MNEMONIC 

FMSCS                MNEMONIC 

FMSCSAL              MNEMONIC 

FMSCSCC              MNEMONIC 

FMSCSCS              MNEMONIC 

FMSCSEQ              MNEMONIC 

FMSCSGE              MNEMONIC 

FMSCSGT              MNEMONIC 

FMSCSHI              MNEMONIC 

FMSCSHS              MNEMONIC 

FMSCSLE              MNEMONIC 

FMSCSLO              MNEMONIC 

FMSCSLS              MNEMONIC 

FMSCSLT              MNEMONIC 

FMSCSMI              MNEMONIC 

FMSCSNE              MNEMONIC 

FMSCSPL              MNEMONIC 

FMSCSVC              MNEMONIC 

FMSCSVS              MNEMONIC 

FMSR                 MNEMONIC 

FMSRAL               MNEMONIC 

FMSRCC               MNEMONIC 

FMSRCS               MNEMONIC 

FMSREQ               MNEMONIC 

FMSRGE               MNEMONIC 

FMSRGT               MNEMONIC 

FMSRHI               MNEMONIC 

FMSRHS               MNEMONIC 

FMSRLE               MNEMONIC 

FMSRLO               MNEMONIC 

FMSRLS               MNEMONIC 

FMSRLT               MNEMONIC 

FMSRMI               MNEMONIC 

FMSRNE               MNEMONIC 

FMSRPL               MNEMONIC 

FMSRR                MNEMONIC 

FMSRRAL              MNEMONIC 

FMSRRCC              MNEMONIC 

FMSRRCS              MNEMONIC 

FMSRREQ              MNEMONIC 

FMSRRGE              MNEMONIC 

FMSRRGT              MNEMONIC 

FMSRRHI              MNEMONIC 

FMSRRHS              MNEMONIC 

FMSRRLE              MNEMONIC 

FMSRRLO              MNEMONIC 

FMSRRLS              MNEMONIC 

FMSRRLT              MNEMONIC 

FMSRRMI              MNEMONIC 

FMSRRNE              MNEMONIC 

FMSRRPL              MNEMONIC 

FMSRRVC              MNEMONIC 

FMSRRVS              MNEMONIC 

FMSRVC               MNEMONIC 

FMSRVS               MNEMONIC 

FMSTAT               MNEMONIC 

FMSTATAL             MNEMONIC 

FMSTATCC             MNEMONIC 

FMSTATCS             MNEMONIC 

FMSTATEQ             MNEMONIC 

FMSTATGE             MNEMONIC 

FMSTATGT             MNEMONIC 

FMSTATHI             MNEMONIC 

FMSTATHS             MNEMONIC 

FMSTATLE             MNEMONIC 

FMSTATLO             MNEMONIC 

FMSTATLS             MNEMONIC 

FMSTATLT             MNEMONIC 

FMSTATMI             MNEMONIC 

FMSTATNE             MNEMONIC 

FMSTATPL             MNEMONIC 

FMSTATVC             MNEMONIC 

FMSTATVS             MNEMONIC 

FMULD                MNEMONIC 

FMULDAL              MNEMONIC 

FMULDCC              MNEMONIC 

FMULDCS              MNEMONIC 

FMULDEQ              MNEMONIC 

FMULDGE              MNEMONIC 

FMULDGT              MNEMONIC 

FMULDHI              MNEMONIC 

FMULDHS              MNEMONIC 

FMULDLE              MNEMONIC 

FMULDLO              MNEMONIC 

FMULDLS              MNEMONIC 

FMULDLT              MNEMONIC 

FMULDMI              MNEMONIC 

FMULDNE              MNEMONIC 

FMULDPL              MNEMONIC 

FMULDVC              MNEMONIC 

FMULDVS              MNEMONIC 

FMULS                MNEMONIC 

FMULSAL              MNEMONIC 

FMULSCC              MNEMONIC 

FMULSCS              MNEMONIC 

FMULSEQ              MNEMONIC 

FMULSGE              MNEMONIC 

FMULSGT              MNEMONIC 

FMULSHI              MNEMONIC 

FMULSHS              MNEMONIC 

FMULSLE              MNEMONIC 

FMULSLO              MNEMONIC 

FMULSLS              MNEMONIC 

FMULSLT              MNEMONIC 

FMULSMI              MNEMONIC 

FMULSNE              MNEMONIC 

FMULSPL              MNEMONIC 

FMULSVC              MNEMONIC 

FMULSVS              MNEMONIC 

FMXR                 MNEMONIC 

FMXRAL               MNEMONIC 

FMXRCC               MNEMONIC 

FMXRCS               MNEMONIC 

FMXREQ               MNEMONIC 

FMXRGE               MNEMONIC 

FMXRGT               MNEMONIC 

FMXRHI               MNEMONIC 

FMXRHS               MNEMONIC 

FMXRLE               MNEMONIC 

FMXRLO               MNEMONIC 

FMXRLS               MNEMONIC 

FMXRLT               MNEMONIC 

FMXRMI               MNEMONIC 

FMXRNE               MNEMONIC 

FMXRPL               MNEMONIC 

FMXRVC               MNEMONIC 

FMXRVS               MNEMONIC 

FNEGD                MNEMONIC 

FNEGDAL              MNEMONIC 

FNEGDCC              MNEMONIC 

FNEGDCS              MNEMONIC 

FNEGDEQ              MNEMONIC 

FNEGDGE              MNEMONIC 

FNEGDGT              MNEMONIC 

FNEGDHI              MNEMONIC 

FNEGDHS              MNEMONIC 

FNEGDLE              MNEMONIC 

FNEGDLO              MNEMONIC 

FNEGDLS              MNEMONIC 

FNEGDLT              MNEMONIC 

FNEGDMI              MNEMONIC 

FNEGDNE              MNEMONIC 

FNEGDPL              MNEMONIC 

FNEGDVC              MNEMONIC 

FNEGDVS              MNEMONIC 

FNEGS                MNEMONIC 

FNEGSAL              MNEMONIC 

FNEGSCC              MNEMONIC 

FNEGSCS              MNEMONIC 

FNEGSEQ              MNEMONIC 

FNEGSGE              MNEMONIC 

FNEGSGT              MNEMONIC 

FNEGSHI              MNEMONIC 

FNEGSHS              MNEMONIC 

FNEGSLE              MNEMONIC 

FNEGSLO              MNEMONIC 

FNEGSLS              MNEMONIC 

FNEGSLT              MNEMONIC 

FNEGSMI              MNEMONIC 

FNEGSNE              MNEMONIC 

FNEGSPL              MNEMONIC 

FNEGSVC              MNEMONIC 

FNEGSVS              MNEMONIC 

FNMACD               MNEMONIC 

FNMACDAL             MNEMONIC 

FNMACDCC             MNEMONIC 

FNMACDCS             MNEMONIC 

FNMACDEQ             MNEMONIC 

FNMACDGE             MNEMONIC 

FNMACDGT             MNEMONIC 

FNMACDHI             MNEMONIC 

FNMACDHS             MNEMONIC 

FNMACDLE             MNEMONIC 

FNMACDLO             MNEMONIC 

FNMACDLS             MNEMONIC 

FNMACDLT             MNEMONIC 

FNMACDMI             MNEMONIC 

FNMACDNE             MNEMONIC 

FNMACDPL             MNEMONIC 

FNMACDVC             MNEMONIC 

FNMACDVS             MNEMONIC 

FNMACS               MNEMONIC 

FNMACSAL             MNEMONIC 

FNMACSCC             MNEMONIC 

FNMACSCS             MNEMONIC 

FNMACSEQ             MNEMONIC 

FNMACSGE             MNEMONIC 

FNMACSGT             MNEMONIC 

FNMACSHI             MNEMONIC 

FNMACSHS             MNEMONIC 

FNMACSLE             MNEMONIC 

FNMACSLO             MNEMONIC 

FNMACSLS             MNEMONIC 

FNMACSLT             MNEMONIC 

FNMACSMI             MNEMONIC 

FNMACSNE             MNEMONIC 

FNMACSPL             MNEMONIC 

FNMACSVC             MNEMONIC 

FNMACSVS             MNEMONIC 

FNMSCD               MNEMONIC 

FNMSCDAL             MNEMONIC 

FNMSCDCC             MNEMONIC 

FNMSCDCS             MNEMONIC 

FNMSCDEQ             MNEMONIC 

FNMSCDGE             MNEMONIC 

FNMSCDGT             MNEMONIC 

FNMSCDHI             MNEMONIC 

FNMSCDHS             MNEMONIC 

FNMSCDLE             MNEMONIC 

FNMSCDLO             MNEMONIC 

FNMSCDLS             MNEMONIC 

FNMSCDLT             MNEMONIC 

FNMSCDMI             MNEMONIC 

FNMSCDNE             MNEMONIC 

FNMSCDPL             MNEMONIC 

FNMSCDVC             MNEMONIC 

FNMSCDVS             MNEMONIC 

FNMSCS               MNEMONIC 

FNMSCSAL             MNEMONIC 

FNMSCSCC             MNEMONIC 

FNMSCSCS             MNEMONIC 

FNMSCSEQ             MNEMONIC 

FNMSCSGE             MNEMONIC 

FNMSCSGT             MNEMONIC 

FNMSCSHI             MNEMONIC 

FNMSCSHS             MNEMONIC 

FNMSCSLE             MNEMONIC 

FNMSCSLO             MNEMONIC 

FNMSCSLS             MNEMONIC 

FNMSCSLT             MNEMONIC 

FNMSCSMI             MNEMONIC 

FNMSCSNE             MNEMONIC 

FNMSCSPL             MNEMONIC 

FNMSCSVC             MNEMONIC 

FNMSCSVS             MNEMONIC 

FNMULD               MNEMONIC 

FNMULDAL             MNEMONIC 

FNMULDCC             MNEMONIC 

FNMULDCS             MNEMONIC 

FNMULDEQ             MNEMONIC 

FNMULDGE             MNEMONIC 

FNMULDGT             MNEMONIC 

FNMULDHI             MNEMONIC 

FNMULDHS             MNEMONIC 

FNMULDLE             MNEMONIC 

FNMULDLO             MNEMONIC 

FNMULDLS             MNEMONIC 

FNMULDLT             MNEMONIC 

FNMULDMI             MNEMONIC 

FNMULDNE             MNEMONIC 

FNMULDPL             MNEMONIC 

FNMULDVC             MNEMONIC 

FNMULDVS             MNEMONIC 

FNMULS               MNEMONIC 

FNMULSAL             MNEMONIC 

FNMULSCC             MNEMONIC 

FNMULSCS             MNEMONIC 

FNMULSEQ             MNEMONIC 

FNMULSGE             MNEMONIC 

FNMULSGT             MNEMONIC 

FNMULSHI             MNEMONIC 

FNMULSHS             MNEMONIC 

FNMULSLE             MNEMONIC 

FNMULSLO             MNEMONIC 

FNMULSLS             MNEMONIC 

FNMULSLT             MNEMONIC 

FNMULSMI             MNEMONIC 

FNMULSNE             MNEMONIC 

FNMULSPL             MNEMONIC 

FNMULSVC             MNEMONIC 

FNMULSVS             MNEMONIC 

FRACTPOS             #define, value: R2, line:      19:2       42:2     48:2     48:2     51:2
                                                                     57:2     57:2    100:2    111:2
                                                                    115:2

FREQ                 #define, value: R3, line:      20:2       43:2     48:2

FSITOD               MNEMONIC 

FSITODAL             MNEMONIC 

FSITODCC             MNEMONIC 

FSITODCS             MNEMONIC 

FSITODEQ             MNEMONIC 

FSITODGE             MNEMONIC 

FSITODGT             MNEMONIC 

FSITODHI             MNEMONIC 

FSITODHS             MNEMONIC 

FSITODLE             MNEMONIC 

FSITODLO             MNEMONIC 

FSITODLS             MNEMONIC 

FSITODLT             MNEMONIC 

FSITODMI             MNEMONIC 

FSITODNE             MNEMONIC 

FSITODPL             MNEMONIC 

FSITODVC             MNEMONIC 

FSITODVS             MNEMONIC 

FSITOS               MNEMONIC 

FSITOSAL             MNEMONIC 

FSITOSCC             MNEMONIC 

FSITOSCS             MNEMONIC 

FSITOSEQ             MNEMONIC 

FSITOSGE             MNEMONIC 

FSITOSGT             MNEMONIC 

FSITOSHI             MNEMONIC 

FSITOSHS             MNEMONIC 

FSITOSLE             MNEMONIC 

FSITOSLO             MNEMONIC 

FSITOSLS             MNEMONIC 

FSITOSLT             MNEMONIC 

FSITOSMI             MNEMONIC 

FSITOSNE             MNEMONIC 

FSITOSPL             MNEMONIC 

FSITOSVC             MNEMONIC 

FSITOSVS             MNEMONIC 

FSQRTD               MNEMONIC 

FSQRTDAL             MNEMONIC 

FSQRTDCC             MNEMONIC 

FSQRTDCS             MNEMONIC 

FSQRTDEQ             MNEMONIC 

FSQRTDGE             MNEMONIC 

FSQRTDGT             MNEMONIC 

FSQRTDHI             MNEMONIC 

FSQRTDHS             MNEMONIC 

FSQRTDLE             MNEMONIC 

FSQRTDLO             MNEMONIC 

FSQRTDLS             MNEMONIC 

FSQRTDLT             MNEMONIC 

FSQRTDMI             MNEMONIC 

FSQRTDNE             MNEMONIC 

FSQRTDPL             MNEMONIC 

FSQRTDVC             MNEMONIC 

FSQRTDVS             MNEMONIC 

FSQRTS               MNEMONIC 

FSQRTSAL             MNEMONIC 

FSQRTSCC             MNEMONIC 

FSQRTSCS             MNEMONIC 

FSQRTSEQ             MNEMONIC 

FSQRTSGE             MNEMONIC 

FSQRTSGT             MNEMONIC 

FSQRTSHI             MNEMONIC 

FSQRTSHS             MNEMONIC 

FSQRTSLE             MNEMONIC 

FSQRTSLO             MNEMONIC 

FSQRTSLS             MNEMONIC 

FSQRTSLT             MNEMONIC 

FSQRTSMI             MNEMONIC 

FSQRTSNE             MNEMONIC 

FSQRTSPL             MNEMONIC 

FSQRTSVC             MNEMONIC 

FSQRTSVS             MNEMONIC 

FSTD                 MNEMONIC 

FSTDAL               MNEMONIC 

FSTDCC               MNEMONIC 

FSTDCS               MNEMONIC 

FSTDEQ               MNEMONIC 

FSTDGE               MNEMONIC 

FSTDGT               MNEMONIC 

FSTDHI               MNEMONIC 

FSTDHS               MNEMONIC 

FSTDLE               MNEMONIC 

FSTDLO               MNEMONIC 

FSTDLS               MNEMONIC 

FSTDLT               MNEMONIC 

FSTDMI               MNEMONIC 

FSTDNE               MNEMONIC 

FSTDPL               MNEMONIC 

FSTDVC               MNEMONIC 

FSTDVS               MNEMONIC 

FSTMDBD              MNEMONIC 

FSTMDBDAL            MNEMONIC 

FSTMDBDCC            MNEMONIC 

FSTMDBDCS            MNEMONIC 

FSTMDBDEQ            MNEMONIC 

FSTMDBDGE            MNEMONIC 

FSTMDBDGT            MNEMONIC 

FSTMDBDHI            MNEMONIC 

FSTMDBDHS            MNEMONIC 

FSTMDBDLE            MNEMONIC 

FSTMDBDLO            MNEMONIC 

FSTMDBDLS            MNEMONIC 

FSTMDBDLT            MNEMONIC 

FSTMDBDMI            MNEMONIC 

FSTMDBDNE            MNEMONIC 

FSTMDBDPL            MNEMONIC 

FSTMDBDVC            MNEMONIC 

FSTMDBDVS            MNEMONIC 

FSTMDBS              MNEMONIC 

FSTMDBSAL            MNEMONIC 

FSTMDBSCC            MNEMONIC 

FSTMDBSCS            MNEMONIC 

FSTMDBSEQ            MNEMONIC 

FSTMDBSGE            MNEMONIC 

FSTMDBSGT            MNEMONIC 

FSTMDBSHI            MNEMONIC 

FSTMDBSHS            MNEMONIC 

FSTMDBSLE            MNEMONIC 

FSTMDBSLO            MNEMONIC 

FSTMDBSLS            MNEMONIC 

FSTMDBSLT            MNEMONIC 

FSTMDBSMI            MNEMONIC 

FSTMDBSNE            MNEMONIC 

FSTMDBSPL            MNEMONIC 

FSTMDBSVC            MNEMONIC 

FSTMDBSVS            MNEMONIC 

FSTMDBX              MNEMONIC 

FSTMDBXAL            MNEMONIC 

FSTMDBXCC            MNEMONIC 

FSTMDBXCS            MNEMONIC 

FSTMDBXEQ            MNEMONIC 

FSTMDBXGE            MNEMONIC 

FSTMDBXGT            MNEMONIC 

FSTMDBXHI            MNEMONIC 

FSTMDBXHS            MNEMONIC 

FSTMDBXLE            MNEMONIC 

FSTMDBXLO            MNEMONIC 

FSTMDBXLS            MNEMONIC 

FSTMDBXLT            MNEMONIC 

FSTMDBXMI            MNEMONIC 

FSTMDBXNE            MNEMONIC 

FSTMDBXPL            MNEMONIC 

FSTMDBXVC            MNEMONIC 

FSTMDBXVS            MNEMONIC 

FSTMEAD              MNEMONIC 

FSTMEADAL            MNEMONIC 

FSTMEADCC            MNEMONIC 

FSTMEADCS            MNEMONIC 

FSTMEADEQ            MNEMONIC 

FSTMEADGE            MNEMONIC 

FSTMEADGT            MNEMONIC 

FSTMEADHI            MNEMONIC 

FSTMEADHS            MNEMONIC 

FSTMEADLE            MNEMONIC 

FSTMEADLO            MNEMONIC 

FSTMEADLS            MNEMONIC 

FSTMEADLT            MNEMONIC 

FSTMEADMI            MNEMONIC 

FSTMEADNE            MNEMONIC 

FSTMEADPL            MNEMONIC 

FSTMEADVC            MNEMONIC 

FSTMEADVS            MNEMONIC 

FSTMEAS              MNEMONIC 

FSTMEASAL            MNEMONIC 

FSTMEASCC            MNEMONIC 

FSTMEASCS            MNEMONIC 

FSTMEASEQ            MNEMONIC 

FSTMEASGE            MNEMONIC 

FSTMEASGT            MNEMONIC 

FSTMEASHI            MNEMONIC 

FSTMEASHS            MNEMONIC 

FSTMEASLE            MNEMONIC 

FSTMEASLO            MNEMONIC 

FSTMEASLS            MNEMONIC 

FSTMEASLT            MNEMONIC 

FSTMEASMI            MNEMONIC 

FSTMEASNE            MNEMONIC 

FSTMEASPL            MNEMONIC 

FSTMEASVC            MNEMONIC 

FSTMEASVS            MNEMONIC 

FSTMEAX              MNEMONIC 

FSTMEAXAL            MNEMONIC 

FSTMEAXCC            MNEMONIC 

FSTMEAXCS            MNEMONIC 

FSTMEAXEQ            MNEMONIC 

FSTMEAXGE            MNEMONIC 

FSTMEAXGT            MNEMONIC 

FSTMEAXHI            MNEMONIC 

FSTMEAXHS            MNEMONIC 

FSTMEAXLE            MNEMONIC 

FSTMEAXLO            MNEMONIC 

FSTMEAXLS            MNEMONIC 

FSTMEAXLT            MNEMONIC 

FSTMEAXMI            MNEMONIC 

FSTMEAXNE            MNEMONIC 

FSTMEAXPL            MNEMONIC 

FSTMEAXVC            MNEMONIC 

FSTMEAXVS            MNEMONIC 

FSTMFDD              MNEMONIC 

FSTMFDDAL            MNEMONIC 

FSTMFDDCC            MNEMONIC 

FSTMFDDCS            MNEMONIC 

FSTMFDDEQ            MNEMONIC 

FSTMFDDGE            MNEMONIC 

FSTMFDDGT            MNEMONIC 

FSTMFDDHI            MNEMONIC 

FSTMFDDHS            MNEMONIC 

FSTMFDDLE            MNEMONIC 

FSTMFDDLO            MNEMONIC 

FSTMFDDLS            MNEMONIC 

FSTMFDDLT            MNEMONIC 

FSTMFDDMI            MNEMONIC 

FSTMFDDNE            MNEMONIC 

FSTMFDDPL            MNEMONIC 

FSTMFDDVC            MNEMONIC 

FSTMFDDVS            MNEMONIC 

FSTMFDS              MNEMONIC 

FSTMFDSAL            MNEMONIC 

FSTMFDSCC            MNEMONIC 

FSTMFDSCS            MNEMONIC 

FSTMFDSEQ            MNEMONIC 

FSTMFDSGE            MNEMONIC 

FSTMFDSGT            MNEMONIC 

FSTMFDSHI            MNEMONIC 

FSTMFDSHS            MNEMONIC 

FSTMFDSLE            MNEMONIC 

FSTMFDSLO            MNEMONIC 

FSTMFDSLS            MNEMONIC 

FSTMFDSLT            MNEMONIC 

FSTMFDSMI            MNEMONIC 

FSTMFDSNE            MNEMONIC 

FSTMFDSPL            MNEMONIC 

FSTMFDSVC            MNEMONIC 

FSTMFDSVS            MNEMONIC 

FSTMFDX              MNEMONIC 

FSTMFDXAL            MNEMONIC 

FSTMFDXCC            MNEMONIC 

FSTMFDXCS            MNEMONIC 

FSTMFDXEQ            MNEMONIC 

FSTMFDXGE            MNEMONIC 

FSTMFDXGT            MNEMONIC 

FSTMFDXHI            MNEMONIC 

FSTMFDXHS            MNEMONIC 

FSTMFDXLE            MNEMONIC 

FSTMFDXLO            MNEMONIC 

FSTMFDXLS            MNEMONIC 

FSTMFDXLT            MNEMONIC 

FSTMFDXMI            MNEMONIC 

FSTMFDXNE            MNEMONIC 

FSTMFDXPL            MNEMONIC 

FSTMFDXVC            MNEMONIC 

FSTMFDXVS            MNEMONIC 

FSTMIAD              MNEMONIC 

FSTMIADAL            MNEMONIC 

FSTMIADCC            MNEMONIC 

FSTMIADCS            MNEMONIC 

FSTMIADEQ            MNEMONIC 

FSTMIADGE            MNEMONIC 

FSTMIADGT            MNEMONIC 

FSTMIADHI            MNEMONIC 

FSTMIADHS            MNEMONIC 

FSTMIADLE            MNEMONIC 

FSTMIADLO            MNEMONIC 

FSTMIADLS            MNEMONIC 

FSTMIADLT            MNEMONIC 

FSTMIADMI            MNEMONIC 

FSTMIADNE            MNEMONIC 

FSTMIADPL            MNEMONIC 

FSTMIADVC            MNEMONIC 

FSTMIADVS            MNEMONIC 

FSTMIAS              MNEMONIC 

FSTMIASAL            MNEMONIC 

FSTMIASCC            MNEMONIC 

FSTMIASCS            MNEMONIC 

FSTMIASEQ            MNEMONIC 

FSTMIASGE            MNEMONIC 

FSTMIASGT            MNEMONIC 

FSTMIASHI            MNEMONIC 

FSTMIASHS            MNEMONIC 

FSTMIASLE            MNEMONIC 

FSTMIASLO            MNEMONIC 

FSTMIASLS            MNEMONIC 

FSTMIASLT            MNEMONIC 

FSTMIASMI            MNEMONIC 

FSTMIASNE            MNEMONIC 

FSTMIASPL            MNEMONIC 

FSTMIASVC            MNEMONIC 

FSTMIASVS            MNEMONIC 

FSTMIAX              MNEMONIC 

FSTMIAXAL            MNEMONIC 

FSTMIAXCC            MNEMONIC 

FSTMIAXCS            MNEMONIC 

FSTMIAXEQ            MNEMONIC 

FSTMIAXGE            MNEMONIC 

FSTMIAXGT            MNEMONIC 

FSTMIAXHI            MNEMONIC 

FSTMIAXHS            MNEMONIC 

FSTMIAXLE            MNEMONIC 

FSTMIAXLO            MNEMONIC 

FSTMIAXLS            MNEMONIC 

FSTMIAXLT            MNEMONIC 

FSTMIAXMI            MNEMONIC 

FSTMIAXNE            MNEMONIC 

FSTMIAXPL            MNEMONIC 

FSTMIAXVC            MNEMONIC 

FSTMIAXVS            MNEMONIC 

FSTS                 MNEMONIC 

FSTSAL               MNEMONIC 

FSTSCC               MNEMONIC 

FSTSCS               MNEMONIC 

FSTSEQ               MNEMONIC 

FSTSGE               MNEMONIC 

FSTSGT               MNEMONIC 

FSTSHI               MNEMONIC 

FSTSHS               MNEMONIC 

FSTSLE               MNEMONIC 

FSTSLO               MNEMONIC 

FSTSLS               MNEMONIC 

FSTSLT               MNEMONIC 

FSTSMI               MNEMONIC 

FSTSNE               MNEMONIC 

FSTSPL               MNEMONIC 

FSTSVC               MNEMONIC 

FSTSVS               MNEMONIC 

FSUBD                MNEMONIC 

FSUBDAL              MNEMONIC 

FSUBDCC              MNEMONIC 

FSUBDCS              MNEMONIC 

FSUBDEQ              MNEMONIC 

FSUBDGE              MNEMONIC 

FSUBDGT              MNEMONIC 

FSUBDHI              MNEMONIC 

FSUBDHS              MNEMONIC 

FSUBDLE              MNEMONIC 

FSUBDLO              MNEMONIC 

FSUBDLS              MNEMONIC 

FSUBDLT              MNEMONIC 

FSUBDMI              MNEMONIC 

FSUBDNE              MNEMONIC 

FSUBDPL              MNEMONIC 

FSUBDVC              MNEMONIC 

FSUBDVS              MNEMONIC 

FSUBS                MNEMONIC 

FSUBSAL              MNEMONIC 

FSUBSCC              MNEMONIC 

FSUBSCS              MNEMONIC 

FSUBSEQ              MNEMONIC 

FSUBSGE              MNEMONIC 

FSUBSGT              MNEMONIC 

FSUBSHI              MNEMONIC 

FSUBSHS              MNEMONIC 

FSUBSLE              MNEMONIC 

FSUBSLO              MNEMONIC 

FSUBSLS              MNEMONIC 

FSUBSLT              MNEMONIC 

FSUBSMI              MNEMONIC 

FSUBSNE              MNEMONIC 

FSUBSPL              MNEMONIC 

FSUBSVC              MNEMONIC 

FSUBSVS              MNEMONIC 

FTOSID               MNEMONIC 

FTOSIDAL             MNEMONIC 

FTOSIDCC             MNEMONIC 

FTOSIDCS             MNEMONIC 

FTOSIDEQ             MNEMONIC 

FTOSIDGE             MNEMONIC 

FTOSIDGT             MNEMONIC 

FTOSIDHI             MNEMONIC 

FTOSIDHS             MNEMONIC 

FTOSIDLE             MNEMONIC 

FTOSIDLO             MNEMONIC 

FTOSIDLS             MNEMONIC 

FTOSIDLT             MNEMONIC 

FTOSIDMI             MNEMONIC 

FTOSIDNE             MNEMONIC 

FTOSIDPL             MNEMONIC 

FTOSIDVC             MNEMONIC 

FTOSIDVS             MNEMONIC 

FTOSIS               MNEMONIC 

FTOSISAL             MNEMONIC 

FTOSISCC             MNEMONIC 

FTOSISCS             MNEMONIC 

FTOSISEQ             MNEMONIC 

FTOSISGE             MNEMONIC 

FTOSISGT             MNEMONIC 

FTOSISHI             MNEMONIC 

FTOSISHS             MNEMONIC 

FTOSISLE             MNEMONIC 

FTOSISLO             MNEMONIC 

FTOSISLS             MNEMONIC 

FTOSISLT             MNEMONIC 

FTOSISMI             MNEMONIC 

FTOSISNE             MNEMONIC 

FTOSISPL             MNEMONIC 

FTOSISVC             MNEMONIC 

FTOSISVS             MNEMONIC 

FTOSIZD              MNEMONIC 

FTOSIZDAL            MNEMONIC 

FTOSIZDCC            MNEMONIC 

FTOSIZDCS            MNEMONIC 

FTOSIZDEQ            MNEMONIC 

FTOSIZDGE            MNEMONIC 

FTOSIZDGT            MNEMONIC 

FTOSIZDHI            MNEMONIC 

FTOSIZDHS            MNEMONIC 

FTOSIZDLE            MNEMONIC 

FTOSIZDLO            MNEMONIC 

FTOSIZDLS            MNEMONIC 

FTOSIZDLT            MNEMONIC 

FTOSIZDMI            MNEMONIC 

FTOSIZDNE            MNEMONIC 

FTOSIZDPL            MNEMONIC 

FTOSIZDVC            MNEMONIC 

FTOSIZDVS            MNEMONIC 

FTOSIZS              MNEMONIC 

FTOSIZSAL            MNEMONIC 

FTOSIZSCC            MNEMONIC 

FTOSIZSCS            MNEMONIC 

FTOSIZSEQ            MNEMONIC 

FTOSIZSGE            MNEMONIC 

FTOSIZSGT            MNEMONIC 

FTOSIZSHI            MNEMONIC 

FTOSIZSHS            MNEMONIC 

FTOSIZSLE            MNEMONIC 

FTOSIZSLO            MNEMONIC 

FTOSIZSLS            MNEMONIC 

FTOSIZSLT            MNEMONIC 

FTOSIZSMI            MNEMONIC 

FTOSIZSNE            MNEMONIC 

FTOSIZSPL            MNEMONIC 

FTOSIZSVC            MNEMONIC 

FTOSIZSVS            MNEMONIC 

FTOUID               MNEMONIC 

FTOUIDAL             MNEMONIC 

FTOUIDCC             MNEMONIC 

FTOUIDCS             MNEMONIC 

FTOUIDEQ             MNEMONIC 

FTOUIDGE             MNEMONIC 

FTOUIDGT             MNEMONIC 

FTOUIDHI             MNEMONIC 

FTOUIDHS             MNEMONIC 

FTOUIDLE             MNEMONIC 

FTOUIDLO             MNEMONIC 

FTOUIDLS             MNEMONIC 

FTOUIDLT             MNEMONIC 

FTOUIDMI             MNEMONIC 

FTOUIDNE             MNEMONIC 

FTOUIDPL             MNEMONIC 

FTOUIDVC             MNEMONIC 

FTOUIDVS             MNEMONIC 

FTOUIS               MNEMONIC 

FTOUISAL             MNEMONIC 

FTOUISCC             MNEMONIC 

FTOUISCS             MNEMONIC 

FTOUISEQ             MNEMONIC 

FTOUISGE             MNEMONIC 

FTOUISGT             MNEMONIC 

FTOUISHI             MNEMONIC 

FTOUISHS             MNEMONIC 

FTOUISLE             MNEMONIC 

FTOUISLO             MNEMONIC 

FTOUISLS             MNEMONIC 

FTOUISLT             MNEMONIC 

FTOUISMI             MNEMONIC 

FTOUISNE             MNEMONIC 

FTOUISPL             MNEMONIC 

FTOUISVC             MNEMONIC 

FTOUISVS             MNEMONIC 

FTOUIZD              MNEMONIC 

FTOUIZDAL            MNEMONIC 

FTOUIZDCC            MNEMONIC 

FTOUIZDCS            MNEMONIC 

FTOUIZDEQ            MNEMONIC 

FTOUIZDGE            MNEMONIC 

FTOUIZDGT            MNEMONIC 

FTOUIZDHI            MNEMONIC 

FTOUIZDHS            MNEMONIC 

FTOUIZDLE            MNEMONIC 

FTOUIZDLO            MNEMONIC 

FTOUIZDLS            MNEMONIC 

FTOUIZDLT            MNEMONIC 

FTOUIZDMI            MNEMONIC 

FTOUIZDNE            MNEMONIC 

FTOUIZDPL            MNEMONIC 

FTOUIZDVC            MNEMONIC 

FTOUIZDVS            MNEMONIC 

FTOUIZS              MNEMONIC 

FTOUIZSAL            MNEMONIC 

FTOUIZSCC            MNEMONIC 

FTOUIZSCS            MNEMONIC 

FTOUIZSEQ            MNEMONIC 

FTOUIZSGE            MNEMONIC 

FTOUIZSGT            MNEMONIC 

FTOUIZSHI            MNEMONIC 

FTOUIZSHS            MNEMONIC 

FTOUIZSLE            MNEMONIC 

FTOUIZSLO            MNEMONIC 

FTOUIZSLS            MNEMONIC 

FTOUIZSLT            MNEMONIC 

FTOUIZSMI            MNEMONIC 

FTOUIZSNE            MNEMONIC 

FTOUIZSPL            MNEMONIC 

FTOUIZSVC            MNEMONIC 

FTOUIZSVS            MNEMONIC 

FUITOD               MNEMONIC 

FUITODAL             MNEMONIC 

FUITODCC             MNEMONIC 

FUITODCS             MNEMONIC 

FUITODEQ             MNEMONIC 

FUITODGE             MNEMONIC 

FUITODGT             MNEMONIC 

FUITODHI             MNEMONIC 

FUITODHS             MNEMONIC 

FUITODLE             MNEMONIC 

FUITODLO             MNEMONIC 

FUITODLS             MNEMONIC 

FUITODLT             MNEMONIC 

FUITODMI             MNEMONIC 

FUITODNE             MNEMONIC 

FUITODPL             MNEMONIC 

FUITODVC             MNEMONIC 

FUITODVS             MNEMONIC 

FUITOS               MNEMONIC 

FUITOSAL             MNEMONIC 

FUITOSCC             MNEMONIC 

FUITOSCS             MNEMONIC 

FUITOSEQ             MNEMONIC 

FUITOSGE             MNEMONIC 

FUITOSGT             MNEMONIC 

FUITOSHI             MNEMONIC 

FUITOSHS             MNEMONIC 

FUITOSLE             MNEMONIC 

FUITOSLO             MNEMONIC 

FUITOSLS             MNEMONIC 

FUITOSLT             MNEMONIC 

FUITOSMI             MNEMONIC 

FUITOSNE             MNEMONIC 

FUITOSPL             MNEMONIC 

FUITOSVC             MNEMONIC 

FUITOSVS             MNEMONIC 

FUNCALL              DIRECTIVE 

FUNCTION             DIRECTIVE 

HIGH                 OPERATOR 

HUGE                 SEGMENT TYPE 

HUGECODE             SEGMENT TYPE 

HUGECONST            SEGMENT TYPE 

HUGEDATA             SEGMENT TYPE 

HWRD                 OPERATOR 

IDATA                SEGMENT TYPE 

IF                   DIRECTIVE 

IMPORT               DIRECTIVE 

INCLUDE              DIRECTIVE 

ISB                  MNEMONIC 

IT                   MNEMONIC 

K                    #define, value: r4, line:      42:5       42:5     67:5    137:5    137:5

LASTVAL              #define, value: R7, line:      24:2       41:2     61:2    102:2    113:2
                                                                    113:2    115:2

LDC                  MNEMONIC 

LDC2                 MNEMONIC 

LDCAL                MNEMONIC 

LDCALL               MNEMONIC 

LDCCC                MNEMONIC 

LDCCCL               MNEMONIC 

LDCCS                MNEMONIC 

LDCCSL               MNEMONIC 

LDCEQ                MNEMONIC 

LDCEQL               MNEMONIC 

LDCGE                MNEMONIC 

LDCGEL               MNEMONIC 

LDCGT                MNEMONIC 

LDCGTL               MNEMONIC 

LDCHI                MNEMONIC 

LDCHIL               MNEMONIC 

LDCHS                MNEMONIC 

LDCHSL               MNEMONIC 

LDCL                 MNEMONIC 

LDCLE                MNEMONIC 

LDCLEL               MNEMONIC 

LDCLO                MNEMONIC 

LDCLOL               MNEMONIC 

LDCLS                MNEMONIC 

LDCLSL               MNEMONIC 

LDCLT                MNEMONIC 

LDCLTL               MNEMONIC 

LDCMI                MNEMONIC 

LDCMIL               MNEMONIC 

LDCNE                MNEMONIC 

LDCNEL               MNEMONIC 

LDCPL                MNEMONIC 

LDCPLL               MNEMONIC 

LDCVC                MNEMONIC 

LDCVCL               MNEMONIC 

LDCVS                MNEMONIC 

LDCVSL               MNEMONIC 

LDM                  MNEMONIC 

LDMAL                MNEMONIC 

LDMALDA              MNEMONIC 

LDMALDB              MNEMONIC 

LDMALEA              MNEMONIC 

LDMALED              MNEMONIC 

LDMALFA              MNEMONIC 

LDMALFD              MNEMONIC 

LDMALIA              MNEMONIC 

LDMALIB              MNEMONIC 

LDMCC                MNEMONIC 

LDMCCDA              MNEMONIC 

LDMCCDB              MNEMONIC 

LDMCCEA              MNEMONIC 

LDMCCED              MNEMONIC 

LDMCCFA              MNEMONIC 

LDMCCFD              MNEMONIC 

LDMCCIA              MNEMONIC 

LDMCCIB              MNEMONIC 

LDMCS                MNEMONIC 

LDMCSDA              MNEMONIC 

LDMCSDB              MNEMONIC 

LDMCSEA              MNEMONIC 

LDMCSED              MNEMONIC 

LDMCSFA              MNEMONIC 

LDMCSFD              MNEMONIC 

LDMCSIA              MNEMONIC 

LDMCSIB              MNEMONIC 

LDMDA                MNEMONIC 

LDMDB                MNEMONIC 

LDMEA                MNEMONIC 

LDMED                MNEMONIC 

LDMEQ                MNEMONIC 

LDMEQDA              MNEMONIC 

LDMEQDB              MNEMONIC 

LDMEQEA              MNEMONIC 

LDMEQED              MNEMONIC 

LDMEQFA              MNEMONIC 

LDMEQFD              MNEMONIC 

LDMEQIA              MNEMONIC 

LDMEQIB              MNEMONIC 

LDMFA                MNEMONIC 

LDMFD                MNEMONIC 

LDMGE                MNEMONIC 

LDMGEDA              MNEMONIC 

LDMGEDB              MNEMONIC 

LDMGEEA              MNEMONIC 

LDMGEED              MNEMONIC 

LDMGEFA              MNEMONIC 

LDMGEFD              MNEMONIC 

LDMGEIA              MNEMONIC 

LDMGEIB              MNEMONIC 

LDMGT                MNEMONIC 

LDMGTDA              MNEMONIC 

LDMGTDB              MNEMONIC 

LDMGTEA              MNEMONIC 

LDMGTED              MNEMONIC 

LDMGTFA              MNEMONIC 

LDMGTFD              MNEMONIC 

LDMGTIA              MNEMONIC 

LDMGTIB              MNEMONIC 

LDMHI                MNEMONIC 

LDMHIDA              MNEMONIC 

LDMHIDB              MNEMONIC 

LDMHIEA              MNEMONIC 

LDMHIED              MNEMONIC 

LDMHIFA              MNEMONIC 

LDMHIFD              MNEMONIC 

LDMHIIA              MNEMONIC 

LDMHIIB              MNEMONIC 

LDMHS                MNEMONIC 

LDMHSDA              MNEMONIC 

LDMHSDB              MNEMONIC 

LDMHSEA              MNEMONIC 

LDMHSED              MNEMONIC 

LDMHSFA              MNEMONIC 

LDMHSFD              MNEMONIC 

LDMHSIA              MNEMONIC 

LDMHSIB              MNEMONIC 

LDMIA                MNEMONIC 

LDMIB                MNEMONIC 

LDMLE                MNEMONIC 

LDMLEDA              MNEMONIC 

LDMLEDB              MNEMONIC 

LDMLEEA              MNEMONIC 

LDMLEED              MNEMONIC 

LDMLEFA              MNEMONIC 

LDMLEFD              MNEMONIC 

LDMLEIA              MNEMONIC 

LDMLEIB              MNEMONIC 

LDMLO                MNEMONIC 

LDMLODA              MNEMONIC 

LDMLODB              MNEMONIC 

LDMLOEA              MNEMONIC 

LDMLOED              MNEMONIC 

LDMLOFA              MNEMONIC 

LDMLOFD              MNEMONIC 

LDMLOIA              MNEMONIC 

LDMLOIB              MNEMONIC 

LDMLS                MNEMONIC 

LDMLSDA              MNEMONIC 

LDMLSDB              MNEMONIC 

LDMLSEA              MNEMONIC 

LDMLSED              MNEMONIC 

LDMLSFA              MNEMONIC 

LDMLSFD              MNEMONIC 

LDMLSIA              MNEMONIC 

LDMLSIB              MNEMONIC 

LDMLT                MNEMONIC 

LDMLTDA              MNEMONIC 

LDMLTDB              MNEMONIC 

LDMLTEA              MNEMONIC 

LDMLTED              MNEMONIC 

LDMLTFA              MNEMONIC 

LDMLTFD              MNEMONIC 

LDMLTIA              MNEMONIC 

LDMLTIB              MNEMONIC 

LDMMI                MNEMONIC 

LDMMIDA              MNEMONIC 

LDMMIDB              MNEMONIC 

LDMMIEA              MNEMONIC 

LDMMIED              MNEMONIC 

LDMMIFA              MNEMONIC 

LDMMIFD              MNEMONIC 

LDMMIIA              MNEMONIC 

LDMMIIB              MNEMONIC 

LDMNE                MNEMONIC 

LDMNEDA              MNEMONIC 

LDMNEDB              MNEMONIC 

LDMNEEA              MNEMONIC 

LDMNEED              MNEMONIC 

LDMNEFA              MNEMONIC 

LDMNEFD              MNEMONIC 

LDMNEIA              MNEMONIC 

LDMNEIB              MNEMONIC 

LDMPL                MNEMONIC 

LDMPLDA              MNEMONIC 

LDMPLDB              MNEMONIC 

LDMPLEA              MNEMONIC 

LDMPLED              MNEMONIC 

LDMPLFA              MNEMONIC 

LDMPLFD              MNEMONIC 

LDMPLIA              MNEMONIC 

LDMPLIB              MNEMONIC 

LDMVC                MNEMONIC 

LDMVCDA              MNEMONIC 

LDMVCDB              MNEMONIC 

LDMVCEA              MNEMONIC 

LDMVCED              MNEMONIC 

LDMVCFA              MNEMONIC 

LDMVCFD              MNEMONIC 

LDMVCIA              MNEMONIC 

LDMVCIB              MNEMONIC 

LDMVS                MNEMONIC 

LDMVSDA              MNEMONIC 

LDMVSDB              MNEMONIC 

LDMVSEA              MNEMONIC 

LDMVSED              MNEMONIC 

LDMVSFA              MNEMONIC 

LDMVSFD              MNEMONIC 

LDMVSIA              MNEMONIC 

LDMVSIB              MNEMONIC 

LDR                  MNEMONIC 

LDRAL                MNEMONIC 

LDRALB               MNEMONIC 

LDRALBT              MNEMONIC 

LDRALD               MNEMONIC 

LDRALH               MNEMONIC 

LDRALSB              MNEMONIC 

LDRALSH              MNEMONIC 

LDRALT               MNEMONIC 

LDRB                 MNEMONIC 

LDRBAL               MNEMONIC 

LDRBCC               MNEMONIC 

LDRBCS               MNEMONIC 

LDRBEQ               MNEMONIC 

LDRBGE               MNEMONIC 

LDRBGT               MNEMONIC 

LDRBHI               MNEMONIC 

LDRBHS               MNEMONIC 

LDRBLE               MNEMONIC 

LDRBLO               MNEMONIC 

LDRBLS               MNEMONIC 

LDRBLT               MNEMONIC 

LDRBMI               MNEMONIC 

LDRBNE               MNEMONIC 

LDRBPL               MNEMONIC 

LDRBT                MNEMONIC 

LDRBTAL              MNEMONIC 

LDRBTCC              MNEMONIC 

LDRBTCS              MNEMONIC 

LDRBTEQ              MNEMONIC 

LDRBTGE              MNEMONIC 

LDRBTGT              MNEMONIC 

LDRBTHI              MNEMONIC 

LDRBTHS              MNEMONIC 

LDRBTLE              MNEMONIC 

LDRBTLO              MNEMONIC 

LDRBTLS              MNEMONIC 

LDRBTLT              MNEMONIC 

LDRBTMI              MNEMONIC 

LDRBTNE              MNEMONIC 

LDRBTPL              MNEMONIC 

LDRBTVC              MNEMONIC 

LDRBTVS              MNEMONIC 

LDRBVC               MNEMONIC 

LDRBVS               MNEMONIC 

LDRCC                MNEMONIC 

LDRCCB               MNEMONIC 

LDRCCBT              MNEMONIC 

LDRCCD               MNEMONIC 

LDRCCH               MNEMONIC 

LDRCCSB              MNEMONIC 

LDRCCSH              MNEMONIC 

LDRCCT               MNEMONIC 

LDRCS                MNEMONIC 

LDRCSB               MNEMONIC 

LDRCSBT              MNEMONIC 

LDRCSD               MNEMONIC 

LDRCSH               MNEMONIC 

LDRCSSB              MNEMONIC 

LDRCSSH              MNEMONIC 

LDRCST               MNEMONIC 

LDRD                 MNEMONIC 

LDREQ                MNEMONIC 

LDREQB               MNEMONIC 

LDREQBT              MNEMONIC 

LDREQD               MNEMONIC 

LDREQH               MNEMONIC 

LDREQSB              MNEMONIC 

LDREQSH              MNEMONIC 

LDREQT               MNEMONIC 

LDREX                MNEMONIC 

LDREXAL              MNEMONIC 

LDREXB               MNEMONIC 

LDREXCC              MNEMONIC 

LDREXCS              MNEMONIC 

LDREXD               MNEMONIC 

LDREXEQ              MNEMONIC 

LDREXGE              MNEMONIC 

LDREXGT              MNEMONIC 

LDREXH               MNEMONIC 

LDREXHI              MNEMONIC 

LDREXHS              MNEMONIC 

LDREXLE              MNEMONIC 

LDREXLO              MNEMONIC 

LDREXLS              MNEMONIC 

LDREXLT              MNEMONIC 

LDREXMI              MNEMONIC 

LDREXNE              MNEMONIC 

LDREXPL              MNEMONIC 

LDREXVC              MNEMONIC 

LDREXVS              MNEMONIC 

LDRGE                MNEMONIC 

LDRGEB               MNEMONIC 

LDRGEBT              MNEMONIC 

LDRGED               MNEMONIC 

LDRGEH               MNEMONIC 

LDRGESB              MNEMONIC 

LDRGESH              MNEMONIC 

LDRGET               MNEMONIC 

LDRGT                MNEMONIC 

LDRGTB               MNEMONIC 

LDRGTBT              MNEMONIC 

LDRGTD               MNEMONIC 

LDRGTH               MNEMONIC 

LDRGTSB              MNEMONIC 

LDRGTSH              MNEMONIC 

LDRGTT               MNEMONIC 

LDRH                 MNEMONIC 

LDRHAL               MNEMONIC 

LDRHCC               MNEMONIC 

LDRHCS               MNEMONIC 

LDRHEQ               MNEMONIC 

LDRHGE               MNEMONIC 

LDRHGT               MNEMONIC 

LDRHHI               MNEMONIC 

LDRHHS               MNEMONIC 

LDRHI                MNEMONIC 

LDRHIB               MNEMONIC 

LDRHIBT              MNEMONIC 

LDRHID               MNEMONIC 

LDRHIH               MNEMONIC 

LDRHISB              MNEMONIC 

LDRHISH              MNEMONIC 

LDRHIT               MNEMONIC 

LDRHLE               MNEMONIC 

LDRHLO               MNEMONIC 

LDRHLS               MNEMONIC 

LDRHLT               MNEMONIC 

LDRHMI               MNEMONIC 

LDRHNE               MNEMONIC 

LDRHPL               MNEMONIC 

LDRHS                MNEMONIC 

LDRHSB               MNEMONIC 

LDRHSBT              MNEMONIC 

LDRHSD               MNEMONIC 

LDRHSH               MNEMONIC 

LDRHSSB              MNEMONIC 

LDRHSSH              MNEMONIC 

LDRHST               MNEMONIC 

LDRHT                MNEMONIC 

LDRHVC               MNEMONIC 

LDRHVS               MNEMONIC 

LDRLE                MNEMONIC 

LDRLEB               MNEMONIC 

LDRLEBT              MNEMONIC 

LDRLED               MNEMONIC 

LDRLEH               MNEMONIC 

LDRLESB              MNEMONIC 

LDRLESH              MNEMONIC 

LDRLET               MNEMONIC 

LDRLO                MNEMONIC 

LDRLOB               MNEMONIC 

LDRLOBT              MNEMONIC 

LDRLOD               MNEMONIC 

LDRLOH               MNEMONIC 

LDRLOSB              MNEMONIC 

LDRLOSH              MNEMONIC 

LDRLOT               MNEMONIC 

LDRLS                MNEMONIC 

LDRLSB               MNEMONIC 

LDRLSBT              MNEMONIC 

LDRLSD               MNEMONIC 

LDRLSH               MNEMONIC 

LDRLSSB              MNEMONIC 

LDRLSSH              MNEMONIC 

LDRLST               MNEMONIC 

LDRLT                MNEMONIC 

LDRLTB               MNEMONIC 

LDRLTBT              MNEMONIC 

LDRLTD               MNEMONIC 

LDRLTH               MNEMONIC 

LDRLTSB              MNEMONIC 

LDRLTSH              MNEMONIC 

LDRLTT               MNEMONIC 

LDRMI                MNEMONIC 

LDRMIB               MNEMONIC 

LDRMIBT              MNEMONIC 

LDRMID               MNEMONIC 

LDRMIH               MNEMONIC 

LDRMISB              MNEMONIC 

LDRMISH              MNEMONIC 

LDRMIT               MNEMONIC 

LDRNE                MNEMONIC 

LDRNEB               MNEMONIC 

LDRNEBT              MNEMONIC 

LDRNED               MNEMONIC 

LDRNEH               MNEMONIC 

LDRNESB              MNEMONIC 

LDRNESH              MNEMONIC 

LDRNET               MNEMONIC 

LDRPL                MNEMONIC 

LDRPLB               MNEMONIC 

LDRPLBT              MNEMONIC 

LDRPLD               MNEMONIC 

LDRPLH               MNEMONIC 

LDRPLSB              MNEMONIC 

LDRPLSH              MNEMONIC 

LDRPLT               MNEMONIC 

LDRSB                MNEMONIC 

LDRSBAL              MNEMONIC 

LDRSBCC              MNEMONIC 

LDRSBCS              MNEMONIC 

LDRSBEQ              MNEMONIC 

LDRSBGE              MNEMONIC 

LDRSBGT              MNEMONIC 

LDRSBHI              MNEMONIC 

LDRSBHS              MNEMONIC 

LDRSBLE              MNEMONIC 

LDRSBLO              MNEMONIC 

LDRSBLS              MNEMONIC 

LDRSBLT              MNEMONIC 

LDRSBMI              MNEMONIC 

LDRSBNE              MNEMONIC 

LDRSBPL              MNEMONIC 

LDRSBT               MNEMONIC 

LDRSBVC              MNEMONIC 

LDRSBVS              MNEMONIC 

LDRSH                MNEMONIC 

LDRSHAL              MNEMONIC 

LDRSHCC              MNEMONIC 

LDRSHCS              MNEMONIC 

LDRSHEQ              MNEMONIC 

LDRSHGE              MNEMONIC 

LDRSHGT              MNEMONIC 

LDRSHHI              MNEMONIC 

LDRSHHS              MNEMONIC 

LDRSHLE              MNEMONIC 

LDRSHLO              MNEMONIC 

LDRSHLS              MNEMONIC 

LDRSHLT              MNEMONIC 

LDRSHMI              MNEMONIC 

LDRSHNE              MNEMONIC 

LDRSHPL              MNEMONIC 

LDRSHT               MNEMONIC 

LDRSHVC              MNEMONIC 

LDRSHVS              MNEMONIC 

LDRT                 MNEMONIC 

LDRTAL               MNEMONIC 

LDRTCC               MNEMONIC 

LDRTCS               MNEMONIC 

LDRTEQ               MNEMONIC 

LDRTGE               MNEMONIC 

LDRTGT               MNEMONIC 

LDRTHI               MNEMONIC 

LDRTHS               MNEMONIC 

LDRTLE               MNEMONIC 

LDRTLO               MNEMONIC 

LDRTLS               MNEMONIC 

LDRTLT               MNEMONIC 

LDRTMI               MNEMONIC 

LDRTNE               MNEMONIC 

LDRTPL               MNEMONIC 

LDRTVC               MNEMONIC 

LDRTVS               MNEMONIC 

LDRVC                MNEMONIC 

LDRVCB               MNEMONIC 

LDRVCBT              MNEMONIC 

LDRVCD               MNEMONIC 

LDRVCH               MNEMONIC 

LDRVCSB              MNEMONIC 

LDRVCSH              MNEMONIC 

LDRVCT               MNEMONIC 

LDRVS                MNEMONIC 

LDRVSB               MNEMONIC 

LDRVSBT              MNEMONIC 

LDRVSD               MNEMONIC 

LDRVSH               MNEMONIC 

LDRVSSB              MNEMONIC 

LDRVSSH              MNEMONIC 

LDRVST               MNEMONIC 

LDSB                 MNEMONIC 

LDSH                 MNEMONIC 

LIBRARY              DIRECTIVE 

LIMIT                DIRECTIVE 

LOCAL                DIRECTIVE 

LOCFRAME             DIRECTIVE 

LOW                  OPERATOR 

LR                   REGISTER 

LSL                  MNEMONIC 

LSLS                 MNEMONIC 

LSR                  MNEMONIC 

LSRS                 MNEMONIC 

LSTCND               DIRECTIVE 

LSTCOD               DIRECTIVE 

LSTEXP               DIRECTIVE 

LSTMAC               DIRECTIVE 

LSTOUT               DIRECTIVE 

LSTPAG               DIRECTIVE 

LSTREP               DIRECTIVE 

LSTXRF               DIRECTIVE 

LTORG                DIRECTIVE 

LWRD                 OPERATOR 

LastVal              #define, value: 40, line:      15:2       41:2    102:2

MACRO                DIRECTIVE 

MAR                  MNEMONIC 

MARAL                MNEMONIC 

MARCC                MNEMONIC 

MARCS                MNEMONIC 

MAREQ                MNEMONIC 

MARGE                MNEMONIC 

MARGT                MNEMONIC 

MARHI                MNEMONIC 

MARHS                MNEMONIC 

MARLE                MNEMONIC 

MARLO                MNEMONIC 

MARLS                MNEMONIC 

MARLT                MNEMONIC 

MARMI                MNEMONIC 

MARNE                MNEMONIC 

MARPL                MNEMONIC 

MARVC                MNEMONIC 

MARVS                MNEMONIC 

MCR                  MNEMONIC 

MCR2                 MNEMONIC 

MCRAL                MNEMONIC 

MCRCC                MNEMONIC 

MCRCS                MNEMONIC 

MCREQ                MNEMONIC 

MCRGE                MNEMONIC 

MCRGT                MNEMONIC 

MCRHI                MNEMONIC 

MCRHS                MNEMONIC 

MCRLE                MNEMONIC 

MCRLO                MNEMONIC 

MCRLS                MNEMONIC 

MCRLT                MNEMONIC 

MCRMI                MNEMONIC 

MCRNE                MNEMONIC 

MCRPL                MNEMONIC 

MCRR                 MNEMONIC 

MCRR2                MNEMONIC 

MCRRAL               MNEMONIC 

MCRRCC               MNEMONIC 

MCRRCS               MNEMONIC 

MCRREQ               MNEMONIC 

MCRRGE               MNEMONIC 

MCRRGT               MNEMONIC 

MCRRHI               MNEMONIC 

MCRRHS               MNEMONIC 

MCRRLE               MNEMONIC 

MCRRLO               MNEMONIC 

MCRRLS               MNEMONIC 

MCRRLT               MNEMONIC 

MCRRMI               MNEMONIC 

MCRRNE               MNEMONIC 

MCRRPL               MNEMONIC 

MCRRVC               MNEMONIC 

MCRRVS               MNEMONIC 

MCRVC                MNEMONIC 

MCRVS                MNEMONIC 

MIA                  MNEMONIC 

MIAAL                MNEMONIC 

MIABB                MNEMONIC 

MIABBAL              MNEMONIC 

MIABBCC              MNEMONIC 

MIABBCS              MNEMONIC 

MIABBEQ              MNEMONIC 

MIABBGE              MNEMONIC 

MIABBGT              MNEMONIC 

MIABBHI              MNEMONIC 

MIABBHS              MNEMONIC 

MIABBLE              MNEMONIC 

MIABBLO              MNEMONIC 

MIABBLS              MNEMONIC 

MIABBLT              MNEMONIC 

MIABBMI              MNEMONIC 

MIABBNE              MNEMONIC 

MIABBPL              MNEMONIC 

MIABBVC              MNEMONIC 

MIABBVS              MNEMONIC 

MIABT                MNEMONIC 

MIABTAL              MNEMONIC 

MIABTCC              MNEMONIC 

MIABTCS              MNEMONIC 

MIABTEQ              MNEMONIC 

MIABTGE              MNEMONIC 

MIABTGT              MNEMONIC 

MIABTHI              MNEMONIC 

MIABTHS              MNEMONIC 

MIABTLE              MNEMONIC 

MIABTLO              MNEMONIC 

MIABTLS              MNEMONIC 

MIABTLT              MNEMONIC 

MIABTMI              MNEMONIC 

MIABTNE              MNEMONIC 

MIABTPL              MNEMONIC 

MIABTVC              MNEMONIC 

MIABTVS              MNEMONIC 

MIACC                MNEMONIC 

MIACS                MNEMONIC 

MIAEQ                MNEMONIC 

MIAGE                MNEMONIC 

MIAGT                MNEMONIC 

MIAHI                MNEMONIC 

MIAHS                MNEMONIC 

MIALE                MNEMONIC 

MIALO                MNEMONIC 

MIALS                MNEMONIC 

MIALT                MNEMONIC 

MIAMI                MNEMONIC 

MIANE                MNEMONIC 

MIAPH                MNEMONIC 

MIAPHAL              MNEMONIC 

MIAPHCC              MNEMONIC 

MIAPHCS              MNEMONIC 

MIAPHEQ              MNEMONIC 

MIAPHGE              MNEMONIC 

MIAPHGT              MNEMONIC 

MIAPHHI              MNEMONIC 

MIAPHHS              MNEMONIC 

MIAPHLE              MNEMONIC 

MIAPHLO              MNEMONIC 

MIAPHLS              MNEMONIC 

MIAPHLT              MNEMONIC 

MIAPHMI              MNEMONIC 

MIAPHNE              MNEMONIC 

MIAPHPL              MNEMONIC 

MIAPHVC              MNEMONIC 

MIAPHVS              MNEMONIC 

MIAPL                MNEMONIC 

MIATB                MNEMONIC 

MIATBAL              MNEMONIC 

MIATBCC              MNEMONIC 

MIATBCS              MNEMONIC 

MIATBEQ              MNEMONIC 

MIATBGE              MNEMONIC 

MIATBGT              MNEMONIC 

MIATBHI              MNEMONIC 

MIATBHS              MNEMONIC 

MIATBLE              MNEMONIC 

MIATBLO              MNEMONIC 

MIATBLS              MNEMONIC 

MIATBLT              MNEMONIC 

MIATBMI              MNEMONIC 

MIATBNE              MNEMONIC 

MIATBPL              MNEMONIC 

MIATBVC              MNEMONIC 

MIATBVS              MNEMONIC 

MIATT                MNEMONIC 

MIATTAL              MNEMONIC 

MIATTCC              MNEMONIC 

MIATTCS              MNEMONIC 

MIATTEQ              MNEMONIC 

MIATTGE              MNEMONIC 

MIATTGT              MNEMONIC 

MIATTHI              MNEMONIC 

MIATTHS              MNEMONIC 

MIATTLE              MNEMONIC 

MIATTLO              MNEMONIC 

MIATTLS              MNEMONIC 

MIATTLT              MNEMONIC 

MIATTMI              MNEMONIC 

MIATTNE              MNEMONIC 

MIATTPL              MNEMONIC 

MIATTVC              MNEMONIC 

MIATTVS              MNEMONIC 

MIAVC                MNEMONIC 

MIAVS                MNEMONIC 

MLA                  MNEMONIC 

MLAAL                MNEMONIC 

MLAALS               MNEMONIC 

MLACC                MNEMONIC 

MLACCS               MNEMONIC 

MLACS                MNEMONIC 

MLACSS               MNEMONIC 

MLAEQ                MNEMONIC 

MLAEQS               MNEMONIC 

MLAGE                MNEMONIC 

MLAGES               MNEMONIC 

MLAGT                MNEMONIC 

MLAGTS               MNEMONIC 

MLAHI                MNEMONIC 

MLAHIS               MNEMONIC 

MLAHS                MNEMONIC 

MLAHSS               MNEMONIC 

MLALE                MNEMONIC 

MLALES               MNEMONIC 

MLALO                MNEMONIC 

MLALOS               MNEMONIC 

MLALS                MNEMONIC 

MLALSS               MNEMONIC 

MLALT                MNEMONIC 

MLALTS               MNEMONIC 

MLAMI                MNEMONIC 

MLAMIS               MNEMONIC 

MLANE                MNEMONIC 

MLANES               MNEMONIC 

MLAPL                MNEMONIC 

MLAPLS               MNEMONIC 

MLAS                 MNEMONIC 

MLAVC                MNEMONIC 

MLAVCS               MNEMONIC 

MLAVS                MNEMONIC 

MLAVSS               MNEMONIC 

MLS                  MNEMONIC 

MODULE               DIRECTIVE 

MOV                  MNEMONIC 

MOV32                MNEMONIC 

MOVAL                MNEMONIC 

MOVALS               MNEMONIC 

MOVCC                MNEMONIC 

MOVCCS               MNEMONIC 

MOVCS                MNEMONIC 

MOVCSS               MNEMONIC 

MOVEQ                MNEMONIC 

MOVEQS               MNEMONIC 

MOVGE                MNEMONIC 

MOVGES               MNEMONIC 

MOVGT                MNEMONIC 

MOVGTS               MNEMONIC 

MOVHI                MNEMONIC 

MOVHIS               MNEMONIC 

MOVHS                MNEMONIC 

MOVHSS               MNEMONIC 

MOVLE                MNEMONIC 

MOVLES               MNEMONIC 

MOVLO                MNEMONIC 

MOVLOS               MNEMONIC 

MOVLS                MNEMONIC 

MOVLSS               MNEMONIC 

MOVLT                MNEMONIC 

MOVLTS               MNEMONIC 

MOVMI                MNEMONIC 

MOVMIS               MNEMONIC 

MOVNE                MNEMONIC 

MOVNES               MNEMONIC 

MOVPL                MNEMONIC 

MOVPLS               MNEMONIC 

MOVS                 MNEMONIC 

MOVSAL               MNEMONIC 

MOVSCC               MNEMONIC 

MOVSCS               MNEMONIC 

MOVSEQ               MNEMONIC 

MOVSGE               MNEMONIC 

MOVSGT               MNEMONIC 

MOVSHI               MNEMONIC 

MOVSHS               MNEMONIC 

MOVSLE               MNEMONIC 

MOVSLO               MNEMONIC 

MOVSLS               MNEMONIC 

MOVSLT               MNEMONIC 

MOVSMI               MNEMONIC 

MOVSNE               MNEMONIC 

MOVSPL               MNEMONIC 

MOVSVC               MNEMONIC 

MOVSVS               MNEMONIC 

MOVT                 MNEMONIC 

MOVVC                MNEMONIC 

MOVVCS               MNEMONIC 

MOVVS                MNEMONIC 

MOVVSS               MNEMONIC 

MOVW                 MNEMONIC 

MRA                  MNEMONIC 

MRAAL                MNEMONIC 

MRACC                MNEMONIC 

MRACS                MNEMONIC 

MRAEQ                MNEMONIC 

MRAGE                MNEMONIC 

MRAGT                MNEMONIC 

MRAHI                MNEMONIC 

MRAHS                MNEMONIC 

MRALE                MNEMONIC 

MRALO                MNEMONIC 

MRALS                MNEMONIC 

MRALT                MNEMONIC 

MRAMI                MNEMONIC 

MRANE                MNEMONIC 

MRAPL                MNEMONIC 

MRAVC                MNEMONIC 

MRAVS                MNEMONIC 

MRC                  MNEMONIC 

MRC2                 MNEMONIC 

MRCAL                MNEMONIC 

MRCCC                MNEMONIC 

MRCCS                MNEMONIC 

MRCEQ                MNEMONIC 

MRCGE                MNEMONIC 

MRCGT                MNEMONIC 

MRCHI                MNEMONIC 

MRCHS                MNEMONIC 

MRCLE                MNEMONIC 

MRCLO                MNEMONIC 

MRCLS                MNEMONIC 

MRCLT                MNEMONIC 

MRCMI                MNEMONIC 

MRCNE                MNEMONIC 

MRCPL                MNEMONIC 

MRCVC                MNEMONIC 

MRCVS                MNEMONIC 

MRRC                 MNEMONIC 

MRRC2                MNEMONIC 

MRRCAL               MNEMONIC 

MRRCCC               MNEMONIC 

MRRCCS               MNEMONIC 

MRRCEQ               MNEMONIC 

MRRCGE               MNEMONIC 

MRRCGT               MNEMONIC 

MRRCHI               MNEMONIC 

MRRCHS               MNEMONIC 

MRRCLE               MNEMONIC 

MRRCLO               MNEMONIC 

MRRCLS               MNEMONIC 

MRRCLT               MNEMONIC 

MRRCMI               MNEMONIC 

MRRCNE               MNEMONIC 

MRRCPL               MNEMONIC 

MRRCVC               MNEMONIC 

MRRCVS               MNEMONIC 

MRS                  MNEMONIC 

MSR                  MNEMONIC 

MUL                  MNEMONIC 

MULAL                MNEMONIC 

MULALS               MNEMONIC 

MULCC                MNEMONIC 

MULCCS               MNEMONIC 

MULCS                MNEMONIC 

MULCSS               MNEMONIC 

MULEQ                MNEMONIC 

MULEQS               MNEMONIC 

MULGE                MNEMONIC 

MULGES               MNEMONIC 

MULGT                MNEMONIC 

MULGTS               MNEMONIC 

MULHI                MNEMONIC 

MULHIS               MNEMONIC 

MULHS                MNEMONIC 

MULHSS               MNEMONIC 

MULLE                MNEMONIC 

MULLES               MNEMONIC 

MULLO                MNEMONIC 

MULLOS               MNEMONIC 

MULLS                MNEMONIC 

MULLSS               MNEMONIC 

MULLT                MNEMONIC 

MULLTS               MNEMONIC 

MULMI                MNEMONIC 

MULMIS               MNEMONIC 

MULNE                MNEMONIC 

MULNES               MNEMONIC 

MULPL                MNEMONIC 

MULPLS               MNEMONIC 

MULS                 MNEMONIC 

MULTWEAK             DIRECTIVE 

MULVC                MNEMONIC 

MULVCS               MNEMONIC 

MULVS                MNEMONIC 

MULVSS               MNEMONIC 

MVN                  MNEMONIC 

MVNAL                MNEMONIC 

MVNALS               MNEMONIC 

MVNCC                MNEMONIC 

MVNCCS               MNEMONIC 

MVNCS                MNEMONIC 

MVNCSS               MNEMONIC 

MVNEQ                MNEMONIC 

MVNEQS               MNEMONIC 

MVNGE                MNEMONIC 

MVNGES               MNEMONIC 

MVNGT                MNEMONIC 

MVNGTS               MNEMONIC 

MVNHI                MNEMONIC 

MVNHIS               MNEMONIC 

MVNHS                MNEMONIC 

MVNHSS               MNEMONIC 

MVNLE                MNEMONIC 

MVNLES               MNEMONIC 

MVNLO                MNEMONIC 

MVNLOS               MNEMONIC 

MVNLS                MNEMONIC 

MVNLSS               MNEMONIC 

MVNLT                MNEMONIC 

MVNLTS               MNEMONIC 

MVNMI                MNEMONIC 

MVNMIS               MNEMONIC 

MVNNE                MNEMONIC 

MVNNES               MNEMONIC 

MVNPL                MNEMONIC 

MVNPLS               MNEMONIC 

MVNS                 MNEMONIC 

MVNSAL               MNEMONIC 

MVNSCC               MNEMONIC 

MVNSCS               MNEMONIC 

MVNSEQ               MNEMONIC 

MVNSGE               MNEMONIC 

MVNSGT               MNEMONIC 

MVNSHI               MNEMONIC 

MVNSHS               MNEMONIC 

MVNSLE               MNEMONIC 

MVNSLO               MNEMONIC 

MVNSLS               MNEMONIC 

MVNSLT               MNEMONIC 

MVNSMI               MNEMONIC 

MVNSNE               MNEMONIC 

MVNSPL               MNEMONIC 

MVNSVC               MNEMONIC 

MVNSVS               MNEMONIC 

MVNVC                MNEMONIC 

MVNVCS               MNEMONIC 

MVNVS                MNEMONIC 

MVNVSS               MNEMONIC 

NAME                 DIRECTIVE 

NCHANS               #define, value: r9, line:      47:5       63:5    135:5

NCT                  #define, value: r2, line:      42:3       88:3     89:3     98:3    113:3
                                                                    113:3    119:3    122:3    127:3
                                                                    129:3    134:3    136:3    139:3
                                                                    140:3    172:3    188:3    188:3

NEAR                 SEGMENT TYPE 

NEARCODE             SEGMENT TYPE 

NEARCONST            SEGMENT TYPE 

NEARDATA             SEGMENT TYPE 

NEG                  MNEMONIC 

NEGS                 MNEMONIC 

NOP                  MNEMONIC 

NOROOT               SEGMENT TYPE 

NPAGE                SEGMENT TYPE 

ODD                  DIRECTIVE 

ORG                  DIRECTIVE 

ORN                  MNEMONIC 

ORNS                 MNEMONIC 

ORR                  MNEMONIC 

ORRAL                MNEMONIC 

ORRALS               MNEMONIC 

ORRCC                MNEMONIC 

ORRCCS               MNEMONIC 

ORRCS                MNEMONIC 

ORRCSS               MNEMONIC 

ORREQ                MNEMONIC 

ORREQS               MNEMONIC 

ORRGE                MNEMONIC 

ORRGES               MNEMONIC 

ORRGT                MNEMONIC 

ORRGTS               MNEMONIC 

ORRHI                MNEMONIC 

ORRHIS               MNEMONIC 

ORRHS                MNEMONIC 

ORRHSS               MNEMONIC 

ORRLE                MNEMONIC 

ORRLES               MNEMONIC 

ORRLO                MNEMONIC 

ORRLOS               MNEMONIC 

ORRLS                MNEMONIC 

ORRLSS               MNEMONIC 

ORRLT                MNEMONIC 

ORRLTS               MNEMONIC 

ORRMI                MNEMONIC 

ORRMIS               MNEMONIC 

ORRNE                MNEMONIC 

ORRNES               MNEMONIC 

ORRPL                MNEMONIC 

ORRPLS               MNEMONIC 

ORRS                 MNEMONIC 

ORRSAL               MNEMONIC 

ORRSCC               MNEMONIC 

ORRSCS               MNEMONIC 

ORRSEQ               MNEMONIC 

ORRSGE               MNEMONIC 

ORRSGT               MNEMONIC 

ORRSHI               MNEMONIC 

ORRSHS               MNEMONIC 

ORRSLE               MNEMONIC 

ORRSLO               MNEMONIC 

ORRSLS               MNEMONIC 

ORRSLT               MNEMONIC 

ORRSMI               MNEMONIC 

ORRSNE               MNEMONIC 

ORRSPL               MNEMONIC 

ORRSVC               MNEMONIC 

ORRSVS               MNEMONIC 

ORRVC                MNEMONIC 

ORRVCS               MNEMONIC 

ORRVS                MNEMONIC 

ORRVSS               MNEMONIC 

OUTBUF               #define, value: r3, line:      41:5      134:5    135:5    135:5

OVERLOAD             DIRECTIVE 

P0                   REGISTER 

P01IMHI              #define, value: r10, line:      53:3       94:3    108:3    109:3    129:3

P01IMLO              #define, value: r9, line:      52:3       93:3    108:3    109:3    128:3

P01REHI              #define, value: r8, line:      51:3       92:3    106:3    107:3    122:3

P01RELO              #define, value: r7, line:      50:3       91:3    106:3    107:3    116:3
                                                                    121:3

P02IMHI              #define, value: r10, line:     151:3      165:3    180:3    181:3    191:3

P02IMLO              #define, value: r9, line:     150:3      164:3    180:3    181:3

P02REHI              #define, value: r8, line:     149:3      163:3    178:3    179:3

P02RELO              #define, value: r7, line:     148:3      162:3    178:3    179:3    191:3

P1                   REGISTER 

P10                  REGISTER 

P11                  REGISTER 

P11REHI              #define, value: r12, line:      55:3       96:3    110:3    111:3    116:3
                                                                    136:3

P11RELO              #define, value: r11, line:      54:3       95:3    110:3    111:3    135:3

P12                  REGISTER 

P12IMHI              #define, value: r10, line:      61:3       83:3     84:3    129:3    130:3
                                                                    131:3

P12IMLO              #define, value: r9, line:      60:3       83:3     84:3    128:3    130:3
                                                                    131:3

P12REHI              #define, value: r8, line:      59:3       81:3     82:3    122:3    123:3
                                                                    124:3

P12RELO              #define, value: r7, line:      58:3       81:3     82:3     89:3    121:3
                                                                    123:3    124:3    143:3

P13                  REGISTER 

P14                  REGISTER 

P15                  REGISTER 

P2                   REGISTER 

P22REHI              #define, value: r12, line:      63:3       85:3     86:3     89:3    136:3
                                                                    138:3    140:3    143:3

P22RELO              #define, value: r11, line:      62:3       85:3     86:3    135:3    138:3
                                                                    140:3

P3                   REGISTER 

P4                   REGISTER 

P5                   REGISTER 

P6                   REGISTER 

P7                   REGISTER 

P8                   REGISTER 

P9                   REGISTER 

PAGE                 DIRECTIVE 

PAGSIZ               DIRECTIVE 

PC                   REGISTER 

PKHBT                MNEMONIC 

PKHBTAL              MNEMONIC 

PKHBTCC              MNEMONIC 

PKHBTCS              MNEMONIC 

PKHBTEQ              MNEMONIC 

PKHBTGE              MNEMONIC 

PKHBTGT              MNEMONIC 

PKHBTHI              MNEMONIC 

PKHBTHS              MNEMONIC 

PKHBTLE              MNEMONIC 

PKHBTLO              MNEMONIC 

PKHBTLS              MNEMONIC 

PKHBTLT              MNEMONIC 

PKHBTMI              MNEMONIC 

PKHBTNE              MNEMONIC 

PKHBTPL              MNEMONIC 

PKHBTVC              MNEMONIC 

PKHBTVS              MNEMONIC 

PKHTB                MNEMONIC 

PKHTBAL              MNEMONIC 

PKHTBCC              MNEMONIC 

PKHTBCS              MNEMONIC 

PKHTBEQ              MNEMONIC 

PKHTBGE              MNEMONIC 

PKHTBGT              MNEMONIC 

PKHTBHI              MNEMONIC 

PKHTBHS              MNEMONIC 

PKHTBLE              MNEMONIC 

PKHTBLO              MNEMONIC 

PKHTBLS              MNEMONIC 

PKHTBLT              MNEMONIC 

PKHTBMI              MNEMONIC 

PKHTBNE              MNEMONIC 

PKHTBPL              MNEMONIC 

PKHTBVC              MNEMONIC 

PKHTBVS              MNEMONIC 

PLD                  MNEMONIC 

PLI                  MNEMONIC 

POP                  MNEMONIC 

POS                  #define, value: R5, line:      22:2       29:2     30:2     60:2     61:2
                                                                     64:2     64:2     86:2     95:2
                                                                     95:2     96:2     96:2    101:2
                                                                    104:2

PROGRAM              DIRECTIVE 

PUBLIC               DIRECTIVE 

PUBWEAK              DIRECTIVE 

PUSH                 MNEMONIC 

QADD                 MNEMONIC 

QADD16               MNEMONIC 

QADD16AL             MNEMONIC 

QADD16CC             MNEMONIC 

QADD16CS             MNEMONIC 

QADD16EQ             MNEMONIC 

QADD16GE             MNEMONIC 

QADD16GT             MNEMONIC 

QADD16HI             MNEMONIC 

QADD16HS             MNEMONIC 

QADD16LE             MNEMONIC 

QADD16LO             MNEMONIC 

QADD16LS             MNEMONIC 

QADD16LT             MNEMONIC 

QADD16MI             MNEMONIC 

QADD16NE             MNEMONIC 

QADD16PL             MNEMONIC 

QADD16VC             MNEMONIC 

QADD16VS             MNEMONIC 

QADD8                MNEMONIC 

QADD8AL              MNEMONIC 

QADD8CC              MNEMONIC 

QADD8CS              MNEMONIC 

QADD8EQ              MNEMONIC 

QADD8GE              MNEMONIC 

QADD8GT              MNEMONIC 

QADD8HI              MNEMONIC 

QADD8HS              MNEMONIC 

QADD8LE              MNEMONIC 

QADD8LO              MNEMONIC 

QADD8LS              MNEMONIC 

QADD8LT              MNEMONIC 

QADD8MI              MNEMONIC 

QADD8NE              MNEMONIC 

QADD8PL              MNEMONIC 

QADD8VC              MNEMONIC 

QADD8VS              MNEMONIC 

QADDAL               MNEMONIC 

QADDCC               MNEMONIC 

QADDCS               MNEMONIC 

QADDEQ               MNEMONIC 

QADDGE               MNEMONIC 

QADDGT               MNEMONIC 

QADDHI               MNEMONIC 

QADDHS               MNEMONIC 

QADDLE               MNEMONIC 

QADDLO               MNEMONIC 

QADDLS               MNEMONIC 

QADDLT               MNEMONIC 

QADDMI               MNEMONIC 

QADDNE               MNEMONIC 

QADDPL               MNEMONIC 

QADDSUBX             MNEMONIC 

QADDSUBXAL           MNEMONIC 

QADDSUBXCC           MNEMONIC 

QADDSUBXCS           MNEMONIC 

QADDSUBXEQ           MNEMONIC 

QADDSUBXGE           MNEMONIC 

QADDSUBXGT           MNEMONIC 

QADDSUBXHI           MNEMONIC 

QADDSUBXHS           MNEMONIC 

QADDSUBXLE           MNEMONIC 

QADDSUBXLO           MNEMONIC 

QADDSUBXLS           MNEMONIC 

QADDSUBXLT           MNEMONIC 

QADDSUBXMI           MNEMONIC 

QADDSUBXNE           MNEMONIC 

QADDSUBXPL           MNEMONIC 

QADDSUBXVC           MNEMONIC 

QADDSUBXVS           MNEMONIC 

QADDVC               MNEMONIC 

QADDVS               MNEMONIC 

QASX                 MNEMONIC 

QASXAL               MNEMONIC 

QASXCC               MNEMONIC 

QASXCS               MNEMONIC 

QASXEQ               MNEMONIC 

QASXGE               MNEMONIC 

QASXGT               MNEMONIC 

QASXHI               MNEMONIC 

QASXHS               MNEMONIC 

QASXLE               MNEMONIC 

QASXLO               MNEMONIC 

QASXLS               MNEMONIC 

QASXLT               MNEMONIC 

QASXMI               MNEMONIC 

QASXNE               MNEMONIC 

QASXPL               MNEMONIC 

QASXVC               MNEMONIC 

QASXVS               MNEMONIC 

QDADD                MNEMONIC 

QDADDAL              MNEMONIC 

QDADDCC              MNEMONIC 

QDADDCS              MNEMONIC 

QDADDEQ              MNEMONIC 

QDADDGE              MNEMONIC 

QDADDGT              MNEMONIC 

QDADDHI              MNEMONIC 

QDADDHS              MNEMONIC 

QDADDLE              MNEMONIC 

QDADDLO              MNEMONIC 

QDADDLS              MNEMONIC 

QDADDLT              MNEMONIC 

QDADDMI              MNEMONIC 

QDADDNE              MNEMONIC 

QDADDPL              MNEMONIC 

QDADDVC              MNEMONIC 

QDADDVS              MNEMONIC 

QDSUB                MNEMONIC 

QDSUBAL              MNEMONIC 

QDSUBCC              MNEMONIC 

QDSUBCS              MNEMONIC 

QDSUBEQ              MNEMONIC 

QDSUBGE              MNEMONIC 

QDSUBGT              MNEMONIC 

QDSUBHI              MNEMONIC 

QDSUBHS              MNEMONIC 

QDSUBLE              MNEMONIC 

QDSUBLO              MNEMONIC 

QDSUBLS              MNEMONIC 

QDSUBLT              MNEMONIC 

QDSUBMI              MNEMONIC 

QDSUBNE              MNEMONIC 

QDSUBPL              MNEMONIC 

QDSUBVC              MNEMONIC 

QDSUBVS              MNEMONIC 

QSAX                 MNEMONIC 

QSAXAL               MNEMONIC 

QSAXCC               MNEMONIC 

QSAXCS               MNEMONIC 

QSAXEQ               MNEMONIC 

QSAXGE               MNEMONIC 

QSAXGT               MNEMONIC 

QSAXHI               MNEMONIC 

QSAXHS               MNEMONIC 

QSAXLE               MNEMONIC 

QSAXLO               MNEMONIC 

QSAXLS               MNEMONIC 

QSAXLT               MNEMONIC 

QSAXMI               MNEMONIC 

QSAXNE               MNEMONIC 

QSAXPL               MNEMONIC 

QSAXVC               MNEMONIC 

QSAXVS               MNEMONIC 

QSUB                 MNEMONIC 

QSUB16               MNEMONIC 

QSUB16AL             MNEMONIC 

QSUB16CC             MNEMONIC 

QSUB16CS             MNEMONIC 

QSUB16EQ             MNEMONIC 

QSUB16GE             MNEMONIC 

QSUB16GT             MNEMONIC 

QSUB16HI             MNEMONIC 

QSUB16HS             MNEMONIC 

QSUB16LE             MNEMONIC 

QSUB16LO             MNEMONIC 

QSUB16LS             MNEMONIC 

QSUB16LT             MNEMONIC 

QSUB16MI             MNEMONIC 

QSUB16NE             MNEMONIC 

QSUB16PL             MNEMONIC 

QSUB16VC             MNEMONIC 

QSUB16VS             MNEMONIC 

QSUB8                MNEMONIC 

QSUB8AL              MNEMONIC 

QSUB8CC              MNEMONIC 

QSUB8CS              MNEMONIC 

QSUB8EQ              MNEMONIC 

QSUB8GE              MNEMONIC 

QSUB8GT              MNEMONIC 

QSUB8HI              MNEMONIC 

QSUB8HS              MNEMONIC 

QSUB8LE              MNEMONIC 

QSUB8LO              MNEMONIC 

QSUB8LS              MNEMONIC 

QSUB8LT              MNEMONIC 

QSUB8MI              MNEMONIC 

QSUB8NE              MNEMONIC 

QSUB8PL              MNEMONIC 

QSUB8VC              MNEMONIC 

QSUB8VS              MNEMONIC 

QSUBADDX             MNEMONIC 

QSUBADDXAL           MNEMONIC 

QSUBADDXCC           MNEMONIC 

QSUBADDXCS           MNEMONIC 

QSUBADDXEQ           MNEMONIC 

QSUBADDXGE           MNEMONIC 

QSUBADDXGT           MNEMONIC 

QSUBADDXHI           MNEMONIC 

QSUBADDXHS           MNEMONIC 

QSUBADDXLE           MNEMONIC 

QSUBADDXLO           MNEMONIC 

QSUBADDXLS           MNEMONIC 

QSUBADDXLT           MNEMONIC 

QSUBADDXMI           MNEMONIC 

QSUBADDXNE           MNEMONIC 

QSUBADDXPL           MNEMONIC 

QSUBADDXVC           MNEMONIC 

QSUBADDXVS           MNEMONIC 

QSUBAL               MNEMONIC 

QSUBCC               MNEMONIC 

QSUBCS               MNEMONIC 

QSUBEQ               MNEMONIC 

QSUBGE               MNEMONIC 

QSUBGT               MNEMONIC 

QSUBHI               MNEMONIC 

QSUBHS               MNEMONIC 

QSUBLE               MNEMONIC 

QSUBLO               MNEMONIC 

QSUBLS               MNEMONIC 

QSUBLT               MNEMONIC 

QSUBMI               MNEMONIC 

QSUBNE               MNEMONIC 

QSUBPL               MNEMONIC 

QSUBVC               MNEMONIC 

QSUBVS               MNEMONIC 

R0                   REGISTER 

R1                   REGISTER 

R10                  REGISTER 

R11                  REGISTER 

R12                  REGISTER 

R13                  REGISTER 

R14                  REGISTER 

R15                  REGISTER 

R2                   REGISTER 

R3                   REGISTER 

R4                   REGISTER 

R5                   REGISTER 

R6                   REGISTER 

R7                   REGISTER 

R8                   REGISTER 

R9                   REGISTER 

RADIX                DIRECTIVE 

RBIT                 MNEMONIC 

REGISTER             SEGMENT TYPE 

REORDER              SEGMENT TYPE 

REPT                 DIRECTIVE 

REPTC                DIRECTIVE 

REPTI                DIRECTIVE 

REQUIRE              DIRECTIVE 

REV                  MNEMONIC 

REV16                MNEMONIC 

REV16AL              MNEMONIC 

REV16CC              MNEMONIC 

REV16CS              MNEMONIC 

REV16EQ              MNEMONIC 

REV16GE              MNEMONIC 

REV16GT              MNEMONIC 

REV16HI              MNEMONIC 

REV16HS              MNEMONIC 

REV16LE              MNEMONIC 

REV16LO              MNEMONIC 

REV16LS              MNEMONIC 

REV16LT              MNEMONIC 

REV16MI              MNEMONIC 

REV16NE              MNEMONIC 

REV16PL              MNEMONIC 

REV16VC              MNEMONIC 

REV16VS              MNEMONIC 

REVAL                MNEMONIC 

REVCC                MNEMONIC 

REVCS                MNEMONIC 

REVEQ                MNEMONIC 

REVGE                MNEMONIC 

REVGT                MNEMONIC 

REVHI                MNEMONIC 

REVHS                MNEMONIC 

REVLE                MNEMONIC 

REVLO                MNEMONIC 

REVLS                MNEMONIC 

REVLT                MNEMONIC 

REVMI                MNEMONIC 

REVNE                MNEMONIC 

REVPL                MNEMONIC 

REVSH                MNEMONIC 

REVSHAL              MNEMONIC 

REVSHCC              MNEMONIC 

REVSHCS              MNEMONIC 

REVSHEQ              MNEMONIC 

REVSHGE              MNEMONIC 

REVSHGT              MNEMONIC 

REVSHHI              MNEMONIC 

REVSHHS              MNEMONIC 

REVSHLE              MNEMONIC 

REVSHLO              MNEMONIC 

REVSHLS              MNEMONIC 

REVSHLT              MNEMONIC 

REVSHMI              MNEMONIC 

REVSHNE              MNEMONIC 

REVSHPL              MNEMONIC 

REVSHVC              MNEMONIC 

REVSHVS              MNEMONIC 

REVVC                MNEMONIC 

REVVS                MNEMONIC 

RFE                  MNEMONIC 

RFEDA                MNEMONIC 

RFEDB                MNEMONIC 

RFEEA                MNEMONIC 

RFEED                MNEMONIC 

RFEFA                MNEMONIC 

RFEFD                MNEMONIC 

RFEIA                MNEMONIC 

RFEIB                MNEMONIC 

RND_VAL              #define, value: 4, line:      53:5      128:5

ROOT                 SEGMENT TYPE 

ROR                  MNEMONIC 

RORS                 MNEMONIC 

RRX                  MNEMONIC 

RRXS                 MNEMONIC 

RSB                  MNEMONIC 

RSBAL                MNEMONIC 

RSBALS               MNEMONIC 

RSBCC                MNEMONIC 

RSBCCS               MNEMONIC 

RSBCS                MNEMONIC 

RSBCSS               MNEMONIC 

RSBEQ                MNEMONIC 

RSBEQS               MNEMONIC 

RSBGE                MNEMONIC 

RSBGES               MNEMONIC 

RSBGT                MNEMONIC 

RSBGTS               MNEMONIC 

RSBHI                MNEMONIC 

RSBHIS               MNEMONIC 

RSBHS                MNEMONIC 

RSBHSS               MNEMONIC 

RSBLE                MNEMONIC 

RSBLES               MNEMONIC 

RSBLO                MNEMONIC 

RSBLOS               MNEMONIC 

RSBLS                MNEMONIC 

RSBLSS               MNEMONIC 

RSBLT                MNEMONIC 

RSBLTS               MNEMONIC 

RSBMI                MNEMONIC 

RSBMIS               MNEMONIC 

RSBNE                MNEMONIC 

RSBNES               MNEMONIC 

RSBPL                MNEMONIC 

RSBPLS               MNEMONIC 

RSBS                 MNEMONIC 

RSBSAL               MNEMONIC 

RSBSCC               MNEMONIC 

RSBSCS               MNEMONIC 

RSBSEQ               MNEMONIC 

RSBSGE               MNEMONIC 

RSBSGT               MNEMONIC 

RSBSHI               MNEMONIC 

RSBSHS               MNEMONIC 

RSBSLE               MNEMONIC 

RSBSLO               MNEMONIC 

RSBSLS               MNEMONIC 

RSBSLT               MNEMONIC 

RSBSMI               MNEMONIC 

RSBSNE               MNEMONIC 

RSBSPL               MNEMONIC 

RSBSVC               MNEMONIC 

RSBSVS               MNEMONIC 

RSBVC                MNEMONIC 

RSBVCS               MNEMONIC 

RSBVS                MNEMONIC 

RSBVSS               MNEMONIC 

RSC                  MNEMONIC 

RSCAL                MNEMONIC 

RSCALS               MNEMONIC 

RSCCC                MNEMONIC 

RSCCCS               MNEMONIC 

RSCCS                MNEMONIC 

RSCCSS               MNEMONIC 

RSCEQ                MNEMONIC 

RSCEQS               MNEMONIC 

RSCGE                MNEMONIC 

RSCGES               MNEMONIC 

RSCGT                MNEMONIC 

RSCGTS               MNEMONIC 

RSCHI                MNEMONIC 

RSCHIS               MNEMONIC 

RSCHS                MNEMONIC 

RSCHSS               MNEMONIC 

RSCLE                MNEMONIC 

RSCLES               MNEMONIC 

RSCLO                MNEMONIC 

RSCLOS               MNEMONIC 

RSCLS                MNEMONIC 

RSCLSS               MNEMONIC 

RSCLT                MNEMONIC 

RSCLTS               MNEMONIC 

RSCMI                MNEMONIC 

RSCMIS               MNEMONIC 

RSCNE                MNEMONIC 

RSCNES               MNEMONIC 

RSCPL                MNEMONIC 

RSCPLS               MNEMONIC 

RSCS                 MNEMONIC 

RSCSAL               MNEMONIC 

RSCSCC               MNEMONIC 

RSCSCS               MNEMONIC 

RSCSEQ               MNEMONIC 

RSCSGE               MNEMONIC 

RSCSGT               MNEMONIC 

RSCSHI               MNEMONIC 

RSCSHS               MNEMONIC 

RSCSLE               MNEMONIC 

RSCSLO               MNEMONIC 

RSCSLS               MNEMONIC 

RSCSLT               MNEMONIC 

RSCSMI               MNEMONIC 

RSCSNE               MNEMONIC 

RSCSPL               MNEMONIC 

RSCSVC               MNEMONIC 

RSCSVS               MNEMONIC 

RSCVC                MNEMONIC 

RSCVCS               MNEMONIC 

RSCVS                MNEMONIC 

RSCVSS               MNEMONIC 

RSEG                 DIRECTIVE 

RTMODEL              DIRECTIVE 

SADD16               MNEMONIC 

SADD16AL             MNEMONIC 

SADD16CC             MNEMONIC 

SADD16CS             MNEMONIC 

SADD16EQ             MNEMONIC 

SADD16GE             MNEMONIC 

SADD16GT             MNEMONIC 

SADD16HI             MNEMONIC 

SADD16HS             MNEMONIC 

SADD16LE             MNEMONIC 

SADD16LO             MNEMONIC 

SADD16LS             MNEMONIC 

SADD16LT             MNEMONIC 

SADD16MI             MNEMONIC 

SADD16NE             MNEMONIC 

SADD16PL             MNEMONIC 

SADD16VC             MNEMONIC 

SADD16VS             MNEMONIC 

SADD8                MNEMONIC 

SADD8AL              MNEMONIC 

SADD8CC              MNEMONIC 

SADD8CS              MNEMONIC 

SADD8EQ              MNEMONIC 

SADD8GE              MNEMONIC 

SADD8GT              MNEMONIC 

SADD8HI              MNEMONIC 

SADD8HS              MNEMONIC 

SADD8LE              MNEMONIC 

SADD8LO              MNEMONIC 

SADD8LS              MNEMONIC 

SADD8LT              MNEMONIC 

SADD8MI              MNEMONIC 

SADD8NE              MNEMONIC 

SADD8PL              MNEMONIC 

SADD8VC              MNEMONIC 

SADD8VS              MNEMONIC 

SADDSUBX             MNEMONIC 

SADDSUBXAL           MNEMONIC 

SADDSUBXCC           MNEMONIC 

SADDSUBXCS           MNEMONIC 

SADDSUBXEQ           MNEMONIC 

SADDSUBXGE           MNEMONIC 

SADDSUBXGT           MNEMONIC 

SADDSUBXHI           MNEMONIC 

SADDSUBXHS           MNEMONIC 

SADDSUBXLE           MNEMONIC 

SADDSUBXLO           MNEMONIC 

SADDSUBXLS           MNEMONIC 

SADDSUBXLT           MNEMONIC 

SADDSUBXMI           MNEMONIC 

SADDSUBXNE           MNEMONIC 

SADDSUBXPL           MNEMONIC 

SADDSUBXVC           MNEMONIC 

SADDSUBXVS           MNEMONIC 

SAMPLERATE           #define, value: R1, line:      18:2       44:2     45:2     45:2     51:2
                                                                     57:2    111:2

SASX                 MNEMONIC 

SASXAL               MNEMONIC 

SASXCC               MNEMONIC 

SASXCS               MNEMONIC 

SASXEQ               MNEMONIC 

SASXGE               MNEMONIC 

SASXGT               MNEMONIC 

SASXHI               MNEMONIC 

SASXHS               MNEMONIC 

SASXLE               MNEMONIC 

SASXLO               MNEMONIC 

SASXLS               MNEMONIC 

SASXLT               MNEMONIC 

SASXMI               MNEMONIC 

SASXNE               MNEMONIC 

SASXPL               MNEMONIC 

SASXVC               MNEMONIC 

SASXVS               MNEMONIC 

SBC                  MNEMONIC 

SBCAL                MNEMONIC 

SBCALS               MNEMONIC 

SBCCC                MNEMONIC 

SBCCCS               MNEMONIC 

SBCCS                MNEMONIC 

SBCCSS               MNEMONIC 

SBCEQ                MNEMONIC 

SBCEQS               MNEMONIC 

SBCGE                MNEMONIC 

SBCGES               MNEMONIC 

SBCGT                MNEMONIC 

SBCGTS               MNEMONIC 

SBCHI                MNEMONIC 

SBCHIS               MNEMONIC 

SBCHS                MNEMONIC 

SBCHSS               MNEMONIC 

SBCLE                MNEMONIC 

SBCLES               MNEMONIC 

SBCLO                MNEMONIC 

SBCLOS               MNEMONIC 

SBCLS                MNEMONIC 

SBCLSS               MNEMONIC 

SBCLT                MNEMONIC 

SBCLTS               MNEMONIC 

SBCMI                MNEMONIC 

SBCMIS               MNEMONIC 

SBCNE                MNEMONIC 

SBCNES               MNEMONIC 

SBCPL                MNEMONIC 

SBCPLS               MNEMONIC 

SBCS                 MNEMONIC 

SBCSAL               MNEMONIC 

SBCSCC               MNEMONIC 

SBCSCS               MNEMONIC 

SBCSEQ               MNEMONIC 

SBCSGE               MNEMONIC 

SBCSGT               MNEMONIC 

SBCSHI               MNEMONIC 

SBCSHS               MNEMONIC 

SBCSLE               MNEMONIC 

SBCSLO               MNEMONIC 

SBCSLS               MNEMONIC 

SBCSLT               MNEMONIC 

SBCSMI               MNEMONIC 

SBCSNE               MNEMONIC 

SBCSPL               MNEMONIC 

SBCSVC               MNEMONIC 

SBCSVS               MNEMONIC 

SBCVC                MNEMONIC 

SBCVCS               MNEMONIC 

SBCVS                MNEMONIC 

SBCVSS               MNEMONIC 

SBFX                 MNEMONIC 

SDIV                 MNEMONIC 

SEL                  MNEMONIC 

SELAL                MNEMONIC 

SELCC                MNEMONIC 

SELCS                MNEMONIC 

SELEQ                MNEMONIC 

SELGE                MNEMONIC 

SELGT                MNEMONIC 

SELHI                MNEMONIC 

SELHS                MNEMONIC 

SELLE                MNEMONIC 

SELLO                MNEMONIC 

SELLS                MNEMONIC 

SELLT                MNEMONIC 

SELMI                MNEMONIC 

SELNE                MNEMONIC 

SELPL                MNEMONIC 

SELVC                MNEMONIC 

SELVS                MNEMONIC 

SET                  DIRECTIVE 

SETA                 DIRECTIVE 

SETEND               MNEMONIC 

SETENDAL             MNEMONIC 

SETENDCC             MNEMONIC 

SETENDCS             MNEMONIC 

SETENDEQ             MNEMONIC 

SETENDGE             MNEMONIC 

SETENDGT             MNEMONIC 

SETENDHI             MNEMONIC 

SETENDHS             MNEMONIC 

SETENDLE             MNEMONIC 

SETENDLO             MNEMONIC 

SETENDLS             MNEMONIC 

SETENDLT             MNEMONIC 

SETENDMI             MNEMONIC 

SETENDNE             MNEMONIC 

SETENDPL             MNEMONIC 

SETENDVC             MNEMONIC 

SETENDVS             MNEMONIC 

SEV                  MNEMONIC 

SFB                  OPERATOR 

SFE                  OPERATOR 

SHADD16              MNEMONIC 

SHADD16AL            MNEMONIC 

SHADD16CC            MNEMONIC 

SHADD16CS            MNEMONIC 

SHADD16EQ            MNEMONIC 

SHADD16GE            MNEMONIC 

SHADD16GT            MNEMONIC 

SHADD16HI            MNEMONIC 

SHADD16HS            MNEMONIC 

SHADD16LE            MNEMONIC 

SHADD16LO            MNEMONIC 

SHADD16LS            MNEMONIC 

SHADD16LT            MNEMONIC 

SHADD16MI            MNEMONIC 

SHADD16NE            MNEMONIC 

SHADD16PL            MNEMONIC 

SHADD16VC            MNEMONIC 

SHADD16VS            MNEMONIC 

SHADD8               MNEMONIC 

SHADD8AL             MNEMONIC 

SHADD8CC             MNEMONIC 

SHADD8CS             MNEMONIC 

SHADD8EQ             MNEMONIC 

SHADD8GE             MNEMONIC 

SHADD8GT             MNEMONIC 

SHADD8HI             MNEMONIC 

SHADD8HS             MNEMONIC 

SHADD8LE             MNEMONIC 

SHADD8LO             MNEMONIC 

SHADD8LS             MNEMONIC 

SHADD8LT             MNEMONIC 

SHADD8MI             MNEMONIC 

SHADD8NE             MNEMONIC 

SHADD8PL             MNEMONIC 

SHADD8VC             MNEMONIC 

SHADD8VS             MNEMONIC 

SHADDSUBX            MNEMONIC 

SHADDSUBXAL          MNEMONIC 

SHADDSUBXCC          MNEMONIC 

SHADDSUBXCS          MNEMONIC 

SHADDSUBXEQ          MNEMONIC 

SHADDSUBXGE          MNEMONIC 

SHADDSUBXGT          MNEMONIC 

SHADDSUBXHI          MNEMONIC 

SHADDSUBXHS          MNEMONIC 

SHADDSUBXLE          MNEMONIC 

SHADDSUBXLO          MNEMONIC 

SHADDSUBXLS          MNEMONIC 

SHADDSUBXLT          MNEMONIC 

SHADDSUBXMI          MNEMONIC 

SHADDSUBXNE          MNEMONIC 

SHADDSUBXPL          MNEMONIC 

SHADDSUBXVC          MNEMONIC 

SHADDSUBXVS          MNEMONIC 

SHASX                MNEMONIC 

SHASXAL              MNEMONIC 

SHASXCC              MNEMONIC 

SHASXCS              MNEMONIC 

SHASXEQ              MNEMONIC 

SHASXGE              MNEMONIC 

SHASXGT              MNEMONIC 

SHASXHI              MNEMONIC 

SHASXHS              MNEMONIC 

SHASXLE              MNEMONIC 

SHASXLO              MNEMONIC 

SHASXLS              MNEMONIC 

SHASXLT              MNEMONIC 

SHASXMI              MNEMONIC 

SHASXNE              MNEMONIC 

SHASXPL              MNEMONIC 

SHASXVC              MNEMONIC 

SHASXVS              MNEMONIC 

SHSAX                MNEMONIC 

SHSAXAL              MNEMONIC 

SHSAXCC              MNEMONIC 

SHSAXCS              MNEMONIC 

SHSAXEQ              MNEMONIC 

SHSAXGE              MNEMONIC 

SHSAXGT              MNEMONIC 

SHSAXHI              MNEMONIC 

SHSAXHS              MNEMONIC 

SHSAXLE              MNEMONIC 

SHSAXLO              MNEMONIC 

SHSAXLS              MNEMONIC 

SHSAXLT              MNEMONIC 

SHSAXMI              MNEMONIC 

SHSAXNE              MNEMONIC 

SHSAXPL              MNEMONIC 

SHSAXVC              MNEMONIC 

SHSAXVS              MNEMONIC 

SHSUB16              MNEMONIC 

SHSUB16AL            MNEMONIC 

SHSUB16CC            MNEMONIC 

SHSUB16CS            MNEMONIC 

SHSUB16EQ            MNEMONIC 

SHSUB16GE            MNEMONIC 

SHSUB16GT            MNEMONIC 

SHSUB16HI            MNEMONIC 

SHSUB16HS            MNEMONIC 

SHSUB16LE            MNEMONIC 

SHSUB16LO            MNEMONIC 

SHSUB16LS            MNEMONIC 

SHSUB16LT            MNEMONIC 

SHSUB16MI            MNEMONIC 

SHSUB16NE            MNEMONIC 

SHSUB16PL            MNEMONIC 

SHSUB16VC            MNEMONIC 

SHSUB16VS            MNEMONIC 

SHSUB8               MNEMONIC 

SHSUB8AL             MNEMONIC 

SHSUB8CC             MNEMONIC 

SHSUB8CS             MNEMONIC 

SHSUB8EQ             MNEMONIC 

SHSUB8GE             MNEMONIC 

SHSUB8GT             MNEMONIC 

SHSUB8HI             MNEMONIC 

SHSUB8HS             MNEMONIC 

SHSUB8LE             MNEMONIC 

SHSUB8LO             MNEMONIC 

SHSUB8LS             MNEMONIC 

SHSUB8LT             MNEMONIC 

SHSUB8MI             MNEMONIC 

SHSUB8NE             MNEMONIC 

SHSUB8PL             MNEMONIC 

SHSUB8VC             MNEMONIC 

SHSUB8VS             MNEMONIC 

SHSUBADDX            MNEMONIC 

SHSUBADDXAL          MNEMONIC 

SHSUBADDXCC          MNEMONIC 

SHSUBADDXCS          MNEMONIC 

SHSUBADDXEQ          MNEMONIC 

SHSUBADDXGE          MNEMONIC 

SHSUBADDXGT          MNEMONIC 

SHSUBADDXHI          MNEMONIC 

SHSUBADDXHS          MNEMONIC 

SHSUBADDXLE          MNEMONIC 

SHSUBADDXLO          MNEMONIC 

SHSUBADDXLS          MNEMONIC 

SHSUBADDXLT          MNEMONIC 

SHSUBADDXMI          MNEMONIC 

SHSUBADDXNE          MNEMONIC 

SHSUBADDXPL          MNEMONIC 

SHSUBADDXVC          MNEMONIC 

SHSUBADDXVS          MNEMONIC 

SIZEOF               OPERATOR 

SMC                  MNEMONIC 

SMI                  MNEMONIC 

SMLABB               MNEMONIC 

SMLABBAL             MNEMONIC 

SMLABBCC             MNEMONIC 

SMLABBCS             MNEMONIC 

SMLABBEQ             MNEMONIC 

SMLABBGE             MNEMONIC 

SMLABBGT             MNEMONIC 

SMLABBHI             MNEMONIC 

SMLABBHS             MNEMONIC 

SMLABBLE             MNEMONIC 

SMLABBLO             MNEMONIC 

SMLABBLS             MNEMONIC 

SMLABBLT             MNEMONIC 

SMLABBMI             MNEMONIC 

SMLABBNE             MNEMONIC 

SMLABBPL             MNEMONIC 

SMLABBVC             MNEMONIC 

SMLABBVS             MNEMONIC 

SMLABT               MNEMONIC 

SMLABTAL             MNEMONIC 

SMLABTCC             MNEMONIC 

SMLABTCS             MNEMONIC 

SMLABTEQ             MNEMONIC 

SMLABTGE             MNEMONIC 

SMLABTGT             MNEMONIC 

SMLABTHI             MNEMONIC 

SMLABTHS             MNEMONIC 

SMLABTLE             MNEMONIC 

SMLABTLO             MNEMONIC 

SMLABTLS             MNEMONIC 

SMLABTLT             MNEMONIC 

SMLABTMI             MNEMONIC 

SMLABTNE             MNEMONIC 

SMLABTPL             MNEMONIC 

SMLABTVC             MNEMONIC 

SMLABTVS             MNEMONIC 

SMLAD                MNEMONIC 

SMLADAL              MNEMONIC 

SMLADCC              MNEMONIC 

SMLADCS              MNEMONIC 

SMLADEQ              MNEMONIC 

SMLADGE              MNEMONIC 

SMLADGT              MNEMONIC 

SMLADHI              MNEMONIC 

SMLADHS              MNEMONIC 

SMLADLE              MNEMONIC 

SMLADLO              MNEMONIC 

SMLADLS              MNEMONIC 

SMLADLT              MNEMONIC 

SMLADMI              MNEMONIC 

SMLADNE              MNEMONIC 

SMLADPL              MNEMONIC 

SMLADVC              MNEMONIC 

SMLADVS              MNEMONIC 

SMLADX               MNEMONIC 

SMLADXAL             MNEMONIC 

SMLADXCC             MNEMONIC 

SMLADXCS             MNEMONIC 

SMLADXEQ             MNEMONIC 

SMLADXGE             MNEMONIC 

SMLADXGT             MNEMONIC 

SMLADXHI             MNEMONIC 

SMLADXHS             MNEMONIC 

SMLADXLE             MNEMONIC 

SMLADXLO             MNEMONIC 

SMLADXLS             MNEMONIC 

SMLADXLT             MNEMONIC 

SMLADXMI             MNEMONIC 

SMLADXNE             MNEMONIC 

SMLADXPL             MNEMONIC 

SMLADXVC             MNEMONIC 

SMLADXVS             MNEMONIC 

SMLAL                MNEMONIC 

SMLALAL              MNEMONIC 

SMLALALS             MNEMONIC 

SMLALBB              MNEMONIC 

SMLALBBAL            MNEMONIC 

SMLALBBCC            MNEMONIC 

SMLALBBCS            MNEMONIC 

SMLALBBEQ            MNEMONIC 

SMLALBBGE            MNEMONIC 

SMLALBBGT            MNEMONIC 

SMLALBBHI            MNEMONIC 

SMLALBBHS            MNEMONIC 

SMLALBBLE            MNEMONIC 

SMLALBBLO            MNEMONIC 

SMLALBBLS            MNEMONIC 

SMLALBBLT            MNEMONIC 

SMLALBBMI            MNEMONIC 

SMLALBBNE            MNEMONIC 

SMLALBBPL            MNEMONIC 

SMLALBBVC            MNEMONIC 

SMLALBBVS            MNEMONIC 

SMLALBT              MNEMONIC 

SMLALBTAL            MNEMONIC 

SMLALBTCC            MNEMONIC 

SMLALBTCS            MNEMONIC 

SMLALBTEQ            MNEMONIC 

SMLALBTGE            MNEMONIC 

SMLALBTGT            MNEMONIC 

SMLALBTHI            MNEMONIC 

SMLALBTHS            MNEMONIC 

SMLALBTLE            MNEMONIC 

SMLALBTLO            MNEMONIC 

SMLALBTLS            MNEMONIC 

SMLALBTLT            MNEMONIC 

SMLALBTMI            MNEMONIC 

SMLALBTNE            MNEMONIC 

SMLALBTPL            MNEMONIC 

SMLALBTVC            MNEMONIC 

SMLALBTVS            MNEMONIC 

SMLALCC              MNEMONIC 

SMLALCCS             MNEMONIC 

SMLALCS              MNEMONIC 

SMLALCSS             MNEMONIC 

SMLALD               MNEMONIC 

SMLALDAL             MNEMONIC 

SMLALDCC             MNEMONIC 

SMLALDCS             MNEMONIC 

SMLALDEQ             MNEMONIC 

SMLALDGE             MNEMONIC 

SMLALDGT             MNEMONIC 

SMLALDHI             MNEMONIC 

SMLALDHS             MNEMONIC 

SMLALDLE             MNEMONIC 

SMLALDLO             MNEMONIC 

SMLALDLS             MNEMONIC 

SMLALDLT             MNEMONIC 

SMLALDMI             MNEMONIC 

SMLALDNE             MNEMONIC 

SMLALDPL             MNEMONIC 

SMLALDVC             MNEMONIC 

SMLALDVS             MNEMONIC 

SMLALDX              MNEMONIC 

SMLALDXAL            MNEMONIC 

SMLALDXCC            MNEMONIC 

SMLALDXCS            MNEMONIC 

SMLALDXEQ            MNEMONIC 

SMLALDXGE            MNEMONIC 

SMLALDXGT            MNEMONIC 

SMLALDXHI            MNEMONIC 

SMLALDXHS            MNEMONIC 

SMLALDXLE            MNEMONIC 

SMLALDXLO            MNEMONIC 

SMLALDXLS            MNEMONIC 

SMLALDXLT            MNEMONIC 

SMLALDXMI            MNEMONIC 

SMLALDXNE            MNEMONIC 

SMLALDXPL            MNEMONIC 

SMLALDXVC            MNEMONIC 

SMLALDXVS            MNEMONIC 

SMLALEQ              MNEMONIC 

SMLALEQS             MNEMONIC 

SMLALGE              MNEMONIC 

SMLALGES             MNEMONIC 

SMLALGT              MNEMONIC 

SMLALGTS             MNEMONIC 

SMLALHI              MNEMONIC 

SMLALHIS             MNEMONIC 

SMLALHS              MNEMONIC 

SMLALHSS             MNEMONIC 

SMLALLE              MNEMONIC 

SMLALLES             MNEMONIC 

SMLALLO              MNEMONIC 

SMLALLOS             MNEMONIC 

SMLALLS              MNEMONIC 

SMLALLSS             MNEMONIC 

SMLALLT              MNEMONIC 

SMLALLTS             MNEMONIC 

SMLALMI              MNEMONIC 

SMLALMIS             MNEMONIC 

SMLALNE              MNEMONIC 

SMLALNES             MNEMONIC 

SMLALPL              MNEMONIC 

SMLALPLS             MNEMONIC 

SMLALS               MNEMONIC 

SMLALTB              MNEMONIC 

SMLALTBAL            MNEMONIC 

SMLALTBCC            MNEMONIC 

SMLALTBCS            MNEMONIC 

SMLALTBEQ            MNEMONIC 

SMLALTBGE            MNEMONIC 

SMLALTBGT            MNEMONIC 

SMLALTBHI            MNEMONIC 

SMLALTBHS            MNEMONIC 

SMLALTBLE            MNEMONIC 

SMLALTBLO            MNEMONIC 

SMLALTBLS            MNEMONIC 

SMLALTBLT            MNEMONIC 

SMLALTBMI            MNEMONIC 

SMLALTBNE            MNEMONIC 

SMLALTBPL            MNEMONIC 

SMLALTBVC            MNEMONIC 

SMLALTBVS            MNEMONIC 

SMLALTT              MNEMONIC 

SMLALTTAL            MNEMONIC 

SMLALTTCC            MNEMONIC 

SMLALTTCS            MNEMONIC 

SMLALTTEQ            MNEMONIC 

SMLALTTGE            MNEMONIC 

SMLALTTGT            MNEMONIC 

SMLALTTHI            MNEMONIC 

SMLALTTHS            MNEMONIC 

SMLALTTLE            MNEMONIC 

SMLALTTLO            MNEMONIC 

SMLALTTLS            MNEMONIC 

SMLALTTLT            MNEMONIC 

SMLALTTMI            MNEMONIC 

SMLALTTNE            MNEMONIC 

SMLALTTPL            MNEMONIC 

SMLALTTVC            MNEMONIC 

SMLALTTVS            MNEMONIC 

SMLALVC              MNEMONIC 

SMLALVCS             MNEMONIC 

SMLALVS              MNEMONIC 

SMLALVSS             MNEMONIC 

SMLATB               MNEMONIC 

SMLATBAL             MNEMONIC 

SMLATBCC             MNEMONIC 

SMLATBCS             MNEMONIC 

SMLATBEQ             MNEMONIC 

SMLATBGE             MNEMONIC 

SMLATBGT             MNEMONIC 

SMLATBHI             MNEMONIC 

SMLATBHS             MNEMONIC 

SMLATBLE             MNEMONIC 

SMLATBLO             MNEMONIC 

SMLATBLS             MNEMONIC 

SMLATBLT             MNEMONIC 

SMLATBMI             MNEMONIC 

SMLATBNE             MNEMONIC 

SMLATBPL             MNEMONIC 

SMLATBVC             MNEMONIC 

SMLATBVS             MNEMONIC 

SMLATT               MNEMONIC 

SMLATTAL             MNEMONIC 

SMLATTCC             MNEMONIC 

SMLATTCS             MNEMONIC 

SMLATTEQ             MNEMONIC 

SMLATTGE             MNEMONIC 

SMLATTGT             MNEMONIC 

SMLATTHI             MNEMONIC 

SMLATTHS             MNEMONIC 

SMLATTLE             MNEMONIC 

SMLATTLO             MNEMONIC 

SMLATTLS             MNEMONIC 

SMLATTLT             MNEMONIC 

SMLATTMI             MNEMONIC 

SMLATTNE             MNEMONIC 

SMLATTPL             MNEMONIC 

SMLATTVC             MNEMONIC 

SMLATTVS             MNEMONIC 

SMLAWB               MNEMONIC 

SMLAWBAL             MNEMONIC 

SMLAWBCC             MNEMONIC 

SMLAWBCS             MNEMONIC 

SMLAWBEQ             MNEMONIC 

SMLAWBGE             MNEMONIC 

SMLAWBGT             MNEMONIC 

SMLAWBHI             MNEMONIC 

SMLAWBHS             MNEMONIC 

SMLAWBLE             MNEMONIC 

SMLAWBLO             MNEMONIC 

SMLAWBLS             MNEMONIC 

SMLAWBLT             MNEMONIC 

SMLAWBMI             MNEMONIC 

SMLAWBNE             MNEMONIC 

SMLAWBPL             MNEMONIC 

SMLAWBVC             MNEMONIC 

SMLAWBVS             MNEMONIC 

SMLAWT               MNEMONIC 

SMLAWTAL             MNEMONIC 

SMLAWTCC             MNEMONIC 

SMLAWTCS             MNEMONIC 

SMLAWTEQ             MNEMONIC 

SMLAWTGE             MNEMONIC 

SMLAWTGT             MNEMONIC 

SMLAWTHI             MNEMONIC 

SMLAWTHS             MNEMONIC 

SMLAWTLE             MNEMONIC 

SMLAWTLO             MNEMONIC 

SMLAWTLS             MNEMONIC 

SMLAWTLT             MNEMONIC 

SMLAWTMI             MNEMONIC 

SMLAWTNE             MNEMONIC 

SMLAWTPL             MNEMONIC 

SMLAWTVC             MNEMONIC 

SMLAWTVS             MNEMONIC 

SMLSD                MNEMONIC 

SMLSDAL              MNEMONIC 

SMLSDCC              MNEMONIC 

SMLSDCS              MNEMONIC 

SMLSDEQ              MNEMONIC 

SMLSDGE              MNEMONIC 

SMLSDGT              MNEMONIC 

SMLSDHI              MNEMONIC 

SMLSDHS              MNEMONIC 

SMLSDLE              MNEMONIC 

SMLSDLO              MNEMONIC 

SMLSDLS              MNEMONIC 

SMLSDLT              MNEMONIC 

SMLSDMI              MNEMONIC 

SMLSDNE              MNEMONIC 

SMLSDPL              MNEMONIC 

SMLSDVC              MNEMONIC 

SMLSDVS              MNEMONIC 

SMLSDX               MNEMONIC 

SMLSDXAL             MNEMONIC 

SMLSDXCC             MNEMONIC 

SMLSDXCS             MNEMONIC 

SMLSDXEQ             MNEMONIC 

SMLSDXGE             MNEMONIC 

SMLSDXGT             MNEMONIC 

SMLSDXHI             MNEMONIC 

SMLSDXHS             MNEMONIC 

SMLSDXLE             MNEMONIC 

SMLSDXLO             MNEMONIC 

SMLSDXLS             MNEMONIC 

SMLSDXLT             MNEMONIC 

SMLSDXMI             MNEMONIC 

SMLSDXNE             MNEMONIC 

SMLSDXPL             MNEMONIC 

SMLSDXVC             MNEMONIC 

SMLSDXVS             MNEMONIC 

SMLSLD               MNEMONIC 

SMLSLDAL             MNEMONIC 

SMLSLDCC             MNEMONIC 

SMLSLDCS             MNEMONIC 

SMLSLDEQ             MNEMONIC 

SMLSLDGE             MNEMONIC 

SMLSLDGT             MNEMONIC 

SMLSLDHI             MNEMONIC 

SMLSLDHS             MNEMONIC 

SMLSLDLE             MNEMONIC 

SMLSLDLO             MNEMONIC 

SMLSLDLS             MNEMONIC 

SMLSLDLT             MNEMONIC 

SMLSLDMI             MNEMONIC 

SMLSLDNE             MNEMONIC 

SMLSLDPL             MNEMONIC 

SMLSLDVC             MNEMONIC 

SMLSLDVS             MNEMONIC 

SMLSLDX              MNEMONIC 

SMLSLDXAL            MNEMONIC 

SMLSLDXCC            MNEMONIC 

SMLSLDXCS            MNEMONIC 

SMLSLDXEQ            MNEMONIC 

SMLSLDXGE            MNEMONIC 

SMLSLDXGT            MNEMONIC 

SMLSLDXHI            MNEMONIC 

SMLSLDXHS            MNEMONIC 

SMLSLDXLE            MNEMONIC 

SMLSLDXLO            MNEMONIC 

SMLSLDXLS            MNEMONIC 

SMLSLDXLT            MNEMONIC 

SMLSLDXMI            MNEMONIC 

SMLSLDXNE            MNEMONIC 

SMLSLDXPL            MNEMONIC 

SMLSLDXVC            MNEMONIC 

SMLSLDXVS            MNEMONIC 

SMMLA                MNEMONIC 

SMMLAAL              MNEMONIC 

SMMLACC              MNEMONIC 

SMMLACS              MNEMONIC 

SMMLAEQ              MNEMONIC 

SMMLAGE              MNEMONIC 

SMMLAGT              MNEMONIC 

SMMLAHI              MNEMONIC 

SMMLAHS              MNEMONIC 

SMMLALE              MNEMONIC 

SMMLALO              MNEMONIC 

SMMLALS              MNEMONIC 

SMMLALT              MNEMONIC 

SMMLAMI              MNEMONIC 

SMMLANE              MNEMONIC 

SMMLAPL              MNEMONIC 

SMMLAR               MNEMONIC 

SMMLARAL             MNEMONIC 

SMMLARCC             MNEMONIC 

SMMLARCS             MNEMONIC 

SMMLAREQ             MNEMONIC 

SMMLARGE             MNEMONIC 

SMMLARGT             MNEMONIC 

SMMLARHI             MNEMONIC 

SMMLARHS             MNEMONIC 

SMMLARLE             MNEMONIC 

SMMLARLO             MNEMONIC 

SMMLARLS             MNEMONIC 

SMMLARLT             MNEMONIC 

SMMLARMI             MNEMONIC 

SMMLARNE             MNEMONIC 

SMMLARPL             MNEMONIC 

SMMLARVC             MNEMONIC 

SMMLARVS             MNEMONIC 

SMMLAVC              MNEMONIC 

SMMLAVS              MNEMONIC 

SMMLS                MNEMONIC 

SMMLSAL              MNEMONIC 

SMMLSCC              MNEMONIC 

SMMLSCS              MNEMONIC 

SMMLSEQ              MNEMONIC 

SMMLSGE              MNEMONIC 

SMMLSGT              MNEMONIC 

SMMLSHI              MNEMONIC 

SMMLSHS              MNEMONIC 

SMMLSLE              MNEMONIC 

SMMLSLO              MNEMONIC 

SMMLSLS              MNEMONIC 

SMMLSLT              MNEMONIC 

SMMLSMI              MNEMONIC 

SMMLSNE              MNEMONIC 

SMMLSPL              MNEMONIC 

SMMLSR               MNEMONIC 

SMMLSRAL             MNEMONIC 

SMMLSRCC             MNEMONIC 

SMMLSRCS             MNEMONIC 

SMMLSREQ             MNEMONIC 

SMMLSRGE             MNEMONIC 

SMMLSRGT             MNEMONIC 

SMMLSRHI             MNEMONIC 

SMMLSRHS             MNEMONIC 

SMMLSRLE             MNEMONIC 

SMMLSRLO             MNEMONIC 

SMMLSRLS             MNEMONIC 

SMMLSRLT             MNEMONIC 

SMMLSRMI             MNEMONIC 

SMMLSRNE             MNEMONIC 

SMMLSRPL             MNEMONIC 

SMMLSRVC             MNEMONIC 

SMMLSRVS             MNEMONIC 

SMMLSVC              MNEMONIC 

SMMLSVS              MNEMONIC 

SMMUL                MNEMONIC 

SMMULAL              MNEMONIC 

SMMULCC              MNEMONIC 

SMMULCS              MNEMONIC 

SMMULEQ              MNEMONIC 

SMMULGE              MNEMONIC 

SMMULGT              MNEMONIC 

SMMULHI              MNEMONIC 

SMMULHS              MNEMONIC 

SMMULLE              MNEMONIC 

SMMULLO              MNEMONIC 

SMMULLS              MNEMONIC 

SMMULLT              MNEMONIC 

SMMULMI              MNEMONIC 

SMMULNE              MNEMONIC 

SMMULPL              MNEMONIC 

SMMULR               MNEMONIC 

SMMULRAL             MNEMONIC 

SMMULRCC             MNEMONIC 

SMMULRCS             MNEMONIC 

SMMULREQ             MNEMONIC 

SMMULRGE             MNEMONIC 

SMMULRGT             MNEMONIC 

SMMULRHI             MNEMONIC 

SMMULRHS             MNEMONIC 

SMMULRLE             MNEMONIC 

SMMULRLO             MNEMONIC 

SMMULRLS             MNEMONIC 

SMMULRLT             MNEMONIC 

SMMULRMI             MNEMONIC 

SMMULRNE             MNEMONIC 

SMMULRPL             MNEMONIC 

SMMULRVC             MNEMONIC 

SMMULRVS             MNEMONIC 

SMMULVC              MNEMONIC 

SMMULVS              MNEMONIC 

SMUAD                MNEMONIC 

SMUADAL              MNEMONIC 

SMUADCC              MNEMONIC 

SMUADCS              MNEMONIC 

SMUADEQ              MNEMONIC 

SMUADGE              MNEMONIC 

SMUADGT              MNEMONIC 

SMUADHI              MNEMONIC 

SMUADHS              MNEMONIC 

SMUADLE              MNEMONIC 

SMUADLO              MNEMONIC 

SMUADLS              MNEMONIC 

SMUADLT              MNEMONIC 

SMUADMI              MNEMONIC 

SMUADNE              MNEMONIC 

SMUADPL              MNEMONIC 

SMUADVC              MNEMONIC 

SMUADVS              MNEMONIC 

SMUADX               MNEMONIC 

SMUADXAL             MNEMONIC 

SMUADXCC             MNEMONIC 

SMUADXCS             MNEMONIC 

SMUADXEQ             MNEMONIC 

SMUADXGE             MNEMONIC 

SMUADXGT             MNEMONIC 

SMUADXHI             MNEMONIC 

SMUADXHS             MNEMONIC 

SMUADXLE             MNEMONIC 

SMUADXLO             MNEMONIC 

SMUADXLS             MNEMONIC 

SMUADXLT             MNEMONIC 

SMUADXMI             MNEMONIC 

SMUADXNE             MNEMONIC 

SMUADXPL             MNEMONIC 

SMUADXVC             MNEMONIC 

SMUADXVS             MNEMONIC 

SMULBB               MNEMONIC 

SMULBBAL             MNEMONIC 

SMULBBCC             MNEMONIC 

SMULBBCS             MNEMONIC 

SMULBBEQ             MNEMONIC 

SMULBBGE             MNEMONIC 

SMULBBGT             MNEMONIC 

SMULBBHI             MNEMONIC 

SMULBBHS             MNEMONIC 

SMULBBLE             MNEMONIC 

SMULBBLO             MNEMONIC 

SMULBBLS             MNEMONIC 

SMULBBLT             MNEMONIC 

SMULBBMI             MNEMONIC 

SMULBBNE             MNEMONIC 

SMULBBPL             MNEMONIC 

SMULBBVC             MNEMONIC 

SMULBBVS             MNEMONIC 

SMULBT               MNEMONIC 

SMULBTAL             MNEMONIC 

SMULBTCC             MNEMONIC 

SMULBTCS             MNEMONIC 

SMULBTEQ             MNEMONIC 

SMULBTGE             MNEMONIC 

SMULBTGT             MNEMONIC 

SMULBTHI             MNEMONIC 

SMULBTHS             MNEMONIC 

SMULBTLE             MNEMONIC 

SMULBTLO             MNEMONIC 

SMULBTLS             MNEMONIC 

SMULBTLT             MNEMONIC 

SMULBTMI             MNEMONIC 

SMULBTNE             MNEMONIC 

SMULBTPL             MNEMONIC 

SMULBTVC             MNEMONIC 

SMULBTVS             MNEMONIC 

SMULL                MNEMONIC 

SMULLAL              MNEMONIC 

SMULLALS             MNEMONIC 

SMULLCC              MNEMONIC 

SMULLCCS             MNEMONIC 

SMULLCS              MNEMONIC 

SMULLCSS             MNEMONIC 

SMULLEQ              MNEMONIC 

SMULLEQS             MNEMONIC 

SMULLGE              MNEMONIC 

SMULLGES             MNEMONIC 

SMULLGT              MNEMONIC 

SMULLGTS             MNEMONIC 

SMULLHI              MNEMONIC 

SMULLHIS             MNEMONIC 

SMULLHS              MNEMONIC 

SMULLHSS             MNEMONIC 

SMULLLE              MNEMONIC 

SMULLLES             MNEMONIC 

SMULLLO              MNEMONIC 

SMULLLOS             MNEMONIC 

SMULLLS              MNEMONIC 

SMULLLSS             MNEMONIC 

SMULLLT              MNEMONIC 

SMULLLTS             MNEMONIC 

SMULLMI              MNEMONIC 

SMULLMIS             MNEMONIC 

SMULLNE              MNEMONIC 

SMULLNES             MNEMONIC 

SMULLPL              MNEMONIC 

SMULLPLS             MNEMONIC 

SMULLS               MNEMONIC 

SMULLVC              MNEMONIC 

SMULLVCS             MNEMONIC 

SMULLVS              MNEMONIC 

SMULLVSS             MNEMONIC 

SMULTB               MNEMONIC 

SMULTBAL             MNEMONIC 

SMULTBCC             MNEMONIC 

SMULTBCS             MNEMONIC 

SMULTBEQ             MNEMONIC 

SMULTBGE             MNEMONIC 

SMULTBGT             MNEMONIC 

SMULTBHI             MNEMONIC 

SMULTBHS             MNEMONIC 

SMULTBLE             MNEMONIC 

SMULTBLO             MNEMONIC 

SMULTBLS             MNEMONIC 

SMULTBLT             MNEMONIC 

SMULTBMI             MNEMONIC 

SMULTBNE             MNEMONIC 

SMULTBPL             MNEMONIC 

SMULTBVC             MNEMONIC 

SMULTBVS             MNEMONIC 

SMULTT               MNEMONIC 

SMULTTAL             MNEMONIC 

SMULTTCC             MNEMONIC 

SMULTTCS             MNEMONIC 

SMULTTEQ             MNEMONIC 

SMULTTGE             MNEMONIC 

SMULTTGT             MNEMONIC 

SMULTTHI             MNEMONIC 

SMULTTHS             MNEMONIC 

SMULTTLE             MNEMONIC 

SMULTTLO             MNEMONIC 

SMULTTLS             MNEMONIC 

SMULTTLT             MNEMONIC 

SMULTTMI             MNEMONIC 

SMULTTNE             MNEMONIC 

SMULTTPL             MNEMONIC 

SMULTTVC             MNEMONIC 

SMULTTVS             MNEMONIC 

SMULWB               MNEMONIC 

SMULWBAL             MNEMONIC 

SMULWBCC             MNEMONIC 

SMULWBCS             MNEMONIC 

SMULWBEQ             MNEMONIC 

SMULWBGE             MNEMONIC 

SMULWBGT             MNEMONIC 

SMULWBHI             MNEMONIC 

SMULWBHS             MNEMONIC 

SMULWBLE             MNEMONIC 

SMULWBLO             MNEMONIC 

SMULWBLS             MNEMONIC 

SMULWBLT             MNEMONIC 

SMULWBMI             MNEMONIC 

SMULWBNE             MNEMONIC 

SMULWBPL             MNEMONIC 

SMULWBVC             MNEMONIC 

SMULWBVS             MNEMONIC 

SMULWT               MNEMONIC 

SMULWTAL             MNEMONIC 

SMULWTCC             MNEMONIC 

SMULWTCS             MNEMONIC 

SMULWTEQ             MNEMONIC 

SMULWTGE             MNEMONIC 

SMULWTGT             MNEMONIC 

SMULWTHI             MNEMONIC 

SMULWTHS             MNEMONIC 

SMULWTLE             MNEMONIC 

SMULWTLO             MNEMONIC 

SMULWTLS             MNEMONIC 

SMULWTLT             MNEMONIC 

SMULWTMI             MNEMONIC 

SMULWTNE             MNEMONIC 

SMULWTPL             MNEMONIC 

SMULWTVC             MNEMONIC 

SMULWTVS             MNEMONIC 

SMUSD                MNEMONIC 

SMUSDAL              MNEMONIC 

SMUSDCC              MNEMONIC 

SMUSDCS              MNEMONIC 

SMUSDEQ              MNEMONIC 

SMUSDGE              MNEMONIC 

SMUSDGT              MNEMONIC 

SMUSDHI              MNEMONIC 

SMUSDHS              MNEMONIC 

SMUSDLE              MNEMONIC 

SMUSDLO              MNEMONIC 

SMUSDLS              MNEMONIC 

SMUSDLT              MNEMONIC 

SMUSDMI              MNEMONIC 

SMUSDNE              MNEMONIC 

SMUSDPL              MNEMONIC 

SMUSDVC              MNEMONIC 

SMUSDVS              MNEMONIC 

SMUSDX               MNEMONIC 

SMUSDXAL             MNEMONIC 

SMUSDXCC             MNEMONIC 

SMUSDXCS             MNEMONIC 

SMUSDXEQ             MNEMONIC 

SMUSDXGE             MNEMONIC 

SMUSDXGT             MNEMONIC 

SMUSDXHI             MNEMONIC 

SMUSDXHS             MNEMONIC 

SMUSDXLE             MNEMONIC 

SMUSDXLO             MNEMONIC 

SMUSDXLS             MNEMONIC 

SMUSDXLT             MNEMONIC 

SMUSDXMI             MNEMONIC 

SMUSDXNE             MNEMONIC 

SMUSDXPL             MNEMONIC 

SMUSDXVC             MNEMONIC 

SMUSDXVS             MNEMONIC 

SORT                 SEGMENT TYPE 

SP                   REGISTER 

SRS                  MNEMONIC 

SRSDA                MNEMONIC 

SRSDB                MNEMONIC 

SRSEA                MNEMONIC 

SRSED                MNEMONIC 

SRSFA                MNEMONIC 

SRSFD                MNEMONIC 

SRSIA                MNEMONIC 

SRSIB                MNEMONIC 

SSAT                 MNEMONIC 

SSAT16               MNEMONIC 

SSAT16AL             MNEMONIC 

SSAT16CC             MNEMONIC 

SSAT16CS             MNEMONIC 

SSAT16EQ             MNEMONIC 

SSAT16GE             MNEMONIC 

SSAT16GT             MNEMONIC 

SSAT16HI             MNEMONIC 

SSAT16HS             MNEMONIC 

SSAT16LE             MNEMONIC 

SSAT16LO             MNEMONIC 

SSAT16LS             MNEMONIC 

SSAT16LT             MNEMONIC 

SSAT16MI             MNEMONIC 

SSAT16NE             MNEMONIC 

SSAT16PL             MNEMONIC 

SSAT16VC             MNEMONIC 

SSAT16VS             MNEMONIC 

SSATAL               MNEMONIC 

SSATCC               MNEMONIC 

SSATCS               MNEMONIC 

SSATEQ               MNEMONIC 

SSATGE               MNEMONIC 

SSATGT               MNEMONIC 

SSATHI               MNEMONIC 

SSATHS               MNEMONIC 

SSATLE               MNEMONIC 

SSATLO               MNEMONIC 

SSATLS               MNEMONIC 

SSATLT               MNEMONIC 

SSATMI               MNEMONIC 

SSATNE               MNEMONIC 

SSATPL               MNEMONIC 

SSATVC               MNEMONIC 

SSATVS               MNEMONIC 

SSAX                 MNEMONIC 

SSAXAL               MNEMONIC 

SSAXCC               MNEMONIC 

SSAXCS               MNEMONIC 

SSAXEQ               MNEMONIC 

SSAXGE               MNEMONIC 

SSAXGT               MNEMONIC 

SSAXHI               MNEMONIC 

SSAXHS               MNEMONIC 

SSAXLE               MNEMONIC 

SSAXLO               MNEMONIC 

SSAXLS               MNEMONIC 

SSAXLT               MNEMONIC 

SSAXMI               MNEMONIC 

SSAXNE               MNEMONIC 

SSAXPL               MNEMONIC 

SSAXVC               MNEMONIC 

SSAXVS               MNEMONIC 

SSUB16               MNEMONIC 

SSUB16AL             MNEMONIC 

SSUB16CC             MNEMONIC 

SSUB16CS             MNEMONIC 

SSUB16EQ             MNEMONIC 

SSUB16GE             MNEMONIC 

SSUB16GT             MNEMONIC 

SSUB16HI             MNEMONIC 

SSUB16HS             MNEMONIC 

SSUB16LE             MNEMONIC 

SSUB16LO             MNEMONIC 

SSUB16LS             MNEMONIC 

SSUB16LT             MNEMONIC 

SSUB16MI             MNEMONIC 

SSUB16NE             MNEMONIC 

SSUB16PL             MNEMONIC 

SSUB16VC             MNEMONIC 

SSUB16VS             MNEMONIC 

SSUB8                MNEMONIC 

SSUB8AL              MNEMONIC 

SSUB8CC              MNEMONIC 

SSUB8CS              MNEMONIC 

SSUB8EQ              MNEMONIC 

SSUB8GE              MNEMONIC 

SSUB8GT              MNEMONIC 

SSUB8HI              MNEMONIC 

SSUB8HS              MNEMONIC 

SSUB8LE              MNEMONIC 

SSUB8LO              MNEMONIC 

SSUB8LS              MNEMONIC 

SSUB8LT              MNEMONIC 

SSUB8MI              MNEMONIC 

SSUB8NE              MNEMONIC 

SSUB8PL              MNEMONIC 

SSUB8VC              MNEMONIC 

SSUB8VS              MNEMONIC 

SSUBADDX             MNEMONIC 

SSUBADDXAL           MNEMONIC 

SSUBADDXCC           MNEMONIC 

SSUBADDXCS           MNEMONIC 

SSUBADDXEQ           MNEMONIC 

SSUBADDXGE           MNEMONIC 

SSUBADDXGT           MNEMONIC 

SSUBADDXHI           MNEMONIC 

SSUBADDXHS           MNEMONIC 

SSUBADDXLE           MNEMONIC 

SSUBADDXLO           MNEMONIC 

SSUBADDXLS           MNEMONIC 

SSUBADDXLT           MNEMONIC 

SSUBADDXMI           MNEMONIC 

SSUBADDXNE           MNEMONIC 

SSUBADDXPL           MNEMONIC 

SSUBADDXVC           MNEMONIC 

SSUBADDXVS           MNEMONIC 

STACK                DIRECTIVE 

STC                  MNEMONIC 

STC2                 MNEMONIC 

STCAL                MNEMONIC 

STCALL               MNEMONIC 

STCCC                MNEMONIC 

STCCCL               MNEMONIC 

STCCS                MNEMONIC 

STCCSL               MNEMONIC 

STCEQ                MNEMONIC 

STCEQL               MNEMONIC 

STCGE                MNEMONIC 

STCGEL               MNEMONIC 

STCGT                MNEMONIC 

STCGTL               MNEMONIC 

STCHI                MNEMONIC 

STCHIL               MNEMONIC 

STCHS                MNEMONIC 

STCHSL               MNEMONIC 

STCL                 MNEMONIC 

STCLE                MNEMONIC 

STCLEL               MNEMONIC 

STCLO                MNEMONIC 

STCLOL               MNEMONIC 

STCLS                MNEMONIC 

STCLSL               MNEMONIC 

STCLT                MNEMONIC 

STCLTL               MNEMONIC 

STCMI                MNEMONIC 

STCMIL               MNEMONIC 

STCNE                MNEMONIC 

STCNEL               MNEMONIC 

STCPL                MNEMONIC 

STCPLL               MNEMONIC 

STCVC                MNEMONIC 

STCVCL               MNEMONIC 

STCVS                MNEMONIC 

STCVSL               MNEMONIC 

STM                  MNEMONIC 

STMAL                MNEMONIC 

STMALDA              MNEMONIC 

STMALDB              MNEMONIC 

STMALEA              MNEMONIC 

STMALED              MNEMONIC 

STMALFA              MNEMONIC 

STMALFD              MNEMONIC 

STMALIA              MNEMONIC 

STMALIB              MNEMONIC 

STMCC                MNEMONIC 

STMCCDA              MNEMONIC 

STMCCDB              MNEMONIC 

STMCCEA              MNEMONIC 

STMCCED              MNEMONIC 

STMCCFA              MNEMONIC 

STMCCFD              MNEMONIC 

STMCCIA              MNEMONIC 

STMCCIB              MNEMONIC 

STMCS                MNEMONIC 

STMCSDA              MNEMONIC 

STMCSDB              MNEMONIC 

STMCSEA              MNEMONIC 

STMCSED              MNEMONIC 

STMCSFA              MNEMONIC 

STMCSFD              MNEMONIC 

STMCSIA              MNEMONIC 

STMCSIB              MNEMONIC 

STMDA                MNEMONIC 

STMDB                MNEMONIC 

STMEA                MNEMONIC 

STMED                MNEMONIC 

STMEQ                MNEMONIC 

STMEQDA              MNEMONIC 

STMEQDB              MNEMONIC 

STMEQEA              MNEMONIC 

STMEQED              MNEMONIC 

STMEQFA              MNEMONIC 

STMEQFD              MNEMONIC 

STMEQIA              MNEMONIC 

STMEQIB              MNEMONIC 

STMFA                MNEMONIC 

STMFD                MNEMONIC 

STMGE                MNEMONIC 

STMGEDA              MNEMONIC 

STMGEDB              MNEMONIC 

STMGEEA              MNEMONIC 

STMGEED              MNEMONIC 

STMGEFA              MNEMONIC 

STMGEFD              MNEMONIC 

STMGEIA              MNEMONIC 

STMGEIB              MNEMONIC 

STMGT                MNEMONIC 

STMGTDA              MNEMONIC 

STMGTDB              MNEMONIC 

STMGTEA              MNEMONIC 

STMGTED              MNEMONIC 

STMGTFA              MNEMONIC 

STMGTFD              MNEMONIC 

STMGTIA              MNEMONIC 

STMGTIB              MNEMONIC 

STMHI                MNEMONIC 

STMHIDA              MNEMONIC 

STMHIDB              MNEMONIC 

STMHIEA              MNEMONIC 

STMHIED              MNEMONIC 

STMHIFA              MNEMONIC 

STMHIFD              MNEMONIC 

STMHIIA              MNEMONIC 

STMHIIB              MNEMONIC 

STMHS                MNEMONIC 

STMHSDA              MNEMONIC 

STMHSDB              MNEMONIC 

STMHSEA              MNEMONIC 

STMHSED              MNEMONIC 

STMHSFA              MNEMONIC 

STMHSFD              MNEMONIC 

STMHSIA              MNEMONIC 

STMHSIB              MNEMONIC 

STMIA                MNEMONIC 

STMIB                MNEMONIC 

STMLE                MNEMONIC 

STMLEDA              MNEMONIC 

STMLEDB              MNEMONIC 

STMLEEA              MNEMONIC 

STMLEED              MNEMONIC 

STMLEFA              MNEMONIC 

STMLEFD              MNEMONIC 

STMLEIA              MNEMONIC 

STMLEIB              MNEMONIC 

STMLO                MNEMONIC 

STMLODA              MNEMONIC 

STMLODB              MNEMONIC 

STMLOEA              MNEMONIC 

STMLOED              MNEMONIC 

STMLOFA              MNEMONIC 

STMLOFD              MNEMONIC 

STMLOIA              MNEMONIC 

STMLOIB              MNEMONIC 

STMLS                MNEMONIC 

STMLSDA              MNEMONIC 

STMLSDB              MNEMONIC 

STMLSEA              MNEMONIC 

STMLSED              MNEMONIC 

STMLSFA              MNEMONIC 

STMLSFD              MNEMONIC 

STMLSIA              MNEMONIC 

STMLSIB              MNEMONIC 

STMLT                MNEMONIC 

STMLTDA              MNEMONIC 

STMLTDB              MNEMONIC 

STMLTEA              MNEMONIC 

STMLTED              MNEMONIC 

STMLTFA              MNEMONIC 

STMLTFD              MNEMONIC 

STMLTIA              MNEMONIC 

STMLTIB              MNEMONIC 

STMMI                MNEMONIC 

STMMIDA              MNEMONIC 

STMMIDB              MNEMONIC 

STMMIEA              MNEMONIC 

STMMIED              MNEMONIC 

STMMIFA              MNEMONIC 

STMMIFD              MNEMONIC 

STMMIIA              MNEMONIC 

STMMIIB              MNEMONIC 

STMNE                MNEMONIC 

STMNEDA              MNEMONIC 

STMNEDB              MNEMONIC 

STMNEEA              MNEMONIC 

STMNEED              MNEMONIC 

STMNEFA              MNEMONIC 

STMNEFD              MNEMONIC 

STMNEIA              MNEMONIC 

STMNEIB              MNEMONIC 

STMPL                MNEMONIC 

STMPLDA              MNEMONIC 

STMPLDB              MNEMONIC 

STMPLEA              MNEMONIC 

STMPLED              MNEMONIC 

STMPLFA              MNEMONIC 

STMPLFD              MNEMONIC 

STMPLIA              MNEMONIC 

STMPLIB              MNEMONIC 

STMVC                MNEMONIC 

STMVCDA              MNEMONIC 

STMVCDB              MNEMONIC 

STMVCEA              MNEMONIC 

STMVCED              MNEMONIC 

STMVCFA              MNEMONIC 

STMVCFD              MNEMONIC 

STMVCIA              MNEMONIC 

STMVCIB              MNEMONIC 

STMVS                MNEMONIC 

STMVSDA              MNEMONIC 

STMVSDB              MNEMONIC 

STMVSEA              MNEMONIC 

STMVSED              MNEMONIC 

STMVSFA              MNEMONIC 

STMVSFD              MNEMONIC 

STMVSIA              MNEMONIC 

STMVSIB              MNEMONIC 

STR                  MNEMONIC 

STRAL                MNEMONIC 

STRALB               MNEMONIC 

STRALBT              MNEMONIC 

STRALD               MNEMONIC 

STRALH               MNEMONIC 

STRALT               MNEMONIC 

STRB                 MNEMONIC 

STRBAL               MNEMONIC 

STRBCC               MNEMONIC 

STRBCS               MNEMONIC 

STRBEQ               MNEMONIC 

STRBGE               MNEMONIC 

STRBGT               MNEMONIC 

STRBHI               MNEMONIC 

STRBHS               MNEMONIC 

STRBLE               MNEMONIC 

STRBLO               MNEMONIC 

STRBLS               MNEMONIC 

STRBLT               MNEMONIC 

STRBMI               MNEMONIC 

STRBNE               MNEMONIC 

STRBPL               MNEMONIC 

STRBT                MNEMONIC 

STRBTAL              MNEMONIC 

STRBTCC              MNEMONIC 

STRBTCS              MNEMONIC 

STRBTEQ              MNEMONIC 

STRBTGE              MNEMONIC 

STRBTGT              MNEMONIC 

STRBTHI              MNEMONIC 

STRBTHS              MNEMONIC 

STRBTLE              MNEMONIC 

STRBTLO              MNEMONIC 

STRBTLS              MNEMONIC 

STRBTLT              MNEMONIC 

STRBTMI              MNEMONIC 

STRBTNE              MNEMONIC 

STRBTPL              MNEMONIC 

STRBTVC              MNEMONIC 

STRBTVS              MNEMONIC 

STRBVC               MNEMONIC 

STRBVS               MNEMONIC 

STRCC                MNEMONIC 

STRCCB               MNEMONIC 

STRCCBT              MNEMONIC 

STRCCD               MNEMONIC 

STRCCH               MNEMONIC 

STRCCT               MNEMONIC 

STRCS                MNEMONIC 

STRCSB               MNEMONIC 

STRCSBT              MNEMONIC 

STRCSD               MNEMONIC 

STRCSH               MNEMONIC 

STRCST               MNEMONIC 

STRD                 MNEMONIC 

STREQ                MNEMONIC 

STREQB               MNEMONIC 

STREQBT              MNEMONIC 

STREQD               MNEMONIC 

STREQH               MNEMONIC 

STREQT               MNEMONIC 

STREX                MNEMONIC 

STREXAL              MNEMONIC 

STREXB               MNEMONIC 

STREXCC              MNEMONIC 

STREXCS              MNEMONIC 

STREXD               MNEMONIC 

STREXEQ              MNEMONIC 

STREXGE              MNEMONIC 

STREXGT              MNEMONIC 

STREXH               MNEMONIC 

STREXHI              MNEMONIC 

STREXHS              MNEMONIC 

STREXLE              MNEMONIC 

STREXLO              MNEMONIC 

STREXLS              MNEMONIC 

STREXLT              MNEMONIC 

STREXMI              MNEMONIC 

STREXNE              MNEMONIC 

STREXPL              MNEMONIC 

STREXVC              MNEMONIC 

STREXVS              MNEMONIC 

STRGE                MNEMONIC 

STRGEB               MNEMONIC 

STRGEBT              MNEMONIC 

STRGED               MNEMONIC 

STRGEH               MNEMONIC 

STRGET               MNEMONIC 

STRGT                MNEMONIC 

STRGTB               MNEMONIC 

STRGTBT              MNEMONIC 

STRGTD               MNEMONIC 

STRGTH               MNEMONIC 

STRGTT               MNEMONIC 

STRH                 MNEMONIC 

STRHAL               MNEMONIC 

STRHCC               MNEMONIC 

STRHCS               MNEMONIC 

STRHEQ               MNEMONIC 

STRHGE               MNEMONIC 

STRHGT               MNEMONIC 

STRHHI               MNEMONIC 

STRHHS               MNEMONIC 

STRHI                MNEMONIC 

STRHIB               MNEMONIC 

STRHIBT              MNEMONIC 

STRHID               MNEMONIC 

STRHIH               MNEMONIC 

STRHIT               MNEMONIC 

STRHLE               MNEMONIC 

STRHLO               MNEMONIC 

STRHLS               MNEMONIC 

STRHLT               MNEMONIC 

STRHMI               MNEMONIC 

STRHNE               MNEMONIC 

STRHPL               MNEMONIC 

STRHS                MNEMONIC 

STRHSB               MNEMONIC 

STRHSBT              MNEMONIC 

STRHSD               MNEMONIC 

STRHSH               MNEMONIC 

STRHST               MNEMONIC 

STRHT                MNEMONIC 

STRHVC               MNEMONIC 

STRHVS               MNEMONIC 

STRLE                MNEMONIC 

STRLEB               MNEMONIC 

STRLEBT              MNEMONIC 

STRLED               MNEMONIC 

STRLEH               MNEMONIC 

STRLET               MNEMONIC 

STRLO                MNEMONIC 

STRLOB               MNEMONIC 

STRLOBT              MNEMONIC 

STRLOD               MNEMONIC 

STRLOH               MNEMONIC 

STRLOT               MNEMONIC 

STRLS                MNEMONIC 

STRLSB               MNEMONIC 

STRLSBT              MNEMONIC 

STRLSD               MNEMONIC 

STRLSH               MNEMONIC 

STRLST               MNEMONIC 

STRLT                MNEMONIC 

STRLTB               MNEMONIC 

STRLTBT              MNEMONIC 

STRLTD               MNEMONIC 

STRLTH               MNEMONIC 

STRLTT               MNEMONIC 

STRMI                MNEMONIC 

STRMIB               MNEMONIC 

STRMIBT              MNEMONIC 

STRMID               MNEMONIC 

STRMIH               MNEMONIC 

STRMIT               MNEMONIC 

STRNE                MNEMONIC 

STRNEB               MNEMONIC 

STRNEBT              MNEMONIC 

STRNED               MNEMONIC 

STRNEH               MNEMONIC 

STRNET               MNEMONIC 

STRPL                MNEMONIC 

STRPLB               MNEMONIC 

STRPLBT              MNEMONIC 

STRPLD               MNEMONIC 

STRPLH               MNEMONIC 

STRPLT               MNEMONIC 

STRT                 MNEMONIC 

STRTAL               MNEMONIC 

STRTCC               MNEMONIC 

STRTCS               MNEMONIC 

STRTEQ               MNEMONIC 

STRTGE               MNEMONIC 

STRTGT               MNEMONIC 

STRTHI               MNEMONIC 

STRTHS               MNEMONIC 

STRTLE               MNEMONIC 

STRTLO               MNEMONIC 

STRTLS               MNEMONIC 

STRTLT               MNEMONIC 

STRTMI               MNEMONIC 

STRTNE               MNEMONIC 

STRTPL               MNEMONIC 

STRTVC               MNEMONIC 

STRTVS               MNEMONIC 

STRVC                MNEMONIC 

STRVCB               MNEMONIC 

STRVCBT              MNEMONIC 

STRVCD               MNEMONIC 

STRVCH               MNEMONIC 

STRVCT               MNEMONIC 

STRVS                MNEMONIC 

STRVSB               MNEMONIC 

STRVSBT              MNEMONIC 

STRVSD               MNEMONIC 

STRVSH               MNEMONIC 

STRVST               MNEMONIC 

SUB                  MNEMONIC 

SUBAL                MNEMONIC 

SUBALS               MNEMONIC 

SUBCC                MNEMONIC 

SUBCCS               MNEMONIC 

SUBCS                MNEMONIC 

SUBCSS               MNEMONIC 

SUBEQ                MNEMONIC 

SUBEQS               MNEMONIC 

SUBGE                MNEMONIC 

SUBGES               MNEMONIC 

SUBGT                MNEMONIC 

SUBGTS               MNEMONIC 

SUBHI                MNEMONIC 

SUBHIS               MNEMONIC 

SUBHS                MNEMONIC 

SUBHSS               MNEMONIC 

SUBLE                MNEMONIC 

SUBLES               MNEMONIC 

SUBLO                MNEMONIC 

SUBLOS               MNEMONIC 

SUBLS                MNEMONIC 

SUBLSS               MNEMONIC 

SUBLT                MNEMONIC 

SUBLTS               MNEMONIC 

SUBMI                MNEMONIC 

SUBMIS               MNEMONIC 

SUBNE                MNEMONIC 

SUBNES               MNEMONIC 

SUBPL                MNEMONIC 

SUBPLS               MNEMONIC 

SUBS                 MNEMONIC 

SUBSAL               MNEMONIC 

SUBSCC               MNEMONIC 

SUBSCS               MNEMONIC 

SUBSEQ               MNEMONIC 

SUBSGE               MNEMONIC 

SUBSGT               MNEMONIC 

SUBSHI               MNEMONIC 

SUBSHS               MNEMONIC 

SUBSLE               MNEMONIC 

SUBSLO               MNEMONIC 

SUBSLS               MNEMONIC 

SUBSLT               MNEMONIC 

SUBSMI               MNEMONIC 

SUBSNE               MNEMONIC 

SUBSPL               MNEMONIC 

SUBSVC               MNEMONIC 

SUBSVS               MNEMONIC 

SUBVC                MNEMONIC 

SUBVCS               MNEMONIC 

SUBVS                MNEMONIC 

SUBVSS               MNEMONIC 

SUBW                 MNEMONIC 

SUMHI                #define, value: r8, line:      46:5       74:5     77:5     85:5     88:5
                                                                     96:5     99:5    107:5    110:5
                                                                    118:5    121:5    128:5    128:5
                                                                    129:5    129:5    130:5    131:5
                                                                    132:5    133:5    133:5    134:5

SUMLO                #define, value: r7, line:      45:5       74:5     77:5     85:5     88:5
                                                                     96:5     99:5    107:5    110:5
                                                                    118:5    121:5    130:5    131:5
                                                                    132:5

SVC                  MNEMONIC 

SVCAL                MNEMONIC 

SVCCC                MNEMONIC 

SVCCS                MNEMONIC 

SVCEQ                MNEMONIC 

SVCGE                MNEMONIC 

SVCGT                MNEMONIC 

SVCHI                MNEMONIC 

SVCHS                MNEMONIC 

SVCLE                MNEMONIC 

SVCLO                MNEMONIC 

SVCLS                MNEMONIC 

SVCLT                MNEMONIC 

SVCMI                MNEMONIC 

SVCNE                MNEMONIC 

SVCPL                MNEMONIC 

SVCVC                MNEMONIC 

SVCVS                MNEMONIC 

SWI                  MNEMONIC 

SWIAL                MNEMONIC 

SWICC                MNEMONIC 

SWICS                MNEMONIC 

SWIEQ                MNEMONIC 

SWIGE                MNEMONIC 

SWIGT                MNEMONIC 

SWIHI                MNEMONIC 

SWIHS                MNEMONIC 

SWILE                MNEMONIC 

SWILO                MNEMONIC 

SWILS                MNEMONIC 

SWILT                MNEMONIC 

SWIMI                MNEMONIC 

SWINE                MNEMONIC 

SWIPL                MNEMONIC 

SWIVC                MNEMONIC 

SWIVS                MNEMONIC 

SWP                  MNEMONIC 

SWPAL                MNEMONIC 

SWPALB               MNEMONIC 

SWPB                 MNEMONIC 

SWPCC                MNEMONIC 

SWPCCB               MNEMONIC 

SWPCS                MNEMONIC 

SWPCSB               MNEMONIC 

SWPEQ                MNEMONIC 

SWPEQB               MNEMONIC 

SWPGE                MNEMONIC 

SWPGEB               MNEMONIC 

SWPGT                MNEMONIC 

SWPGTB               MNEMONIC 

SWPHI                MNEMONIC 

SWPHIB               MNEMONIC 

SWPHS                MNEMONIC 

SWPHSB               MNEMONIC 

SWPLE                MNEMONIC 

SWPLEB               MNEMONIC 

SWPLO                MNEMONIC 

SWPLOB               MNEMONIC 

SWPLS                MNEMONIC 

SWPLSB               MNEMONIC 

SWPLT                MNEMONIC 

SWPLTB               MNEMONIC 

SWPMI                MNEMONIC 

SWPMIB               MNEMONIC 

SWPNE                MNEMONIC 

SWPNEB               MNEMONIC 

SWPPL                MNEMONIC 

SWPPLB               MNEMONIC 

SWPVC                MNEMONIC 

SWPVCB               MNEMONIC 

SWPVS                MNEMONIC 

SWPVSB               MNEMONIC 

SXTAB                MNEMONIC 

SXTAB16              MNEMONIC 

SXTAB16AL            MNEMONIC 

SXTAB16CC            MNEMONIC 

SXTAB16CS            MNEMONIC 

SXTAB16EQ            MNEMONIC 

SXTAB16GE            MNEMONIC 

SXTAB16GT            MNEMONIC 

SXTAB16HI            MNEMONIC 

SXTAB16HS            MNEMONIC 

SXTAB16LE            MNEMONIC 

SXTAB16LO            MNEMONIC 

SXTAB16LS            MNEMONIC 

SXTAB16LT            MNEMONIC 

SXTAB16MI            MNEMONIC 

SXTAB16NE            MNEMONIC 

SXTAB16PL            MNEMONIC 

SXTAB16VC            MNEMONIC 

SXTAB16VS            MNEMONIC 

SXTABAL              MNEMONIC 

SXTABCC              MNEMONIC 

SXTABCS              MNEMONIC 

SXTABEQ              MNEMONIC 

SXTABGE              MNEMONIC 

SXTABGT              MNEMONIC 

SXTABHI              MNEMONIC 

SXTABHS              MNEMONIC 

SXTABLE              MNEMONIC 

SXTABLO              MNEMONIC 

SXTABLS              MNEMONIC 

SXTABLT              MNEMONIC 

SXTABMI              MNEMONIC 

SXTABNE              MNEMONIC 

SXTABPL              MNEMONIC 

SXTABVC              MNEMONIC 

SXTABVS              MNEMONIC 

SXTAH                MNEMONIC 

SXTAHAL              MNEMONIC 

SXTAHCC              MNEMONIC 

SXTAHCS              MNEMONIC 

SXTAHEQ              MNEMONIC 

SXTAHGE              MNEMONIC 

SXTAHGT              MNEMONIC 

SXTAHHI              MNEMONIC 

SXTAHHS              MNEMONIC 

SXTAHLE              MNEMONIC 

SXTAHLO              MNEMONIC 

SXTAHLS              MNEMONIC 

SXTAHLT              MNEMONIC 

SXTAHMI              MNEMONIC 

SXTAHNE              MNEMONIC 

SXTAHPL              MNEMONIC 

SXTAHVC              MNEMONIC 

SXTAHVS              MNEMONIC 

SXTB                 MNEMONIC 

SXTB16               MNEMONIC 

SXTB16AL             MNEMONIC 

SXTB16CC             MNEMONIC 

SXTB16CS             MNEMONIC 

SXTB16EQ             MNEMONIC 

SXTB16GE             MNEMONIC 

SXTB16GT             MNEMONIC 

SXTB16HI             MNEMONIC 

SXTB16HS             MNEMONIC 

SXTB16LE             MNEMONIC 

SXTB16LO             MNEMONIC 

SXTB16LS             MNEMONIC 

SXTB16LT             MNEMONIC 

SXTB16MI             MNEMONIC 

SXTB16NE             MNEMONIC 

SXTB16PL             MNEMONIC 

SXTB16VC             MNEMONIC 

SXTB16VS             MNEMONIC 

SXTBAL               MNEMONIC 

SXTBCC               MNEMONIC 

SXTBCS               MNEMONIC 

SXTBEQ               MNEMONIC 

SXTBGE               MNEMONIC 

SXTBGT               MNEMONIC 

SXTBHI               MNEMONIC 

SXTBHS               MNEMONIC 

SXTBLE               MNEMONIC 

SXTBLO               MNEMONIC 

SXTBLS               MNEMONIC 

SXTBLT               MNEMONIC 

SXTBMI               MNEMONIC 

SXTBNE               MNEMONIC 

SXTBPL               MNEMONIC 

SXTBVC               MNEMONIC 

SXTBVS               MNEMONIC 

SXTH                 MNEMONIC 

SXTHAL               MNEMONIC 

SXTHCC               MNEMONIC 

SXTHCS               MNEMONIC 

SXTHEQ               MNEMONIC 

SXTHGE               MNEMONIC 

SXTHGT               MNEMONIC 

SXTHHI               MNEMONIC 

SXTHHS               MNEMONIC 

SXTHLE               MNEMONIC 

SXTHLO               MNEMONIC 

SXTHLS               MNEMONIC 

SXTHLT               MNEMONIC 

SXTHMI               MNEMONIC 

SXTHNE               MNEMONIC 

SXTHPL               MNEMONIC 

SXTHVC               MNEMONIC 

SXTHVS               MNEMONIC 

SYMBOL               DIRECTIVE 

TABLE                DIRECTIVE 

TBB                  MNEMONIC 

TBH                  MNEMONIC 

TEQ                  MNEMONIC 

TEQAL                MNEMONIC 

TEQCC                MNEMONIC 

TEQCS                MNEMONIC 

TEQEQ                MNEMONIC 

TEQGE                MNEMONIC 

TEQGT                MNEMONIC 

TEQHI                MNEMONIC 

TEQHS                MNEMONIC 

TEQLE                MNEMONIC 

TEQLO                MNEMONIC 

TEQLS                MNEMONIC 

TEQLT                MNEMONIC 

TEQMI                MNEMONIC 

TEQNE                MNEMONIC 

TEQPL                MNEMONIC 

TEQVC                MNEMONIC 

TEQVS                MNEMONIC 

THUMB                DIRECTIVE 

TST                  MNEMONIC 

TSTAL                MNEMONIC 

TSTCC                MNEMONIC 

TSTCS                MNEMONIC 

TSTEQ                MNEMONIC 

TSTGE                MNEMONIC 

TSTGT                MNEMONIC 

TSTHI                MNEMONIC 

TSTHS                MNEMONIC 

TSTLE                MNEMONIC 

TSTLO                MNEMONIC 

TSTLS                MNEMONIC 

TSTLT                MNEMONIC 

TSTMI                MNEMONIC 

TSTNE                MNEMONIC 

TSTPL                MNEMONIC 

TSTVC                MNEMONIC 

TSTVS                MNEMONIC 

UADD16               MNEMONIC 

UADD16AL             MNEMONIC 

UADD16CC             MNEMONIC 

UADD16CS             MNEMONIC 

UADD16EQ             MNEMONIC 

UADD16GE             MNEMONIC 

UADD16GT             MNEMONIC 

UADD16HI             MNEMONIC 

UADD16HS             MNEMONIC 

UADD16LE             MNEMONIC 

UADD16LO             MNEMONIC 

UADD16LS             MNEMONIC 

UADD16LT             MNEMONIC 

UADD16MI             MNEMONIC 

UADD16NE             MNEMONIC 

UADD16PL             MNEMONIC 

UADD16VC             MNEMONIC 

UADD16VS             MNEMONIC 

UADD8                MNEMONIC 

UADD8AL              MNEMONIC 

UADD8CC              MNEMONIC 

UADD8CS              MNEMONIC 

UADD8EQ              MNEMONIC 

UADD8GE              MNEMONIC 

UADD8GT              MNEMONIC 

UADD8HI              MNEMONIC 

UADD8HS              MNEMONIC 

UADD8LE              MNEMONIC 

UADD8LO              MNEMONIC 

UADD8LS              MNEMONIC 

UADD8LT              MNEMONIC 

UADD8MI              MNEMONIC 

UADD8NE              MNEMONIC 

UADD8PL              MNEMONIC 

UADD8VC              MNEMONIC 

UADD8VS              MNEMONIC 

UADDSUBX             MNEMONIC 

UADDSUBXAL           MNEMONIC 

UADDSUBXCC           MNEMONIC 

UADDSUBXCS           MNEMONIC 

UADDSUBXEQ           MNEMONIC 

UADDSUBXGE           MNEMONIC 

UADDSUBXGT           MNEMONIC 

UADDSUBXHI           MNEMONIC 

UADDSUBXHS           MNEMONIC 

UADDSUBXLE           MNEMONIC 

UADDSUBXLO           MNEMONIC 

UADDSUBXLS           MNEMONIC 

UADDSUBXLT           MNEMONIC 

UADDSUBXMI           MNEMONIC 

UADDSUBXNE           MNEMONIC 

UADDSUBXPL           MNEMONIC 

UADDSUBXVC           MNEMONIC 

UADDSUBXVS           MNEMONIC 

UASX                 MNEMONIC 

UASXAL               MNEMONIC 

UASXCC               MNEMONIC 

UASXCS               MNEMONIC 

UASXEQ               MNEMONIC 

UASXGE               MNEMONIC 

UASXGT               MNEMONIC 

UASXHI               MNEMONIC 

UASXHS               MNEMONIC 

UASXLE               MNEMONIC 

UASXLO               MNEMONIC 

UASXLS               MNEMONIC 

UASXLT               MNEMONIC 

UASXMI               MNEMONIC 

UASXNE               MNEMONIC 

UASXPL               MNEMONIC 

UASXVC               MNEMONIC 

UASXVS               MNEMONIC 

UBFX                 MNEMONIC 

UBUF                 #define, value: r3, line:      41:4      124:4    125:4    185:4    186:4

UDIV                 MNEMONIC 

UGT                  OPERATOR 

UHADD16              MNEMONIC 

UHADD16AL            MNEMONIC 

UHADD16CC            MNEMONIC 

UHADD16CS            MNEMONIC 

UHADD16EQ            MNEMONIC 

UHADD16GE            MNEMONIC 

UHADD16GT            MNEMONIC 

UHADD16HI            MNEMONIC 

UHADD16HS            MNEMONIC 

UHADD16LE            MNEMONIC 

UHADD16LO            MNEMONIC 

UHADD16LS            MNEMONIC 

UHADD16LT            MNEMONIC 

UHADD16MI            MNEMONIC 

UHADD16NE            MNEMONIC 

UHADD16PL            MNEMONIC 

UHADD16VC            MNEMONIC 

UHADD16VS            MNEMONIC 

UHADD8               MNEMONIC 

UHADD8AL             MNEMONIC 

UHADD8CC             MNEMONIC 

UHADD8CS             MNEMONIC 

UHADD8EQ             MNEMONIC 

UHADD8GE             MNEMONIC 

UHADD8GT             MNEMONIC 

UHADD8HI             MNEMONIC 

UHADD8HS             MNEMONIC 

UHADD8LE             MNEMONIC 

UHADD8LO             MNEMONIC 

UHADD8LS             MNEMONIC 

UHADD8LT             MNEMONIC 

UHADD8MI             MNEMONIC 

UHADD8NE             MNEMONIC 

UHADD8PL             MNEMONIC 

UHADD8VC             MNEMONIC 

UHADD8VS             MNEMONIC 

UHADDSUBX            MNEMONIC 

UHADDSUBXAL          MNEMONIC 

UHADDSUBXCC          MNEMONIC 

UHADDSUBXCS          MNEMONIC 

UHADDSUBXEQ          MNEMONIC 

UHADDSUBXGE          MNEMONIC 

UHADDSUBXGT          MNEMONIC 

UHADDSUBXHI          MNEMONIC 

UHADDSUBXHS          MNEMONIC 

UHADDSUBXLE          MNEMONIC 

UHADDSUBXLO          MNEMONIC 

UHADDSUBXLS          MNEMONIC 

UHADDSUBXLT          MNEMONIC 

UHADDSUBXMI          MNEMONIC 

UHADDSUBXNE          MNEMONIC 

UHADDSUBXPL          MNEMONIC 

UHADDSUBXVC          MNEMONIC 

UHADDSUBXVS          MNEMONIC 

UHASX                MNEMONIC 

UHASXAL              MNEMONIC 

UHASXCC              MNEMONIC 

UHASXCS              MNEMONIC 

UHASXEQ              MNEMONIC 

UHASXGE              MNEMONIC 

UHASXGT              MNEMONIC 

UHASXHI              MNEMONIC 

UHASXHS              MNEMONIC 

UHASXLE              MNEMONIC 

UHASXLO              MNEMONIC 

UHASXLS              MNEMONIC 

UHASXLT              MNEMONIC 

UHASXMI              MNEMONIC 

UHASXNE              MNEMONIC 

UHASXPL              MNEMONIC 

UHASXVC              MNEMONIC 

UHASXVS              MNEMONIC 

UHI0                 #define, value: r8, line:      46:4       75:4     86:4     97:4    109:4
                                                                    121:4    125:4    138:4    149:4
                                                                    160:4    171:4    182:4    186:4

UHI1                 #define, value: r10, line:      48:4       76:4     87:4     98:4    110:4
                                                                    122:4    124:4    139:4    150:4
                                                                    161:4    172:4    183:4    185:4

UHSAX                MNEMONIC 

UHSAXAL              MNEMONIC 

UHSAXCC              MNEMONIC 

UHSAXCS              MNEMONIC 

UHSAXEQ              MNEMONIC 

UHSAXGE              MNEMONIC 

UHSAXGT              MNEMONIC 

UHSAXHI              MNEMONIC 

UHSAXHS              MNEMONIC 

UHSAXLE              MNEMONIC 

UHSAXLO              MNEMONIC 

UHSAXLS              MNEMONIC 

UHSAXLT              MNEMONIC 

UHSAXMI              MNEMONIC 

UHSAXNE              MNEMONIC 

UHSAXPL              MNEMONIC 

UHSAXVC              MNEMONIC 

UHSAXVS              MNEMONIC 

UHSUB16              MNEMONIC 

UHSUB16AL            MNEMONIC 

UHSUB16CC            MNEMONIC 

UHSUB16CS            MNEMONIC 

UHSUB16EQ            MNEMONIC 

UHSUB16GE            MNEMONIC 

UHSUB16GT            MNEMONIC 

UHSUB16HI            MNEMONIC 

UHSUB16HS            MNEMONIC 

UHSUB16LE            MNEMONIC 

UHSUB16LO            MNEMONIC 

UHSUB16LS            MNEMONIC 

UHSUB16LT            MNEMONIC 

UHSUB16MI            MNEMONIC 

UHSUB16NE            MNEMONIC 

UHSUB16PL            MNEMONIC 

UHSUB16VC            MNEMONIC 

UHSUB16VS            MNEMONIC 

UHSUB8               MNEMONIC 

UHSUB8AL             MNEMONIC 

UHSUB8CC             MNEMONIC 

UHSUB8CS             MNEMONIC 

UHSUB8EQ             MNEMONIC 

UHSUB8GE             MNEMONIC 

UHSUB8GT             MNEMONIC 

UHSUB8HI             MNEMONIC 

UHSUB8HS             MNEMONIC 

UHSUB8LE             MNEMONIC 

UHSUB8LO             MNEMONIC 

UHSUB8LS             MNEMONIC 

UHSUB8LT             MNEMONIC 

UHSUB8MI             MNEMONIC 

UHSUB8NE             MNEMONIC 

UHSUB8PL             MNEMONIC 

UHSUB8VC             MNEMONIC 

UHSUB8VS             MNEMONIC 

UHSUBADDX            MNEMONIC 

UHSUBADDXAL          MNEMONIC 

UHSUBADDXCC          MNEMONIC 

UHSUBADDXCS          MNEMONIC 

UHSUBADDXEQ          MNEMONIC 

UHSUBADDXGE          MNEMONIC 

UHSUBADDXGT          MNEMONIC 

UHSUBADDXHI          MNEMONIC 

UHSUBADDXHS          MNEMONIC 

UHSUBADDXLE          MNEMONIC 

UHSUBADDXLO          MNEMONIC 

UHSUBADDXLS          MNEMONIC 

UHSUBADDXLT          MNEMONIC 

UHSUBADDXMI          MNEMONIC 

UHSUBADDXNE          MNEMONIC 

UHSUBADDXPL          MNEMONIC 

UHSUBADDXVC          MNEMONIC 

UHSUBADDXVS          MNEMONIC 

ULO0                 #define, value: r7, line:      45:4       75:4     86:4     97:4    109:4
                                                                    121:4    138:4    149:4    160:4
                                                                    171:4    182:4

ULO1                 #define, value: r9, line:      47:4       76:4     87:4     98:4    110:4
                                                                    122:4    139:4    150:4    161:4
                                                                    172:4    183:4

ULT                  OPERATOR 

UMAAL                MNEMONIC 

UMAALAL              MNEMONIC 

UMAALCC              MNEMONIC 

UMAALCS              MNEMONIC 

UMAALEQ              MNEMONIC 

UMAALGE              MNEMONIC 

UMAALGT              MNEMONIC 

UMAALHI              MNEMONIC 

UMAALHS              MNEMONIC 

UMAALLE              MNEMONIC 

UMAALLO              MNEMONIC 

UMAALLS              MNEMONIC 

UMAALLT              MNEMONIC 

UMAALMI              MNEMONIC 

UMAALNE              MNEMONIC 

UMAALPL              MNEMONIC 

UMAALVC              MNEMONIC 

UMAALVS              MNEMONIC 

UMLAL                MNEMONIC 

UMLALAL              MNEMONIC 

UMLALALS             MNEMONIC 

UMLALCC              MNEMONIC 

UMLALCCS             MNEMONIC 

UMLALCS              MNEMONIC 

UMLALCSS             MNEMONIC 

UMLALEQ              MNEMONIC 

UMLALEQS             MNEMONIC 

UMLALGE              MNEMONIC 

UMLALGES             MNEMONIC 

UMLALGT              MNEMONIC 

UMLALGTS             MNEMONIC 

UMLALHI              MNEMONIC 

UMLALHIS             MNEMONIC 

UMLALHS              MNEMONIC 

UMLALHSS             MNEMONIC 

UMLALLE              MNEMONIC 

UMLALLES             MNEMONIC 

UMLALLO              MNEMONIC 

UMLALLOS             MNEMONIC 

UMLALLS              MNEMONIC 

UMLALLSS             MNEMONIC 

UMLALLT              MNEMONIC 

UMLALLTS             MNEMONIC 

UMLALMI              MNEMONIC 

UMLALMIS             MNEMONIC 

UMLALNE              MNEMONIC 

UMLALNES             MNEMONIC 

UMLALPL              MNEMONIC 

UMLALPLS             MNEMONIC 

UMLALS               MNEMONIC 

UMLALVC              MNEMONIC 

UMLALVCS             MNEMONIC 

UMLALVS              MNEMONIC 

UMLALVSS             MNEMONIC 

UMULL                MNEMONIC 

UMULLAL              MNEMONIC 

UMULLALS             MNEMONIC 

UMULLCC              MNEMONIC 

UMULLCCS             MNEMONIC 

UMULLCS              MNEMONIC 

UMULLCSS             MNEMONIC 

UMULLEQ              MNEMONIC 

UMULLEQS             MNEMONIC 

UMULLGE              MNEMONIC 

UMULLGES             MNEMONIC 

UMULLGT              MNEMONIC 

UMULLGTS             MNEMONIC 

UMULLHI              MNEMONIC 

UMULLHIS             MNEMONIC 

UMULLHS              MNEMONIC 

UMULLHSS             MNEMONIC 

UMULLLE              MNEMONIC 

UMULLLES             MNEMONIC 

UMULLLO              MNEMONIC 

UMULLLOS             MNEMONIC 

UMULLLS              MNEMONIC 

UMULLLSS             MNEMONIC 

UMULLLT              MNEMONIC 

UMULLLTS             MNEMONIC 

UMULLMI              MNEMONIC 

UMULLMIS             MNEMONIC 

UMULLNE              MNEMONIC 

UMULLNES             MNEMONIC 

UMULLPL              MNEMONIC 

UMULLPLS             MNEMONIC 

UMULLS               MNEMONIC 

UMULLVC              MNEMONIC 

UMULLVCS             MNEMONIC 

UMULLVS              MNEMONIC 

UMULLVSS             MNEMONIC 

UNTYPED              SEGMENT TYPE 

UQADD16              MNEMONIC 

UQADD16AL            MNEMONIC 

UQADD16CC            MNEMONIC 

UQADD16CS            MNEMONIC 

UQADD16EQ            MNEMONIC 

UQADD16GE            MNEMONIC 

UQADD16GT            MNEMONIC 

UQADD16HI            MNEMONIC 

UQADD16HS            MNEMONIC 

UQADD16LE            MNEMONIC 

UQADD16LO            MNEMONIC 

UQADD16LS            MNEMONIC 

UQADD16LT            MNEMONIC 

UQADD16MI            MNEMONIC 

UQADD16NE            MNEMONIC 

UQADD16PL            MNEMONIC 

UQADD16VC            MNEMONIC 

UQADD16VS            MNEMONIC 

UQADD8               MNEMONIC 

UQADD8AL             MNEMONIC 

UQADD8CC             MNEMONIC 

UQADD8CS             MNEMONIC 

UQADD8EQ             MNEMONIC 

UQADD8GE             MNEMONIC 

UQADD8GT             MNEMONIC 

UQADD8HI             MNEMONIC 

UQADD8HS             MNEMONIC 

UQADD8LE             MNEMONIC 

UQADD8LO             MNEMONIC 

UQADD8LS             MNEMONIC 

UQADD8LT             MNEMONIC 

UQADD8MI             MNEMONIC 

UQADD8NE             MNEMONIC 

UQADD8PL             MNEMONIC 

UQADD8VC             MNEMONIC 

UQADD8VS             MNEMONIC 

UQADDSUBX            MNEMONIC 

UQADDSUBXAL          MNEMONIC 

UQADDSUBXCC          MNEMONIC 

UQADDSUBXCS          MNEMONIC 

UQADDSUBXEQ          MNEMONIC 

UQADDSUBXGE          MNEMONIC 

UQADDSUBXGT          MNEMONIC 

UQADDSUBXHI          MNEMONIC 

UQADDSUBXHS          MNEMONIC 

UQADDSUBXLE          MNEMONIC 

UQADDSUBXLO          MNEMONIC 

UQADDSUBXLS          MNEMONIC 

UQADDSUBXLT          MNEMONIC 

UQADDSUBXMI          MNEMONIC 

UQADDSUBXNE          MNEMONIC 

UQADDSUBXPL          MNEMONIC 

UQADDSUBXVC          MNEMONIC 

UQADDSUBXVS          MNEMONIC 

UQASX                MNEMONIC 

UQASXAL              MNEMONIC 

UQASXCC              MNEMONIC 

UQASXCS              MNEMONIC 

UQASXEQ              MNEMONIC 

UQASXGE              MNEMONIC 

UQASXGT              MNEMONIC 

UQASXHI              MNEMONIC 

UQASXHS              MNEMONIC 

UQASXLE              MNEMONIC 

UQASXLO              MNEMONIC 

UQASXLS              MNEMONIC 

UQASXLT              MNEMONIC 

UQASXMI              MNEMONIC 

UQASXNE              MNEMONIC 

UQASXPL              MNEMONIC 

UQASXVC              MNEMONIC 

UQASXVS              MNEMONIC 

UQSAX                MNEMONIC 

UQSAXAL              MNEMONIC 

UQSAXCC              MNEMONIC 

UQSAXCS              MNEMONIC 

UQSAXEQ              MNEMONIC 

UQSAXGE              MNEMONIC 

UQSAXGT              MNEMONIC 

UQSAXHI              MNEMONIC 

UQSAXHS              MNEMONIC 

UQSAXLE              MNEMONIC 

UQSAXLO              MNEMONIC 

UQSAXLS              MNEMONIC 

UQSAXLT              MNEMONIC 

UQSAXMI              MNEMONIC 

UQSAXNE              MNEMONIC 

UQSAXPL              MNEMONIC 

UQSAXVC              MNEMONIC 

UQSAXVS              MNEMONIC 

UQSUB16              MNEMONIC 

UQSUB16AL            MNEMONIC 

UQSUB16CC            MNEMONIC 

UQSUB16CS            MNEMONIC 

UQSUB16EQ            MNEMONIC 

UQSUB16GE            MNEMONIC 

UQSUB16GT            MNEMONIC 

UQSUB16HI            MNEMONIC 

UQSUB16HS            MNEMONIC 

UQSUB16LE            MNEMONIC 

UQSUB16LO            MNEMONIC 

UQSUB16LS            MNEMONIC 

UQSUB16LT            MNEMONIC 

UQSUB16MI            MNEMONIC 

UQSUB16NE            MNEMONIC 

UQSUB16PL            MNEMONIC 

UQSUB16VC            MNEMONIC 

UQSUB16VS            MNEMONIC 

UQSUB8               MNEMONIC 

UQSUB8AL             MNEMONIC 

UQSUB8CC             MNEMONIC 

UQSUB8CS             MNEMONIC 

UQSUB8EQ             MNEMONIC 

UQSUB8GE             MNEMONIC 

UQSUB8GT             MNEMONIC 

UQSUB8HI             MNEMONIC 

UQSUB8HS             MNEMONIC 

UQSUB8LE             MNEMONIC 

UQSUB8LO             MNEMONIC 

UQSUB8LS             MNEMONIC 

UQSUB8LT             MNEMONIC 

UQSUB8MI             MNEMONIC 

UQSUB8NE             MNEMONIC 

UQSUB8PL             MNEMONIC 

UQSUB8VC             MNEMONIC 

UQSUB8VS             MNEMONIC 

UQSUBADDX            MNEMONIC 

UQSUBADDXAL          MNEMONIC 

UQSUBADDXCC          MNEMONIC 

UQSUBADDXCS          MNEMONIC 

UQSUBADDXEQ          MNEMONIC 

UQSUBADDXGE          MNEMONIC 

UQSUBADDXGT          MNEMONIC 

UQSUBADDXHI          MNEMONIC 

UQSUBADDXHS          MNEMONIC 

UQSUBADDXLE          MNEMONIC 

UQSUBADDXLO          MNEMONIC 

UQSUBADDXLS          MNEMONIC 

UQSUBADDXLT          MNEMONIC 

UQSUBADDXMI          MNEMONIC 

UQSUBADDXNE          MNEMONIC 

UQSUBADDXPL          MNEMONIC 

UQSUBADDXVC          MNEMONIC 

UQSUBADDXVS          MNEMONIC 

USAD8                MNEMONIC 

USAD8AL              MNEMONIC 

USAD8CC              MNEMONIC 

USAD8CS              MNEMONIC 

USAD8EQ              MNEMONIC 

USAD8GE              MNEMONIC 

USAD8GT              MNEMONIC 

USAD8HI              MNEMONIC 

USAD8HS              MNEMONIC 

USAD8LE              MNEMONIC 

USAD8LO              MNEMONIC 

USAD8LS              MNEMONIC 

USAD8LT              MNEMONIC 

USAD8MI              MNEMONIC 

USAD8NE              MNEMONIC 

USAD8PL              MNEMONIC 

USAD8VC              MNEMONIC 

USAD8VS              MNEMONIC 

USADA8               MNEMONIC 

USADA8AL             MNEMONIC 

USADA8CC             MNEMONIC 

USADA8CS             MNEMONIC 

USADA8EQ             MNEMONIC 

USADA8GE             MNEMONIC 

USADA8GT             MNEMONIC 

USADA8HI             MNEMONIC 

USADA8HS             MNEMONIC 

USADA8LE             MNEMONIC 

USADA8LO             MNEMONIC 

USADA8LS             MNEMONIC 

USADA8LT             MNEMONIC 

USADA8MI             MNEMONIC 

USADA8NE             MNEMONIC 

USADA8PL             MNEMONIC 

USADA8VC             MNEMONIC 

USADA8VS             MNEMONIC 

USAT                 MNEMONIC 

USAT16               MNEMONIC 

USAT16AL             MNEMONIC 

USAT16CC             MNEMONIC 

USAT16CS             MNEMONIC 

USAT16EQ             MNEMONIC 

USAT16GE             MNEMONIC 

USAT16GT             MNEMONIC 

USAT16HI             MNEMONIC 

USAT16HS             MNEMONIC 

USAT16LE             MNEMONIC 

USAT16LO             MNEMONIC 

USAT16LS             MNEMONIC 

USAT16LT             MNEMONIC 

USAT16MI             MNEMONIC 

USAT16NE             MNEMONIC 

USAT16PL             MNEMONIC 

USAT16VC             MNEMONIC 

USAT16VS             MNEMONIC 

USATAL               MNEMONIC 

USATCC               MNEMONIC 

USATCS               MNEMONIC 

USATEQ               MNEMONIC 

USATGE               MNEMONIC 

USATGT               MNEMONIC 

USATHI               MNEMONIC 

USATHS               MNEMONIC 

USATLE               MNEMONIC 

USATLO               MNEMONIC 

USATLS               MNEMONIC 

USATLT               MNEMONIC 

USATMI               MNEMONIC 

USATNE               MNEMONIC 

USATPL               MNEMONIC 

USATVC               MNEMONIC 

USATVS               MNEMONIC 

USAX                 MNEMONIC 

USAXAL               MNEMONIC 

USAXCC               MNEMONIC 

USAXCS               MNEMONIC 

USAXEQ               MNEMONIC 

USAXGE               MNEMONIC 

USAXGT               MNEMONIC 

USAXHI               MNEMONIC 

USAXHS               MNEMONIC 

USAXLE               MNEMONIC 

USAXLO               MNEMONIC 

USAXLS               MNEMONIC 

USAXLT               MNEMONIC 

USAXMI               MNEMONIC 

USAXNE               MNEMONIC 

USAXPL               MNEMONIC 

USAXVC               MNEMONIC 

USAXVS               MNEMONIC 

USUB16               MNEMONIC 

USUB16AL             MNEMONIC 

USUB16CC             MNEMONIC 

USUB16CS             MNEMONIC 

USUB16EQ             MNEMONIC 

USUB16GE             MNEMONIC 

USUB16GT             MNEMONIC 

USUB16HI             MNEMONIC 

USUB16HS             MNEMONIC 

USUB16LE             MNEMONIC 

USUB16LO             MNEMONIC 

USUB16LS             MNEMONIC 

USUB16LT             MNEMONIC 

USUB16MI             MNEMONIC 

USUB16NE             MNEMONIC 

USUB16PL             MNEMONIC 

USUB16VC             MNEMONIC 

USUB16VS             MNEMONIC 

USUB8                MNEMONIC 

USUB8AL              MNEMONIC 

USUB8CC              MNEMONIC 

USUB8CS              MNEMONIC 

USUB8EQ              MNEMONIC 

USUB8GE              MNEMONIC 

USUB8GT              MNEMONIC 

USUB8HI              MNEMONIC 

USUB8HS              MNEMONIC 

USUB8LE              MNEMONIC 

USUB8LO              MNEMONIC 

USUB8LS              MNEMONIC 

USUB8LT              MNEMONIC 

USUB8MI              MNEMONIC 

USUB8NE              MNEMONIC 

USUB8PL              MNEMONIC 

USUB8VC              MNEMONIC 

USUB8VS              MNEMONIC 

USUBADDX             MNEMONIC 

USUBADDXAL           MNEMONIC 

USUBADDXCC           MNEMONIC 

USUBADDXCS           MNEMONIC 

USUBADDXEQ           MNEMONIC 

USUBADDXGE           MNEMONIC 

USUBADDXGT           MNEMONIC 

USUBADDXHI           MNEMONIC 

USUBADDXHS           MNEMONIC 

USUBADDXLE           MNEMONIC 

USUBADDXLO           MNEMONIC 

USUBADDXLS           MNEMONIC 

USUBADDXLT           MNEMONIC 

USUBADDXMI           MNEMONIC 

USUBADDXNE           MNEMONIC 

USUBADDXPL           MNEMONIC 

USUBADDXVC           MNEMONIC 

USUBADDXVS           MNEMONIC 

UXTAB                MNEMONIC 

UXTAB16              MNEMONIC 

UXTAB16AL            MNEMONIC 

UXTAB16CC            MNEMONIC 

UXTAB16CS            MNEMONIC 

UXTAB16EQ            MNEMONIC 

UXTAB16GE            MNEMONIC 

UXTAB16GT            MNEMONIC 

UXTAB16HI            MNEMONIC 

UXTAB16HS            MNEMONIC 

UXTAB16LE            MNEMONIC 

UXTAB16LO            MNEMONIC 

UXTAB16LS            MNEMONIC 

UXTAB16LT            MNEMONIC 

UXTAB16MI            MNEMONIC 

UXTAB16NE            MNEMONIC 

UXTAB16PL            MNEMONIC 

UXTAB16VC            MNEMONIC 

UXTAB16VS            MNEMONIC 

UXTABAL              MNEMONIC 

UXTABCC              MNEMONIC 

UXTABCS              MNEMONIC 

UXTABEQ              MNEMONIC 

UXTABGE              MNEMONIC 

UXTABGT              MNEMONIC 

UXTABHI              MNEMONIC 

UXTABHS              MNEMONIC 

UXTABLE              MNEMONIC 

UXTABLO              MNEMONIC 

UXTABLS              MNEMONIC 

UXTABLT              MNEMONIC 

UXTABMI              MNEMONIC 

UXTABNE              MNEMONIC 

UXTABPL              MNEMONIC 

UXTABVC              MNEMONIC 

UXTABVS              MNEMONIC 

UXTAH                MNEMONIC 

UXTAHAL              MNEMONIC 

UXTAHCC              MNEMONIC 

UXTAHCS              MNEMONIC 

UXTAHEQ              MNEMONIC 

UXTAHGE              MNEMONIC 

UXTAHGT              MNEMONIC 

UXTAHHI              MNEMONIC 

UXTAHHS              MNEMONIC 

UXTAHLE              MNEMONIC 

UXTAHLO              MNEMONIC 

UXTAHLS              MNEMONIC 

UXTAHLT              MNEMONIC 

UXTAHMI              MNEMONIC 

UXTAHNE              MNEMONIC 

UXTAHPL              MNEMONIC 

UXTAHVC              MNEMONIC 

UXTAHVS              MNEMONIC 

UXTB                 MNEMONIC 

UXTB16               MNEMONIC 

UXTB16AL             MNEMONIC 

UXTB16CC             MNEMONIC 

UXTB16CS             MNEMONIC 

UXTB16EQ             MNEMONIC 

UXTB16GE             MNEMONIC 

UXTB16GT             MNEMONIC 

UXTB16HI             MNEMONIC 

UXTB16HS             MNEMONIC 

UXTB16LE             MNEMONIC 

UXTB16LO             MNEMONIC 

UXTB16LS             MNEMONIC 

UXTB16LT             MNEMONIC 

UXTB16MI             MNEMONIC 

UXTB16NE             MNEMONIC 

UXTB16PL             MNEMONIC 

UXTB16VC             MNEMONIC 

UXTB16VS             MNEMONIC 

UXTBAL               MNEMONIC 

UXTBCC               MNEMONIC 

UXTBCS               MNEMONIC 

UXTBEQ               MNEMONIC 

UXTBGE               MNEMONIC 

UXTBGT               MNEMONIC 

UXTBHI               MNEMONIC 

UXTBHS               MNEMONIC 

UXTBLE               MNEMONIC 

UXTBLO               MNEMONIC 

UXTBLS               MNEMONIC 

UXTBLT               MNEMONIC 

UXTBMI               MNEMONIC 

UXTBNE               MNEMONIC 

UXTBPL               MNEMONIC 

UXTBVC               MNEMONIC 

UXTBVS               MNEMONIC 

UXTH                 MNEMONIC 

UXTHAL               MNEMONIC 

UXTHCC               MNEMONIC 

UXTHCS               MNEMONIC 

UXTHEQ               MNEMONIC 

UXTHGE               MNEMONIC 

UXTHGT               MNEMONIC 

UXTHHI               MNEMONIC 

UXTHHS               MNEMONIC 

UXTHLE               MNEMONIC 

UXTHLO               MNEMONIC 

UXTHLS               MNEMONIC 

UXTHLT               MNEMONIC 

UXTHMI               MNEMONIC 

UXTHNE               MNEMONIC 

UXTHPL               MNEMONIC 

UXTHVC               MNEMONIC 

UXTHVS               MNEMONIC 

VAR                  DIRECTIVE 

VOICEMODE            #define, value: R4, line:      21:2       89:2     90:2     94:2     95:2

VOL                  #define, value: R8, line:      25:2       32:2     33:2    121:2

WFE                  MNEMONIC 

WFI                  MNEMONIC 

X0IM                 #define, value: r4, line:      44:3       76:3     79:3     82:3     86:3
                                                                     86:3    102:3    104:3    107:3
                                                                    111:3    111:3    131:3    139:3
                                                                    140:3    168:3    176:3    179:3
                                                                    184:3

X0IMNEG              #define, value: r14, line:      47:3       79:3     84:3    104:3    109:3
                                                                    124:3    176:3    181:3

X0RE                 #define, value: r3, line:      43:3       75:3     81:3     83:3     85:3
                                                                     85:3    100:3    106:3    108:3
                                                                    110:3    110:3    120:3    120:3
                                                                    123:3    130:3    137:3    138:3
                                                                    167:3    178:3    180:3    183:3

X1IM                 #define, value: r6, line:      46:3       78:3     82:3     83:3    102:3
                                                                    103:3    107:3    108:3    124:3
                                                                    130:3    170:3    184:3    186:3

X1RE                 #define, value: r5, line:      45:3       77:3     81:3     84:3    100:3
                                                                    101:3    106:3    109:3    123:3
                                                                    131:3    169:3    183:3    185:3

X2IM                 #define, value: r12, line:     153:3      175:3    179:3    180:3    186:3

X2RE                 #define, value: r11, line:     152:3      174:3    178:3    181:3    185:3

XBUF                 #define, value: r0, line:      40:3       75:3     76:3     77:3     78:3
                                                                    101:3    103:3    118:3    121:3
                                                                    126:3    128:3    133:3    135:3
                                                                    137:3    138:3    167:3    168:3
                                                                    169:3    170:3    174:3    175:3

XDATA                SEGMENT TYPE 

XOR                  OPERATOR 

YIELD                MNEMONIC 

ZPAGE                SEGMENT TYPE 

[                    DELIMITER 

]                    DELIMITER 

^                    OPERATOR 

^                    DELIMITER 

_BF                  MNEMONIC 

_BFAL                MNEMONIC 

_BFCC                MNEMONIC 

_BFCS                MNEMONIC 

_BFEQ                MNEMONIC 

_BFGE                MNEMONIC 

_BFGT                MNEMONIC 

_BFHI                MNEMONIC 

_BFHS                MNEMONIC 

_BFLE                MNEMONIC 

_BFLO                MNEMONIC 

_BFLS                MNEMONIC 

_BFLT                MNEMONIC 

_BFMI                MNEMONIC 

_BFNE                MNEMONIC 

_BFPL                MNEMONIC 

_BFVC                MNEMONIC 

_BFVS                MNEMONIC 

_BLF                 MNEMONIC 

_BLFAL               MNEMONIC 

_BLFCC               MNEMONIC 

_BLFCS               MNEMONIC 

_BLFEQ               MNEMONIC 

_BLFGE               MNEMONIC 

_BLFGT               MNEMONIC 

_BLFHI               MNEMONIC 

_BLFHS               MNEMONIC 

_BLFLE               MNEMONIC 

_BLFLO               MNEMONIC 

_BLFLS               MNEMONIC 

_BLFLT               MNEMONIC 

_BLFMI               MNEMONIC 

_BLFNE               MNEMONIC 

_BLFPL               MNEMONIC 

_BLFVC               MNEMONIC 

_BLFVS               MNEMONIC 

_END                 #define, value: R6, line:      23:2       52:2     54:2     60:2     86:2
                                                                     96:2

__ARM4TM__           #define, value: 4, line:         0  

__ARM5E__            #define, value: 5, line:         0  

__ARM5TM__           #define, value: 5, line:         0  

__ARM5T__            #define, value: 5, line:         0  

__ARM5__             #define, value: 5, line:         0  

__BUILD_NUMBER__     #define,            line:         0  

__CORE__             #define, value: __ARM5E__, line:         0  

__DATE__             #define,            line:         0  

__FILE__             #define,            line:         0  

__IAR_SYSTEMS_ASM    #define,            line:         0  

__IAR_SYSTEMS_ASM__  #define,            line:         0  

__LINE__             #define,            line:         0  

__LITTLE_ENDIAN__    #define, value: 1, line:         0  

__SUBVERSION__       #define,            line:         0  

__TID__              #define,            line:         0  

__TIME__             #define,            line:         0  

__VER__              #define,            line:         0  

define               PREPROCESSOR DIRECTIVE 

defined              Target symbol: 0 

elif                 PREPROCESSOR DIRECTIVE 

else                 PREPROCESSOR DIRECTIVE 

end                  #define, value: 8, line:      10:2       52:2     54:2

endif                PREPROCESSOR DIRECTIVE 

error                PREPROCESSOR DIRECTIVE 

fractpos             #define, value: 20, line:      14:2       42:2    100:2

freq                 #define, value: 16, line:      11:2       43:2

if                   PREPROCESSOR DIRECTIVE 

ifdef                PREPROCESSOR DIRECTIVE 

ifndef               PREPROCESSOR DIRECTIVE 

include              PREPROCESSOR DIRECTIVE 

line                 PREPROCESSOR DIRECTIVE 

message              PREPROCESSOR DIRECTIVE 

pos                  #define, value: 0, line:       8:2       29:2    101:2

pragma               PREPROCESSOR DIRECTIVE 

r0                   Target symbol: 0 

r1                   Target symbol: 0 

r10                  Target symbol: 0 

r11                  Target symbol: 0 

r12                  Target symbol: 0 

r14                  Target symbol: 0 

r2                   Target symbol: 0 

r3                   Target symbol: 0 

r4                   Target symbol: 0 

r5                   Target symbol: 0 

r6                   Target symbol: 0 

r7                   Target symbol: 0 

r8                   Target symbol: 0 

r9                   Target symbol: 0 

repeat               #define, value: 4, line:       9:2       94:2

undef                PREPROCESSOR DIRECTIVE 

voicemode            #define, value: 36, line:      13:2       89:2

vol                  #define, value: 24, line:      12:2       32:2

{                    DELIMITER 

|                    OPERATOR 

||                   OPERATOR 

}                    DELIMITER 

~                    OPERATOR 



Segment             Type 	Mode

----------------------------------------

CODE                CODE  	REL 

ELFBEGIN            DATA  	REL 

__EXTERNS           CODE  	ABS Org:0 



Label               Mode   Type                   Segment    Value/Offset

------------------------------------------------------------------------------

??DUMMY_SYMBOL_IN_BACKEND_PARSED_OPERANDS
                    ABS    CONST UNTYP.           ASEG       1267 

??div32_a           ABS    CONST EXT [unref] UNTYP. __EXTERNS  Solved Extern 

CV1_Loop_Start      REL    CONST UNTYP.           CODE       9C8 

CV2_Loop_Start      REL    CONST UNTYP.           CODE       A88 

ELF_BEGIN           REL    CONST PUB UNTYP.       ELFBEGIN   0 

LastVals            ABS    CONST EXT [unref] UNTYP. __EXTERNS  Solved Extern 

Loop1               REL    CONST UNTYP.           CODE       8FC 

LoopPM              REL    CONST UNTYP.           CODE       728 

LoopPS              REL    CONST UNTYP.           CODE       2BC 

MULSHIFT32          REL    CONST PUB UNTYP.       CODE       8B8 

NotEndSample1       REL    CONST UNTYP.           CODE       944 

Quit                REL    CONST UNTYP.           CODE       8DC 

QuitLoop1           REL    CONST UNTYP.           CODE       920 

SRC_Loop_Start      REL    CONST UNTYP.           CODE       CAC 

SRC_Loop_Startfak   REL    CONST UNTYP.           CODE       BB4 

TID                 ABS    CONST UNTYP.           ASEG       4F00 

VolOk               REL    CONST UNTYP.           CODE       8E4 

_?0                 REL    CONST UNTYP.           CODE       DAC 

asm_ExecuteChannel  REL    CONST PUB UNTYP.       CODE       8C0 

inline              REL    CONST UNTYP.           CODE       Not solved 

kill_data           REL    CONST PUB UNTYP.       CODE       DA8 

raac_CVKernel1      REL    CONST PUB UNTYP.       CODE       974 

raac_CVKernel2      REL    CONST PUB UNTYP.       CODE       A60 

raac_QMFAnalysisConvREL    CONST PUB UNTYP.       CODE       AC4 

raac_QMFSynthesisConvREL    CONST PUB UNTYP.       CODE       C94 

samplerate          ABS    CONST EXT [000] UNTYP. __EXTERNS  Solved Extern 

xmp3_PolyphaseMono  REL    CONST PUB UNTYP.       CODE       56C 

xmp3_PolyphaseStereoREL    CONST PUB UNTYP.       CODE       0 





##############################
#          CRC:9991          #
#        Errors:   0         #
#        Warnings: 5         #
#        Bytes: 3504         #
##############################



