##############################################################################
#                                                                            #
# IAR ARM ANSI C/C++ Compiler V4.42A/W32 EVALUATION    02/Dec/2011  21:56:50 #
# Copyright 1999-2005 IAR Systems. All rights reserved.                      #
#                                                                            #
#    Cpu mode        =  interwork                                            #
#    Endian          =  little                                               #
#    Stack alignment =  4                                                    #
#    Source file     =  D:\SVN\SieELF\SieELF\Macro\main.c                    #
#    Command line    =  D:\SVN\SieELF\SieELF\Macro\main.c -D NEWSGOLD -D     #
#                       ELKA -lC D:\SVN\SieELF\SieELF\Macro\Elka\List\ -la   #
#                       D:\SVN\SieELF\SieELF\Macro\Elka\List\ -o             #
#                       D:\SVN\SieELF\SieELF\Macro\Elka\Obj\ -s9             #
#                       --no_unroll --cpu_mode arm --endian little --cpu     #
#                       ARM7TDMI --stack_align 4 --interwork -e --fpu None   #
#                       -I "D:\Program Files\IAR\Embedded Workbench 4.0      #
#                       Evaluation\ARM\INC\" --inline_threshold=2            #
#    List file       =  D:\SVN\SieELF\SieELF\Macro\Elka\List\main.lst        #
#    Object file     =  D:\SVN\SieELF\SieELF\Macro\Elka\Obj\main.r79         #
#                                                                            #
#                                                                            #
##############################################################################

D:\SVN\SieELF\SieELF\Macro\main.c
      1          #include "..\inc\swilib.h"
      2          #include "conf_loader.h"
      3          
      4          #define MMI_CEPID 0x4209
      5          #define TMR_SECOND 216
      6          
      7          #define t(a) ((a)*TMR_SECOND/1000)
      8          
      9          extern int delay_keybreak;
     10          extern int watch_delay;
     11          extern int pre_delay;
     12          extern int paint_delay;
     13          extern int delay_longpause;
     14          extern int delay_smallpause;
     15          extern int delay_wait_1;
     16          extern int delay_wait_2;
     17          extern int delay_wait_3;
     18          extern int show;
     19          
     20          extern char ShowNativeMenu_[9];
     21          extern int wait_threshold;
     22          
     23          void (*ShowNativeMenu)();
     24          GBSTMR step_timer;
     25          GBSTMR watch_timer;
     26          GBSTMR paint_timer;
     27          WSHDR * ws1;
     28          volatile int brk;
     29          int wc;
     30          char ebu[128];
     31          
     32          typedef enum
     33          {
     34            ST_NORM,
     35            ST_ERROR,
     36            ST_END,
     37            ST_LONG_1,
     38            ST_LONG_2,
     39            ST_WAIT,
     40          } TState;
     41          
     42          char * mac=0;
     43          char * po;
     44          TState s;
     45          short lpc;
     46          
     47          

   \                                 In segment DATA_C, align 4, align-sorted
     48          static const unsigned short qq[8];
   \                     qq:
   \   00000000   000000000000       DC8 0, 0, 0, 0, 0, 0, 0, 0, 0, 0, 0, 0, 0, 0, 0, 0
   \              000000000000
   \              00000000    
     49          static WSHDR q={(unsigned short*)&qq,0,0,0,8};
     50          

   \                                 In segment DATA_C, align 4, align-sorted
     51          static const unsigned short qqw[16];
   \                     qqw:
   \   00000000   000000000000       DC8 0, 0, 0, 0, 0, 0, 0, 0, 0, 0, 0, 0, 0, 0, 0, 0
   \              000000000000
   \              00000000    
   \   00000010   000000000000       DC8 0, 0, 0, 0, 0, 0, 0, 0, 0, 0, 0, 0, 0, 0, 0, 0
   \              000000000000
   \              00000000    
     52          static WSHDR qw={(unsigned short*)&qqw,0,0,0,16};
     53          
     54          //------------------------------------------------
     55          inline void KeyDown(int key)
     56          {
     57          GBS_SendMessage(MMI_CEPID,KEY_DOWN,key);
     58          };
     59          inline void KeyUp(int key)
     60          {
     61          GBS_SendMessage(MMI_CEPID,KEY_UP,key);
     62          };
     63          inline void LongPress(int key)
     64          {
     65          GBS_SendMessage(MMI_CEPID,LONG_PRESS,key);
     66          };
     67          //------------------------------------------------
     68          unsigned int RandSeed;

   \                                 In segment CODE, align 4, keep-with-next
     69          unsigned int GetRand(unsigned char MaxRND)
     70          {
   \                     GetRand:
   \   00000000   00402DE9           PUSH     {LR}
   \   00000004   0010A0E1           MOV      R1,R0
     71          RandSeed = (33 * (RandSeed) + 0x38) & 0xFFFFFF;
   \   00000008   ........           LDR      R0,??DataTable24  ;; lpc
   \   0000000C   1C2090E5           LDR      R2,[R0, #+28]
   \   00000010   822282E0           ADD      R2,R2,R2, LSL #+5
   \   00000014   382082E2           ADD      R2,R2,#+56
   \   00000018   0224A0E1           LSL      R2,R2,#+8
   \   0000001C   2224A0E1           LSR      R2,R2,#+8
   \   00000020   1C2080E5           STR      R2,[R0, #+28]
     72          return ((RandSeed * ( (int)MaxRND + 1 ) >> 0x18))%MaxRND;
   \   00000024   010081E2           ADD      R0,R1,#+1
   \   00000028   900202E0           MUL      R2,R0,R2
   \   0000002C   220CA0E1           LSR      R0,R2,#+24
   \   00000030   ........           _BLF     ??divu32_a,??rA??divu32_a
   \   00000034   0040BDE8           POP      {LR}
   \   00000038   1EFF2FE1           BX       LR               ;; return
     73          }
     74          
     75          extern void kill_data(void *p, void (*func_p)(void *));

   \                                 In segment CODE, align 4, keep-with-next
     76          void ELF_KILLER(void)
     77          {  
   \                     ELF_KILLER:
   \   00000000   00402DE9           PUSH     {LR}
     78            extern void *ELF_BEGIN;
     79            kill_data(&ELF_BEGIN,(void (*)(void *))mfree_adr());
   \   00000004   158000EF           SWI      +32789
   \   00000008   0010A0E1           MOV      R1,R0
   \   0000000C   08009FE5           LDR      R0,??ELF_KILLER_0  ;; ELF_BEGIN
   \   00000010   ........           _BLF     kill_data,??kill_data??rA
     80          }
   \   00000014   0040BDE8           POP      {LR}
   \   00000018   1EFF2FE1           BX       LR               ;; return
   \                     ??ELF_KILLER_0:
   \   0000001C   ........           DC32     ELF_BEGIN

   \                                 In segment CODE, align 4, keep-with-next
     81          void Suicide()
     82          {
   \                     Suicide:
   \   00000000   10402DE9           PUSH     {R4,LR}
     83             if(mac)mfree(mac);
   \   00000004   ........           LDR      R4,??DataTable24  ;; lpc
   \   00000008   140094E5           LDR      R0,[R4, #+20]
   \   0000000C   000050E3           CMP      R0,#+0
   \   00000010   0000000A           BEQ      ??Suicide_0
   \   00000014   150000EF           SWI      +21
     84             FreeWS(ws1);
   \                     ??Suicide_0:
   \   00000018   080094E5           LDR      R0,[R4, #+8]
   \   0000001C   290100EF           SWI      +297
     85             SUBPROC((void *)ELF_KILLER);
   \   00000020   08009FE5           LDR      R0,??Suicide_1   ;; ELF_KILLER
   \   00000024   710100EF           SWI      +369
     86          };
   \   00000028   1040BDE8           POP      {R4,LR}
   \   0000002C   1EFF2FE1           BX       LR               ;; return
   \                     ??Suicide_1:
   \   00000030   ........           DC32     ELF_KILLER
     87          

   \                                 In segment CODE, align 4, keep-with-next
     88          int _hc(char c)
     89          {
     90            if(c>='0'&&c<='9')
   \                     _hc:
   \   00000000   300050E3           CMP      R0,#+48
   \   00000004   0200003A           BCC      ??_hc_0
   \   00000008   3A0050E3           CMP      R0,#+58
     91             return c-'0';
   \   0000000C   30004032           SUBCC    R0,R0,#+48
   \   00000010   1EFF2F31           BXCC     LR
     92            else if(c>='A'&&c<='F')
   \                     ??_hc_0:
   \   00000014   410050E3           CMP      R0,#+65
   \   00000018   0200003A           BCC      ??_hc_1
   \   0000001C   470050E3           CMP      R0,#+71
     93             return c-'A'+0xA;
   \   00000020   37004032           SUBCC    R0,R0,#+55
   \   00000024   1EFF2F31           BXCC     LR
     94            if(c>='a'&&c<='f')
   \                     ??_hc_1:
   \   00000028   610050E3           CMP      R0,#+97
   \   0000002C   0200003A           BCC      ??_hc_2
   \   00000030   670050E3           CMP      R0,#+103
     95             return c-'a'+0xA;
   \   00000034   57004032           SUBCC    R0,R0,#+87
   \   00000038   1EFF2F31           BXCC     LR
     96            return 0;
   \                     ??_hc_2:
   \   0000003C   0000A0E3           MOV      R0,#+0
   \   00000040   1EFF2FE1           BX       LR               ;; return
     97          };
     98          

   \                                 In segment CODE, align 4, keep-with-next
     99          unsigned int Hex2Int(char *s)
    100          {
   \                     Hex2Int:
   \   00000000   70402DE9           PUSH     {R4-R6,LR}
   \   00000004   0040B0E1           MOVS     R4,R0
    101          if(s==0) return 0;
   \   00000008   0000A003           MOVEQ    R0,#+0
   \   0000000C   0C00000A           BEQ      ??Hex2Int_0
    102          unsigned int a=0;
   \   00000010   0050A0E3           MOV      R5,#+0
    103          int i=0;
   \   00000014   0060A0E3           MOV      R6,#+0
   \   00000018   0000D4E5           LDRB     R0,[R4, #+0]
   \   0000001C   000050E3           CMP      R0,#+0
   \   00000020   0300001A           BNE      ??Hex2Int_1
   \   00000024   050000EA           B        ??Hex2Int_2
    104          while(s[i]!=0)
    105            {
    106            a=(a<<4)+_hc(s[i++]);
   \                     ??Hex2Int_3:
   \   00000028   ........           BL       _hc
   \   0000002C   016086E2           ADD      R6,R6,#+1
   \   00000030   055280E0           ADD      R5,R0,R5, LSL #+4
    107            };
   \                     ??Hex2Int_1:
   \   00000034   0400D6E7           LDRB     R0,[R6, +R4]
   \   00000038   000050E3           CMP      R0,#+0
   \   0000003C   F9FFFF1A           BNE      ??Hex2Int_3
    108          return a;
   \                     ??Hex2Int_2:
   \   00000040   0500A0E1           MOV      R0,R5
   \                     ??Hex2Int_0:
   \   00000044   7040BDE8           POP      {R4-R6,LR}
   \   00000048   1EFF2FE1           BX       LR               ;; return
    109          };
    110          
    111          

   \                                 In segment CODE, align 4, keep-with-next
    112          unsigned int Str2Int(char *s)
    113          {
    114          if(s==0) return 0;
   \                     Str2Int:
   \   00000000   000050E3           CMP      R0,#+0
   \   00000004   1EFF2F01           BXEQ     LR
    115          unsigned int a=0;
   \   00000008   0010A0E3           MOV      R1,#+0
    116          int i=0;
   \   0000000C   0020A0E3           MOV      R2,#+0
   \   00000010   040000EA           B        ??Str2Int_0
    117          while((s[i]>='0')&&(s[i]<='9'))
    118            {
    119            a=(a*10)+(s[i++]-'0');
   \                     ??Str2Int_1:
   \   00000014   0A30A0E3           MOV      R3,#+10
   \   00000018   00C0D2E7           LDRB     R12,[R2, +R0]
   \   0000001C   30C04CE2           SUB      R12,R12,#+48
   \   00000020   93C121E0           MLA      R1,R3,R1,R12
   \   00000024   012082E2           ADD      R2,R2,#+1
    120            };
   \                     ??Str2Int_0:
   \   00000028   0030D2E7           LDRB     R3,[R2, +R0]
   \   0000002C   300053E3           CMP      R3,#+48
   \   00000030   0100003A           BCC      ??Str2Int_2
   \   00000034   3A0053E3           CMP      R3,#+58
   \   00000038   F5FFFF3A           BCC      ??Str2Int_1
    121          return a;
   \                     ??Str2Int_2:
   \   0000003C   0100A0E1           MOV      R0,R1
   \   00000040   1EFF2FE1           BX       LR               ;; return
    122          };
    123          

   \                                 In segment CODE, align 4, keep-with-next
    124          char * ReadFile(const char * path)
    125          {
   \                     ReadFile:
   \   00000000   70402DE9           PUSH     {R4-R6,LR}
   \   00000004   08D04DE2           SUB      SP,SP,#+8
    126          char *mem;
    127          unsigned int i, err;
    128          int handle;
    129          int len,sz;
    130          // Работа с файлами стандартна:
    131          handle=fopen(path,A_ReadOnly+A_BIN,P_READ,&err);
   \   00000008   0D30A0E1           MOV      R3,SP
   \   0000000C   8020A0E3           MOV      R2,#+128
   \   00000010   801CA0E3           MOV      R1,#+32768
   \   00000014   0A0000EF           SWI      +10
   \   00000018   0040A0E1           MOV      R4,R0
    132          if(handle==-1) return 0;
   \   0000001C   010074E3           CMN      R4,#+1
   \   00000020   2700000A           BEQ      ??ReadFile_0
    133          
    134          len=lseek(handle,8*1024*1024,0,&err,&i);// ->size of file if fails
   \   00000024   04008DE2           ADD      R0,SP,#+4
   \   00000028   01002DE9           PUSH     {R0}
   \   0000002C   04308DE2           ADD      R3,SP,#+4
   \   00000030   0020A0E3           MOV      R2,#+0
   \   00000034   8018A0E3           MOV      R1,#+8388608
   \   00000038   0400A0E1           MOV      R0,R4
   \   0000003C   0F0000EF           SWI      +15
   \   00000040   0050A0E1           MOV      R5,R0
    135          lseek(handle,0,0,&err,&i);
   \   00000044   08008DE2           ADD      R0,SP,#+8
   \   00000048   01002DE9           PUSH     {R0}
   \   0000004C   08308DE2           ADD      R3,SP,#+8
   \   00000050   0020A0E3           MOV      R2,#+0
   \   00000054   0010A0E3           MOV      R1,#+0
   \   00000058   0400A0E1           MOV      R0,R4
   \   0000005C   0F0000EF           SWI      +15
    136          mem=(char*)malloc(len+1);
   \   00000060   010085E2           ADD      R0,R5,#+1
   \   00000064   140000EF           SWI      +20
   \   00000068   0060B0E1           MOVS     R6,R0
    137          if(mem!=0){
   \   0000006C   08D08DE2           ADD      SP,SP,#+8        ;; stack cleaning
   \   00000070   1000000A           BEQ      ??ReadFile_1
    138            sz=fread(handle,mem,len,&err);
   \   00000074   0D30A0E1           MOV      R3,SP
   \   00000078   0520A0E1           MOV      R2,R5
   \   0000007C   0610A0E1           MOV      R1,R6
   \   00000080   0400A0E1           MOV      R0,R4
   \   00000084   0B0000EF           SWI      +11
    139            mem[len]=0;//for treating bu as string
   \   00000088   0010A0E3           MOV      R1,#+0
   \   0000008C   0610C5E7           STRB     R1,[R5, +R6]
    140            if(sz!=len){
   \   00000090   050050E1           CMP      R0,R5
   \   00000094   0200000A           BEQ      ??ReadFile_2
    141              mfree(mem);
   \   00000098   0600A0E1           MOV      R0,R6
   \   0000009C   150000EF           SWI      +21
    142              return 0;
   \   000000A0   070000EA           B        ??ReadFile_0
    143              };
    144            fclose(handle,&err);
   \                     ??ReadFile_2:
   \   000000A4   0D10A0E1           MOV      R1,SP
   \   000000A8   0400A0E1           MOV      R0,R4
   \   000000AC   0D0000EF           SWI      +13
    145            //if(size!=0) *size=sz;
    146            return mem;
   \   000000B0   0600A0E1           MOV      R0,R6
   \   000000B4   030000EA           B        ??ReadFile_3
    147            }
    148          else{
    149           fclose(handle,&err);
   \                     ??ReadFile_1:
   \   000000B8   0D10A0E1           MOV      R1,SP
   \   000000BC   0400A0E1           MOV      R0,R4
   \   000000C0   0D0000EF           SWI      +13
    150           return 0;
   \                     ??ReadFile_0:
   \   000000C4   0000A0E3           MOV      R0,#+0
   \                     ??ReadFile_3:
   \   000000C8   7640BDE8           POP      {R1,R2,R4-R6,LR}
   \   000000CC   1EFF2FE1           BX       LR               ;; return
    151          };
    152          };
    153          

   \                                 In segment CODE, align 4, keep-with-next
    154          char * clonestr(const char *a)
    155          {
   \                     clonestr:
   \   00000000   30402DE9           PUSH     {R4,R5,LR}
   \   00000004   0040A0E1           MOV      R4,R0
    156           char *b=(char*)malloc(strlen(a)+1);
   \   00000008   1B0000EF           SWI      +27
   \   0000000C   010080E2           ADD      R0,R0,#+1
   \   00000010   140000EF           SWI      +20
   \   00000014   0050A0E1           MOV      R5,R0
    157           strcpy(b,a);
   \   00000018   0410A0E1           MOV      R1,R4
   \   0000001C   1A0000EF           SWI      +26
    158           return b;
   \   00000020   0500A0E1           MOV      R0,R5
   \   00000024   3040BDE8           POP      {R4,R5,LR}
   \   00000028   1EFF2FE1           BX       LR               ;; return
    159          };
    160          //------------------------------------------------
    161          

   \                                 In segment CODE, align 4, keep-with-next
    162          char * xs(char * c)
    163          {
   \                     xs:
   \   00000000   10402DE9           PUSH     {R4,LR}
    164            static char bu[16];
    165            if(c==0) return "<EOF>";
   \   00000004   48109FE5           LDR      R1,??xs_0        ;; `?<Constant "<EOF>">`
   \   00000008   000050E3           CMP      R0,#+0
   \   0000000C   0100A001           MOVEQ    R0,R1
   \   00000010   0D00000A           BEQ      ??xs_1
    166            if(*c<32) sprintf(bu,"0x%x",*c);
   \   00000014   0000D0E5           LDRB     R0,[R0, #+0]
   \   00000018   0020A0E1           MOV      R2,R0
   \   0000001C   34409FE5           LDR      R4,??xs_0+0x4    ;; ??bu
   \   00000020   200050E3           CMP      R0,#+32
   \   00000024   0300002A           BCS      ??xs_2
   \   00000028   081081E2           ADD      R1,R1,#+8
   \   0000002C   0400A0E1           MOV      R0,R4
   \   00000030   160000EF           SWI      +22
   \   00000034   030000EA           B        ??xs_3
    167            else sprintf(bu,"'%c'/0x%x",*c,*c);
   \                     ??xs_2:
   \   00000038   0230A0E1           MOV      R3,R2
   \   0000003C   101081E2           ADD      R1,R1,#+16
   \   00000040   0400A0E1           MOV      R0,R4
   \   00000044   160000EF           SWI      +22
    168            return bu;
   \                     ??xs_3:
   \   00000048   0400A0E1           MOV      R0,R4
   \                     ??xs_1:
   \   0000004C   1040BDE8           POP      {R4,LR}
   \   00000050   1EFF2FE1           BX       LR               ;; return
   \                     ??xs_0:
   \   00000054   ........           DC32     `?<Constant "<EOF>">`
   \   00000058   ........           DC32     ??bu
    169            };

   \                                 In segment DATA_Z, align 4, align-sorted
   \                     ??bu:
   \   00000000                      DS8 16
    170          

   \                                 In segment CODE, align 4, keep-with-next
    171          inline short keytab(char c)
    172          {
   \                     keytab:
   \   00000000   00402DE9           PUSH     {LR}
    173            if(c>='0'&&c<='9') return c;
   \   00000004   300050E3           CMP      R0,#+48
   \   00000008   0200003A           BCC      ??keytab_0
   \   0000000C   3A0050E3           CMP      R0,#+58
   \   00000010   0800002A           BCS      ??keytab_1
   \   00000014   050000EA           B        ??keytab_2
    174            if(c=='*'||c=='#') return c;
   \                     ??keytab_0:
   \   00000018   2A0050E3           CMP      R0,#+42
   \   0000001C   23005013           CMPNE    R0,#+35
   \   00000020   0200000A           BEQ      ??keytab_2
    175          
    176            if(c=='@') return GREEN_BUTTON;
    177            if(c=='!') return RED_BUTTON;
   \   00000024   210050E3           CMP      R0,#+33
   \   00000028   0600001A           BNE      ??keytab_3
   \   0000002C   0C00A0E3           MOV      R0,#+12
   \                     ??keytab_2:
   \   00000030   0040BDE8           POP      {LR}
   \   00000034   1EFF2FE1           BX       LR
   \                     ??keytab_1:
   \   00000038   400050E3           CMP      R0,#+64
   \   0000003C   0500001A           BNE      ??keytab_4
   \   00000040   0B00A0E3           MOV      R0,#+11
   \   00000044   F9FFFFEA           B        ??keytab_2
    178          
    179            if(c=='+') return ENTER_BUTTON;
   \                     ??keytab_3:
   \   00000048   2B0050E3           CMP      R0,#+43
   \   0000004C   0B00001A           BNE      ??keytab_5
   \   00000050   1A00A0E3           MOV      R0,#+26
   \   00000054   F5FFFFEA           B        ??keytab_2
    180            if(c=='L') return LEFT_SOFT;
   \                     ??keytab_4:
   \   00000058   4C0050E3           CMP      R0,#+76
   \   0000005C   0100A003           MOVEQ    R0,#+1
   \   00000060   F2FFFF0A           BEQ      ??keytab_2
    181            if(c=='R') return RIGHT_SOFT;
   \   00000064   520050E3           CMP      R0,#+82
   \   00000068   0400A003           MOVEQ    R0,#+4
   \   0000006C   EFFFFF0A           BEQ      ??keytab_2
    182          
    183          #ifdef ELKA
    184          if(c=='J') return POC_BUTTON;
   \   00000070   4A0050E3           CMP      R0,#+74
   \   00000074   0F00001A           BNE      ??keytab_6
   \   00000078   1500A0E3           MOV      R0,#+21
   \   0000007C   EBFFFFEA           B        ??keytab_2
    185          #else
    186          if(c=='J') return INTERNET_BUTTON;
    187          #endif
    188            if(c=='%') return '0'+GetRand(10);
   \                     ??keytab_5:
   \   00000080   250050E3           CMP      R0,#+37
   \   00000084   0500001A           BNE      ??keytab_7
   \   00000088   0A00A0E3           MOV      R0,#+10
   \   0000008C   ........           BL       GetRand
   \   00000090   300080E2           ADD      R0,R0,#+48
   \                     ??keytab_8:
   \   00000094   0008A0E1           MOV      R0,R0, LSL #+16
   \   00000098   4008A0E1           MOV      R0,R0, ASR #+16
   \   0000009C   E3FFFFEA           B        ??keytab_2
    189            if(c=='$') return '2'+GetRand(8);
   \                     ??keytab_7:
   \   000000A0   240050E3           CMP      R0,#+36
   \   000000A4   1900001A           BNE      ??keytab_9
   \   000000A8   0800A0E3           MOV      R0,#+8
   \   000000AC   ........           BL       GetRand
   \   000000B0   320080E2           ADD      R0,R0,#+50
   \   000000B4   F6FFFFEA           B        ??keytab_8
    190          
    191            if(c=='<'||c=='l') return LEFT_BUTTON;
   \                     ??keytab_6:
   \   000000B8   3C0050E3           CMP      R0,#+60
   \   000000BC   6C005013           CMPNE    R0,#+108
   \   000000C0   3D00A003           MOVEQ    R0,#+61
    192            if(c=='>'||c=='r') return RIGHT_BUTTON;
   \   000000C4   3E005013           CMPNE    R0,#+62
   \   000000C8   D8FFFF0A           BEQ      ??keytab_2
   \   000000CC   720050E3           CMP      R0,#+114
   \   000000D0   3E00A003           MOVEQ    R0,#+62
   \   000000D4   D5FFFF0A           BEQ      ??keytab_2
    193            if(c=='^'||c=='u') return UP_BUTTON;
   \   000000D8   5E0050E3           CMP      R0,#+94
   \   000000DC   75005013           CMPNE    R0,#+117
   \   000000E0   3B00A003           MOVEQ    R0,#+59
   \   000000E4   D1FFFF0A           BEQ      ??keytab_2
    194            if(c=='V'||c=='d') return DOWN_BUTTON;
   \   000000E8   560050E3           CMP      R0,#+86
   \   000000EC   64005013           CMPNE    R0,#+100
   \   000000F0   3C00A003           MOVEQ    R0,#+60
   \   000000F4   CDFFFF0A           BEQ      ??keytab_2
    195          
    196            if(c=='[') return VOL_UP_BUTTON;
   \   000000F8   5B0050E3           CMP      R0,#+91
   \   000000FC   0D00A003           MOVEQ    R0,#+13
   \   00000100   CAFFFF0A           BEQ      ??keytab_2
    197            if(c==']') return VOL_DOWN_BUTTON;
   \   00000104   5D0050E3           CMP      R0,#+93
   \   00000108   0E00A003           MOVEQ    R0,#+14
   \   0000010C   C7FFFF0A           BEQ      ??keytab_2
    198          
    199            return -1;
   \                     ??keytab_9:
   \   00000110   0000E0E3           MVN      R0,#+0
   \                     ??keytab_10:
   \   00000114   C5FFFFEA           B        ??keytab_2
    200          };
    201          
    202          
    203          
    204          
    205          

   \                                 In segment CODE, align 4, keep-with-next
    206          void Step()
    207          {
   \                     Step:
   \   00000000   F04F2DE9           PUSH     {R4-R11,LR}
   \   00000004   40DF4DE2           SUB      SP,SP,#+256
   \   00000008   0170A0E3           MOV      R7,#+1
   \   0000000C   0210A0E3           MOV      R1,#+2
   \   00000010   D8449FE5           LDR      R4,??Step_2+0x4  ;; lpc
   \   00000014   0C0094E5           LDR      R0,[R4, #+12]
   \   00000018   000050E3           CMP      R0,#+0
    208            //interrupted
    209            if(brk) s=ST_END;
   \   0000001C   2010C415           STRBNE   R1,[R4, #+32]
   \   00000020   1101001A           BNE      ??Step_3
   \   00000024   F020D4E1           LDRSH    R2,[R4, #+0]
   \   00000028   C4649FE5           LDR      R6,??Step_2+0x8  ;; `?<Constant "Unexpected <EOF>">`
   \   0000002C   0980A0E3           MOV      R8,#+9
   \   00000030   428C88E3           ORR      R8,R8,#0x4200
   \   00000034   0090A0E3           MOV      R9,#+0
   \   00000038   2000D4E5           LDRB     R0,[R4, #+32]
   \   0000003C   050050E3           CMP      R0,#+5
   \   00000040   1E01008A           BHI      ??Step_4
   \   00000044   023F8FE2           ADR      R3,??Step_0
   \   00000048   8000A0E1           MOV      R0,R0, LSL #+1
   \   0000004C   B03093E1           LDRH     R3,[R3, R0]
   \   00000050   03F18FE0           ADD      PC,PC,R3, LSL #+2
   \                     ??Step_0:
   \   00000054   020002010501       DC16     +2,+258,+261,+225
   \              E100        
   \   0000005C   FD00E900           DC16     +253,+233
    210            
    211            int delay;
    212            switch(s)
    213            {
    214            //------------------------------------  
    215            case ST_NORM:
    216              {
    217              delay=delay_keybreak;  
   \                     ??Step_5:
   \   00000060   ........           LDR      R0,??DataTable25  ;; delay_keybreak
   \   00000064   005090E5           LDR      R5,[R0, #+0]
   \   00000068   010000EA           B        ??Step_6
    218              while(*po==10||*po==13||*po==';') po++;
   \                     ??Step_7:
   \   0000006C   01008BE2           ADD      R0,R11,#+1
   \   00000070   180084E5           STR      R0,[R4, #+24]
   \                     ??Step_6:
   \   00000074   18B094E5           LDR      R11,[R4, #+24]
   \   00000078   0000DBE5           LDRB     R0,[R11, #+0]
   \   0000007C   0A0050E3           CMP      R0,#+10
   \   00000080   0D005013           CMPNE    R0,#+13
   \   00000084   3B005013           CMPNE    R0,#+59
   \   00000088   F7FFFF0A           BEQ      ??Step_7
    219              switch(*po)
   \   0000008C   93A0A0E3           MOV      R10,#+147
   \   00000090   40AF8AE3           ORR      R10,R10,#0x100
   \   00000094   0020A0E1           MOV      R2,R0
   \   00000098   7E0052E3           CMP      R2,#+126
   \   0000009C   BB00008A           BHI      ??Step_8
   \   000000A0   013F8FE2           ADR      R3,??Step_1
   \   000000A4   0230D3E7           LDRB     R3,[R3, R2]
   \   000000A8   03F18FE0           ADD      PC,PC,R3, LSL #+2
   \                     ??Step_1:
   \   000000AC   B5B8B8B8           DC8      +181,+184,+184,+184
   \   000000B0   B8B8B8B8           DC8      +184,+184,+184,+184
   \   000000B4   B8B8B8B8           DC8      +184,+184,+184,+184
   \   000000B8   B8B8B8B8           DC8      +184,+184,+184,+184
   \   000000BC   B8B8B8B8           DC8      +184,+184,+184,+184
   \   000000C0   B8B8B8B8           DC8      +184,+184,+184,+184
   \   000000C4   B8B8B8B8           DC8      +184,+184,+184,+184
   \   000000C8   B8B8B8B8           DC8      +184,+184,+184,+184
   \   000000CC   58B8B8B8           DC8      +88,+184,+184,+184
   \   000000D0   B8B8B8B8           DC8      +184,+184,+184,+184
   \   000000D4   5BB8B8B8           DC8      +91,+184,+184,+184
   \   000000D8   B8B858C7           DC8      +184,+184,+88,+199
   \   000000DC   B8B8B8B8           DC8      +184,+184,+184,+184
   \   000000E0   B8B8B8B8           DC8      +184,+184,+184,+184
   \   000000E4   B8B8B8B8           DC8      +184,+184,+184,+184
   \   000000E8   B8B8B8B8           DC8      +184,+184,+184,+184
   \   000000EC   B8B8B8B8           DC8      +184,+184,+184,+184
   \   000000F0   B8B8B8B8           DC8      +184,+184,+184,+184
   \   000000F4   B8B8B8B8           DC8      +184,+184,+184,+184
   \   000000F8   B8B851B8           DC8      +184,+184,+81,+184
   \   000000FC   76B8B8B8           DC8      +118,+184,+184,+184
   \   00000100   B8B8B8A7           DC8      +184,+184,+184,+167
   \   00000104   B8B8B8B8           DC8      +184,+184,+184,+184
   \   00000108   B8B8B887           DC8      +184,+184,+184,+135
   \   0000010C   1FB8B8B8           DC8      +31,+184,+184,+184
   \   00000110   B8B8B8B8           DC8      +184,+184,+184,+184
   \   00000114   B8B8B8B8           DC8      +184,+184,+184,+184
   \   00000118   B8B8B8B8           DC8      +184,+184,+184,+184
   \   0000011C   B8B8B8B8           DC8      +184,+184,+184,+184
   \   00000120   B8B8B8B8           DC8      +184,+184,+184,+184
   \   00000124   B8B8B8B8           DC8      +184,+184,+184,+184
   \   00000128   78B89100           DC8      +120,+184,+145,+0
    220                {
    221                case '`':
    222                  {
    223                  char * p1=po+1;
   \                     ??Step_9:
   \   0000012C   01108BE2           ADD      R1,R11,#+1
    224                  char * p2=po+1;
   \   00000130   01008BE2           ADD      R0,R11,#+1
   \   00000134   000000EA           B        ??Step_10
    225                  while(*p2&&*p2!='`')p2++;
   \                     ??Step_11:
   \   00000138   010080E2           ADD      R0,R0,#+1
   \                     ??Step_10:
   \   0000013C   0020D0E5           LDRB     R2,[R0, #+0]
   \   00000140   000052E3           CMP      R2,#+0
   \   00000144   60005213           CMPNE    R2,#+96
   \   00000148   FAFFFF1A           BNE      ??Step_11
    226                  if(*p2==0)          {
   \   0000014C   000052E3           CMP      R2,#+0
   \   00000150   0400001A           BNE      ??Step_12
    227                    s=ST_ERROR;
   \   00000154   2070C4E5           STRB     R7,[R4, #+32]
    228                    strcpy(ebu,"Unexpected <EOF>");     
   \   00000158   0610A0E1           MOV      R1,R6
   \                     ??Step_13:
   \   0000015C   540084E2           ADD      R0,R4,#+84
   \   00000160   1A0000EF           SWI      +26
   \   00000164   980000EA           B        ??Step_14
    229                    }
    230                  else{       
    231                  po=p2;  
   \                     ??Step_12:
   \   00000168   180084E5           STR      R0,[R4, #+24]
    232                  char bu[256];
    233                  memcpy(bu,p1,p2-p1);
   \   0000016C   015040E0           SUB      R5,R0,R1
   \   00000170   0520A0E1           MOV      R2,R5
   \   00000174   0D00A0E1           MOV      R0,SP
   \   00000178   1E0100EF           SWI      +286
    234                  bu[p2-p1]=0;
   \   0000017C   0D00A0E1           MOV      R0,SP
   \   00000180   0090C5E7           STRB     R9,[R5, +R0]
    235                  ShowMSG(2,(int)bu);
   \   00000184   0D10A0E1           MOV      R1,SP
   \   00000188   0200A0E3           MOV      R0,#+2
   \   0000018C   480100EF           SWI      +328
    236                  wsprintf(ws1,"%t",bu);
   \   00000190   0D20A0E1           MOV      R2,SP
   \   00000194   D41F8FE2           ADR      R1,??Step_2      ;; "%t"
   \   00000198   080094E5           LDR      R0,[R4, #+8]
   \   0000019C   240100EF           SWI      +292
    237                  ExecuteFile(ws1,0,0);  
   \   000001A0   0020A0E3           MOV      R2,#+0
   \   000001A4   0210A0E1           MOV      R1,R2
   \   000001A8   080094E5           LDR      R0,[R4, #+8]
   \   000001AC   940000EF           SWI      +148
    238                          
    239                  s=ST_WAIT;
   \   000001B0   0500A0E3           MOV      R0,#+5
   \   000001B4   2000C4E5           STRB     R0,[R4, #+32]
    240                  StartCpuUsageCount();
   \   000001B8   9E0100EF           SWI      +414
    241                  delay=delay_wait_1+delay_longpause;
   \   000001BC   ........           LDR      R0,??DataTable35  ;; delay_wait_1
   \   000001C0   000090E5           LDR      R0,[R0, #+0]
   \   000001C4   ........           LDR      R1,??DataTable31  ;; delay_longpause
   \   000001C8   001091E5           LDR      R1,[R1, #+0]
   \   000001CC   005081E0           ADD      R5,R1,R0
    242                  if(show){wsprintf(&qw,"wait `...`");   wc=0;};
   \   000001D0   ........           LDR      R0,??DataTable43  ;; show
   \   000001D4   000090E5           LDR      R0,[R0, #+0]
   \   000001D8   000050E3           CMP      R0,#+0
   \   000001DC   7A00000A           BEQ      ??Step_14
   \   000001E0   141086E2           ADD      R1,R6,#+20
   \                     ??Step_15:
   \   000001E4   E80084E2           ADD      R0,R4,#+232
   \   000001E8   240100EF           SWI      +292
   \   000001EC   109084E5           STR      R9,[R4, #+16]
   \   000001F0   750000EA           B        ??Step_14
    243                  };
    244                  };
    245                  break;
    246                  
    247                case 'N':
    248                  if(ShowNativeMenu==0)
   \                     ??Step_16:
   \   000001F4   040094E5           LDR      R0,[R4, #+4]
   \   000001F8   000050E3           CMP      R0,#+0
    249                    {
    250                    s=ST_ERROR;
   \   000001FC   2070C405           STRBEQ   R7,[R4, #+32]
    251                    strcpy(ebu,"No ShowNativeMenu() address defined ");     
   \   00000200   20108602           ADDEQ    R1,R6,#+32
   \   00000204   D4FFFF0A           BEQ      ??Step_13
    252                    }
    253                 else
    254                    { 
    255                    ShowNativeMenu();
   \   00000208   0FE0A0E1           MOV      LR,PC
   \   0000020C   10FF2FE1           BX       R0
    256                    delay=delay_smallpause;
   \                     ??Step_17:
   \   00000210   ........           LDR      R0,??DataTable33  ;; delay_smallpause
   \                     ??Step_18:
   \   00000214   005090E5           LDR      R5,[R0, #+0]
   \   00000218   6B0000EA           B        ??Step_14
    257                    };
    258                  break;
    259                  
    260                case '(':
    261                  {
    262                  delay=t(Str2Int(po+1));  
   \                     ??Step_19:
   \   0000021C   01008BE2           ADD      R0,R11,#+1
   \   00000220   ........           BL       Str2Int
   \   00000224   D810A0E3           MOV      R1,#+216
   \   00000228   910000E0           MUL      R0,R1,R0
   \   0000022C   ........           LDR      R1,??DataTable40  ;; 0x10624dd3
   \   00000230   912085E0           UMULL    R2,R5,R1,R0
   \   00000234   2553A0E1           LSR      R5,R5,#+6
   \   00000238   010000EA           B        ??Step_20
    263                  do{po++;}while(*po&&*po>='0'&&*po<='9');
   \                     ??Step_21:
   \   0000023C   3A0051E3           CMP      R1,#+58
   \   00000240   0900002A           BCS      ??Step_22
   \                     ??Step_20:
   \   00000244   180094E5           LDR      R0,[R4, #+24]
   \   00000248   010080E2           ADD      R0,R0,#+1
   \   0000024C   180084E5           STR      R0,[R4, #+24]
   \   00000250   0010D0E5           LDRB     R1,[R0, #+0]
   \   00000254   000051E3           CMP      R1,#+0
   \   00000258   0100000A           BEQ      ??Step_23
   \   0000025C   300051E3           CMP      R1,#+48
   \   00000260   F5FFFF2A           BCS      ??Step_21
    264                  if(*po!=')')
   \                     ??Step_23:
   \   00000264   290051E3           CMP      R1,#+41
   \   00000268   5700000A           BEQ      ??Step_14
    265                     {
    266                       s=ST_ERROR;
   \                     ??Step_22:
   \   0000026C   2070C4E5           STRB     R7,[R4, #+32]
    267                       sprintf(ebu,") expected but %s founded",xs(po));
   \   00000270   ........           BL       xs
   \   00000274   0020A0E1           MOV      R2,R0
   \   00000278   481086E2           ADD      R1,R6,#+72
   \                     ??Step_24:
   \   0000027C   540084E2           ADD      R0,R4,#+84
   \   00000280   160000EF           SWI      +22
   \   00000284   500000EA           B        ??Step_14
    268                     };
    269                  };
    270                  break;
    271                  
    272                case ' ':case '.':
    273                  delay=delay_smallpause;
    274                  break;
    275                  
    276                case 'P':
    277                  delay=delay_longpause;
   \                     ??Step_25:
   \   00000288   ........           LDR      R0,??DataTable31  ;; delay_longpause
   \   0000028C   E0FFFFEA           B        ??Step_18
    278                  break;
    279                  
    280                case '/':
    281                  break;        
    282                  
    283                 
    284                case '|':
    285                  {         
    286                  po++;  
   \                     ??Step_26:
   \   00000290   01008BE2           ADD      R0,R11,#+1
   \   00000294   180084E5           STR      R0,[R4, #+24]
    287                  short ch=keytab(*po);              
   \   00000298   0090A0E1           MOV      R9,R0
   \   0000029C   0000D9E5           LDRB     R0,[R9, #+0]
   \   000002A0   ........           _BLF     keytab,??keytab??rA
    288                  if(ch==-1){s=ST_ERROR;sprintf(ebu,"Unk character %s",xs(po));break;};
   \   000002A4   010070E3           CMN      R0,#+1
   \   000002A8   0500001A           BNE      ??Step_27
   \                     ??Step_28:
   \   000002AC   2070C4E5           STRB     R7,[R4, #+32]
   \   000002B0   0900A0E1           MOV      R0,R9
   \                     ??Step_29:
   \   000002B4   ........           BL       xs
   \   000002B8   0020A0E1           MOV      R2,R0
   \   000002BC   641086E2           ADD      R1,R6,#+100
   \   000002C0   EDFFFFEA           B        ??Step_24
    289                  KeyUp(ch);
   \                     ??Step_27:
   \   000002C4   0020A0E1           MOV      R2,R0
   \   000002C8   3C0000EA           B        ??Step_30
    290                  };        
    291                  break;
    292                  
    293                case '_':
    294                  {         
    295                  po++;  
   \                     ??Step_31:
   \   000002CC   01008BE2           ADD      R0,R11,#+1
   \   000002D0   180084E5           STR      R0,[R4, #+24]
    296                  short ch=keytab(*po);              
   \   000002D4   0090A0E1           MOV      R9,R0
   \   000002D8   0000D9E5           LDRB     R0,[R9, #+0]
   \   000002DC   ........           _BLF     keytab,??keytab??rA
    297                  if(ch==-1){s=ST_ERROR;sprintf(ebu,"Unk character %s",xs(po));break;};
   \   000002E0   010070E3           CMN      R0,#+1
   \   000002E4   F0FFFF0A           BEQ      ??Step_28
    298                  KeyDown(ch);
   \                     ??Step_32:
   \   000002E8   0020A0E1           MOV      R2,R0
   \   000002EC   0A10A0E1           MOV      R1,R10
   \   000002F0   330000EA           B        ??Step_33
    299                  };      
    300                  break;
    301                  
    302                case '~':
    303                  {         
    304                  po++;  
   \                     ??Step_34:
   \   000002F4   01008BE2           ADD      R0,R11,#+1
   \   000002F8   180084E5           STR      R0,[R4, #+24]
    305                  lpc=keytab(*po);              
   \   000002FC   0090A0E1           MOV      R9,R0
   \   00000300   0000D9E5           LDRB     R0,[R9, #+0]
   \   00000304   ........           _BLF     keytab,??keytab??rA
   \   00000308   B000C4E1           STRH     R0,[R4, #+0]
    306                  if(lpc==-1){s=ST_ERROR;sprintf(ebu,"Unk character %s",xs(po));break;};
   \   0000030C   0020A0E1           MOV      R2,R0
   \   00000310   000067E2           RSB      R0,R7,#+0
   \   00000314   000052E1           CMP      R2,R0
   \   00000318   0500001A           BNE      ??Step_35
   \   0000031C   2070C4E5           STRB     R7,[R4, #+32]
   \   00000320   0900A0E1           MOV      R0,R9
   \   00000324   ........           BL       xs
   \   00000328   0020A0E1           MOV      R2,R0
   \   0000032C   641086E2           ADD      R1,R6,#+100
   \   00000330   D1FFFFEA           B        ??Step_24
    307                  KeyDown(lpc);        
   \                     ??Step_35:
   \   00000334   0A10A0E1           MOV      R1,R10
   \   00000338   0800A0E1           MOV      R0,R8
   \   0000033C   000100EF           SWI      +256
    308                  s=ST_LONG_1;
   \   00000340   0300A0E3           MOV      R0,#+3
   \   00000344   2000C4E5           STRB     R0,[R4, #+32]
   \   00000348   1F0000EA           B        ??Step_14
    309                  };   
    310                  break;
    311                  
    312                case 'W':
    313                  {
    314                  s=ST_WAIT;
   \                     ??Step_36:
   \   0000034C   0500A0E3           MOV      R0,#+5
   \   00000350   2000C4E5           STRB     R0,[R4, #+32]
    315                  StartCpuUsageCount();
   \   00000354   9E0100EF           SWI      +414
    316                  delay=delay_wait_1+delay_keybreak;
   \   00000358   ........           LDR      R0,??DataTable35  ;; delay_wait_1
   \   0000035C   000090E5           LDR      R0,[R0, #+0]
   \   00000360   ........           LDR      R1,??DataTable25  ;; delay_keybreak
   \   00000364   001091E5           LDR      R1,[R1, #+0]
   \   00000368   005081E0           ADD      R5,R1,R0
    317                  if(show){wsprintf(&qw,"wait W");
   \   0000036C   ........           LDR      R0,??DataTable43  ;; show
   \   00000370   000090E5           LDR      R0,[R0, #+0]
   \   00000374   000050E3           CMP      R0,#+0
   \   00000378   1300000A           BEQ      ??Step_14
   \   0000037C   781086E2           ADD      R1,R6,#+120
   \   00000380   97FFFFEA           B        ??Step_15
    318                  wc=0;};
    319                  };
    320                  break;
    321                  
    322                case 0:
    323                  delay=1;
   \                     ??Step_37:
   \   00000384   0150A0E3           MOV      R5,#+1
    324                  s=ST_END;
   \   00000388   2010C4E5           STRB     R1,[R4, #+32]
   \   0000038C   0E0000EA           B        ??Step_14
    325                  break;
    326                  
    327                default:
    328                  {         
    329                  short ch=keytab(*po);      
   \                     ??Step_8:
   \   00000390   ........           _BLF     keytab,??keytab??rA
   \   00000394   0090A0E1           MOV      R9,R0
    330                  if(ch==-1){s=ST_ERROR;sprintf(ebu,"Unk character %s",xs(po));break;};
   \   00000398   010079E3           CMN      R9,#+1
   \   0000039C   0200001A           BNE      ??Step_38
   \   000003A0   2070C4E5           STRB     R7,[R4, #+32]
   \   000003A4   0B00A0E1           MOV      R0,R11
   \   000003A8   C1FFFFEA           B        ??Step_29
    331                  KeyDown(ch);
   \                     ??Step_38:
   \   000003AC   0920A0E1           MOV      R2,R9
   \   000003B0   0A10A0E1           MOV      R1,R10
   \   000003B4   0800A0E1           MOV      R0,R8
   \   000003B8   000100EF           SWI      +256
    332                  KeyUp(ch);
   \   000003BC   0920A0E1           MOV      R2,R9
   \                     ??Step_30:
   \   000003C0   651FA0E3           MOV      R1,#+404
   \                     ??Step_33:
   \   000003C4   0800A0E1           MOV      R0,R8
   \   000003C8   000100EF           SWI      +256
    333                  };        
    334                };    
    335              po++;
   \                     ??Step_14:
   \   000003CC   180094E5           LDR      R0,[R4, #+24]
   \   000003D0   010080E2           ADD      R0,R0,#+1
   \   000003D4   180084E5           STR      R0,[R4, #+24]
   \   000003D8   3C0000EA           B        ??Step_39
    336              };break;
    337            //------------------------------------      
    338            case ST_LONG_1:
    339              {
    340              LongPress(lpc);
   \                     ??Step_40:
   \   000003DC   651F87E3           ORR      R1,R7,#0x194
   \   000003E0   0800A0E1           MOV      R0,R8
   \   000003E4   000100EF           SWI      +256
    341              s=ST_LONG_2;    
   \   000003E8   0400A0E3           MOV      R0,#+4
   \   000003EC   2000C4E5           STRB     R0,[R4, #+32]
    342              delay=delay_keybreak;
   \                     ??Step_41:
   \   000003F0   ........           LDR      R0,??DataTable25  ;; delay_keybreak
   \                     ??Step_42:
   \   000003F4   005090E5           LDR      R5,[R0, #+0]
   \   000003F8   340000EA           B        ??Step_39
    343              };
    344              break;
    345            //------------------------------------      
    346            case ST_WAIT:
    347              {
    348              if(GetCPULoad()<=wait_threshold)
   \                     ??Step_43:
   \   000003FC   5D0000EF           SWI      +93
   \   00000400   F0109FE5           LDR      R1,??Step_2+0xC  ;; wait_threshold
   \   00000404   001091E5           LDR      R1,[R1, #+0]
   \   00000408   000051E1           CMP      R1,R0
    349                {
    350                s=ST_NORM;
   \   0000040C   2090C4A5           STRBGE   R9,[R4, #+32]
    351                delay=delay_wait_3;
   \   00000410   ........           LDRGE    R0,??DataTable39  ;; delay_wait_3
   \   00000414   F6FFFFAA           BGE      ??Step_42
    352                }
    353              else
    354                {
    355                delay=delay_wait_2;
   \   00000418   ........           LDR      R0,??DataTable37  ;; delay_wait_2
   \   0000041C   005090E5           LDR      R5,[R0, #+0]
    356                if(show)wsprintf(&qw,"wait %d",wc++);
   \   00000420   ........           LDR      R0,??DataTable43  ;; show
   \   00000424   000090E5           LDR      R0,[R0, #+0]
   \   00000428   000050E3           CMP      R0,#+0
   \   0000042C   2700000A           BEQ      ??Step_39
   \   00000430   102094E5           LDR      R2,[R4, #+16]
   \   00000434   010082E2           ADD      R0,R2,#+1
   \   00000438   100084E5           STR      R0,[R4, #+16]
   \   0000043C   801086E2           ADD      R1,R6,#+128
   \   00000440   E80084E2           ADD      R0,R4,#+232
   \   00000444   240100EF           SWI      +292
   \   00000448   200000EA           B        ??Step_39
    357                };
    358              };
    359              break;    
    360            //------------------------------------      
    361            case ST_LONG_2:
    362              {
    363              KeyUp(lpc);        
   \                     ??Step_44:
   \   0000044C   651FA0E3           MOV      R1,#+404
   \   00000450   0800A0E1           MOV      R0,R8
   \   00000454   000100EF           SWI      +256
    364              s=ST_NORM;    
   \   00000458   2090C4E5           STRB     R9,[R4, #+32]
    365              delay=delay_keybreak;
   \   0000045C   E3FFFFEA           B        ??Step_41
    366              };
    367              break;    
    368            //------------------------------------      
    369            //------------------------------------          
    370            case ST_ERROR:
    371              ShowMSG(2,(int)ebu); 
   \                     ??Step_45:
   \   00000460   541084E2           ADD      R1,R4,#+84
   \   00000464   0200A0E3           MOV      R0,#+2
   \   00000468   480100EF           SWI      +328
    372            case ST_END:
    373             LockSched();
   \                     ??Step_3:
   \   0000046C   460100EF           SWI      +326
    374              brk=1;
   \   00000470   0C7084E5           STR      R7,[R4, #+12]
    375              if(IsTimerProc(&watch_timer)) GBS_StopTimer(&watch_timer);
   \   00000474   340084E2           ADD      R0,R4,#+52
   \   00000478   A60100EF           SWI      +422
   \   0000047C   000050E3           CMP      R0,#+0
   \   00000480   0100000A           BEQ      ??Step_46
   \   00000484   340084E2           ADD      R0,R4,#+52
   \   00000488   440100EF           SWI      +324
    376              if(show) if(IsTimerProc(&paint_timer)) GBS_StopTimer(&paint_timer);
   \                     ??Step_46:
   \   0000048C   ........           LDR      R0,??DataTable43  ;; show
   \   00000490   000090E5           LDR      R0,[R0, #+0]
   \   00000494   000050E3           CMP      R0,#+0
   \   00000498   0500000A           BEQ      ??Step_47
   \   0000049C   440084E2           ADD      R0,R4,#+68
   \   000004A0   A60100EF           SWI      +422
   \   000004A4   000050E3           CMP      R0,#+0
   \   000004A8   0100000A           BEQ      ??Step_47
   \   000004AC   440084E2           ADD      R0,R4,#+68
   \   000004B0   440100EF           SWI      +324
    377             UnlockSched();
   \                     ??Step_47:
   \   000004B4   470100EF           SWI      +327
    378              Suicide();
   \   000004B8   ........           BL       Suicide
    379              return;
   \   000004BC   070000EA           B        ??Step_48
    380            //------------------------------------          
    381            default:
    382               strcpy(ebu,"wrong state!");
   \                     ??Step_4:
   \   000004C0   881086E2           ADD      R1,R6,#+136
   \   000004C4   540084E2           ADD      R0,R4,#+84
   \   000004C8   1A0000EF           SWI      +26
    383               s=ST_ERROR;
   \   000004CC   2070C4E5           STRB     R7,[R4, #+32]
    384            };
    385          GBS_StartTimerProc(&step_timer,delay,&Step);
   \                     ??Step_39:
   \   000004D0   ........           LDR      R2,??DataTable42  ;; Step
   \   000004D4   0510A0E1           MOV      R1,R5
   \   000004D8   240084E2           ADD      R0,R4,#+36
   \   000004DC   4D0000EF           SWI      +77
    386          };
   \                     ??Step_48:
   \   000004E0   40DF8DE2           ADD      SP,SP,#+256      ;; stack cleaning
   \   000004E4   F04FBDE8           POP      {R4-R11,LR}
   \   000004E8   1EFF2FE1           BX       LR               ;; return
   \                     ??Step_2:
   \   000004EC   25740000           DC8      "%t",+0
   \   000004F0   ........           DC32     lpc
   \   000004F4   ........           DC32     `?<Constant "Unexpected <EOF>">`
   \   000004F8   ........           DC32     wait_threshold
    387          

   \                                 In segment CODE, align 4, keep-with-next
    388          void Watch()
    389          {
   \                     Watch:
   \   00000000   10402DE9           PUSH     {R4,LR}
    390          if(*RamPressedKey()) brk=1;
   \   00000004   ........           LDR      R4,??DataTable24  ;; lpc
   \   00000008   DF8000EF           SWI      +32991
   \   0000000C   0000D0E5           LDRB     R0,[R0, #+0]
   \   00000010   000050E3           CMP      R0,#+0
   \   00000014   0100A013           MOVNE    R0,#+1
   \   00000018   0C008415           STRNE    R0,[R4, #+12]
    391          else if(!brk)GBS_StartTimerProc(&watch_timer,watch_delay,&Watch);
   \   0000001C   0C009405           LDREQ    R0,[R4, #+12]
   \   00000020   00005003           CMPEQ    R0,#+0
   \   00000024   0400001A           BNE      ??Watch_0
   \   00000028   ........           LDR      R2,??DataTable41  ;; Watch
   \   0000002C   ........           LDR      R0,??DataTable27  ;; watch_delay
   \   00000030   001090E5           LDR      R1,[R0, #+0]
   \   00000034   340084E2           ADD      R0,R4,#+52
   \   00000038   4D0000EF           SWI      +77
    392          };
   \                     ??Watch_0:
   \   0000003C   1040BDE8           POP      {R4,LR}
   \   00000040   1EFF2FE1           BX       LR               ;; return
    393          

   \                                 In segment CODE, align 4, keep-with-next
    394          void Paint()
    395          {
   \                     Paint:
   \   00000000   10402DE9           PUSH     {R4,LR}
    396          static unsigned int Red=0x640000FF;  
    397          static unsigned int Black=0x64000000;  
    398          DrawString(s==ST_WAIT?&qw:&q,0,YDISP,256,256,FONT_SMALL_BOLD,0,(char*)&Black,(char*)&Red);
   \   00000004   ........           LDR      R4,??DataTable24  ;; lpc
   \   00000008   2000D4E5           LDRB     R0,[R4, #+32]
   \   0000000C   050050E3           CMP      R0,#+5
   \   00000010   E8008402           ADDEQ    R0,R4,#+232
   \   00000014   D4008412           ADDNE    R0,R4,#+212
   \   00000018   FC1084E2           ADD      R1,R4,#+252
   \   0000001C   02002DE9           PUSH     {R1}
   \   00000020   401F84E2           ADD      R1,R4,#+256
   \   00000024   02002DE9           PUSH     {R1}
   \   00000028   0010A0E3           MOV      R1,#+0
   \   0000002C   02002DE9           PUSH     {R1}
   \   00000030   0910A0E3           MOV      R1,#+9
   \   00000034   02002DE9           PUSH     {R1}
   \   00000038   401FA0E3           MOV      R1,#+256
   \   0000003C   02002DE9           PUSH     {R1}
   \   00000040   403FA0E3           MOV      R3,#+256
   \   00000044   1820A0E3           MOV      R2,#+24
   \   00000048   0010A0E3           MOV      R1,#+0
   \   0000004C   4C0100EF           SWI      +332
    399          if(!brk)GBS_StartTimerProc(&paint_timer,paint_delay,&Paint);
   \   00000050   0C0094E5           LDR      R0,[R4, #+12]
   \   00000054   000050E3           CMP      R0,#+0
   \   00000058   14D08DE2           ADD      SP,SP,#+20       ;; stack cleaning
   \   0000005C   0400001A           BNE      ??Paint_0
   \   00000060   ........           LDR      R2,??DataTable44  ;; Paint
   \   00000064   ........           LDR      R0,??DataTable29  ;; paint_delay
   \   00000068   001090E5           LDR      R1,[R0, #+0]
   \   0000006C   440084E2           ADD      R0,R4,#+68
   \   00000070   4D0000EF           SWI      +77
    400          };
   \                     ??Paint_0:
   \   00000074   1040BDE8           POP      {R4,LR}
   \   00000078   1EFF2FE1           BX       LR               ;; return

   \                                 In segment DATA_I, align 4, align-sorted
   \                     lpc:
   \   00000000                      DS8 2
   \   00000002                      REQUIRE `?<Initializer for lpc>`
   \   00000002                      DS8 2
   \                     ShowNativeMenu:
   \   00000004                      DS8 4
   \   00000008                      REQUIRE `?<Initializer for ShowNativeMenu>`
   \                     ws1:
   \   00000008                      DS8 4
   \   0000000C                      REQUIRE `?<Initializer for ws1>`
   \                     brk:
   \   0000000C                      DS8 4
   \   00000010                      REQUIRE `?<Initializer for brk>`
   \                     wc:
   \   00000010                      DS8 4
   \   00000014                      REQUIRE `?<Initializer for wc>`
   \                     mac:
   \   00000014                      DS8 4
   \   00000018                      REQUIRE `?<Initializer for mac>`
   \                     po:
   \   00000018                      DS8 4
   \   0000001C                      REQUIRE `?<Initializer for po>`
   \                     RandSeed:
   \   0000001C                      DS8 4
   \   00000020                      REQUIRE `?<Initializer for RandSeed>`
   \                     s:
   \   00000020                      DS8 1
   \   00000021                      REQUIRE `?<Initializer for s>`
   \   00000021                      DS8 3
   \                     step_timer:
   \   00000024                      DS8 16
   \   00000034                      REQUIRE `?<Initializer for step_timer>`
   \                     watch_timer:
   \   00000034                      DS8 16
   \   00000044                      REQUIRE `?<Initializer for watch_timer>`
   \                     paint_timer:
   \   00000044                      DS8 16
   \   00000054                      REQUIRE `?<Initializer for paint_timer>`
   \                     ebu:
   \   00000054                      DS8 128
   \   000000D4                      REQUIRE `?<Initializer for ebu>`
   \   000000D4                      DS8 20
   \   000000E8                      REQUIRE `?<Initializer for q>`
   \   000000E8                      DS8 20
   \   000000FC                      REQUIRE `?<Initializer for qw>`
   \   000000FC                      DS8 4
   \   00000100                      REQUIRE `?<Initializer for Red>`
   \   00000100                      DS8 4
   \   00000104                      REQUIRE `?<Initializer for Black>`
    401          

   \                                 In segment CODE, align 4, keep-with-next
    402          int main(char * self,char * path)
    403          {
   \                     main:
   \   00000000   F0402DE9           PUSH     {R4-R7,LR}
   \   00000004   10D04DE2           SUB      SP,SP,#+16
   \   00000008   0140A0E1           MOV      R4,R1
    404            static const char pt[]="%t";
    405            wsprintf(&q,pt,"mac");
   \   0000000C   ........           LDR      R5,??DataTable24  ;; lpc
   \   00000010   98629FE5           LDR      R6,??main_0+0x4  ;; ??pt
   \   00000014   A42F8FE2           ADR      R2,??main_0      ;; "mac"
   \   00000018   0610A0E1           MOV      R1,R6
   \   0000001C   D40085E2           ADD      R0,R5,#+212
   \   00000020   240100EF           SWI      +292
    406            wsprintf(&qw,pt,"wait");
   \   00000024   042086E2           ADD      R2,R6,#+4
   \   00000028   0610A0E1           MOV      R1,R6
   \   0000002C   E80085E2           ADD      R0,R5,#+232
   \   00000030   240100EF           SWI      +292
    407            
    408            //randomize()
    409            TDate date; TTime time;
    410            GetDateTime(&date,&time);
   \   00000034   08108DE2           ADD      R1,SP,#+8
   \   00000038   0D00A0E1           MOV      R0,SP
   \   0000003C   B40000EF           SWI      +180
    411            RandSeed=time.millisec+time.sec*time.min+date.day*date.month+date.year+GetCPULoad();
   \   00000040   5D0000EF           SWI      +93
   \   00000044   0C109DE5           LDR      R1,[SP, #+12]
   \   00000048   0A20DDE5           LDRB     R2,[SP, #+10]
   \   0000004C   0930DDE5           LDRB     R3,[SP, #+9]
   \   00000050   931221E0           MLA      R1,R3,R2,R1
   \   00000054   0520DDE5           LDRB     R2,[SP, #+5]
   \   00000058   0430DDE5           LDRB     R3,[SP, #+4]
   \   0000005C   931221E0           MLA      R1,R3,R2,R1
   \   00000060   00209DE5           LDR      R2,[SP, #+0]
   \   00000064   011082E0           ADD      R1,R2,R1
   \   00000068   010080E0           ADD      R0,R0,R1
   \   0000006C   1C0085E5           STR      R0,[R5, #+28]
    412          
    413            InitConfig();
   \   00000070   ........           _BLF     InitConfig,??InitConfig??rA
    414            
    415            //recalc delays
    416          delay_keybreak=t(delay_keybreak);
   \   00000074   ........           LDR      R0,??DataTable25  ;; delay_keybreak
   \   00000078   001090E5           LDR      R1,[R0, #+0]
   \   0000007C   D820A0E3           MOV      R2,#+216
   \   00000080   920101E0           MUL      R1,R2,R1
   \   00000084   ........           LDR      R2,??DataTable40  ;; 0x10624dd3
   \   00000088   9231C7E0           SMULL    R3,R7,R2,R1
   \   0000008C   4773A0E1           ASR      R7,R7,#+6
   \   00000090   A11F87E0           ADD      R1,R7,R1, LSR #+31
   \   00000094   001080E5           STR      R1,[R0, #+0]
    417          watch_delay=t(watch_delay);
   \   00000098   ........           LDR      R0,??DataTable27  ;; watch_delay
   \   0000009C   001090E5           LDR      R1,[R0, #+0]
   \   000000A0   D820A0E3           MOV      R2,#+216
   \   000000A4   920101E0           MUL      R1,R2,R1
   \   000000A8   ........           LDR      R2,??DataTable40  ;; 0x10624dd3
   \   000000AC   9231C7E0           SMULL    R3,R7,R2,R1
   \   000000B0   4773A0E1           ASR      R7,R7,#+6
   \   000000B4   A11F87E0           ADD      R1,R7,R1, LSR #+31
   \   000000B8   001080E5           STR      R1,[R0, #+0]
    418          pre_delay=t(pre_delay);
   \   000000BC   F0719FE5           LDR      R7,??main_0+0x8  ;; pre_delay
   \   000000C0   000097E5           LDR      R0,[R7, #+0]
   \   000000C4   D810A0E3           MOV      R1,#+216
   \   000000C8   910000E0           MUL      R0,R1,R0
   \   000000CC   0210A0E1           MOV      R1,R2
   \   000000D0   9120C3E0           SMULL    R2,R3,R1,R0
   \   000000D4   4333A0E1           ASR      R3,R3,#+6
   \   000000D8   A00F83E0           ADD      R0,R3,R0, LSR #+31
   \   000000DC   000087E5           STR      R0,[R7, #+0]
    419          paint_delay=t(paint_delay);
   \   000000E0   ........           LDR      R0,??DataTable29  ;; paint_delay
   \   000000E4   001090E5           LDR      R1,[R0, #+0]
   \   000000E8   D820A0E3           MOV      R2,#+216
   \   000000EC   920101E0           MUL      R1,R2,R1
   \   000000F0   ........           LDR      R2,??DataTable40  ;; 0x10624dd3
   \   000000F4   9231CCE0           SMULL    R3,R12,R2,R1
   \   000000F8   4CC3A0E1           ASR      R12,R12,#+6
   \   000000FC   A11F8CE0           ADD      R1,R12,R1, LSR #+31
   \   00000100   001080E5           STR      R1,[R0, #+0]
    420          delay_longpause=t(delay_longpause);
   \   00000104   ........           LDR      R0,??DataTable31  ;; delay_longpause
   \   00000108   001090E5           LDR      R1,[R0, #+0]
   \   0000010C   D820A0E3           MOV      R2,#+216
   \   00000110   920101E0           MUL      R1,R2,R1
   \   00000114   ........           LDR      R2,??DataTable40  ;; 0x10624dd3
   \   00000118   9231CCE0           SMULL    R3,R12,R2,R1
   \   0000011C   4CC3A0E1           ASR      R12,R12,#+6
   \   00000120   A11F8CE0           ADD      R1,R12,R1, LSR #+31
   \   00000124   001080E5           STR      R1,[R0, #+0]
    421          delay_smallpause=t(delay_smallpause);
   \   00000128   ........           LDR      R0,??DataTable33  ;; delay_smallpause
   \   0000012C   001090E5           LDR      R1,[R0, #+0]
   \   00000130   D820A0E3           MOV      R2,#+216
   \   00000134   920101E0           MUL      R1,R2,R1
   \   00000138   ........           LDR      R2,??DataTable40  ;; 0x10624dd3
   \   0000013C   9231CCE0           SMULL    R3,R12,R2,R1
   \   00000140   4CC3A0E1           ASR      R12,R12,#+6
   \   00000144   A11F8CE0           ADD      R1,R12,R1, LSR #+31
   \   00000148   001080E5           STR      R1,[R0, #+0]
    422          delay_wait_1=t(delay_wait_1);
   \   0000014C   ........           LDR      R0,??DataTable35  ;; delay_wait_1
   \   00000150   001090E5           LDR      R1,[R0, #+0]
   \   00000154   D820A0E3           MOV      R2,#+216
   \   00000158   920101E0           MUL      R1,R2,R1
   \   0000015C   ........           LDR      R2,??DataTable40  ;; 0x10624dd3
   \   00000160   9231CCE0           SMULL    R3,R12,R2,R1
   \   00000164   4CC3A0E1           ASR      R12,R12,#+6
   \   00000168   A11F8CE0           ADD      R1,R12,R1, LSR #+31
   \   0000016C   001080E5           STR      R1,[R0, #+0]
    423          delay_wait_2=t(delay_wait_2);
   \   00000170   ........           LDR      R0,??DataTable37  ;; delay_wait_2
   \   00000174   001090E5           LDR      R1,[R0, #+0]
   \   00000178   D820A0E3           MOV      R2,#+216
   \   0000017C   920101E0           MUL      R1,R2,R1
   \   00000180   ........           LDR      R2,??DataTable40  ;; 0x10624dd3
   \   00000184   9231CCE0           SMULL    R3,R12,R2,R1
   \   00000188   4CC3A0E1           ASR      R12,R12,#+6
   \   0000018C   A11F8CE0           ADD      R1,R12,R1, LSR #+31
   \   00000190   001080E5           STR      R1,[R0, #+0]
    424          delay_wait_3=t(delay_wait_3);
   \   00000194   ........           LDR      R0,??DataTable39  ;; delay_wait_3
   \   00000198   001090E5           LDR      R1,[R0, #+0]
   \   0000019C   D820A0E3           MOV      R2,#+216
   \   000001A0   920101E0           MUL      R1,R2,R1
   \   000001A4   ........           LDR      R2,??DataTable40  ;; 0x10624dd3
   \   000001A8   9231CCE0           SMULL    R3,R12,R2,R1
   \   000001AC   4CC3A0E1           ASR      R12,R12,#+6
   \   000001B0   A11F8CE0           ADD      R1,R12,R1, LSR #+31
   \   000001B4   001080E5           STR      R1,[R0, #+0]
    425          
    426            
    427            ShowNativeMenu=(void (*)())Hex2Int(ShowNativeMenu_);
   \   000001B8   F8009FE5           LDR      R0,??main_0+0xC  ;; ShowNativeMenu_
   \   000001BC   ........           BL       Hex2Int
   \   000001C0   040085E5           STR      R0,[R5, #+4]
    428            
    429            if((path==0)||( (((unsigned int)path)>>28)!=0xA ))
   \   000001C4   000054E3           CMP      R4,#+0
   \   000001C8   0200000A           BEQ      ??main_1
   \   000001CC   240EA0E1           LSR      R0,R4,#+28
   \   000001D0   0A0050E3           CMP      R0,#+10
   \   000001D4   0400000A           BEQ      ??main_2
    430              {
    431                ShowMSG(2,(int)"No macro!");
   \                     ??main_1:
   \   000001D8   0C1086E2           ADD      R1,R6,#+12
   \                     ??main_3:
   \   000001DC   0200A0E3           MOV      R0,#+2
   \   000001E0   480100EF           SWI      +328
    432                Suicide();
   \   000001E4   ........           BL       Suicide
    433                return 0;
   \   000001E8   2B0000EA           B        ??main_4
    434              }
    435            else
    436              {
    437                if(path[1]==':'&&path[2]=='\\'&&path[0]>='0'&&path[0]<='4')
   \                     ??main_2:
   \   000001EC   0100D4E5           LDRB     R0,[R4, #+1]
   \   000001F0   3A0050E3           CMP      R0,#+58
   \   000001F4   0200D405           LDRBEQ   R0,[R4, #+2]
   \   000001F8   5C005003           CMPEQ    R0,#+92
   \   000001FC   0B00001A           BNE      ??main_5
   \   00000200   0000D4E5           LDRB     R0,[R4, #+0]
   \   00000204   300050E3           CMP      R0,#+48
   \   00000208   0800003A           BCC      ??main_5
   \   0000020C   350050E3           CMP      R0,#+53
   \   00000210   0600002A           BCS      ??main_5
    438                  {
    439                    mac=ReadFile(path);
   \   00000214   0400A0E1           MOV      R0,R4
   \   00000218   ........           BL       ReadFile
   \   0000021C   140085E5           STR      R0,[R5, #+20]
    440                    if(mac==0)
   \   00000220   000050E3           CMP      R0,#+0
   \   00000224   0400001A           BNE      ??main_6
    441                      {
    442                      ShowMSG(2,(int)"Cant open macro file!");
   \   00000228   181086E2           ADD      R1,R6,#+24
   \   0000022C   EAFFFFEA           B        ??main_3
    443                      Suicide();
    444                      return 0;
    445                      }
    446                  }
    447                else
    448                  mac=clonestr(path); 
   \                     ??main_5:
   \   00000230   0400A0E1           MOV      R0,R4
   \   00000234   ........           BL       clonestr
   \   00000238   140085E5           STR      R0,[R5, #+20]
    449              };
    450            
    451            s=ST_NORM;
   \                     ??main_6:
   \   0000023C   0000A0E3           MOV      R0,#+0
   \   00000240   2000C5E5           STRB     R0,[R5, #+32]
    452            po=mac;   
   \   00000244   141095E5           LDR      R1,[R5, #+20]
   \   00000248   181085E5           STR      R1,[R5, #+24]
    453            brk=0;
   \   0000024C   0C0085E5           STR      R0,[R5, #+12]
    454            ws1=AllocWS(256);
   \   00000250   400FA0E3           MOV      R0,#+256
   \   00000254   250100EF           SWI      +293
   \   00000258   080085E5           STR      R0,[R5, #+8]
    455            
    456            GBS_StartTimerProc(&watch_timer,pre_delay,&Watch);
   \   0000025C   ........           LDR      R2,??DataTable41  ;; Watch
   \   00000260   001097E5           LDR      R1,[R7, #+0]
   \   00000264   340085E2           ADD      R0,R5,#+52
   \   00000268   4D0000EF           SWI      +77
    457            GBS_StartTimerProc(&step_timer,pre_delay,&Step);
   \   0000026C   ........           LDR      R2,??DataTable42  ;; Step
   \   00000270   001097E5           LDR      R1,[R7, #+0]
   \   00000274   240085E2           ADD      R0,R5,#+36
   \   00000278   4D0000EF           SWI      +77
    458            if(show)GBS_StartTimerProc(&paint_timer,pre_delay,&Paint);
   \   0000027C   ........           LDR      R0,??DataTable43  ;; show
   \   00000280   000090E5           LDR      R0,[R0, #+0]
   \   00000284   000050E3           CMP      R0,#+0
   \   00000288   0400000A           BEQ      ??main_7
   \   0000028C   ........           LDR      R2,??DataTable44  ;; Paint
   \   00000290   001097E5           LDR      R1,[R7, #+0]
   \   00000294   440085E2           ADD      R0,R5,#+68
   \   00000298   4D0000EF           SWI      +77
    459            return 0;
   \                     ??main_4:
   \   0000029C   0000A0E3           MOV      R0,#+0
   \                     ??main_7:
   \   000002A0   10D08DE2           ADD      SP,SP,#+16       ;; stack cleaning
   \   000002A4   F040BDE8           POP      {R4-R7,LR}
   \   000002A8   1EFF2FE1           BX       LR               ;; return
   \                     ??main_0:
   \   000002AC   6D616300           DC8      "mac"
   \   000002B0   ........           DC32     ??pt
   \   000002B4   ........           DC32     pre_delay
   \   000002B8   ........           DC32     ShowNativeMenu_
    460          };

   \                                 In segment DATA_C, align 4, align-sorted
   \                     ??pt:
   \   00000000   257400             DC8 "%t"
   \   00000003   00                 DC8 0
   \   00000004   7761697400         DC8 "wait"
   \   00000009   000000             DC8 0, 0, 0
   \   0000000C   4E6F206D6163       DC8 "No macro!"
   \              726F2100    
   \   00000016   0000               DC8 0, 0
   \   00000018   43616E74206F       DC8 "Cant open macro file!"
   \              70656E206D61
   \              63726F206669
   \              6C652100    
   \   0000002E   0000               DC8 0, 0

   \                                 In segment CODE, align 4, keep-with-next
   \                     ??DataTable24:
   \   00000000   ........           DC32     lpc

   \                                 In segment CODE, align 4, keep-with-next
   \                     ??DataTable25:
   \   00000000   ........           DC32     delay_keybreak

   \                                 In segment CODE, align 4, keep-with-next
   \                     ??DataTable27:
   \   00000000   ........           DC32     watch_delay

   \                                 In segment CODE, align 4, keep-with-next
   \                     ??DataTable29:
   \   00000000   ........           DC32     paint_delay

   \                                 In segment CODE, align 4, keep-with-next
   \                     ??DataTable31:
   \   00000000   ........           DC32     delay_longpause

   \                                 In segment CODE, align 4, keep-with-next
   \                     ??DataTable33:
   \   00000000   ........           DC32     delay_smallpause

   \                                 In segment CODE, align 4, keep-with-next
   \                     ??DataTable35:
   \   00000000   ........           DC32     delay_wait_1

   \                                 In segment CODE, align 4, keep-with-next
   \                     ??DataTable37:
   \   00000000   ........           DC32     delay_wait_2

   \                                 In segment CODE, align 4, keep-with-next
   \                     ??DataTable39:
   \   00000000   ........           DC32     delay_wait_3

   \                                 In segment CODE, align 4, keep-with-next
   \                     ??DataTable40:
   \   00000000   D34D6210           DC32     0x10624dd3

   \                                 In segment CODE, align 4, keep-with-next
   \                     ??DataTable41:
   \   00000000   ........           DC32     Watch

   \                                 In segment CODE, align 4, keep-with-next
   \                     ??DataTable42:
   \   00000000   ........           DC32     Step

   \                                 In segment CODE, align 4, keep-with-next
   \                     ??DataTable43:
   \   00000000   ........           DC32     show

   \                                 In segment CODE, align 4, keep-with-next
   \                     ??DataTable44:
   \   00000000   ........           DC32     Paint

   \                                 In segment DATA_ID, align 4, align-sorted
   \                     `?<Initializer for lpc>`:
   \   00000000   0000               DC8 0, 0
   \   00000002   0000               DC8 0, 0
   \                     `?<Initializer for ShowNativeMenu>`:
   \   00000004   00000000           DC8 0, 0, 0, 0
   \                     `?<Initializer for ws1>`:
   \   00000008   00000000           DC8 0, 0, 0, 0
   \                     `?<Initializer for brk>`:
   \   0000000C   00000000           DC8 0, 0, 0, 0
   \                     `?<Initializer for wc>`:
   \   00000010   00000000           DC8 0, 0, 0, 0
   \                     `?<Initializer for mac>`:
   \   00000014   00000000           DC32 0H
   \                     `?<Initializer for po>`:
   \   00000018   00000000           DC8 0, 0, 0, 0
   \                     `?<Initializer for RandSeed>`:
   \   0000001C   00000000           DC8 0, 0, 0, 0
   \                     `?<Initializer for s>`:
   \   00000020   00                 DC8 0
   \   00000021   000000             DC8 0, 0, 0
   \                     `?<Initializer for step_timer>`:
   \   00000024   000000000000       DC8 0, 0, 0, 0, 0, 0, 0, 0, 0, 0, 0, 0, 0, 0, 0, 0
   \              000000000000
   \              00000000    
   \                     `?<Initializer for watch_timer>`:
   \   00000034   000000000000       DC8 0, 0, 0, 0, 0, 0, 0, 0, 0, 0, 0, 0, 0, 0, 0, 0
   \              000000000000
   \              00000000    
   \                     `?<Initializer for paint_timer>`:
   \   00000044   000000000000       DC8 0, 0, 0, 0, 0, 0, 0, 0, 0, 0, 0, 0, 0, 0, 0, 0
   \              000000000000
   \              00000000    
   \                     `?<Initializer for ebu>`:
   \   00000054   000000000000       DC8 0, 0, 0, 0, 0, 0, 0, 0, 0, 0, 0, 0, 0, 0, 0, 0
   \              000000000000
   \              00000000    
   \   00000064   000000000000       DC8 0, 0, 0, 0, 0, 0, 0, 0, 0, 0, 0, 0, 0, 0, 0, 0
   \              000000000000
   \              00000000    
   \   00000074   000000000000       DC8 0, 0, 0, 0, 0, 0, 0, 0, 0, 0, 0, 0, 0, 0, 0, 0
   \              000000000000
   \              00000000    
   \   00000084   000000000000       DC8 0, 0, 0, 0, 0, 0, 0, 0, 0, 0, 0, 0, 0, 0, 0, 0
   \              000000000000
   \              00000000    
   \   00000094   000000000000       DC8 0, 0, 0, 0, 0, 0, 0, 0, 0, 0, 0, 0, 0, 0, 0, 0
   \              000000000000
   \              00000000    
   \   000000A4   000000000000       DC8 0, 0, 0, 0, 0, 0, 0, 0, 0, 0, 0, 0, 0, 0, 0, 0
   \              000000000000
   \              00000000    
   \   000000B4   000000000000       DC8 0, 0, 0, 0, 0, 0, 0, 0, 0, 0, 0, 0, 0, 0, 0, 0
   \              000000000000
   \              00000000    
   \   000000C4   000000000000       DC8 0, 0, 0, 0, 0, 0, 0, 0, 0, 0, 0, 0, 0, 0, 0, 0
   \              000000000000
   \              00000000    
   \                     `?<Initializer for q>`:
   \   000000D4   ........0000       DC32 qq, 0H, 0H, 0
   \              000000000000
   \              00000000    
   \   000000E4   0800               DC16 8
   \   000000E6   0000               DC8 0, 0
   \                     `?<Initializer for qw>`:
   \   000000E8   ........0000       DC32 qqw, 0H, 0H, 0
   \              000000000000
   \              00000000    
   \   000000F8   1000               DC16 16
   \   000000FA   0000               DC8 0, 0
   \                     `?<Initializer for Red>`:
   \   000000FC   FF000064           DC32 1677721855
   \                     `?<Initializer for Black>`:
   \   00000100   00000064           DC32 1677721600

   \                                 In segment DATA_C, align 4, align-sorted
   \                     `?<Constant "<EOF>">`:
   \   00000000   3C454F463E00       DC8 "<EOF>"
   \   00000006   0000               DC8 0, 0
   \   00000008   3078257800         DC8 "0x%x"
   \   0000000D   000000             DC8 0, 0, 0
   \   00000010   272563272F30       DC8 "'%c'/0x%x"
   \              78257800    
   \   0000001A   0000               DC8 0, 0

   \                                 In segment DATA_C, align 4, align-sorted
   \                     `?<Constant "Unexpected <EOF>">`:
   \   00000000   556E65787065       DC8 "Unexpected <EOF>"
   \              63746564203C
   \              454F463E00  
   \   00000011   000000             DC8 0, 0, 0
   \   00000014   776169742060       DC8 "wait `...`"
   \              2E2E2E6000  
   \   0000001F   00                 DC8 0
   \   00000020   4E6F2053686F       DC8 "No ShowNativeMenu() address defined "
   \              774E61746976
   \              654D656E7528
   \              292061646472
   \              657373206465
   \              66696E656420
   \              00          
   \   00000045   000000             DC8 0, 0, 0
   \   00000048   292065787065       DC8 ") expected but %s founded"
   \              637465642062
   \              757420257320
   \              666F756E6465
   \              6400        
   \   00000062   0000               DC8 0, 0
   \   00000064   556E6B206368       DC8 "Unk character %s"
   \              617261637465
   \              7220257300  
   \   00000075   000000             DC8 0, 0, 0
   \   00000078   776169742057       DC8 "wait W"
   \              00          
   \   0000007F   00                 DC8 0
   \   00000080   776169742025       DC8 "wait %d"
   \              6400        
   \   00000088   77726F6E6720       DC8 "wrong state!"
   \              737461746521
   \              00          
   \   00000095   000000             DC8 0, 0, 0

   \                                 In segment DATA_C, align 1, align-sorted
   \   00000000   257400             DC8 "%t"

   \                                 In segment DATA_C, align 4, align-sorted
   \   00000000   6D616300           DC8 "mac"

   Maximum stack usage in bytes:

     Function   CSTACK
     --------   ------
     ELF_KILLER     4
     GetRand        4
     Hex2Int       16
     Paint         28
     ReadFile      32
     Step         292
     Str2Int        0
     Suicide        8
     Watch          8
     _hc            0
     clonestr      12
     keytab         4
     main          36
     xs             8


   Segment part sizes:

     Function/Label                 Bytes
     --------------                 -----
     qq                               16
     qqw                              32
     GetRand                          60
     ELF_KILLER                       32
     Suicide                          52
     _hc                              68
     Hex2Int                          76
     Str2Int                          68
     ReadFile                        208
     clonestr                         44
     xs                               92
     bu                               16
     keytab                          280
     Step                           1276
     Watch                            68
     Paint                           124
     lpc                             260
     main                            700
     pt                               48
     ??DataTable24                     4
     ??DataTable25                     4
     ??DataTable27                     4
     ??DataTable29                     4
     ??DataTable31                     4
     ??DataTable33                     4
     ??DataTable35                     4
     ??DataTable37                     4
     ??DataTable39                     4
     ??DataTable40                     4
     ??DataTable41                     4
     ??DataTable42                     4
     ??DataTable43                     4
     ??DataTable44                     4
     ?<Initializer for lpc>          260
     ?<Constant "<EOF>">              28
     ?<Constant "Unexpected <EOF>">  152
     ?<Constant "%t">                  3
     ?<Constant "mac">                 4
      Others                         124

 
 3 304 bytes in segment CODE
   283 bytes in segment DATA_C
   260 bytes in segment DATA_I
   260 bytes in segment DATA_ID
    16 bytes in segment DATA_Z
    24 bytes in segment INITTAB
 
 2 924 bytes of CODE  memory (+ 404 bytes shared)
   543 bytes of CONST memory
   276 bytes of DATA  memory

Errors: none
Warnings: none
