###############################################################################
#                                                                             #
#     IAR Systems ARM Assembler V4.42A/W32 04/Dec/2011  15:19:36              #
#     Copyright 1999-2007 IAR Systems. All rights reserved.                   #
#                                                                             #
#           Source file   =  D:\SVN\SieELF\SieELF\PasswordAlt\main.asm        #
#           List file     =  D:\SVN\SieELF\SieELF\PasswordAlt\S7Cv47\List\main.lst#
#           Object file   =  D:\SVN\SieELF\SieELF\PasswordAlt\S7Cv47\Obj\main.r79#
#           Command line  =  D:\SVN\SieELF\SieELF\PasswordAlt\main.asm        #
#                            -OD:\SVN\SieELF\SieELF\PasswordAlt\S7Cv47\Obj\   #
#                            -s+ -M<> -w+ -DNEWSGOLD -DS7Cv47                 #
#                            -LD:\SVN\SieELF\SieELF\PasswordAlt\S7Cv47\List\  #
#                            -cAO -B -t8 --cpu ARM926EJ-S --fpu None          #
#                            -ID:\Program Files\IAR\Embedded Workbench 4.0 Evaluation\ARM\INC\ #
#                                                                             #
###############################################################################

    1    00000000              
    2    00000000              #ifdef EL71sw45
    3    00000000              #define RAM_BEGIN       0xA8D80250
    4    00000000              #endif
    5    00000000              
    6    00000000              #ifdef S7Cv47
    7    00000000              #define RAM_BEGIN       0xA8A7F190
    8    00000000              #endif
    9    00000000              
   10    00000000                  RSEG DUMP
   11    00000000                  CODE16
   12    00000000              FUNC_
   13    00000000 00B5             PUSH    {LR}
   14    00000002 181C             MOV    R0, R3
   15    00000004 ........         BLX     main_
   16    00000008 00BD             POP     {PC}
   17    0000000A              
   18    00000000                  RSEG CODE
   19    00000000                  CODE32
   20    00000000              main_:
   21    00000000 AC0000EA                     B       loc_13042B8
   22    00000004              sub_1304004:
   23    00000004 70402DE9                     STMFD   SP!, {R4-R6,LR}
   24    00000008 F8629FE5                     LDR     R6, dword_1304308
   25    0000000C 0040A0E1                     MOV     R4, R0
   26    00000010 0100A0E3                     MOV     R0, #1
   27    00000014 2E0100EF                     SWI     0x12E
   28    00000018 0050A0E1                     MOV     R5, R0
   29    0000001C 0000A0E3                     MOV     R0, #0
   30    00000020 2E0100EF                     SWI     0x12E
   31    00000024 20002DE9                     STMFD   SP!, {R5}
   32    00000028 01002DE9                     STMFD   SP!, {R0}
   33    0000002C DC30A0E3                     MOV     R3, #0xDC
   34    00000030 EB20A0E3                     MOV     R2, #0xEB
   35    00000034 6410A0E3                     MOV     R1, #0x64
   36    00000038 0000A0E3                     MOV     R0, #0
   37    0000003C 01002DE9                     STMFD   SP!, {R0}
   38    00000040 01002DE9                     STMFD   SP!, {R0}
   39    00000044 01002DE9                     STMFD   SP!, {R0}
   40    00000048 0050A0E3                     MOV     R5, #0
   41    0000004C 0500A0E3                     MOV     R0, #5
   42    00000050 500100EF                     SWI     0x150
   43    00000054 380094E5                     LDR     R0, [R4,#0x38]
   44    00000058 0010A0E3                     MOV     R1, #0
   45    0000005C 260100EF                     SWI     0x126
   46    00000060 14D08DE2                     ADD     SP, SP, #0x14
   47    00000064 030000EA                     B       loc_1304078
   48    00000068              
   49    00000068              loc_1304068:
   50    00000068 380094E5                     LDR     R0, [R4,#0x38]
   51    0000006C 2A10A0E3                     MOV     R1, #0x2A
   52    00000070 1C0000EF                     SWI     0x1C
   53    00000074 015085E2                     ADD     R5, R5, #1
   54    00000078                              
   55    00000078              loc_1304078:
   56    00000078 000096E5                     LDR     R0, [R6]
   57    0000007C 000055E1                     CMP     R5, R0
   58    00000080 F8FFFFBA                     BLT     loc_1304068
   59    00000084 1700A0E3                     MOV     R0, #0x17
   60    00000088 2E0100EF                     SWI     0x12E
   61    0000008C 0050A0E1                     MOV     R5, R0
   62    00000090 0000A0E3                     MOV     R0, #0
   63    00000094 2E0100EF                     SWI     0x12E
   64    00000098 20002DE9                     STMFD   SP!, {R5}
   65    0000009C 01002DE9                     STMFD   SP!, {R0}
   66    000000A0 E630A0E3                     MOV     R3, #0xE6
   67    000000A4 9620A0E3                     MOV     R2, #0x96
   68    000000A8 0A10A0E3                     MOV     R1, #0xA
   69    000000AC 0000A0E3                     MOV     R0, #0
   70    000000B0 01002DE9                     STMFD   SP!, {R0}
   71    000000B4 0B00A0E3                     MOV     R0, #0xB
   72    000000B8 01002DE9                     STMFD   SP!, {R0}
   73    000000BC AA00A0E3                     MOV     R0, #0xAA
   74    000000C0 01002DE9                     STMFD   SP!, {R0}
   75    000000C4 380094E5                     LDR     R0, [R4,#0x38]
   76    000000C8 4C0100EF                     SWI     0x14C
   77    000000CC 14D08DE2                     ADD     SP, SP, #0x14
   78    000000D0 7080BDE8                     LDMFD   SP!, {R4-R6,PC}
   79    000000D4                              
   80    000000D4              sub_13040D4:
   81    000000D4 10402DE9                     STMFD   SP!, {R4,LR}
   82    000000D8 0040A0E1                     MOV     R4, R0
   83    000000DC 400FA0E3                     MOV     R0, #0x100
   84    000000E0 250100EF                     SWI     0x125
   85    000000E4 340084E5                     STR     R0, [R4,#0x34]
   86    000000E8 400FA0E3                     MOV     R0, #0x100
   87    000000EC 250100EF                     SWI     0x125
   88    000000F0 380084E5                     STR     R0, [R4,#0x38]
   89    000000F4 0100A0E3                     MOV     R0, #1
   90    000000F8 0C00C4E5                     STRB    R0, [R4,#0xC]
   91    000000FC 1080BDE8                     LDMFD   SP!, {R4,PC}
   92    00000100              
   93    00000100              sub_1304100:
   94    00000100 10402DE9                     STMFD   SP!, {R4,LR}
   95    00000104 0040A0E1                     MOV     R4, R0
   96    00000108 340094E5                     LDR     R0, [R4,#0x34]
   97    0000010C 290100EF                     SWI     0x129
   98    00000110 380094E5                     LDR     R0, [R4,#0x38]
   99    00000114 290100EF                     SWI     0x129
  100    00000118 0000A0E3                     MOV     R0, #0
  101    0000011C 0C00C4E5                     STRB    R0, [R4,#0xC]
  102    00000120 1080BDE8                     LDMFD   SP!, {R4,PC}
  103    00000124              ; ----------------------------------------------
                               -----------------------------
  104    00000124              loc_1304124:
  105    00000124 0210A0E3                     MOV     R1, #2
  106    00000128 0C10C0E5                     STRB    R1, [R0,#0xC]
  107    0000012C 1EFF2FE1                     BX      LR
  108    00000130              ; ----------------------------------------------
                               -----------------------------
  109    00000130              loc_1304130:
  110    00000130 0C10D0E5                     LDRB    R1, [R0,#0xC]
  111    00000134 020051E3                     CMP     R1, #2
  112    00000138 0110A003                     MOVEQ   R1, #1
  113    0000013C 0C10C005                     STREQB  R1, [R0,#0xC]
  114    00000140 1EFF2FE1                     BX      LR
  115    00000144              
  116    00000144              sub_1304144:
  117    00000144 10402DE9                     STMFD   SP!, {R4,LR}
  118    00000148 040091E5                     LDR     R0, [R1,#4]
  119    0000014C 9320A0E3                     MOV     R2, #0x93
  120    00000150 041090E5                     LDR     R1, [R0,#4]
  121    00000154 402F82E3                     ORR     R2, R2, #0x100
  122    00000158 020051E1                     CMP     R1, R2
  123    0000015C 2200001A                     BNE     loc_13041EC
  124    00000160 081090E5                     LDR     R1, [R0,#8]
  125    00000164 9C419FE5                     LDR     R4, dword_1304308
  126    00000168 300051E3                     CMP     R1, #0x30
  127    0000016C 0A0000BA                     BLT     loc_130419C
  128    00000170 3A0051E3                     CMP     R1, #0x3A
  129    00000174 080000AA                     BGE     loc_130419C
  130    00000178 001094E5                     LDR     R1, [R4]
  131    0000017C 0F0051E3                     CMP     R1, #0xF
  132    00000180 1A0000AA                     BGE     loc_13041F0
  133    00000184 080090E5                     LDR     R0, [R0,#8]
  134    00000188 042081E0                     ADD     R2, R1, R4
  135    0000018C 0800C2E5                     STRB    R0, [R2,#8]
  136    00000190 010081E2                     ADD     R0, R1, #1
  137    00000194 000084E5                     STR     R0, [R4]
  138    00000198 130000EA                     B       loc_13041EC
  139    0000019C              ; ----------------------------------------------
                               -----------------------------
  140    0000019C              
  141    0000019C              loc_130419C:    
  142    0000019C 010051E2                     SUBS    R0, R1, #1
  143    000001A0 0300000A                     BEQ     loc_13041B4
  144    000001A4 0B0050E2                     SUBS    R0, R0, #0xB
  145    000001A8 0D00000A                     BEQ     loc_13041E4
  146    000001AC 0E0050E2                     SUBS    R0, R0, #0xE
  147    000001B0 0D00001A                     BNE     loc_13041EC
  148    000001B4              
  149    000001B4              loc_13041B4:
  150    000001B4 080084E2                     ADD     R0, R4, #8
  151    000001B8 720000EB                     BL      sub_1304388
  152    000001BC 010050E3                     CMP     R0, #1
  153    000001C0 0300001A                     BNE     loc_13041D4
  154    000001C4 040094E5                     LDR     R0, [R4,#4]
  155    000001C8 30FF2FE1                     BLX     R0
  156    000001CC 0100A0E3                     MOV     R0, #1
  157    000001D0 1080BDE8                     LDMFD   SP!, {R4,PC}
  158    000001D4              ; ----------------------------------------------
                               -----------------------------
  159    000001D4              
  160    000001D4              loc_13041D4:
  161    000001D4                              //MOVL  R1, 0x239
  162    000001D4 39               DCB    0x39
  163    000001D5 10                           DCB    0x10
  164    000001D6 A0                           DCB    0xA0
  165    000001D7 E3                           DCB    0xE3
  166    000001D8 80                           DCB    0x80
  167    000001D9 1F                           DCB    0x1F
  168    000001DA 81                           DCB    0x81
  169    000001DB E3                           DCB    0xE3
  170    000001DC 0100A0E3                     MOV     R0, #1
  171    000001E0 480100EF                     SWI     0x148
  172    000001E4              
  173    000001E4              loc_13041E4:
  174    000001E4 0100A0E3                     MOV     R0, #1
  175    000001E8 1080BDE8                     LDMFD   SP!, {R4,PC}
  176    000001EC              ; ----------------------------------------------
                               -----------------------------
  177    000001EC              loc_13041EC:
  178    000001EC 3F0100EF                     SWI     0x13F
  179    000001F0              
  180    000001F0              loc_13041F0:
  181    000001F0 0000A0E3                     MOV     R0, #0
  182    000001F4 1080BDE8                     LDMFD   SP!, {R4,PC}
  183    000001F8              ; ----------------------------------------------
                               -----------------------------
  184    000001F8              locret_13041F8:
  185    000001F8 1EFF2FE1                     BX      LR
  186    000001FC              ; ----------------------------------------------
                               -----------------------------
  187    000001FC              loc_13041FC:
  188    000001FC 0000A0E3                     MOV     R0, #0
  189    00000200 1EFF2FE1                     BX      LR
  190    00000204              ; ----------------------------------------------
                               -----------------------------
  191    00000204              loc_1304204:
  192    00000204 0000A0E3                     MOV     R0, #0
  193    00000208 1EFF2FE1                     BX      LR
  194    0000020C                              
  195    0000020C              sub_130420C:
  196    0000020C 30402DE9                     STMFD   SP!, {R4,R5,LR}
  197    00000210 0040A0E1                     MOV     R4, R0
  198    00000214 4000A0E3                     MOV     R0, #0x40
  199    00000218 140000EF                     SWI     0x14
  200    0000021C 0050A0E1                     MOV     R5, R0
  201    00000220 4010A0E3                     MOV     R1, #0x40
  202    00000224 1D0100EF                     SWI     0x11D
  203    00000228 34009FE5                     LDR     R0, dword_1304264
  204    0000022C 2C1080E2                     ADD     R1, R0, #0x2C
  205    00000230 001085E5                     STR     R1, [R5]
  206    00000234 0210A0E3                     MOV     R1, #2
  207    00000238 301085E5                     STR     R1, [R5,#0x30]
  208    0000023C 040085E5                     STR     R0, [R5,#4]
  209    00000240 158000EF                     SWI     0x8015
  210    00000244 200085E5                     STR     R0, [R5,#0x20]
  211    00000248 0000A0E3                     MOV     R0, #0
  212    0000024C 100084E5                     STR     R0, [R4,#0x10]
  213    00000250 140084E5                     STR     R0, [R4,#0x14]
  214    00000254 0500A0E1                     MOV     R0, R5
  215    00000258 370100EF                     SWI     0x137
  216    0000025C 280084E5                     STR     R0, [R4,#0x28]
  217    00000260 3080BDE8                     LDMFD   SP!, {R4,R5,PC}
  218    00000264              
  219    00000264 ........     dword_1304264   DCD loc_1304448
  220    00000268              
  221    00000268              locret_1304268:
  222    00000268 1EFF2FE1                     BX      LR
  223    0000026C              ; ----------------------------------------------
                               -----------------------------
  224    0000026C              
  225    0000026C              loc_130426C:
  226    0000026C 042091E5                     LDR     R2, [R1,#4]
  227    00000270                              //MOVL  R3, 0x640E
  228    00000270 0E                           DCB    0x0E
  229    00000271 30                           DCB    0x30 
  230    00000272 A0                           DCB    0xA0 
  231    00000273 E3                           DCB    0xE3
  232    00000274 64                           DCB    0x64
  233    00000275 3C                           DCB    0x3C
  234    00000276 83                           DCB    0x83
  235    00000277 E3                           DCB    0xE3
  236    00000278 030052E1                     CMP     R2, R3
  237    0000027C 0400001A                     BNE     loc_1304294
  238    00000280 0C1091E5                     LDR     R1, [R1,#0xC]
  239    00000284 282090E5                     LDR     R2, [R0,#0x28]
  240    00000288 020051E1                     CMP     R1, R2
  241    0000028C                              //MOVLEQ        R1, 0xFFFFFFFD
  242    0000028C 02                           DCB    0x02 
  243    0000028D 10                           DCB    0x10 
  244    0000028E E0                           DCB    0xE0 
  245    0000028F 03                           DCB    0x03
  246    00000290 10108005                     STREQ   R1, [R0,#0x10]
  247    00000294              
  248    00000294              loc_1304294:
  249    00000294 0100A0E3                     MOV     R0, #1
  250    00000298 1EFF2FE1                     BX      LR
  251    0000029C              
  252    0000029C              sub_130429C:
  253    0000029C 10009FE5                     LDR     R0, dword_13042B4
  254    000002A0 00402DE9                     STMFD   SP!, {LR}
  255    000002A4 0010A0E1                     MOV     R1, R0
  256    000002A8 380080E2                     ADD     R0, R0, #0x38
  257    000002AC 240100EF                     SWI     0x124
  258    000002B0 0080BDE8                     LDMFD   SP!, {PC}
  259    000002B4 ........     dword_13042B4   DCD aEnterPassword
  260    000002B8              ; ----------------------------------------------
                               -----------------------------
  261    000002B8              loc_13042B8:
  262    000002B8 48209FE5                     LDR     R2, dword_1304308
  263    000002BC 00402DE9                     STMFD   SP!, {LR}
  264    000002C0 2CD04DE2                     SUB     SP, SP, #0x2C
  265    000002C4 040082E5                     STR     R0, [R2,#4]
  266    000002C8 0000A0E3                     MOV     R0, #0
  267    000002CC 000082E5                     STR     R0, [R2]
  268    000002D0 1010A0E3                     MOV     R1, #0x10
  269    000002D4 080082E2                     ADD     R0, R2, #8
  270    000002D8 1D0100EF                     SWI     0x11D
  271    000002DC EEFFFFEB                     BL      sub_130429C
  272    000002E0 460100EF                     SWI     0x146
  273    000002E4 18009FE5                     LDR     R0, dword_1304304
  274    000002E8 0020A0E3                     MOV     R2, #0
  275    000002EC 0D10A0E1                     MOV     R1, SP
  276    000002F0 070100EF                     SWI     0x107
  277    000002F4 470100EF                     SWI     0x147
  278    000002F8 0000A0E3                     MOV     R0, #0
  279    000002FC 2CD08DE2                     ADD     SP, SP, #0x2C
  280    00000300 0080BDE8                     LDMFD   SP!, {PC}
  281    00000304              
  282    00000304 ........     dword_1304304   DCD loc_1304408
  283    00000308 90F1A7A8     dword_1304308   DCD RAM_BEGIN
  284    0000030C              
  285    0000030C              sub_130430C:
  286    0000030C 30402DE9                     STMFD   SP!, {R4,R5,LR}
  287    00000310 0040A0E1                     MOV     R4, R0
  288    00000314 0050A0E3                     MOV     R5, #0
  289    00000318 1B0000EF                     SWI     0x1B
  290    0000031C 010050E3                     CMP     R0, #1
  291    00000320 150000BA                     BLT     loc_130437C
  292    00000324 0010A0E3                     MOV     R1, #0
  293    00000328              
  294    00000328              loc_1304328:
  295    00000328 0020D4E5                     LDRB    R2, [R4]
  296    0000032C 014084E2                     ADD     R4, R4, #1
  297    00000330 D02082E2                     ADD     R2, R2, #0xD0
  298    00000334 FF2002E2                     AND     R2, R2, #0xFF
  299    00000338 053082E0                     ADD     R3, R2, R5
  300    0000033C A15F81E0                     ADD     R5, R1, R1,LSR#31
  301    00000340 C550A0E1                     MOV     R5, R5,ASR#1
  302    00000344 855051E0                     SUBS    R5, R1, R5,LSL#1
  303    00000348 92030500                     MULEQ   R5, R2, R3
  304    0000034C 01508312                     ADDNE   R5, R3, #1
  305    00000350 2C309FE5                     LDR     R3, dword_1304384
  306    00000354 91C3CEE0                     SMULL   R12, LR, R1, R3
  307    00000358 03C0A0E3                     MOV     R12, #3
  308    0000035C A1EF8EE0                     ADD     LR, LR, R1,LSR#31
  309    00000360 9C0E0EE0                     MUL     LR, R12, LR
  310    00000364 0E3051E0                     SUBS    R3, R1, LR
  311    00000368 82208200                     ADDEQ   R2, R2, R2,LSL#1
  312    0000036C 05508200                     ADDEQ   R5, R2, R5
  313    00000370 011081E2                     ADD     R1, R1, #1
  314    00000374 000051E1                     CMP     R1, R0
  315    00000378 EAFFFFBA                     BLT     loc_1304328
  316    0000037C              
  317    0000037C              loc_130437C:
  318    0000037C 0500A0E1                     MOV     R0, R5
  319    00000380 3080BDE8                     LDMFD   SP!, {R4,R5,PC}
  320    00000384 56555555     dword_1304384   DCD 0x55555556
  321    00000388              
  322    00000388              sub_1304388:
  323    FFFFFFF0              var_10          = -0x10
  324    00000388 30402DE9                     STMFD   SP!, {R4,R5,LR}
  325    0000038C 08D04DE2                     SUB     SP, SP, #8
  326    00000390 0040A0E1                     MOV     R4, R0
  327    00000394 58009FE5                     LDR     R0, dword_13043F4
  328    00000398 0D30A0E1                     MOV     R3, SP
  329    0000039C 0020A0E3                     MOV     R2, #0
  330    000003A0 8010A0E3                     MOV     R1, #0x80
  331    000003A4 0A0000EF                     SWI     0xA
  332    000003A8 0050B0E1                     MOVS    R5, R0
  333    000003AC 0E00004A                     BMI     loc_13043EC
  334    000003B0 0D30A0E1                     MOV     R3, SP
  335    000003B4 0420A0E3                     MOV     R2, #4
  336    000003B8 04108DE2                     ADD     R1, SP, #0x14+var_10
  337    000003BC 0B0000EF                     SWI     0xB
  338    000003C0 040050E3                     CMP     R0, #4
  339    000003C4 0800001A                     BNE     loc_13043EC
  340    000003C8 0D10A0E1                     MOV     R1, SP
  341    000003CC 0500A0E1                     MOV     R0, R5
  342    000003D0 0D0000EF                     SWI     0xD
  343    000003D4 0400A0E1                     MOV     R0, R4
  344    000003D8 CBFFFFEB                     BL      sub_130430C
  345    000003DC 04109DE5                     LDR     R1, [SP,#0x14+var_10]
  346    000003E0 000051E1                     CMP     R1, R0
  347    000003E4 0100A003                     MOVEQ   R0, #1
  348    000003E8 3680BD08                     LDMEQFD SP!, {R1,R2,R4,R5,PC}
  349    000003EC              
  350    000003EC              loc_13043EC:
  351    000003EC 0000A0E3                     MOV     R0, #0
  352    000003F0 3680BDE8                     LDMFD   SP!, {R1,R2,R4,R5,PC}
  353    000003F4              ; ----------------------------------------------
                               -----------------------------
  354    000003F4 ........     dword_13043F4   DCD a2Ccq_wtf_dat
  355    000003F8 456E74657220 aEnterPassword  DCB "Enter Password",0
                  50617373776F
                  72640000    
  356    00000408              loc_1304408:
  357    00000408 ........                     DCD loc_130426C
  358    0000040C ........                     DCD sub_130420C
  359    00000410 00                           DCB    0
  360    00000411 00                           DCB    0
  361    00000412 00                           DCB    0
  362    00000413 00                           DCB    0
  363    00000414 00                           DCB    0
  364    00000415 00                           DCB    0
  365    00000416 00                           DCB    0
  366    00000417 00                           DCB    0
  367    00000418 00                           DCB    0
  368    00000419 00                           DCB    0
  369    0000041A 00                           DCB    0
  370    0000041B 00                           DCB    0
  371    0000041C 00                           DCB    0
  372    0000041D 00                           DCB    0
  373    0000041E 00                           DCB    0
  374    0000041F 00                           DCB    0
  375    00000420 ........                     DCD locret_1304268
  376    00000424 2C000000                     DCD 0x2C
  377    00000428 01000000                     DCD 1
  378    0000042C ........                     DCD loc_1304444
  379    00000430 A8F1A7A8                     DCD RAM_BEGIN+0x18
  380    00000434 CC                           DCB 0xCC
  381    00000435 CC                           DCB 0xCC
  382    00000436 AA                           DCB 0xAA
  383    00000437 55                           DCB 0x55
  384    00000438 55                           DCB 0x55
  385    00000439 AA                           DCB 0xAA
  386    0000043A 33                           DCB 0x33
  387    0000043B 33                           DCB 0x33
  388    0000043C 00                           DCB    0
  389    0000043D 00                           DCB    0
  390    0000043E 00                           DCB    0
  391    0000043F 00                           DCB    0
  392    00000440 8B000000                     DCD 0x8B
  393    00000444              loc_1304444:
  394    00000444 F5FFFFFF                     DCD 0xFFFFFFF5
  395    00000448              loc_1304448:
  396    00000448 ........                     DCD sub_1304004
  397    0000044C ........                     DCD sub_13040D4
  398    00000450 ........                     DCD sub_1304100
  399    00000454 ........                     DCD loc_1304124
  400    00000458 ........                     DCD loc_1304130
  401    0000045C ........                     DCD sub_1304144
  402    00000460 00                           DCB    0
  403    00000461 00                           DCB    0
  404    00000462 00                           DCB    0
  405    00000463 00                           DCB    0
  406    00000464 ........                     DCD locret_13041F8
  407    00000468 ........                     DCD loc_13041FC
  408    0000046C ........                     DCD loc_1304204
  409    00000470 00                           DCB    0
  410    00000471 00                           DCB    0
  411    00000472 00                           DCB    0
  412    00000473 00                           DCB    0
  413    00000474 05                           DCB    5
  414    00000475 00                           DCB    0
  415    00000476 64                           DCB 0x64 ; d
  416    00000477 00                           DCB    0
  417    00000478 EA                           DCB 0xEA ; ?
  418    00000479 00                           DCB    0
  419    0000047A DB                           DCB 0xDB ; ?
  420    0000047B 00                           DCB    0
  421    0000047C              a2Ccq_wtf_dat£º
  422    0000047C 32                           DCB 0x32
  423    0000047D 3A                           DCB 0x3A
  424    0000047E 5C                           DCB 0x5C
  425    0000047F 63                           DCB 0x63
  426    00000480 63                           DCB 0x63
  427    00000481 71                           DCB 0x71
  428    00000482 5F                           DCB 0x5F
  429    00000483 77                           DCB 0x77
  430    00000484 74                           DCB 0x74
  431    00000485 66                           DCB 0x66
  432    00000486 2E                           DCB 0x2E
  433    00000487 64                           DCB 0x64
  434    00000488 61                           DCB 0x61
  435    00000489 74                           DCB 0x74
  436    0000048A 00                           DCB    0
  437    0000048C 30010000                     DCD 0x130
  438    00000490 90F1A7A8                     DCD RAM_BEGIN
  439    00000494 90F1A7A8                     DCD RAM_BEGIN
  440    00000498                  
  441    00000498                  END
##############################
#          CRC:9501          #
#        Errors:   0         #
#        Warnings: 0         #
#        Bytes: 1186         #
##############################



