ROM:A07FFCA0 F8 B5                       PUSH    {R3-R7,LR}
ROM:A07FFCA2 04 1C                       ADD     R4, R0, #0
ROM:A07FFCA4 48 68                       LDR     R0, [R1,#4]
ROM:A07FFCA6 0E 1C                       ADD     R6, R1, #0
ROM:A07FFCA8 21 1C                       ADD     R1, R4, #0
ROM:A07FFCAA FF 31                       ADD     R1, #0xFF
ROM:A07FFCAC C1 31                       ADD     R1, #0xC1
ROM:A07FFCAE 8C 46                       MOV     R12, R1
ROM:A07FFCB0 50 39                       SUB     R1, #0x50
ROM:A07FFCB2 0D 1C                       ADD     R5, R1, #0
ROM:A07FFCB4 EE 4B                       LDR     R3, =0x6402
ROM:A07FFCB6 10 35                       ADD     R5, #0x10
ROM:A07FFCB8 01 27                       MOV     R7, #1
ROM:A07FFCBA 98 42                       CMP     R0, R3
ROM:A07FFCBC 06 D0                       BEQ     loc_A07FFCCC
ROM:A07FFCBC
ROM:A07FFCBE 0F DC                       BGT     loc_A07FFCE0
ROM:A07FFCBE
ROM:A07FFCC0 02 3B                       SUB     R3, #2
ROM:A07FFCC2 98 42                       CMP     R0, R3
ROM:A07FFCC4 46 D0                       BEQ     loc_A07FFD54
ROM:A07FFCC4
ROM:A07FFCC6 01 33                       ADD     R3, #1
ROM:A07FFCC8 98 42                       CMP     R0, R3
ROM:A07FFCCA 67 D1                       BNE     loc_A07FFD9C
ROM:A07FFCCA
ROM:A07FFCCC
ROM:A07FFCCC             loc_A07FFCCC                            ; CODE XREF: ROM:A07FFCBCj
ROM:A07FFCCC 01 20                       MOV     R0, #1
ROM:A07FFCCE 61 46                       MOV     R1, R12
ROM:A07FFCD0 08 62                       STR     R0, [R1,#0x20]
ROM:A07FFCD2 A8 68                       LDR     R0, [R5,#8]
ROM:A07FFCD4 D9 21 C9 01                 MOVL    R1, 0x6C80
ROM:A07FFCD8 00 6F                       LDR     R0, [R0,#0x70]
ROM:A07FFCDA 1B F0 58 EA                 BLX     sub_A081B18C
ROM:A07FFCDA
ROM:A07FFCDE 5D E0                       B       loc_A07FFD9C
ROM:A07FFCDE
ROM:A07FFCE0             ; ---------------------------------------------------------------------------
ROM:A07FFCE0
ROM:A07FFCE0             loc_A07FFCE0                            ; CODE XREF: ROM:A07FFCBEj
ROM:A07FFCE0 E3 4B                       LDR     R3, =0x6402
ROM:A07FFCE2 0C 33                       ADD     R3, #0xC
ROM:A07FFCE4 98 42                       CMP     R0, R3
ROM:A07FFCE6 6B D0                       BEQ     loc_A07FFDC0
ROM:A07FFCE6
ROM:A07FFCE8 E2 4B                       LDR     R3, =0x6CA0
ROM:A07FFCEA 98 42                       CMP     R0, R3
ROM:A07FFCEC 56 D1                       BNE     loc_A07FFD9C
ROM:A07FFCEC
ROM:A07FFCEE AA 68                       LDR     R2, [R5,#8]
ROM:A07FFCF0 F3 68                       LDR     R3, [R6,#0xC]
ROM:A07FFCF2 10 6F                       LDR     R0, [R2,#0x70]
ROM:A07FFCF4 83 42                       CMP     R3, R0
ROM:A07FFCF6 51 D1                       BNE     loc_A07FFD9C
ROM:A07FFCF6
ROM:A07FFCF8 B3 68                       LDR     R3, [R6,#8]
ROM:A07FFCFA 00 2B                       CMP     R3, #0
ROM:A07FFCFC 71 D0                       BEQ     loc_A07FFDE2
ROM:A07FFCFC
ROM:A07FFCFE 01 2B                       CMP     R3, #1
ROM:A07FFD00 4C D1                       BNE     loc_A07FFD9C
ROM:A07FFD00
ROM:A07FFD02 51 6B                       LDR     R1, [R2,#0x34]
ROM:A07FFD04 01 29                       CMP     R1, #1
ROM:A07FFD06 03 D0                       BEQ     loc_A07FFD10
ROM:A07FFD06
ROM:A07FFD08 20 F5 7C FB                 BL      sub_A0520404
ROM:A07FFD08
ROM:A07FFD0C 01 28                       CMP     R0, #1
ROM:A07FFD0E 44 D9                       BLS     loc_A07FFD9A
ROM:A07FFD0E
ROM:A07FFD10
ROM:A07FFD10             loc_A07FFD10                            ; CODE XREF: ROM:A07FFD06j
ROM:A07FFD10 A8 68                       LDR     R0, [R5,#8]
ROM:A07FFD12 00 6F                       LDR     R0, [R0,#0x70]
ROM:A07FFD14 20 F5 76 FB                 BL      sub_A0520404
ROM:A07FFD14
ROM:A07FFD18 26 1C                       ADD     R6, R4, #0
ROM:A07FFD1A 60 36                       ADD     R6, #0x60
ROM:A07FFD1C F0 80                       STRH    R0, [R6,#6]
ROM:A07FFD1E A8 68                       LDR     R0, [R5,#8]
ROM:A07FFD20 00 6F                       LDR     R0, [R0,#0x70]
ROM:A07FFD22 20 F0 82 EC                 BLX     sub_A0820628
ROM:A07FFD22
ROM:A07FFD26 70 80                       STRH    R0, [R6,#2]
ROM:A07FFD28 A8 68                       LDR     R0, [R5,#8]
ROM:A07FFD2A 00 6F                       LDR     R0, [R0,#0x70]
ROM:A07FFD2C D0 30                       ADD     R0, #0xD0
ROM:A07FFD2E 00 7B                       LDRB    R0, [R0,#0xC]
ROM:A07FFD30 00 28                       CMP     R0, #0
ROM:A07FFD32 67 D0                       BEQ     loc_A07FFE04
ROM:A07FFD32
ROM:A07FFD34 D0 4D                       LDR     R5, =unk_A08D1B8F
ROM:A07FFD36 29 1C                       ADD     R1, R5, #0
ROM:A07FFD38 02 20                       MOV     R0, #2
ROM:A07FFD3A E2 F4 4C EC                 BLX     sub_A04E25D4
ROM:A07FFD3A
ROM:A07FFD3E CF 4F                       LDR     R7, =0xEC10
ROM:A07FFD40 00 28                       CMP     R0, #0
ROM:A07FFD42 72 D0                       BEQ     loc_A07FFE2A
ROM:A07FFD42
ROM:A07FFD44 02 DF                       SWI     2
ROM:A07FFD46 3B 1C                       ADD     R3, R7, #0
ROM:A07FFD48 29 1C                       ADD     R1, R5, #0
ROM:A07FFD4A 03 22                       MOV     R2, #3
ROM:A07FFD4C 02 20                       MOV     R0, #2
ROM:A07FFD4E E2 F4 2A EB                 BLX     sub_A04E23A4
ROM:A07FFD4E
ROM:A07FFD52 57 E0                       B       loc_A07FFE04
ROM:A07FFD52
ROM:A07FFD54             ; ---------------------------------------------------------------------------
ROM:A07FFD54
ROM:A07FFD54             loc_A07FFD54                            ; CODE XREF: ROM:A07FFCC4j
ROM:A07FFD54 A0 6D                       LDR     R0, [R4,#0x58]
ROM:A07FFD56 F2 68                       LDR     R2, [R6,#0xC]
ROM:A07FFD58 90 42                       CMP     R0, R2
ROM:A07FFD5A 1F D1                       BNE     loc_A07FFD9C
ROM:A07FFD5A
ROM:A07FFD5C 30 69                       LDR     R0, [R6,#0x10]
ROM:A07FFD5E 80 28                       CMP     R0, #0x80
ROM:A07FFD60 2F D0                       BEQ     loc_A07FFDC2
ROM:A07FFD60
ROM:A07FFD62 84 28                       CMP     R0, #0x84
ROM:A07FFD64 2D D0                       BEQ     loc_A07FFDC2
ROM:A07FFD64
ROM:A07FFD66 85 28                       CMP     R0, #0x85
ROM:A07FFD68 2B D1                       BNE     loc_A07FFDC2
ROM:A07FFD68
ROM:A07FFD6A A8 68                       LDR     R0, [R5,#8]
ROM:A07FFD6C 00 6F                       LDR     R0, [R0,#0x70]
ROM:A07FFD6E 20 F5 49 FB                 BL      sub_A0520404
ROM:A07FFD6E
ROM:A07FFD72 21 1C                       ADD     R1, R4, #0
ROM:A07FFD74 50 31                       ADD     R1, #0x50
ROM:A07FFD76 00 28                       CMP     R0, #0
ROM:A07FFD78 11 D0                       BEQ     loc_A07FFD9E
ROM:A07FFD78
ROM:A07FFD7A 00 27                       MOV     R7, #0
ROM:A07FFD7C 8F 73                       STRB    R7, [R1,#0xE]
ROM:A07FFD7E 20 69                       LDR     R0, [R4,#0x10]
ROM:A07FFD80 01 04                       LSL     R1, R0, #0x10
ROM:A07FFD82 09 0C                       LSR     R1, R1, #0x10
ROM:A07FFD84 A1 85                       STRH    R1, [R4,#0x2C]
ROM:A07FFD86 0C 20                       MOV     R0, #0xC
ROM:A07FFD88 20 61                       STR     R0, [R4,#0x10]
ROM:A07FFD8A BD 48                       LDR     R0, =off_A08CB40C
ROM:A07FFD8C 02 6B                       LDR     R2, [R0,#0x30]
ROM:A07FFD8E 00 2A                       CMP     R2, #0
ROM:A07FFD90 03 D0                       BEQ     loc_A07FFD9A
ROM:A07FFD90
ROM:A07FFD92 0C 22                       MOV     R2, #0xC
ROM:A07FFD94 03 6B                       LDR     R3, [R0,#0x30]
ROM:A07FFD96 20 1C                       ADD     R0, R4, #0
ROM:A07FFD98 98 47                       BLX     R3
ROM:A07FFD98
ROM:A07FFD9A
ROM:A07FFD9A             loc_A07FFD9A                            ; CODE XREF: ROM:A07FFD0Ej
ROM:A07FFD9A                                                     ; ROM:A07FFD90j
ROM:A07FFD9A 75 E0                       B       loc_A07FFE88
ROM:A07FFD9A
ROM:A07FFD9C             ; ---------------------------------------------------------------------------
ROM:A07FFD9C
ROM:A07FFD9C             loc_A07FFD9C                            ; CODE XREF: ROM:A07FFCCAj
ROM:A07FFD9C                                                     ; ROM:A07FFCDEj
ROM:A07FFD9C                                                     ; ROM:A07FFCECj
ROM:A07FFD9C                                                     ; ROM:A07FFCF6j
ROM:A07FFD9C                                                     ; ROM:A07FFD00j
ROM:A07FFD9C                                                     ; ROM:A07FFD5Aj
ROM:A07FFD9C C8 E0                       B       loc_A07FFF30
ROM:A07FFD9C
ROM:A07FFD9E             ; ---------------------------------------------------------------------------
ROM:A07FFD9E
ROM:A07FFD9E             loc_A07FFD9E                            ; CODE XREF: ROM:A07FFD78j
ROM:A07FFD9E 00 27                       MOV     R7, #0
ROM:A07FFDA0 8F 73                       STRB    R7, [R1,#0xE]
ROM:A07FFDA2 20 69                       LDR     R0, [R4,#0x10]
ROM:A07FFDA4 01 04                       LSL     R1, R0, #0x10
ROM:A07FFDA6 09 0C                       LSR     R1, R1, #0x10
ROM:A07FFDA8 A1 85                       STRH    R1, [R4,#0x2C]
ROM:A07FFDAA 0B 20                       MOV     R0, #0xB
ROM:A07FFDAC 20 61                       STR     R0, [R4,#0x10]
ROM:A07FFDAE B4 48                       LDR     R0, =off_A08CB40C
ROM:A07FFDB0 C2 6A                       LDR     R2, [R0,#0x2C]
ROM:A07FFDB2 00 2A                       CMP     R2, #0
ROM:A07FFDB4 68 D0                       BEQ     loc_A07FFE88
ROM:A07FFDB4
ROM:A07FFDB6 0B 22                       MOV     R2, #0xB
ROM:A07FFDB8 C3 6A                       LDR     R3, [R0,#0x2C]
ROM:A07FFDBA 20 1C                       ADD     R0, R4, #0
ROM:A07FFDBC 98 47                       BLX     R3
ROM:A07FFDBE 63 E0                       B       loc_A07FFE88
ROM:A07FFDBE
ROM:A07FFDC0             ; ---------------------------------------------------------------------------
ROM:A07FFDC0
ROM:A07FFDC0             loc_A07FFDC0                            ; CODE XREF: ROM:A07FFCE6j
ROM:A07FFDC0 7E E0                       B       loc_A07FFEC0
ROM:A07FFDC0
ROM:A07FFDC2             ; ---------------------------------------------------------------------------
ROM:A07FFDC2
ROM:A07FFDC2             loc_A07FFDC2                            ; CODE XREF: ROM:A07FFD60j
ROM:A07FFDC2                                                     ; ROM:A07FFD64j
ROM:A07FFDC2                                                     ; ROM:A07FFD68j
ROM:A07FFDC2 08 79                       LDRB    R0, [R1,#4]
ROM:A07FFDC4 A9 68                       LDR     R1, [R5,#8]
ROM:A07FFDC6 00 27                       MOV     R7, #0
ROM:A07FFDC8 08 70                       STRB    R0, [R1]
ROM:A07FFDCA A8 68                       LDR     R0, [R5,#8]
ROM:A07FFDCC 87 67                       STR     R7, [R0,#0x78]
ROM:A07FFDCE A8 68                       LDR     R0, [R5,#8]
ROM:A07FFDD0 00 6F                       LDR     R0, [R0,#0x70]
ROM:A07FFDD2 00 28                       CMP     R0, #0
ROM:A07FFDD4 03 D0                       BEQ     loc_A07FFDDE
ROM:A07FFDD4
ROM:A07FFDD6
ROM:A07FFDD6             loc_A07FFDD6                            ; CODE XREF: ROM:A07FFE9Ej
ROM:A07FFDD6 1B F0 C8 E9                 BLX     sub_A081B168
ROM:A07FFDD6
ROM:A07FFDDA A8 68                       LDR     R0, [R5,#8]
ROM:A07FFDDC 07 67                       STR     R7, [R0,#0x70]
ROM:A07FFDDC
ROM:A07FFDDE
ROM:A07FFDDE             loc_A07FFDDE                            ; CODE XREF: ROM:A07FFDD4j
ROM:A07FFDDE 27 61                       STR     R7, [R4,#0x10]
ROM:A07FFDE0 52 E0                       B       loc_A07FFE88
ROM:A07FFDE0
ROM:A07FFDE2             ; ---------------------------------------------------------------------------
ROM:A07FFDE2
ROM:A07FFDE2             loc_A07FFDE2                            ; CODE XREF: ROM:A07FFCFCj
ROM:A07FFDE2 FF E7                       B       loc_A07FFDE4
ROM:A07FFDE4
ROM:A07FFDE4             loc_A07FFDE4
ROM:A07FFDE4 D0 30                       ADD     R0, #0xD0
ROM:A07FFDE6 00 7B                       LDRB    R0, [R0,#0xC]
ROM:A07FFDE8 00 28                       CMP     R0, #0
ROM:A07FFDEA 0C D0                       BEQ     loc_A07FFE06
ROM:A07FFDEA
ROM:A07FFDEC 13 28                       CMP     R0, #0x13
ROM:A07FFDEE 4C D1                       BNE     loc_A07FFE8A
ROM:A07FFDEE
ROM:A07FFDF0 60 46                       MOV     R0, R12
ROM:A07FFDF2 00 6A                       LDR     R0, [R0,#0x20]
ROM:A07FFDF4 00 28                       CMP     R0, #0
ROM:A07FFDF6 25 D0                       BEQ     loc_A07FFE44
ROM:A07FFDF6
ROM:A07FFDF8 80 20                       MOV     R0, #0x80
ROM:A07FFDFA A0 61                       STR     R0, [R4,#0x18]
ROM:A07FFDFC 02 20                       MOV     R0, #2
ROM:A07FFDFE C0 43                       MVN     R0, R0
ROM:A07FFE00 20 61                       STR     R0, [R4,#0x10]
ROM:A07FFE02 41 E0                       B       loc_A07FFE88
ROM:A07FFE02
ROM:A07FFE04             ; ---------------------------------------------------------------------------
ROM:A07FFE04
ROM:A07FFE04             loc_A07FFE04                            ; CODE XREF: ROM:A07FFD32j
ROM:A07FFE04                                                     ; ROM:A07FFD52j
ROM:A07FFE04 53 E0                       B       loc_A07FFEAE
ROM:A07FFE04
ROM:A07FFE06             ; ---------------------------------------------------------------------------
ROM:A07FFE06
ROM:A07FFE06             loc_A07FFE06                            ; CODE XREF: ROM:A07FFDEAj
ROM:A07FFE06 08 79                       LDRB    R0, [R1,#4]
ROM:A07FFE08 00 27                       MOV     R7, #0
ROM:A07FFE0A 10 70                       STRB    R0, [R2]
ROM:A07FFE0C A8 68                       LDR     R0, [R5,#8]
ROM:A07FFE0E 87 67                       STR     R7, [R0,#0x78]
ROM:A07FFE10 28 6A                       LDR     R0, [R5,#0x20]
ROM:A07FFE12 A9 68                       LDR     R1, [R5,#8]
ROM:A07FFE14 48 63                       STR     R0, [R1,#0x34]
ROM:A07FFE16 A8 68                       LDR     R0, [R5,#8]
ROM:A07FFE18 00 6F                       LDR     R0, [R0,#0x70]
ROM:A07FFE1A 1B F0 A6 E9                 BLX     sub_A081B168
ROM:A07FFE1A
ROM:A07FFE1E A8 68                       LDR     R0, [R5,#8]
ROM:A07FFE20 07 67                       STR     R7, [R0,#0x70]
ROM:A07FFE22 20 69                       LDR     R0, [R4,#0x10]
ROM:A07FFE24 01 04                       LSL     R1, R0, #0x10
ROM:A07FFE26 09 0C                       LSR     R1, R1, #0x10
ROM:A07FFE28 00 E0                       B       loc_A07FFE2C
ROM:A07FFE28
ROM:A07FFE2A             ; ---------------------------------------------------------------------------
ROM:A07FFE2A
ROM:A07FFE2A             loc_A07FFE2A                            ; CODE XREF: ROM:A07FFD42j
ROM:A07FFE2A 39 E0                       B       loc_A07FFEA0
ROM:A07FFE2A
ROM:A07FFE2C             ; ---------------------------------------------------------------------------
ROM:A07FFE2C
ROM:A07FFE2C             loc_A07FFE2C                            ; CODE XREF: ROM:A07FFE28j
ROM:A07FFE2C A1 85                       STRH    R1, [R4,#0x2C]
ROM:A07FFE2E 01 20                       MOV     R0, #1
ROM:A07FFE30 20 61                       STR     R0, [R4,#0x10]
ROM:A07FFE32 93 48                       LDR     R0, =off_A08CB40C
ROM:A07FFE34 42 68                       LDR     R2, [R0,#4]
ROM:A07FFE36 00 2A                       CMP     R2, #0
ROM:A07FFE38 20 D0                       BEQ     loc_A07FFE7C
ROM:A07FFE38
ROM:A07FFE3A 01 22                       MOV     R2, #1
ROM:A07FFE3C 43 68                       LDR     R3, [R0,#4]
ROM:A07FFE3E 20 1C                       ADD     R0, R4, #0
ROM:A07FFE40 98 47                       BLX     R3
ROM:A07FFE42 1B E0                       B       loc_A07FFE7C
ROM:A07FFE42
ROM:A07FFE44             ; ---------------------------------------------------------------------------
ROM:A07FFE44
ROM:A07FFE44             loc_A07FFE44                            ; CODE XREF: ROM:A07FFDF6j
ROM:A07FFE44 08 79                       LDRB    R0, [R1,#4]
ROM:A07FFE46 00 27                       MOV     R7, #0
ROM:A07FFE48 10 70                       STRB    R0, [R2]
ROM:A07FFE4A A8 68                       LDR     R0, [R5,#8]
ROM:A07FFE4C 87 67                       STR     R7, [R0,#0x78]
ROM:A07FFE4E 28 6A                       LDR     R0, [R5,#0x20]
ROM:A07FFE50 A9 68                       LDR     R1, [R5,#8]
ROM:A07FFE52 48 63                       STR     R0, [R1,#0x34]
ROM:A07FFE54 A8 68                       LDR     R0, [R5,#8]
ROM:A07FFE56 00 6F                       LDR     R0, [R0,#0x70]
ROM:A07FFE58 1B F0 86 E9                 BLX     sub_A081B168
ROM:A07FFE58
ROM:A07FFE5C A8 68                       LDR     R0, [R5,#8]
ROM:A07FFE5E 07 67                       STR     R7, [R0,#0x70]
ROM:A07FFE60 20 69                       LDR     R0, [R4,#0x10]
ROM:A07FFE62 01 04                       LSL     R1, R0, #0x10
ROM:A07FFE64 09 0C                       LSR     R1, R1, #0x10
ROM:A07FFE66 A1 85                       STRH    R1, [R4,#0x2C]
ROM:A07FFE68 01 20                       MOV     R0, #1
ROM:A07FFE6A 20 61                       STR     R0, [R4,#0x10]
ROM:A07FFE6C 84 48                       LDR     R0, =off_A08CB40C
ROM:A07FFE6E 42 68                       LDR     R2, [R0,#4]
ROM:A07FFE70 00 2A                       CMP     R2, #0
ROM:A07FFE72 03 D0                       BEQ     loc_A07FFE7C
ROM:A07FFE72
ROM:A07FFE74 01 22                       MOV     R2, #1
ROM:A07FFE76 43 68                       LDR     R3, [R0,#4]
ROM:A07FFE78 20 1C                       ADD     R0, R4, #0
ROM:A07FFE7A 98 47                       BLX     R3
ROM:A07FFE7A
ROM:A07FFE7C
ROM:A07FFE7C             loc_A07FFE7C                            ; CODE XREF: ROM:A07FFE38j
ROM:A07FFE7C                                                     ; ROM:A07FFE42j
ROM:A07FFE7C                                                     ; ROM:A07FFE72j
ROM:A07FFE7C 01 21                       MOV     R1, #1
ROM:A07FFE7E A0 6C                       LDR     R0, [R4,#0x48]
ROM:A07FFE80 19 F0 76 ED                 BLX     sub_A0819970
ROM:A07FFE80
ROM:A07FFE84 1A F0 DA ED                 BLX     sub_A081AA3C
ROM:A07FFE84
ROM:A07FFE88
ROM:A07FFE88             loc_A07FFE88                            ; CODE XREF: ROM:loc_A07FFD9Aj
ROM:A07FFE88                                                     ; ROM:A07FFDB4j
ROM:A07FFE88                                                     ; ROM:A07FFDBEj
ROM:A07FFE88                                                     ; ROM:A07FFDE0j
ROM:A07FFE88                                                     ; ROM:A07FFE02j
ROM:A07FFE88 18 E0                       B       loc_A07FFEBC
ROM:A07FFE88
ROM:A07FFE8A             ; ---------------------------------------------------------------------------
ROM:A07FFE8A
ROM:A07FFE8A             loc_A07FFE8A                            ; CODE XREF: ROM:A07FFDEEj
ROM:A07FFE8A 08 79                       LDRB    R0, [R1,#4]
ROM:A07FFE8C 00 27                       MOV     R7, #0
ROM:A07FFE8E 10 70                       STRB    R0, [R2]
ROM:A07FFE90 A8 68                       LDR     R0, [R5,#8]
ROM:A07FFE92 87 67                       STR     R7, [R0,#0x78]
ROM:A07FFE94 28 6A                       LDR     R0, [R5,#0x20]
ROM:A07FFE96 A9 68                       LDR     R1, [R5,#8]
ROM:A07FFE98 48 63                       STR     R0, [R1,#0x34]
ROM:A07FFE9A A8 68                       LDR     R0, [R5,#8]
ROM:A07FFE9C 00 6F                       LDR     R0, [R0,#0x70]
ROM:A07FFE9E 9A E7                       B       loc_A07FFDD6
ROM:A07FFE9E
ROM:A07FFEA0             ; ---------------------------------------------------------------------------
ROM:A07FFEA0
ROM:A07FFEA0             loc_A07FFEA0                            ; CODE XREF: ROM:loc_A07FFE2Aj
ROM:A07FFEA0 03 DF                       SWI     3
ROM:A07FFEA2 3B 1C                       ADD     R3, R7, #0
ROM:A07FFEA4 29 1C                       ADD     R1, R5, #0
ROM:A07FFEA6 03 22                       MOV     R2, #3
ROM:A07FFEA8 02 20                       MOV     R0, #2
ROM:A07FFEAA E2 F4 EA EA                 BLX     sub_A04E2480
ROM:A07FFEAA
ROM:A07FFEAE
ROM:A07FFEAE             loc_A07FFEAE                            ; CODE XREF: ROM:loc_A07FFE04j
ROM:A07FFEAE 72 88                       LDRH    R2, [R6,#2]
ROM:A07FFEB0 F1 88                       LDRH    R1, [R6,#6]
ROM:A07FFEB2 A0 6C                       LDR     R0, [R4,#0x48]
ROM:A07FFEB4 12 F0 2E F9                 BL      sub_A0812114
ROM:A07FFEB4
ROM:A07FFEB8 1C F0 E4 ED                 BLX     sub_A081CA84
ROM:A07FFEB8
ROM:A07FFEBC
ROM:A07FFEBC             loc_A07FFEBC                            ; CODE XREF: ROM:loc_A07FFE88j
ROM:A07FFEBC                                                     ; ROM:A07FFF2Ej
ROM:A07FFEBC 00 27                       MOV     R7, #0
ROM:A07FFEBE 37 E0                       B       loc_A07FFF30
ROM:A07FFEBE
ROM:A07FFEC0             ; ---------------------------------------------------------------------------
ROM:A07FFEC0
ROM:A07FFEC0             loc_A07FFEC0                            ; CODE XREF: ROM:loc_A07FFDC0j
ROM:A07FFEC0 A0 6B                       LDR     R0, [R4,#0x38]
ROM:A07FFEC2 F2 68                       LDR     R2, [R6,#0xC]
ROM:A07FFEC4 90 42                       CMP     R0, R2
ROM:A07FFEC6 28 D1                       BNE     loc_A07FFF1A
ROM:A07FFEC6
ROM:A07FFEC8 32 69                       LDR     R2, [R6,#0x10]
ROM:A07FFECA 01 2A                       CMP     R2, #1
ROM:A07FFECC 15 D1                       BNE     loc_A07FFEFA
ROM:A07FFECC
ROM:A07FFECE 00 28                       CMP     R0, #0
ROM:A07FFED0 02 D0                       BEQ     loc_A07FFED8
ROM:A07FFED0
ROM:A07FFED2 01 21                       MOV     R1, #1
ROM:A07FFED4 19 F0 4C ED                 BLX     sub_A0819970
ROM:A07FFED4
ROM:A07FFED8
ROM:A07FFED8             loc_A07FFED8                            ; CODE XREF: ROM:A07FFED0j
ROM:A07FFED8 00 27                       MOV     R7, #0
ROM:A07FFEDA EF 62                       STR     R7, [R5,#0x2C]
ROM:A07FFEDC 20 69                       LDR     R0, [R4,#0x10]
ROM:A07FFEDE 01 04                       LSL     R1, R0, #0x10
ROM:A07FFEE0 09 0C                       LSR     R1, R1, #0x10
ROM:A07FFEE2 A1 85                       STRH    R1, [R4,#0x2C]
ROM:A07FFEE4 0B 20                       MOV     R0, #0xB
ROM:A07FFEE6 20 61                       STR     R0, [R4,#0x10]
ROM:A07FFEE8 65 48                       LDR     R0, =off_A08CB40C
ROM:A07FFEEA C2 6A                       LDR     R2, [R0,#0x2C]
ROM:A07FFEEC 00 2A                       CMP     R2, #0
ROM:A07FFEEE 13 D0                       BEQ     loc_A07FFF18
ROM:A07FFEEE
ROM:A07FFEF0 0B 22                       MOV     R2, #0xB
ROM:A07FFEF2 C3 6A                       LDR     R3, [R0,#0x2C]
ROM:A07FFEF4 20 1C                       ADD     R0, R4, #0
ROM:A07FFEF6 98 47                       BLX     R3
ROM:A07FFEF8 0E E0                       B       loc_A07FFF18
ROM:A07FFEF8
ROM:A07FFEFA             ; ---------------------------------------------------------------------------
ROM:A07FFEFA
ROM:A07FFEFA             loc_A07FFEFA                            ; CODE XREF: ROM:A07FFECCj
ROM:A07FFEFA 08 79                       LDRB    R0, [R1,#4]
ROM:A07FFEFC A9 68                       LDR     R1, [R5,#8]
ROM:A07FFEFE 00 27                       MOV     R7, #0
ROM:A07FFF00 08 70                       STRB    R0, [R1]
ROM:A07FFF02 A8 68                       LDR     R0, [R5,#8]
ROM:A07FFF04 87 67                       STR     R7, [R0,#0x78]
ROM:A07FFF06 A8 68                       LDR     R0, [R5,#8]
ROM:A07FFF08 00 6F                       LDR     R0, [R0,#0x70]
ROM:A07FFF0A 00 28                       CMP     R0, #0
ROM:A07FFF0C 03 D0                       BEQ     loc_A07FFF16
ROM:A07FFF0C
ROM:A07FFF0E 1B F0 2C E9                 BLX     sub_A081B168
ROM:A07FFF0E
ROM:A07FFF12 A8 68                       LDR     R0, [R5,#8]
ROM:A07FFF14 07 67                       STR     R7, [R0,#0x70]
ROM:A07FFF14
ROM:A07FFF16
ROM:A07FFF16             loc_A07FFF16                            ; CODE XREF: ROM:A07FFF0Cj
ROM:A07FFF16 27 61                       STR     R7, [R4,#0x10]
ROM:A07FFF16
ROM:A07FFF18
ROM:A07FFF18             loc_A07FFF18                            ; CODE XREF: ROM:A07FFEEEj
ROM:A07FFF18                                                     ; ROM:A07FFEF8j
ROM:A07FFF18 00 27                       MOV     R7, #0
ROM:A07FFF18
ROM:A07FFF1A
ROM:A07FFF1A             loc_A07FFF1A                            ; CODE XREF: ROM:A07FFEC6j
ROM:A07FFF1A A0 6C                       LDR     R0, [R4,#0x48]
ROM:A07FFF1C F1 68                       LDR     R1, [R6,#0xC]
ROM:A07FFF1E 88 42                       CMP     R0, R1
ROM:A07FFF20 06 D1                       BNE     loc_A07FFF30
ROM:A07FFF20
ROM:A07FFF22 A8 68                       LDR     R0, [R5,#8]
ROM:A07FFF24 D9 21 C9 01                 MOVL    R1, 0x6C80
ROM:A07FFF28 00 6F                       LDR     R0, [R0,#0x70]
ROM:A07FFF2A 1B F0 30 E9                 BLX     sub_A081B18C
ROM:A07FFF2A
ROM:A07FFF2E C5 E7                       B       loc_A07FFEBC
ROM:A07FFF2E
ROM:A07FFF30             ; ---------------------------------------------------------------------------
ROM:A07FFF30
ROM:A07FFF30             loc_A07FFF30                            ; CODE XREF: ROM:loc_A07FFD9Cj
ROM:A07FFF30                                                     ; ROM:A07FFEBEj
ROM:A07FFF30                                                     ; ROM:A07FFF20j
ROM:A07FFF30 38 1C                       ADD     R0, R7, #0
ROM:A07FFF32 F8 BD                       POP     {R3-R7,PC}
ROM:A07FFF32
ROM:A07FFF34             ; ---------------------------------------------------------------------------
ROM:A07FFF34 F8 B5                       PUSH    {R3-R7,LR}
ROM:A07FFF36 05 1C                       ADD     R5, R0, #0
ROM:A07FFF38 FF 35                       ADD     R5, #0xFF
ROM:A07FFF3A 81 35                       ADD     R5, #0x81
ROM:A07FFF3C 04 1C                       ADD     R4, R0, #0
ROM:A07FFF3E A8 68                       LDR     R0, [R5,#8]
ROM:A07FFF40 4C 4F                       LDR     R7, =0x6CA0
ROM:A07FFF42 81 6F                       LDR     R1, [R0,#0x78]
ROM:A07FFF44 18 3F                       SUB     R7, #0x18
ROM:A07FFF46 01 29                       CMP     R1, #1
ROM:A07FFF48 0A D1                       BNE     loc_A07FFF60
ROM:A07FFF48
ROM:A07FFF4A 00 6F                       LDR     R0, [R0,#0x70]
ROM:A07FFF4C 19 F0 B0 ED                 BLX     sub_A0819AB0
ROM:A07FFF4C
ROM:A07FFF50 4C 49                       LDR     R1, =0xFFFF
ROM:A07FFF52 88 42                       CMP     R0, R1
ROM:A07FFF54 04 D1                       BNE     loc_A07FFF60
ROM:A07FFF54
ROM:A07FFF56 A8 68                       LDR     R0, [R5,#8]
ROM:A07FFF58 00 6F                       LDR     R0, [R0,#0x70]
ROM:A07FFF5A 20 F0 38 E9                 BLX     sub_A08201CC
ROM:A07FFF5A
ROM:A07FFF5E 12 E0                       B       loc_A07FFF86
ROM:A07FFF5E
ROM:A07FFF60             ; ---------------------------------------------------------------------------
ROM:A07FFF60
ROM:A07FFF60             loc_A07FFF60                            ; CODE XREF: ROM:A07FFF48j
ROM:A07FFF60                                                     ; ROM:A07FFF54j
ROM:A07FFF60 A8 68                       LDR     R0, [R5,#8]
ROM:A07FFF62 81 6F                       LDR     R1, [R0,#0x78]
ROM:A07FFF64 01 29                       CMP     R1, #1
ROM:A07FFF66 11 D1                       BNE     loc_A07FFF8C
ROM:A07FFF66
ROM:A07FFF68 00 6F                       LDR     R0, [R0,#0x70]
ROM:A07FFF6A 20 F5 4B FA                 BL      sub_A0520404
ROM:A07FFF6A
ROM:A07FFF6E 00 28                       CMP     R0, #0
ROM:A07FFF70 0C D0                       BEQ     loc_A07FFF8C
ROM:A07FFF70
ROM:A07FFF72 A8 68                       LDR     R0, [R5,#8]
ROM:A07FFF74 01 21                       MOV     R1, #1
ROM:A07FFF76 00 6F                       LDR     R0, [R0,#0x70]
ROM:A07FFF78 20 F0 3E EB                 BLX     sub_A08205F8
ROM:A07FFF78
ROM:A07FFF7C A8 68                       LDR     R0, [R5,#8]
ROM:A07FFF7E 00 21                       MOV     R1, #0
ROM:A07FFF80 00 6F                       LDR     R0, [R0,#0x70]
ROM:A07FFF82 20 F0 18 E9                 BLX     sub_A08201B4
ROM:A07FFF82
ROM:A07FFF86
ROM:A07FFF86             loc_A07FFF86                            ; CODE XREF: ROM:A07FFF5Ej
ROM:A07FFF86 A8 68                       LDR     R0, [R5,#8]
ROM:A07FFF88 00 6F                       LDR     R0, [R0,#0x70]
ROM:A07FFF8A 23 E0                       B       loc_A07FFFD4
ROM:A07FFF8A
ROM:A07FFF8C             ; ---------------------------------------------------------------------------
ROM:A07FFF8C
ROM:A07FFF8C             loc_A07FFF8C                            ; CODE XREF: ROM:A07FFF66j
ROM:A07FFF8C                                                     ; ROM:A07FFF70j
ROM:A07FFF8C 25 1C                       ADD     R5, R4, #0
ROM:A07FFF8E FF 35                       ADD     R5, #0xFF
ROM:A07FFF90 C1 35                       ADD     R5, #0xC1
ROM:A07FFF92 00 20                       MOV     R0, #0
ROM:A07FFF94 A8 60                       STR     R0, [R5,#8]
ROM:A07FFF96 5E 20                       MOV     R0, #0x5E
ROM:A07FFF98 00 5D                       LDRB    R0, [R0,R4]
ROM:A07FFF9A 2E 1C                       ADD     R6, R5, #0
ROM:A07FFF9C 80 3E                       SUB     R6, #0x80
ROM:A07FFF9E 27 28                       CMP     R0, #0x27
ROM:A07FFFA0 05 D0                       BEQ     loc_A07FFFAE
ROM:A07FFFA0
ROM:A07FFFA2 28 28                       CMP     R0, #0x28
ROM:A07FFFA4 03 D0                       BEQ     loc_A07FFFAE
ROM:A07FFFA4
ROM:A07FFFA6 37 49                       LDR     R1, =0xFFFF
ROM:A07FFFA8 30 6B                       LDR     R0, [R6,#0x30]
ROM:A07FFFAA 20 F0 10 E9                 BLX     sub_A08201CC
ROM:A07FFFAA
ROM:A07FFFAE
ROM:A07FFFAE             loc_A07FFFAE                            ; CODE XREF: ROM:A07FFFA0j
ROM:A07FFFAE                                                     ; ROM:A07FFFA4j
ROM:A07FFFAE 68 68                       LDR     R0, [R5,#4]
ROM:A07FFFB0 00 28                       CMP     R0, #0
ROM:A07FFFB2 0E D1                       BNE     loc_A07FFFD2
ROM:A07FFFB2
ROM:A07FFFB4 34 49                       LDR     R1, =(sub_A0092F92+1)
ROM:A07FFFB6 35 48                       LDR     R0, =(sub_A0092F50+1)
ROM:A07FFFB8 1B F0 EE E8                 BLX     sub_A081B198
ROM:A07FFFB8
ROM:A07FFFBC 01 1C                       ADD     R1, R0, #0
ROM:A07FFFBE 68 60                       STR     R0, [R5,#4]
ROM:A07FFFC0 30 6B                       LDR     R0, [R6,#0x30]
ROM:A07FFFC2 1F F0 F2 EC                 BLX     sub_A081F9A8
ROM:A07FFFC2
ROM:A07FFFC6 00 28                       CMP     R0, #0
ROM:A07FFFC8 03 D0                       BEQ     loc_A07FFFD2
ROM:A07FFFC8
ROM:A07FFFCA 02 20                       MOV     R0, #2
ROM:A07FFFCC C0 43                       MVN     R0, R0
ROM:A07FFFCE 20 61                       STR     R0, [R4,#0x10]
ROM:A07FFFCE
ROM:A07FFFD0
ROM:A07FFFD0             loc_A07FFFD0                            ; CODE XREF: ROM:A07FFFDAj
ROM:A07FFFD0 F8 BD                       POP     {R3-R7,PC}
ROM:A07FFFD0
ROM:A07FFFD2             ; ---------------------------------------------------------------------------
ROM:A07FFFD2
ROM:A07FFFD2             loc_A07FFFD2                            ; CODE XREF: ROM:A07FFFB2j
ROM:A07FFFD2                                                     ; ROM:A07FFFC8j
ROM:A07FFFD2 68 68                       LDR     R0, [R5,#4]
ROM:A07FFFD2
ROM:A07FFFD4
ROM:A07FFFD4             loc_A07FFFD4                            ; CODE XREF: ROM:A07FFF8Aj
ROM:A07FFFD4 39 1C                       ADD     R1, R7, #0
ROM:A07FFFD6 1B F0 DA E8                 BLX     sub_A081B18C
ROM:A07FFFD6
ROM:A07FFFDA F9 E7                       B       loc_A07FFFD0
ROM:A07FFFDA
ROM:A07FFFDC             ; ---------------------------------------------------------------------------
ROM:A07FFFDC F8 B5                       PUSH    {R3-R7,LR}
ROM:A07FFFDE 04 1C                       ADD     R4, R0, #0
ROM:A07FFFE0 48 68                       LDR     R0, [R1,#4]
ROM:A07FFFE2 24 4A                       LDR     R2, =0x6CA0
ROM:A07FFFE4 90 42                       CMP     R0, R2
ROM:A07FFFE6 6F D1                       BNE     loc_A08000C8
ROM:A07FFFE6
ROM:A07FFFE8 26 1C                       ADD     R6, R4, #0
ROM:A07FFFEA FF 36                       ADD     R6, #0xFF
ROM:A07FFFEC C1 36                       ADD     R6, #0xC1
ROM:A07FFFEE C9 68                       LDR     R1, [R1,#0xC]
ROM:A07FFFF0 70 68                       LDR     R0, [R6,#4]
ROM:A07FFFF2 35 1C                       ADD     R5, R6, #0
ROM:A07FFFF4 40 3D                       SUB     R5, #0x40
ROM:A07FFFF6 81 42                       CMP     R1, R0
ROM:A07FFFF8 67 D1                       BNE     loc_A08000CA
ROM:A07FFFF8
ROM:A07FFFFA DC 21                       MOV     R1, #0xDC
ROM:A07FFFFC 09 5C                       LDRB    R1, [R1,R0]
ROM:A07FFFFE 27 1C                       ADD     R7, R4, #0
ROM:A0800000 50 37                       ADD     R7, #0x50
ROM:A0800002 00 29                       CMP     R1, #0
ROM:A0800004 64 D1                       BNE     loc_A08000D0
ROM:A0800004
ROM:A0800006 19 F0 66 ED                 BLX     sub_A0819AD4
ROM:A0800006
ROM:A080000A 05 1C                       ADD     R5, R0, #0
ROM:A080000C FF 20                       MOV     R0, #0xFF
ROM:A080000E 71 30                       ADD     R0, #0x71
ROM:A0800010 00 59                       LDR     R0, [R0,R4]
ROM:A0800012 29 1C                       ADD     R1, R5, #0
ROM:A0800014 1E F0 B6 EF                 BLX     sub_A081EF84
ROM:A0800014
ROM:A0800018 B1 68                       LDR     R1, [R6,#8]
ROM:A080001A 01 31                       ADD     R1, #1
ROM:A080001C B1 60                       STR     R1, [R6,#8]
ROM:A080001E B8 7B                       LDRB    R0, [R7,#0xE]
ROM:A0800020 27 28                       CMP     R0, #0x27
ROM:A0800022 14 D0                       BEQ     loc_A080004E
ROM:A0800022
ROM:A0800024 28 28                       CMP     R0, #0x28
ROM:A0800026 12 D0                       BEQ     loc_A080004E
ROM:A0800026
ROM:A0800028 7E 20                       MOV     R0, #0x7E
ROM:A080002A 00 5B                       LDRH    R0, [R0,R4]
ROM:A080002C 81 42                       CMP     R1, R0
ROM:A080002E 4D D1                       BNE     loc_A08000CC
ROM:A080002E
ROM:A0800030 20 69                       LDR     R0, [R4,#0x10]
ROM:A0800032 01 04                       LSL     R1, R0, #0x10
ROM:A0800034 09 0C                       LSR     R1, R1, #0x10
ROM:A0800036 A1 85                       STRH    R1, [R4,#0x2C]
ROM:A0800038 00 20                       MOV     R0, #0
ROM:A080003A 20 61                       STR     R0, [R4,#0x10]
ROM:A080003C 10 48                       LDR     R0, =off_A08CB40C
ROM:A080003E 02 68                       LDR     R2, [R0]
ROM:A0800040 00 2A                       CMP     R2, #0
ROM:A0800042 40 D0                       BEQ     loc_A08000C6
ROM:A0800042
ROM:A0800044 00 22                       MOV     R2, #0
ROM:A0800046 03 68                       LDR     R3, [R0]
ROM:A0800048 20 1C                       ADD     R0, R4, #0
ROM:A080004A 98 47                       BLX     R3
ROM:A080004C 3B E0                       B       loc_A08000C6
ROM:A080004C
ROM:A080004E             ; ---------------------------------------------------------------------------
ROM:A080004E
ROM:A080004E             loc_A080004E                            ; CODE XREF: ROM:A0800022j
ROM:A080004E                                                     ; ROM:A0800026j
ROM:A080004E 28 1C                       ADD     R0, R5, #0
ROM:A0800050 20 F5 74 FB                 BL      sub_A052073C
ROM:A0800050
ROM:A0800054 04 28                       CMP     R0, #4
ROM:A0800056 06 D0                       BEQ     loc_A0800066
ROM:A0800056
ROM:A0800058 01 28                       CMP     R0, #1
ROM:A080005A 04 D0                       BEQ     loc_A0800066
ROM:A080005A
ROM:A080005C 3D 28                       CMP     R0, #0x3D
ROM:A080005E 35 D1                       BNE     loc_A08000CC
ROM:A080005E
ROM:A0800060 B9 7B                       LDRB    R1, [R7,#0xE]
ROM:A0800062 28 29                       CMP     R1, #0x28
ROM:A0800064 32 D0                       BEQ     loc_A08000CC
ROM:A0800064
ROM:A0800066
ROM:A0800066             loc_A0800066                            ; CODE XREF: ROM:A0800056j
ROM:A0800066                                                     ; ROM:A080005Aj
ROM:A0800066 B9 7B                       LDRB    R1, [R7,#0xE]
ROM:A0800068 27 29                       CMP     R1, #0x27
ROM:A080006A 13 D1                       BNE     loc_A0800094
ROM:A080006A
ROM:A080006C 08 49                       LDR     R1, =0x113E8
ROM:A080006E 18 E0                       B       loc_A08000A2
ROM:A080006E
ROM:A080006E             ; ---------------------------------------------------------------------------
ROM:A0800070 02 64 00 00 dword_A0800070  DCD 0x6402              ; DATA XREF: ROM:A07FFCB4r
ROM:A0800070                                                     ; ROM:loc_A07FFCE0r
ROM:A0800074 A0 6C 00 00 dword_A0800074  DCD 0x6CA0              ; DATA XREF: ROM:A07FFCE8r
ROM:A0800074                                                     ; ROM:A07FFF40r
ROM:A0800074                                                     ; ROM:A07FFFE2r
ROM:A0800078 8F 1B 8D A0 off_A0800078    DCD unk_A08D1B8F        ; DATA XREF: ROM:A07FFD34r
ROM:A080007C 10 EC 00 00 dword_A080007C  DCD 0xEC10              ; DATA XREF: ROM:A07FFD3Er
ROM:A0800080 0C B4 8C A0 off_A0800080    DCD off_A08CB40C        ; DATA XREF: ROM:A07FFD8Ar
ROM:A0800080                                                     ; ROM:A07FFDAEr
ROM:A0800080                                                     ; ROM:A07FFE32r
ROM:A0800080                                                     ; ROM:A07FFE6Cr
ROM:A0800080                                                     ; ROM:A07FFEE8r
ROM:A0800080                                                     ; ROM:A080003Cr
ROM:A0800084 FF FF 00 00 dword_A0800084  DCD 0xFFFF              ; DATA XREF: ROM:A07FFF50r
ROM:A0800084                                                     ; ROM:A07FFFA6r
ROM:A0800088 93 2F 09 A0 off_A0800088    DCD sub_A0092F92+1      ; DATA XREF: ROM:A07FFFB4r
ROM:A080008C 51 2F 09 A0 off_A080008C    DCD sub_A0092F50+1      ; DATA XREF: ROM:A07FFFB6r
ROM:A0800090 E8 13 01 00 dword_A0800090  DCD 0x113E8             ; DATA XREF: ROM:A080006Cr
ROM:A0800094             ; ---------------------------------------------------------------------------
ROM:A0800094
ROM:A0800094             loc_A0800094                            ; CODE XREF: ROM:A080006Aj
ROM:A0800094 04 28                       CMP     R0, #4
ROM:A0800096 01 D0                       BEQ     loc_A080009C
ROM:A0800096
ROM:A0800098 01 28                       CMP     R0, #1
ROM:A080009A 06 D1                       BNE     loc_A08000AA
ROM:A080009A
ROM:A080009C
ROM:A080009C             loc_A080009C                            ; CODE XREF: ROM:A0800096j
ROM:A080009C 28 29                       CMP     R1, #0x28
ROM:A080009E 04 D1                       BNE     loc_A08000AA
ROM:A080009E
ROM:A08000A0 F7 49                       LDR     R1, =0x1EB9
ROM:A08000A0
ROM:A08000A2
ROM:A08000A2             loc_A08000A2                            ; CODE XREF: ROM:A080006Ej
ROM:A08000A2 01 20                       MOV     R0, #1
ROM:A08000A4 1A F0 4C EB                 BLX     sub_A081A740
ROM:A08000A4
ROM:A08000A8 E0 63                       STR     R0, [R4,#0x3C]
ROM:A08000A8
ROM:A08000AA
ROM:A08000AA             loc_A08000AA                            ; CODE XREF: ROM:A080009Aj
ROM:A08000AA                                                     ; ROM:A080009Ej
ROM:A08000AA 20 69                       LDR     R0, [R4,#0x10]
ROM:A08000AC 01 04                       LSL     R1, R0, #0x10
ROM:A08000AE 09 0C                       LSR     R1, R1, #0x10
ROM:A08000B0 A1 85                       STRH    R1, [R4,#0x2C]
ROM:A08000B2 00 20                       MOV     R0, #0
ROM:A08000B4 20 61                       STR     R0, [R4,#0x10]
ROM:A08000B6 F3 48                       LDR     R0, =off_A08CB40C
ROM:A08000B8 02 68                       LDR     R2, [R0]
ROM:A08000BA 00 2A                       CMP     R2, #0
ROM:A08000BC 03 D0                       BEQ     loc_A08000C6
ROM:A08000BC
ROM:A08000BE 00 22                       MOV     R2, #0
ROM:A08000C0 03 68                       LDR     R3, [R0]
ROM:A08000C2 20 1C                       ADD     R0, R4, #0
ROM:A08000C4 98 47                       BLX     R3
ROM:A08000C4
ROM:A08000C6
ROM:A08000C6             loc_A08000C6                            ; CODE XREF: ROM:A0800042j
ROM:A08000C6                                                     ; ROM:A080004Cj
ROM:A08000C6                                                     ; ROM:A08000BCj
ROM:A08000C6 6D E0                       B       loc_A08001A4
ROM:A08000C6
ROM:A08000C8             ; ---------------------------------------------------------------------------
ROM:A08000C8
ROM:A08000C8             loc_A08000C8                            ; CODE XREF: ROM:A07FFFE6j
ROM:A08000C8 6E E0                       B       loc_A08001A8
ROM:A08000C8
ROM:A08000CA             ; ---------------------------------------------------------------------------
ROM:A08000CA
ROM:A08000CA             loc_A08000CA                            ; CODE XREF: ROM:A07FFFF8j
ROM:A08000CA 2E E0                       B       loc_A080012A
ROM:A08000CA
ROM:A08000CC             ; ---------------------------------------------------------------------------
ROM:A08000CC
ROM:A08000CC             loc_A08000CC                            ; CODE XREF: ROM:A080002Ej
ROM:A08000CC                                                     ; ROM:A080005Ej
ROM:A08000CC                                                     ; ROM:A0800064j
ROM:A08000CC 70 68                       LDR     R0, [R6,#4]
ROM:A08000CE 66 E0                       B       loc_A080019E
ROM:A08000CE
ROM:A08000D0             ; ---------------------------------------------------------------------------
ROM:A08000D0
ROM:A08000D0             loc_A08000D0                            ; CODE XREF: ROM:A0800004j
ROM:A08000D0 FF E7                       B       loc_A08000D2
ROM:A08000D2
ROM:A08000D2             loc_A08000D2
ROM:A08000D2 B8 7B                       LDRB    R0, [R7,#0xE]
ROM:A08000D4 27 28                       CMP     R0, #0x27
ROM:A08000D6 10 D0                       BEQ     loc_A08000FA
ROM:A08000D6
ROM:A08000D8 28 28                       CMP     R0, #0x28
ROM:A08000DA 0E D0                       BEQ     loc_A08000FA
ROM:A08000DA
ROM:A08000DC 20 69                       LDR     R0, [R4,#0x10]
ROM:A08000DE 01 04                       LSL     R1, R0, #0x10
ROM:A08000E0 09 0C                       LSR     R1, R1, #0x10
ROM:A08000E2 A1 85                       STRH    R1, [R4,#0x2C]
ROM:A08000E4 00 20                       MOV     R0, #0
ROM:A08000E6 20 61                       STR     R0, [R4,#0x10]
ROM:A08000E8 E6 48                       LDR     R0, =off_A08CB40C
ROM:A08000EA 02 68                       LDR     R2, [R0]
ROM:A08000EC 00 2A                       CMP     R2, #0
ROM:A08000EE 59 D0                       BEQ     loc_A08001A4
ROM:A08000EE
ROM:A08000F0 00 22                       MOV     R2, #0
ROM:A08000F2 03 68                       LDR     R3, [R0]
ROM:A08000F4 20 1C                       ADD     R0, R4, #0
ROM:A08000F6 98 47                       BLX     R3
ROM:A08000F8 54 E0                       B       loc_A08001A4
ROM:A08000F8
ROM:A08000FA             ; ---------------------------------------------------------------------------
ROM:A08000FA
ROM:A08000FA             loc_A08000FA                            ; CODE XREF: ROM:A08000D6j
ROM:A08000FA                                                     ; ROM:A08000DAj
ROM:A08000FA 27 28                       CMP     R0, #0x27
ROM:A08000FC 02 D1                       BNE     loc_A0800104
ROM:A08000FC
ROM:A08000FE 01 20                       MOV     R0, #1
ROM:A0800100 A8 63                       STR     R0, [R5,#0x38]
ROM:A0800102 03 E0                       B       loc_A080010C
ROM:A0800102
ROM:A0800104             ; ---------------------------------------------------------------------------
ROM:A0800104
ROM:A0800104             loc_A0800104                            ; CODE XREF: ROM:A08000FCj
ROM:A0800104 28 28                       CMP     R0, #0x28
ROM:A0800106 01 D1                       BNE     loc_A080010C
ROM:A0800106
ROM:A0800108 01 20                       MOV     R0, #1
ROM:A080010A E8 63                       STR     R0, [R5,#0x3C]
ROM:A080010A
ROM:A080010C
ROM:A080010C             loc_A080010C                            ; CODE XREF: ROM:A0800102j
ROM:A080010C                                                     ; ROM:A0800106j
ROM:A080010C 20 69                       LDR     R0, [R4,#0x10]
ROM:A080010E 01 04                       LSL     R1, R0, #0x10
ROM:A0800110 09 0C                       LSR     R1, R1, #0x10
ROM:A0800112 A1 85                       STRH    R1, [R4,#0x2C]
ROM:A0800114 02 20                       MOV     R0, #2
ROM:A0800116 20 61                       STR     R0, [R4,#0x10]
ROM:A0800118 DA 48                       LDR     R0, =off_A08CB40C
ROM:A080011A 82 68                       LDR     R2, [R0,#8]
ROM:A080011C 00 2A                       CMP     R2, #0
ROM:A080011E 41 D0                       BEQ     loc_A08001A4
ROM:A080011E
ROM:A0800120 02 22                       MOV     R2, #2
ROM:A0800122 83 68                       LDR     R3, [R0,#8]
ROM:A0800124 20 1C                       ADD     R0, R4, #0
ROM:A0800126 98 47                       BLX     R3
ROM:A0800128 3C E0                       B       loc_A08001A4
ROM:A0800128
ROM:A080012A             ; ---------------------------------------------------------------------------
ROM:A080012A
ROM:A080012A             loc_A080012A                            ; CODE XREF: ROM:loc_A08000CAj
ROM:A080012A A8 68                       LDR     R0, [R5,#8]
ROM:A080012C 00 6F                       LDR     R0, [R0,#0x70]
ROM:A080012E 81 42                       CMP     R1, R0
ROM:A0800130 3A D1                       BNE     loc_A08001A8
ROM:A0800130
ROM:A0800132 DC 21                       MOV     R1, #0xDC
ROM:A0800134 09 5C                       LDRB    R1, [R1,R0]
ROM:A0800136 00 29                       CMP     R1, #0
ROM:A0800138 10 D0                       BEQ     loc_A080015C
ROM:A0800138
ROM:A080013A 06 29                       CMP     R1, #6
ROM:A080013C 32 D1                       BNE     loc_A08001A4
ROM:A080013C
ROM:A080013E 20 69                       LDR     R0, [R4,#0x10]
ROM:A0800140 01 04                       LSL     R1, R0, #0x10
ROM:A0800142 09 0C                       LSR     R1, R1, #0x10
ROM:A0800144 A1 85                       STRH    R1, [R4,#0x2C]
ROM:A0800146 0B 20                       MOV     R0, #0xB
ROM:A0800148 20 61                       STR     R0, [R4,#0x10]
ROM:A080014A CE 48                       LDR     R0, =off_A08CB40C
ROM:A080014C C2 6A                       LDR     R2, [R0,#0x2C]
ROM:A080014E 00 2A                       CMP     R2, #0
ROM:A0800150 28 D0                       BEQ     loc_A08001A4
ROM:A0800150
ROM:A0800152 0B 22                       MOV     R2, #0xB
ROM:A0800154 C3 6A                       LDR     R3, [R0,#0x2C]
ROM:A0800156 20 1C                       ADD     R0, R4, #0
ROM:A0800158 98 47                       BLX     R3
ROM:A080015A 23 E0                       B       loc_A08001A4
ROM:A080015A
ROM:A080015C             ; ---------------------------------------------------------------------------
ROM:A080015C
ROM:A080015C             loc_A080015C                            ; CODE XREF: ROM:A0800138j
ROM:A080015C 19 F0 BA EC                 BLX     sub_A0819AD4
ROM:A080015C
ROM:A0800160 04 1C                       ADD     R4, R0, #0
ROM:A0800162 20 F5 EB FA                 BL      sub_A052073C
ROM:A0800162
ROM:A0800166 28 28                       CMP     R0, #0x28
ROM:A0800168 17 D1                       BNE     loc_A080019A
ROM:A0800168
ROM:A080016A A8 68                       LDR     R0, [R5,#8]
ROM:A080016C 00 22                       MOV     R2, #0
ROM:A080016E 32 21                       MOV     R1, #0x32
ROM:A0800170 00 6F                       LDR     R0, [R0,#0x70]
ROM:A0800172 19 F0 AA EC                 BLX     sub_A0819AC8
ROM:A0800172
ROM:A0800176 01 1C                       ADD     R1, R0, #0
ROM:A0800178 A8 68                       LDR     R0, [R5,#8]
ROM:A080017A 00 6F                       LDR     R0, [R0,#0x70]
ROM:A080017C 19 F0 C8 EC                 BLX     sub_A0819B10
ROM:A080017C
ROM:A0800180 00 78                       LDRB    R0, [R0]
ROM:A0800182 A9 7B                       LDRB    R1, [R5,#0xE]
ROM:A0800184 88 42                       CMP     R0, R1
ROM:A0800186 03 D0                       BEQ     loc_A0800190
ROM:A0800186
ROM:A0800188 00 28                       CMP     R0, #0
ROM:A080018A 01 D0                       BEQ     loc_A0800190
ROM:A080018A
ROM:A080018C 01 20                       MOV     R0, #1
ROM:A080018E E8 62                       STR     R0, [R5,#0x2C]
ROM:A080018E
ROM:A0800190
ROM:A0800190             loc_A0800190                            ; CODE XREF: ROM:A0800186j
ROM:A0800190                                                     ; ROM:A080018Aj
ROM:A0800190 A8 68                       LDR     R0, [R5,#8]
ROM:A0800192 21 1C                       ADD     R1, R4, #0
ROM:A0800194 00 6F                       LDR     R0, [R0,#0x70]
ROM:A0800196 1E F0 F6 EE                 BLX     sub_A081EF84
ROM:A0800196
ROM:A080019A
ROM:A080019A             loc_A080019A                            ; CODE XREF: ROM:A0800168j
ROM:A080019A A8 68                       LDR     R0, [R5,#8]
ROM:A080019C 00 6F                       LDR     R0, [R0,#0x70]
ROM:A080019C
ROM:A080019E
ROM:A080019E             loc_A080019E                            ; CODE XREF: ROM:A08000CEj
ROM:A080019E BA 49                       LDR     R1, =0x6C89
ROM:A08001A0 1A F0 F4 EF                 BLX     sub_A081B18C
ROM:A08001A0
ROM:A08001A4
ROM:A08001A4             loc_A08001A4                            ; CODE XREF: ROM:loc_A08000C6j
ROM:A08001A4                                                     ; ROM:A08000EEj
ROM:A08001A4                                                     ; ROM:A08000F8j
ROM:A08001A4                                                     ; ROM:A080011Ej
ROM:A08001A4                                                     ; ROM:A0800128j
ROM:A08001A4                                                     ; ROM:A080013Cj ...
ROM:A08001A4 00 20                       MOV     R0, #0
ROM:A08001A4
ROM:A08001A6
ROM:A08001A6             loc_A08001A6                            ; CODE XREF: ROM:A08001AAj
ROM:A08001A6 F8 BD                       POP     {R3-R7,PC}
ROM:A08001A6
ROM:A08001A8             ; ---------------------------------------------------------------------------
ROM:A08001A8
ROM:A08001A8             loc_A08001A8                            ; CODE XREF: ROM:loc_A08000C8j
ROM:A08001A8                                                     ; ROM:A0800130j
ROM:A08001A8 02 20                       MOV     R0, #2
ROM:A08001AA FC E7                       B       loc_A08001A6
ROM:A08001AA
ROM:A08001AC             ; ---------------------------------------------------------------------------
ROM:A08001AC 98 B5                       PUSH    {R3,R4,R7,LR}
ROM:A08001AE 04 1C                       ADD     R4, R0, #0
ROM:A08001B0 50 30                       ADD     R0, #0x50
ROM:A08001B2 80 7B                       LDRB    R0, [R0,#0xE]
ROM:A08001B4 04 28                       CMP     R0, #4
ROM:A08001B6 0E D1                       BNE     loc_A08001D6
ROM:A08001B6
ROM:A08001B8 20 1C                       ADD     R0, R4, #0
ROM:A08001BA FF 30                       ADD     R0, #0xFF
ROM:A08001BC 81 30                       ADD     R0, #0x81
ROM:A08001BE 82 68                       LDR     R2, [R0,#8]
ROM:A08001C0 05 21                       MOV     R1, #5
ROM:A08001C2 11 70                       STRB    R1, [R2]
ROM:A08001C4 0A 22                       MOV     R2, #0xA
ROM:A08001C6 00 92                       STR     R2, [SP]
ROM:A08001C8 43 7B                       LDRB    R3, [R0,#0xD]
ROM:A08001CA 02 7B                       LDRB    R2, [R0,#0xC]
ROM:A08001CC 81 68                       LDR     R1, [R0,#8]
ROM:A08001CE 05 20                       MOV     R0, #5
ROM:A08001D0 E0 F7 7A F8                 BL      sub_A07E02C8
ROM:A08001D0
ROM:A08001D4 A0 65                       STR     R0, [R4,#0x58]
ROM:A08001D4
ROM:A08001D6
ROM:A08001D6             loc_A08001D6                            ; CODE XREF: ROM:A08001B6j
ROM:A08001D6 98 BD                       POP     {R3,R4,R7,PC}
ROM:A08001D6
ROM:A08001D8             ; ---------------------------------------------------------------------------
ROM:A08001D8 F8 B5                       PUSH    {R3-R7,LR}
ROM:A08001DA 4A 68                       LDR     R2, [R1,#4]
ROM:A08001DC 19 23                       MOV     R3, #0x19
ROM:A08001DE 04 1C                       ADD     R4, R0, #0
ROM:A08001E0 01 20                       MOV     R0, #1
ROM:A08001E2 9B 02                       LSL     R3, R3, #0xA
ROM:A08001E4 9A 42                       CMP     R2, R3
ROM:A08001E6 45 D1                       BNE     loc_A0800274
ROM:A08001E6
ROM:A08001E8 A2 6D                       LDR     R2, [R4,#0x58]
ROM:A08001EA CB 68                       LDR     R3, [R1,#0xC]
ROM:A08001EC 9A 42                       CMP     R2, R3
ROM:A08001EE 41 D1                       BNE     loc_A0800274
ROM:A08001EE
ROM:A08001F0 26 1C                       ADD     R6, R4, #0
ROM:A08001F2 FF 36                       ADD     R6, #0xFF
ROM:A08001F4 71 36                       ADD     R6, #0x71
ROM:A08001F6 35 1C                       ADD     R5, R6, #0
ROM:A08001F8 08 69                       LDR     R0, [R1,#0x10]
ROM:A08001FA 10 35                       ADD     R5, #0x10
ROM:A08001FC 00 27                       MOV     R7, #0
ROM:A08001FE 80 28                       CMP     R0, #0x80
ROM:A0800200 39 D0                       BEQ     loc_A0800276
ROM:A0800200
ROM:A0800202 84 28                       CMP     R0, #0x84
ROM:A0800204 37 D0                       BEQ     loc_A0800276
ROM:A0800204
ROM:A0800206 85 28                       CMP     R0, #0x85
ROM:A0800208 35 D1                       BNE     loc_A0800276
ROM:A0800208
ROM:A080020A F8 43                       MVN     R0, R7
ROM:A080020C 00 AB                       ADD     R3, SP, #0
ROM:A080020E 18 80                       STRH    R0, [R3]
ROM:A0800210 A8 68                       LDR     R0, [R5,#8]
ROM:A0800212 69 46                       MOV     R1, SP
ROM:A0800214 00 6F                       LDR     R0, [R0,#0x70]
ROM:A0800216 20 F0 CC E9                 BLX     sub_A08205B0
ROM:A0800216
ROM:A080021A A8 68                       LDR     R0, [R5,#8]
ROM:A080021C 00 6F                       LDR     R0, [R0,#0x70]
ROM:A080021E 19 F0 48 EC                 BLX     sub_A0819AB0
ROM:A080021E
ROM:A0800222 01 28                       CMP     R0, #1
ROM:A0800224 08 D1                       BNE     loc_A0800238
ROM:A0800224
ROM:A0800226 A8 68                       LDR     R0, [R5,#8]
ROM:A0800228 00 AB                       ADD     R3, SP, #0
ROM:A080022A 40 30                       ADD     R0, #0x40
ROM:A080022C 40 8A                       LDRH    R0, [R0,#0x12]
ROM:A080022E 19 88                       LDRH    R1, [R3]
ROM:A0800230 88 42                       CMP     R0, R1
ROM:A0800232 01 D1                       BNE     loc_A0800238
ROM:A0800232
ROM:A0800234
ROM:A0800234             loc_A0800234                            ; CODE XREF: ROM:A0800286j
ROM:A0800234                                                     ; ROM:A0800290j
ROM:A0800234 27 61                       STR     R7, [R4,#0x10]
ROM:A0800236 1C E0                       B       loc_A0800272
ROM:A0800236
ROM:A0800238             ; ---------------------------------------------------------------------------
ROM:A0800238
ROM:A0800238             loc_A0800238                            ; CODE XREF: ROM:A0800224j
ROM:A0800238                                                     ; ROM:A0800232j
ROM:A0800238 8D 20                       MOV     R0, #0x8D
ROM:A080023A 5E 21                       MOV     R1, #0x5E
ROM:A080023C 08 55                       STRB    R0, [R1,R4]
ROM:A080023E 30 79                       LDRB    R0, [R6,#4]
ROM:A0800240 A9 68                       LDR     R1, [R5,#8]
ROM:A0800242 08 70                       STRB    R0, [R1]
ROM:A0800244 A8 68                       LDR     R0, [R5,#8]
ROM:A0800246 40 30                       ADD     R0, #0x40
ROM:A0800248 41 8A                       LDRH    R1, [R0,#0x12]
ROM:A080024A C1 81                       STRH    R1, [R0,#0xE]
ROM:A080024C 82 20                       MOV     R0, #0x82
ROM:A080024E 01 5B                       LDRH    R1, [R0,R4]
ROM:A0800250 20 1C                       ADD     R0, R4, #0
ROM:A0800252 FC F7 1F FA                 BL      sub_A07FC694
ROM:A0800252
ROM:A0800256 21 69                       LDR     R1, [R4,#0x10]
ROM:A0800258 02 04                       LSL     R2, R0, #0x10
ROM:A080025A 09 04                       LSL     R1, R1, #0x10
ROM:A080025C 09 0C                       LSR     R1, R1, #0x10
ROM:A080025E 12 0C                       LSR     R2, R2, #0x10
ROM:A0800260 A1 85                       STRH    R1, [R4,#0x2C]
ROM:A0800262 88 4B                       LDR     R3, =off_A08CB40C
ROM:A0800264 22 61                       STR     R2, [R4,#0x10]
ROM:A0800266 90 00                       LSL     R0, R2, #2
ROM:A0800268 1B 58                       LDR     R3, [R3,R0]
ROM:A080026A 00 2B                       CMP     R3, #0
ROM:A080026C 01 D0                       BEQ     loc_A0800272
ROM:A080026C
ROM:A080026E 20 1C                       ADD     R0, R4, #0
ROM:A0800270 98 47                       BLX     R3
ROM:A0800270
ROM:A0800272
ROM:A0800272             loc_A0800272                            ; CODE XREF: ROM:A0800236j
ROM:A0800272                                                     ; ROM:A080026Cj
ROM:A0800272 00 20                       MOV     R0, #0
ROM:A0800272
ROM:A0800274
ROM:A0800274             loc_A0800274                            ; CODE XREF: ROM:A08001E6j
ROM:A0800274                                                     ; ROM:A08001EEj
ROM:A0800274 F8 BD                       POP     {R3-R7,PC}
ROM:A0800274
ROM:A0800276             ; ---------------------------------------------------------------------------
ROM:A0800276
ROM:A0800276             loc_A0800276                            ; CODE XREF: ROM:A0800200j
ROM:A0800276                                                     ; ROM:A0800204j
ROM:A0800276                                                     ; ROM:A0800208j
ROM:A0800276 30 79                       LDRB    R0, [R6,#4]
ROM:A0800278 A9 68                       LDR     R1, [R5,#8]
ROM:A080027A 08 70                       STRB    R0, [R1]
ROM:A080027C A8 68                       LDR     R0, [R5,#8]
ROM:A080027E C7 67                       STR     R7, [R0,#0x7C]
ROM:A0800280 A8 68                       LDR     R0, [R5,#8]
ROM:A0800282 00 6F                       LDR     R0, [R0,#0x70]
ROM:A0800284 00 28                       CMP     R0, #0
ROM:A0800286 D5 D0                       BEQ     loc_A0800234
ROM:A0800286
ROM:A0800288 1A F0 6E EF                 BLX     sub_A081B168
ROM:A0800288
ROM:A080028C A8 68                       LDR     R0, [R5,#8]
ROM:A080028E 07 67                       STR     R7, [R0,#0x70]
ROM:A0800290 D0 E7                       B       loc_A0800234
ROM:A0800290
ROM:A0800292             ; ---------------------------------------------------------------------------
ROM:A0800292 10 B5                       PUSH    {R4,LR}
ROM:A0800294 04 1C                       ADD     R4, R0, #0
ROM:A0800296 82 21                       MOV     R1, #0x82
ROM:A0800298 FF 34                       ADD     R4, #0xFF
ROM:A080029A 41 34                       ADD     R4, #0x41
ROM:A080029C 09 5A                       LDRH    R1, [R1,R0]
ROM:A080029E 20 6B                       LDR     R0, [R4,#0x30]
ROM:A08002A0 1A F0 6E EF                 BLX     sub_A081B180
ROM:A08002A0
ROM:A08002A4 78 49                       LDR     R1, =0x6C89
ROM:A08002A6 20 6B                       LDR     R0, [R4,#0x30]
ROM:A08002A8 03 31                       ADD     R1, #3
ROM:A08002AA 1A F0 70 EF                 BLX     sub_A081B18C
ROM:A08002AA
ROM:A08002AE 10 BD                       POP     {R4,PC}
ROM:A08002AE
ROM:A08002B0
ROM:A08002B0             ; *************** S U B R O U T I N E ***************************************
ROM:A08002B0
ROM:A08002B0
ROM:A08002B0             sub_A08002B0                            ; CODE XREF: ROM:A0800450p
ROM:A08002B0 FF 23                       MOV     R3, #0xFF
ROM:A08002B2 DD 33                       ADD     R3, #0xDD
ROM:A08002B4 10 B5                       PUSH    {R4,LR}
ROM:A08002B6 1B 58                       LDR     R3, [R3,R0]
ROM:A08002B8 80 30                       ADD     R0, #0x80
ROM:A08002BA 44 88                       LDRH    R4, [R0,#2]
ROM:A08002BC 01 E0                       B       loc_A08002C2
ROM:A08002BC
ROM:A08002BE             ; ---------------------------------------------------------------------------
ROM:A08002BE
ROM:A08002BE             loc_A08002BE                            ; CODE XREF: sub_A08002B0+16j
ROM:A08002BE C0 33                       ADD     R3, #0xC0
ROM:A08002C0 DB 68                       LDR     R3, [R3,#0xC]
ROM:A08002C0
ROM:A08002C2
ROM:A08002C2             loc_A08002C2                            ; CODE XREF: sub_A08002B0+Cj
ROM:A08002C2 18 88                       LDRH    R0, [R3]
ROM:A08002C4 A0 42                       CMP     R0, R4
ROM:A08002C6 FA D1                       BNE     loc_A08002BE
ROM:A08002C6
ROM:A08002C8 50 00                       LSL     R0, R2, #1
ROM:A08002CA C0 18                       ADD     R0, R0, R3
ROM:A08002CC 41 80                       STRH    R1, [R0,#2]
ROM:A08002CE 10 BD                       POP     {R4,PC}
ROM:A08002CE
ROM:A08002CE             ; End of function sub_A08002B0
ROM:A08002CE
ROM:A08002D0
ROM:A08002D0             ; *************** S U B R O U T I N E ***************************************
ROM:A08002D0
ROM:A08002D0
ROM:A08002D0             sub_A08002D0                            ; CODE XREF: ROM:A0800408p
ROM:A08002D0 F8 B5                       PUSH    {R3-R7,LR}
ROM:A08002D2 FF 21                       MOV     R1, #0xFF
ROM:A08002D4 DD 31                       ADD     R1, #0xDD
ROM:A08002D6 09 58                       LDR     R1, [R1,R0]
ROM:A08002D8 05 1C                       ADD     R5, R0, #0
ROM:A08002DA 0A 88                       LDRH    R2, [R1]
ROM:A08002DC 6B 4F                       LDR     R7, =0xFFFF
ROM:A08002DE 80 35                       ADD     R5, #0x80
ROM:A08002E0 00 24                       MOV     R4, #0
ROM:A08002E2 BA 42                       CMP     R2, R7
ROM:A08002E4 0E D1                       BNE     loc_A0800304
ROM:A08002E4
ROM:A08002E6 68 88                       LDRH    R0, [R5,#2]
ROM:A08002E8 08 80                       STRH    R0, [R1]
ROM:A08002EA 0B E0                       B       loc_A0800304
ROM:A08002EA
ROM:A08002EC             ; ---------------------------------------------------------------------------
ROM:A08002EC
ROM:A08002EC             loc_A08002EC                            ; CODE XREF: sub_A08002D0+3Aj
ROM:A08002EC 0E 1C                       ADD     R6, R1, #0
ROM:A08002EE C0 36                       ADD     R6, #0xC0
ROM:A08002F0 F0 68                       LDR     R0, [R6,#0xC]
ROM:A08002F2 00 28                       CMP     R0, #0
ROM:A08002F4 05 D1                       BNE     loc_A0800302
ROM:A08002F4
ROM:A08002F6 D0 20                       MOV     R0, #0xD0
ROM:A08002F8 19 F0 1A E9                 BLX     sub_A0819530
ROM:A08002F8
ROM:A08002FC F0 60                       STR     R0, [R6,#0xC]
ROM:A08002FE 69 88                       LDRH    R1, [R5,#2]
ROM:A0800300 01 80                       STRH    R1, [R0]
ROM:A0800300
ROM:A0800302
ROM:A0800302             loc_A0800302                            ; CODE XREF: sub_A08002D0+24j
ROM:A0800302 F1 68                       LDR     R1, [R6,#0xC]
ROM:A0800302
ROM:A0800304
ROM:A0800304             loc_A0800304                            ; CODE XREF: sub_A08002D0+14j
ROM:A0800304                                                     ; sub_A08002D0+1Aj
ROM:A0800304 08 88                       LDRH    R0, [R1]
ROM:A0800306 6A 88                       LDRH    R2, [R5,#2]
ROM:A0800308 90 42                       CMP     R0, R2
ROM:A080030A EF D1                       BNE     loc_A08002EC
ROM:A080030A
ROM:A080030C 05 E0                       B       loc_A080031A
ROM:A080030C
ROM:A080030E             ; ---------------------------------------------------------------------------
ROM:A080030E
ROM:A080030E             loc_A080030E                            ; CODE XREF: sub_A08002D0+4Cj
ROM:A080030E 60 00                       LSL     R0, R4, #1
ROM:A0800310 40 18                       ADD     R0, R0, R1
ROM:A0800312 01 34                       ADD     R4, #1
ROM:A0800314 24 04                       LSL     R4, R4, #0x10
ROM:A0800316 24 14                       ASR     R4, R4, #0x10
ROM:A0800318 47 80                       STRH    R7, [R0,#2]
ROM:A0800318
ROM:A080031A
ROM:A080031A             loc_A080031A                            ; CODE XREF: sub_A08002D0+3Cj
ROM:A080031A 65 2C                       CMP     R4, #0x65
ROM:A080031C F7 DB                       BLT     loc_A080030E
ROM:A080031C
ROM:A080031E F8 BD                       POP     {R3-R7,PC}
ROM:A080031E
ROM:A080031E             ; End of function sub_A08002D0
ROM:A080031E
ROM:A0800320             ; ---------------------------------------------------------------------------
ROM:A0800320 F0 B5                       PUSH    {R4-R7,LR}
ROM:A0800322 04 1C                       ADD     R4, R0, #0
ROM:A0800324 59 48                       LDR     R0, =0xFFFF
ROM:A0800326 85 B0                       SUB     SP, SP, #0x14
ROM:A0800328 00 AB                       ADD     R3, SP, #0
ROM:A080032A 18 81                       STRH    R0, [R3,#8]
ROM:A080032C 01 22                       MOV     R2, #1
ROM:A080032E 50 42                       NEG     R0, R2
ROM:A0800330 01 90                       STR     R0, [SP,#4]
ROM:A0800332 55 4B                       LDR     R3, =0x6C89
ROM:A0800334 26 1C                       ADD     R6, R4, #0
ROM:A0800336 FF 36                       ADD     R6, #0xFF
ROM:A0800338 48 68                       LDR     R0, [R1,#4]
ROM:A080033A 41 36                       ADD     R6, #0x41
ROM:A080033C 00 25                       MOV     R5, #0
ROM:A080033E 17 33                       ADD     R3, #0x17
ROM:A0800340 98 42                       CMP     R0, R3
ROM:A0800342 06 D1                       BNE     loc_A0800352
ROM:A0800342
ROM:A0800344 C9 68                       LDR     R1, [R1,#0xC]
ROM:A0800346 37 6B                       LDR     R7, [R6,#0x30]
ROM:A0800348 B9 42                       CMP     R1, R7
ROM:A080034A 02 D0                       BEQ     loc_A0800352
ROM:A080034A
ROM:A080034C 01 20                       MOV     R0, #1
ROM:A080034C
ROM:A080034E
ROM:A080034E             loc_A080034E                            ; CODE XREF: ROM:A080035Cj
ROM:A080034E                                                     ; ROM:A08004DEj
ROM:A080034E 05 B0                       ADD     SP, SP, #0x14
ROM:A0800350 F0 BD                       POP     {R4-R7,PC}
ROM:A0800350
ROM:A0800352             ; ---------------------------------------------------------------------------
ROM:A0800352
ROM:A0800352             loc_A0800352                            ; CODE XREF: ROM:A0800342j
ROM:A0800352                                                     ; ROM:A080034Aj
ROM:A0800352 1B 21 89 02                 MOVL    R1, 0x6C00
ROM:A0800356 88 42                       CMP     R0, R1
ROM:A0800358 01 D1                       BNE     loc_A080035E
ROM:A0800358
ROM:A080035A 02 20                       MOV     R0, #2
ROM:A080035C F7 E7                       B       loc_A080034E
ROM:A080035C
ROM:A080035E             ; ---------------------------------------------------------------------------
ROM:A080035E
ROM:A080035E             loc_A080035E                            ; CODE XREF: ROM:A0800358j
ROM:A080035E 98 42                       CMP     R0, R3
ROM:A0800360 71 D1                       BNE     loc_A0800446
ROM:A0800360
ROM:A0800362 30 6B                       LDR     R0, [R6,#0x30]
ROM:A0800364 DC 21                       MOV     R1, #0xDC
ROM:A0800366 09 5C                       LDRB    R1, [R1,R0]
ROM:A0800368 00 29                       CMP     R1, #0
ROM:A080036A 6C D1                       BNE     loc_A0800446
ROM:A080036A
ROM:A080036C 21 1C                       ADD     R1, R4, #0
ROM:A080036E 50 31                       ADD     R1, #0x50
ROM:A0800370 04 91                       STR     R1, [SP,#0x10]
ROM:A0800372 89 7B                       LDRB    R1, [R1,#0xE]
ROM:A0800374 90 29                       CMP     R1, #0x90
ROM:A0800376 29 D1                       BNE     loc_A08003CC
ROM:A0800376
ROM:A0800378 00 22                       MOV     R2, #0
ROM:A080037A A9 21                       MOV     R1, #0xA9
ROM:A080037C 19 F0 A4 EB                 BLX     sub_A0819AC8
ROM:A080037C
ROM:A0800380 25 1C                       ADD     R5, R4, #0
ROM:A0800382 FF 35                       ADD     R5, #0xFF
ROM:A0800384 81 35                       ADD     R5, #0x81
ROM:A0800386 07 1C                       ADD     R7, R0, #0
ROM:A0800388 A8 68                       LDR     R0, [R5,#8]
ROM:A080038A 80 30                       ADD     R0, #0x80
ROM:A080038C 40 68                       LDR     R0, [R0,#4]
ROM:A080038E 00 28                       CMP     R0, #0
ROM:A0800390 05 D1                       BNE     loc_A080039E
ROM:A0800390
ROM:A0800392 3F 48                       LDR     R0, =0x4CA
ROM:A0800394 19 F0 F0 E9                 BLX     sub_A0819778
ROM:A0800394
ROM:A0800398 A9 68                       LDR     R1, [R5,#8]
ROM:A080039A 80 31                       ADD     R1, #0x80
ROM:A080039C 48 60                       STR     R0, [R1,#4]
ROM:A080039C
ROM:A080039E
ROM:A080039E             loc_A080039E                            ; CODE XREF: ROM:A0800390j
ROM:A080039E A8 68                       LDR     R0, [R5,#8]
ROM:A08003A0 80 30                       ADD     R0, #0x80
ROM:A08003A2 40 68                       LDR     R0, [R0,#4]
ROM:A08003A4 00 21                       MOV     R1, #0
ROM:A08003A6 10 F5 B3 FB                 BL      sub_A0510B10
ROM:A08003A6
ROM:A08003AA 39 1C                       ADD     R1, R7, #0
ROM:A08003AC 30 6B                       LDR     R0, [R6,#0x30]
ROM:A08003AE 19 F0 9E EB                 BLX     sub_A0819AEC
ROM:A08003AE
ROM:A08003B2 01 1C                       ADD     R1, R0, #0
ROM:A08003B4 A8 68                       LDR     R0, [R5,#8]
ROM:A08003B6 80 30                       ADD     R0, #0x80
ROM:A08003B8 40 68                       LDR     R0, [R0,#4]
ROM:A08003BA 10 F5 70 FA                 BL      sub_A051089E
ROM:A08003BA
ROM:A08003BE 04 98                       LDR     R0, [SP,#0x10]
ROM:A08003C0 81 7B                       LDRB    R1, [R0,#0xE]
ROM:A08003C2 20 1C                       ADD     R0, R4, #0
ROM:A08003C4 FE F7 5F F8                 BL      sub_A07FE486
ROM:A08003C4
ROM:A08003C8 A0 65                       STR     R0, [R4,#0x58]
ROM:A08003CA 67 E0                       B       loc_A080049C
ROM:A08003CA
ROM:A08003CC             ; ---------------------------------------------------------------------------
ROM:A08003CC
ROM:A08003CC             loc_A08003CC                            ; CODE XREF: ROM:A0800376j
ROM:A08003CC 01 29                       CMP     R1, #1
ROM:A08003CE 06 D0                       BEQ     loc_A08003DE
ROM:A08003CE
ROM:A08003D0 04 29                       CMP     R1, #4
ROM:A08003D2 63 D1                       BNE     loc_A080049C
ROM:A08003D2
ROM:A08003D4 FF 21                       MOV     R1, #0xFF
ROM:A08003D6 75 31                       ADD     R1, #0x75
ROM:A08003D8 09 5D                       LDRB    R1, [R1,R4]
ROM:A08003DA 05 29                       CMP     R1, #5
ROM:A08003DC 5E D1                       BNE     loc_A080049C
ROM:A08003DC
ROM:A08003DE
ROM:A08003DE             loc_A08003DE                            ; CODE XREF: ROM:A08003CEj
ROM:A08003DE 1E 21                       MOV     R1, #0x1E
ROM:A08003E0 1F F0 1E EB                 BLX     sub_A081FA20
ROM:A08003E0
ROM:A08003E4 27 1C                       ADD     R7, R4, #0
ROM:A08003E6 FF 37                       ADD     R7, #0xFF
ROM:A08003E8 C1 37                       ADD     R7, #0xC1
ROM:A08003EA 00 28                       CMP     R0, #0
ROM:A08003EC 03 90                       STR     R0, [SP,#0xC]
ROM:A08003EE 56 D0                       BEQ     loc_A080049E
ROM:A08003EE
ROM:A08003F0 78 68                       LDR     R0, [R7,#4]
ROM:A08003F2 00 28                       CMP     R0, #0
ROM:A08003F4 04 D1                       BNE     loc_A0800400
ROM:A08003F4
ROM:A08003F6 27 49                       LDR     R1, =(sub_A0092F92+1)
ROM:A08003F8 27 48                       LDR     R0, =(sub_A0092F50+1)
ROM:A08003FA 1A F0 CE EE                 BLX     sub_A081B198
ROM:A08003FA
ROM:A08003FE 78 60                       STR     R0, [R7,#4]
ROM:A08003FE
ROM:A0800400
ROM:A0800400             loc_A0800400                            ; CODE XREF: ROM:A08003F4j
ROM:A0800400 78 68                       LDR     R0, [R7,#4]
ROM:A0800402 1D F0 2A EA                 BLX     sub_A081D858
ROM:A0800402
ROM:A0800406 20 1C                       ADD     R0, R4, #0
ROM:A0800408 FF F7 62 FF                 BL      sub_A08002D0
ROM:A0800408
ROM:A080040C 25 E0                       B       loc_A080045A
ROM:A080040C
ROM:A080040E             ; ---------------------------------------------------------------------------
ROM:A080040E
ROM:A080040E             loc_A080040E                            ; CODE XREF: ROM:A080045Ej
ROM:A080040E 2A 1C                       ADD     R2, R5, #0
ROM:A0800410 1E 21                       MOV     R1, #0x1E
ROM:A0800412 30 6B                       LDR     R0, [R6,#0x30]
ROM:A0800414 19 F0 58 EB                 BLX     sub_A0819AC8
ROM:A0800414
ROM:A0800418 FF 28                       CMP     R0, #0xFF
ROM:A080041A 06 D0                       BEQ     loc_A080042A
ROM:A080041A
ROM:A080041C 32 6B                       LDR     R2, [R6,#0x30]
ROM:A080041E 01 1C                       ADD     R1, R0, #0
ROM:A0800420 10 1C                       ADD     R0, R2, #0
ROM:A0800422 19 F0 8E EB                 BLX     sub_A0819B40
ROM:A0800422
ROM:A0800426 00 68                       LDR     R0, [R0]
ROM:A0800428 01 90                       STR     R0, [SP,#4]
ROM:A0800428
ROM:A080042A
ROM:A080042A             loc_A080042A                            ; CODE XREF: ROM:A080041Aj
ROM:A080042A 02 A9                       ADD     R1, SP, #8
ROM:A080042C 01 98                       LDR     R0, [SP,#4]
ROM:A080042E 1F F0 B6 EE                 BLX     sub_A082019C
ROM:A080042E
ROM:A0800432 00 AB                       ADD     R3, SP, #0
ROM:A0800434 19 89                       LDRH    R1, [R3,#8]
ROM:A0800436 78 68                       LDR     R0, [R7,#4]
ROM:A0800438 1E F0 A4 ED                 BLX     sub_A081EF84
ROM:A0800438
ROM:A080043C 04 98                       LDR     R0, [SP,#0x10]
ROM:A080043E 80 7B                       LDRB    R0, [R0,#0xE]
ROM:A0800440 01 28                       CMP     R0, #1
ROM:A0800442 07 D1                       BNE     loc_A0800454
ROM:A0800442
ROM:A0800444 00 E0                       B       loc_A0800448
ROM:A0800444
ROM:A0800446             ; ---------------------------------------------------------------------------
ROM:A0800446
ROM:A0800446             loc_A0800446                            ; CODE XREF: ROM:A0800360j
ROM:A0800446                                                     ; ROM:A080036Aj
ROM:A0800446 49 E0                       B       loc_A08004DC
ROM:A0800446
ROM:A0800448             ; ---------------------------------------------------------------------------
ROM:A0800448
ROM:A0800448             loc_A0800448                            ; CODE XREF: ROM:A0800444j
ROM:A0800448 2A 1C                       ADD     R2, R5, #0
ROM:A080044A 00 AB                       ADD     R3, SP, #0
ROM:A080044C 19 89                       LDRH    R1, [R3,#8]
ROM:A080044E 20 1C                       ADD     R0, R4, #0
ROM:A0800450 FF F7 2E FF                 BL      sub_A08002B0
ROM:A0800450
ROM:A0800454
ROM:A0800454             loc_A0800454                            ; CODE XREF: ROM:A0800442j
ROM:A0800454 01 35                       ADD     R5, #1
ROM:A0800456 2D 04                       LSL     R5, R5, #0x10
ROM:A0800458 2D 0C                       LSR     R5, R5, #0x10
ROM:A0800458
ROM:A080045A
ROM:A080045A             loc_A080045A                            ; CODE XREF: ROM:A080040Cj
ROM:A080045A 03 98                       LDR     R0, [SP,#0xC]
ROM:A080045C 85 42                       CMP     R5, R0
ROM:A080045E D6 D3                       BCC     loc_A080040E
ROM:A080045E
ROM:A0800460 20 69                       LDR     R0, [R4,#0x10]
ROM:A0800462 01 04                       LSL     R1, R0, #0x10
ROM:A0800464 09 0C                       LSR     R1, R1, #0x10
ROM:A0800466 A1 85                       STRH    R1, [R4,#0x2C]
ROM:A0800468 05 20                       MOV     R0, #5
ROM:A080046A 20 61                       STR     R0, [R4,#0x10]
ROM:A080046C 05 48                       LDR     R0, =off_A08CB40C
ROM:A080046E 42 69                       LDR     R2, [R0,#0x14]
ROM:A0800470 00 2A                       CMP     R2, #0
ROM:A0800472 13 D0                       BEQ     loc_A080049C
ROM:A0800472
ROM:A0800474 05 22                       MOV     R2, #5
ROM:A0800476 43 69                       LDR     R3, [R0,#0x14]
ROM:A0800478 20 1C                       ADD     R0, R4, #0
ROM:A080047A 98 47                       BLX     R3
ROM:A080047C 0E E0                       B       loc_A080049C
ROM:A080047C
ROM:A080047C             ; ---------------------------------------------------------------------------
ROM:A080047E 00                          DCB    0
ROM:A080047F 00                          DCB    0
ROM:A0800480 B9 1E 00 00 dword_A0800480  DCD 0x1EB9              ; DATA XREF: ROM:A08000A0r
ROM:A0800484 0C B4 8C A0 off_A0800484    DCD off_A08CB40C        ; DATA XREF: ROM:A08000B6r
ROM:A0800484                                                     ; ROM:A08000E8r
ROM:A0800484                                                     ; ROM:A0800118r
ROM:A0800484                                                     ; ROM:A080014Ar
ROM:A0800484                                                     ; ROM:A0800262r
ROM:A0800484                                                     ; ROM:A080046Cr
ROM:A0800488 89 6C 00 00 dword_A0800488  DCD 0x6C89              ; DATA XREF: ROM:loc_A080019Er
ROM:A0800488                                                     ; ROM:A08002A4r
ROM:A0800488                                                     ; ROM:A0800332r
ROM:A080048C FF FF 00 00 dword_A080048C  DCD 0xFFFF              ; DATA XREF: sub_A08002D0+Cr
ROM:A080048C                                                     ; ROM:A0800324r
ROM:A0800490 CA 04 00 00 dword_A0800490  DCD 0x4CA               ; DATA XREF: ROM:A0800392r
ROM:A0800494 93 2F 09 A0 off_A0800494    DCD sub_A0092F92+1      ; DATA XREF: ROM:A08003F6r
ROM:A0800498 51 2F 09 A0 off_A0800498    DCD sub_A0092F50+1      ; DATA XREF: ROM:A08003F8r
ROM:A080049C             ; ---------------------------------------------------------------------------
ROM:A080049C
ROM:A080049C             loc_A080049C                            ; CODE XREF: ROM:A08003CAj
ROM:A080049C                                                     ; ROM:A08003D2j
ROM:A080049C                                                     ; ROM:A08003DCj
ROM:A080049C                                                     ; ROM:A0800472j
ROM:A080049C                                                     ; ROM:A080047Cj
ROM:A080049C 1D E0                       B       loc_A08004DA
ROM:A080049C
ROM:A080049E             ; ---------------------------------------------------------------------------
ROM:A080049E
ROM:A080049E             loc_A080049E                            ; CODE XREF: ROM:A08003EEj
ROM:A080049E 04 98                       LDR     R0, [SP,#0x10]
ROM:A08004A0 80 7B                       LDRB    R0, [R0,#0xE]
ROM:A08004A2 01 28                       CMP     R0, #1
ROM:A08004A4 0E D1                       BNE     loc_A08004C4
ROM:A08004A4
ROM:A08004A6 20 69                       LDR     R0, [R4,#0x10]
ROM:A08004A8 01 04                       LSL     R1, R0, #0x10
ROM:A08004AA 09 0C                       LSR     R1, R1, #0x10
ROM:A08004AC A1 85                       STRH    R1, [R4,#0x2C]
ROM:A08004AE 00 20                       MOV     R0, #0
ROM:A08004B0 20 61                       STR     R0, [R4,#0x10]
ROM:A08004B2 20 48                       LDR     R0, =off_A08CB40C
ROM:A08004B4 02 68                       LDR     R2, [R0]
ROM:A08004B6 00 2A                       CMP     R2, #0
ROM:A08004B8 0F D0                       BEQ     loc_A08004DA
ROM:A08004B8
ROM:A08004BA 00 22                       MOV     R2, #0
ROM:A08004BC 03 68                       LDR     R3, [R0]
ROM:A08004BE 20 1C                       ADD     R0, R4, #0
ROM:A08004C0 98 47                       BLX     R3
ROM:A08004C2 0A E0                       B       loc_A08004DA
ROM:A08004C2
ROM:A08004C4             ; ---------------------------------------------------------------------------
ROM:A08004C4
ROM:A08004C4             loc_A08004C4                            ; CODE XREF: ROM:A08004A4j
ROM:A08004C4 02 21                       MOV     R1, #2
ROM:A08004C6 80 20                       MOV     R0, #0x80
ROM:A08004C8 3A 69                       LDR     R2, [R7,#0x10]
ROM:A08004CA C9 43                       MVN     R1, R1
ROM:A08004CC A0 61                       STR     R0, [R4,#0x18]
ROM:A08004CE 21 61                       STR     R1, [R4,#0x10]
ROM:A08004D0 01 2A                       CMP     R2, #1
ROM:A08004D2 02 D1                       BNE     loc_A08004DA
ROM:A08004D2
ROM:A08004D4 1F F0 4A EA                 BLX     sub_A081F96C
ROM:A08004D4
ROM:A08004D8 FF E7                       B       loc_A08004DA
ROM:A08004D8
ROM:A08004DA
ROM:A08004DA             loc_A08004DA                            ; CODE XREF: ROM:loc_A080049Cj
ROM:A08004DA                                                     ; ROM:A08004B8j
ROM:A08004DA                                                     ; ROM:A08004C2j
ROM:A08004DA                                                     ; ROM:A08004D2j
ROM:A08004DA 00 22                       MOV     R2, #0
ROM:A08004DA
ROM:A08004DC
ROM:A08004DC             loc_A08004DC                            ; CODE XREF: ROM:loc_A0800446j
ROM:A08004DC 10 1C                       ADD     R0, R2, #0
ROM:A08004DE 36 E7                       B       loc_A080034E
ROM:A08004DE
ROM:A08004E0             ; ---------------------------------------------------------------------------
ROM:A08004E0 FE B5                       PUSH    {R1-R7,LR}
ROM:A08004E2 32 27                       MOV     R7, #0x32
ROM:A08004E4 01 26                       MOV     R6, #1
ROM:A08004E6 05 1C                       ADD     R5, R0, #0
ROM:A08004E8 00 24                       MOV     R4, #0
ROM:A08004EA 39 1C                       ADD     R1, R7, #0
ROM:A08004EC 1F F0 98 EA                 BLX     sub_A081FA20
ROM:A08004EC
ROM:A08004F0 00 90                       STR     R0, [SP]
ROM:A08004F2 28 1C                       ADD     R0, R5, #0
ROM:A08004F4 20 F0 9E E8                 BLX     sub_A0820634
ROM:A08004F4
ROM:A08004F8 29 1C                       ADD     R1, R5, #0
ROM:A08004FA D0 31                       ADD     R1, #0xD0
ROM:A08004FC FF 30                       ADD     R0, #0xFF
ROM:A08004FE 8F 30                       ADD     R0, #0x8F
ROM:A0800500 01 90                       STR     R0, [SP,#4]
ROM:A0800502 02 91                       STR     R1, [SP,#8]
ROM:A0800504 10 E0                       B       loc_A0800528
ROM:A0800504
ROM:A0800506             ; ---------------------------------------------------------------------------
ROM:A0800506
ROM:A0800506             loc_A0800506                            ; CODE XREF: ROM:A080052Cj
ROM:A0800506 22 1C                       ADD     R2, R4, #0
ROM:A0800508 39 1C                       ADD     R1, R7, #0
ROM:A080050A 28 1C                       ADD     R0, R5, #0
ROM:A080050C 19 F0 DC EA                 BLX     sub_A0819AC8
ROM:A080050C
ROM:A0800510 FF 28                       CMP     R0, #0xFF
ROM:A0800512 06 D0                       BEQ     loc_A0800522
ROM:A0800512
ROM:A0800514 01 1C                       ADD     R1, R0, #0
ROM:A0800516 28 1C                       ADD     R0, R5, #0
ROM:A0800518 01 9A                       LDR     R2, [SP,#4]
ROM:A080051A 1F F0 8E EE                 BLX     sub_A0820238
ROM:A080051A
ROM:A080051E 02 99                       LDR     R1, [SP,#8]
ROM:A0800520 0E 7B                       LDRB    R6, [R1,#0xC]
ROM:A0800520
ROM:A0800522
ROM:A0800522             loc_A0800522                            ; CODE XREF: ROM:A0800512j
ROM:A0800522 01 34                       ADD     R4, #1
ROM:A0800524 24 04                       LSL     R4, R4, #0x10
ROM:A0800526 24 0C                       LSR     R4, R4, #0x10
ROM:A0800526
ROM:A0800528
ROM:A0800528             loc_A0800528                            ; CODE XREF: ROM:A0800504j
ROM:A0800528 00 98                       LDR     R0, [SP]
ROM:A080052A 84 42                       CMP     R4, R0
ROM:A080052C EB D3                       BCC     loc_A0800506
ROM:A080052C
ROM:A080052E 30 1C                       ADD     R0, R6, #0
ROM:A0800530 FE BD                       POP     {R1-R7,PC}
ROM:A0800530
ROM:A0800530             ; ---------------------------------------------------------------------------
ROM:A0800532 00                          DCB    0
ROM:A0800533 00                          DCB    0
ROM:A0800534 0C B4 8C A0 off_A0800534    DCD off_A08CB40C        ; DATA XREF: ROM:A08004B2r
ROM:A0800538
ROM:A0800538             ; *************** S U B R O U T I N E ***************************************
ROM:A0800538
ROM:A0800538
ROM:A0800538             sub_A0800538                            ; CODE XREF: ROM:A08007D4p
ROM:A0800538                                                     ; ROM:A0800810p
ROM:A0800538                                                     ; ROM:A08008CCp
ROM:A0800538 B0 B5                       PUSH    {R4,R5,R7,LR}
ROM:A080053A 00 25                       MOV     R5, #0
ROM:A080053C 05 70                       STRB    R5, [R0]
ROM:A080053E 04 1C                       ADD     R4, R0, #0
ROM:A0800540 C0 78                       LDRB    R0, [R0,#3]
ROM:A0800542 C0 07                       LSL     R0, R0, #0x1F
ROM:A0800544 08 D5                       BPL     loc_A0800558
ROM:A0800544
ROM:A0800546 14 22                       MOV     R2, #0x14
ROM:A0800548 20 1C                       ADD     R0, R4, #0
ROM:A080054A B8 30                       ADD     R0, #0xB8
ROM:A080054C EC 49                       LDR     R1, =unk_A08D4E84
ROM:A080054E A1 F5 18 EA                 BLX     sub_A05A1980
ROM:A080054E
ROM:A0800552 20 78                       LDRB    R0, [R4]
ROM:A0800554 01 30                       ADD     R0, #1
ROM:A0800556 20 70                       STRB    R0, [R4]
ROM:A0800556
ROM:A0800558
ROM:A0800558             loc_A0800558                            ; CODE XREF: sub_A0800538+Cj
ROM:A0800558 E0 78                       LDRB    R0, [R4,#3]
ROM:A080055A 40 07                       LSL     R0, R0, #0x1D
ROM:A080055C 0B D5                       BPL     loc_A0800576
ROM:A080055C
ROM:A080055E 20 78                       LDRB    R0, [R4]
ROM:A0800560 14 23                       MOV     R3, #0x14
ROM:A0800562 E8 49                       LDR     R1, =unk_A08D4F4C
ROM:A0800564 58 43                       MUL     R0, R3
ROM:A0800566 00 19                       ADD     R0, R0, R4
ROM:A0800568 B8 30                       ADD     R0, #0xB8
ROM:A080056A 14 22                       MOV     R2, #0x14
ROM:A080056C A1 F5 08 EA                 BLX     sub_A05A1980
ROM:A080056C
ROM:A0800570 20 78                       LDRB    R0, [R4]
ROM:A0800572 01 30                       ADD     R0, #1
ROM:A0800574 20 70                       STRB    R0, [R4]
ROM:A0800574
ROM:A0800576
ROM:A0800576             loc_A0800576                            ; CODE XREF: sub_A0800538+24j
ROM:A0800576 E0 78                       LDRB    R0, [R4,#3]
ROM:A0800578 80 07                       LSL     R0, R0, #0x1E
ROM:A080057A 0B D5                       BPL     loc_A0800594
ROM:A080057A
ROM:A080057C 20 78                       LDRB    R0, [R4]
ROM:A080057E 14 23                       MOV     R3, #0x14
ROM:A0800580 E1 49                       LDR     R1, =unk_A08D4EE8
ROM:A0800582 58 43                       MUL     R0, R3
ROM:A0800584 00 19                       ADD     R0, R0, R4
ROM:A0800586 B8 30                       ADD     R0, #0xB8
ROM:A0800588 14 22                       MOV     R2, #0x14
ROM:A080058A A1 F5 FA E9                 BLX     sub_A05A1980
ROM:A080058A
ROM:A080058E 20 78                       LDRB    R0, [R4]
ROM:A0800590 01 30                       ADD     R0, #1
ROM:A0800592 20 70                       STRB    R0, [R4]
ROM:A0800592
ROM:A0800594
ROM:A0800594             loc_A0800594                            ; CODE XREF: sub_A0800538+42j
ROM:A0800594 E0 78                       LDRB    R0, [R4,#3]
ROM:A0800596 00 07                       LSL     R0, R0, #0x1C
ROM:A0800598 0B D5                       BPL     loc_A08005B2
ROM:A0800598
ROM:A080059A 20 78                       LDRB    R0, [R4]
ROM:A080059C 14 23                       MOV     R3, #0x14
ROM:A080059E DB 49                       LDR     R1, =unk_A08D4EC0
ROM:A08005A0 58 43                       MUL     R0, R3
ROM:A08005A2 00 19                       ADD     R0, R0, R4
ROM:A08005A4 B8 30                       ADD     R0, #0xB8
ROM:A08005A6 14 22                       MOV     R2, #0x14
ROM:A08005A8 A1 F5 EA E9                 BLX     sub_A05A1980
ROM:A08005A8
ROM:A08005AC 20 78                       LDRB    R0, [R4]
ROM:A08005AE 01 30                       ADD     R0, #1
ROM:A08005B0 20 70                       STRB    R0, [R4]
ROM:A08005B0
ROM:A08005B2
ROM:A08005B2             loc_A08005B2                            ; CODE XREF: sub_A0800538+60j
ROM:A08005B2 E0 78                       LDRB    R0, [R4,#3]
ROM:A08005B4 C0 06                       LSL     R0, R0, #0x1B
ROM:A08005B6 0B D5                       BPL     loc_A08005D0
ROM:A08005B6
ROM:A08005B8 20 78                       LDRB    R0, [R4]
ROM:A08005BA 14 23                       MOV     R3, #0x14
ROM:A08005BC D4 49                       LDR     R1, =unk_A08D4EFC
ROM:A08005BE 58 43                       MUL     R0, R3
ROM:A08005C0 00 19                       ADD     R0, R0, R4
ROM:A08005C2 B8 30                       ADD     R0, #0xB8
ROM:A08005C4 14 22                       MOV     R2, #0x14
ROM:A08005C6 A1 F5 DC E9                 BLX     sub_A05A1980
ROM:A08005C6
ROM:A08005CA 20 78                       LDRB    R0, [R4]
ROM:A08005CC 01 30                       ADD     R0, #1
ROM:A08005CE 20 70                       STRB    R0, [R4]
ROM:A08005CE
ROM:A08005D0
ROM:A08005D0             loc_A08005D0                            ; CODE XREF: sub_A0800538+7Ej
ROM:A08005D0 E0 78                       LDRB    R0, [R4,#3]
ROM:A08005D2 40 06                       LSL     R0, R0, #0x19
ROM:A08005D4 0B D5                       BPL     loc_A08005EE
ROM:A08005D4
ROM:A08005D6 20 78                       LDRB    R0, [R4]
ROM:A08005D8 14 23                       MOV     R3, #0x14
ROM:A08005DA CE 49                       LDR     R1, =unk_A08D4F10
ROM:A08005DC 58 43                       MUL     R0, R3
ROM:A08005DE 00 19                       ADD     R0, R0, R4
ROM:A08005E0 B8 30                       ADD     R0, #0xB8
ROM:A08005E2 14 22                       MOV     R2, #0x14
ROM:A08005E4 A1 F5 CC E9                 BLX     sub_A05A1980
ROM:A08005E4
ROM:A08005E8 20 78                       LDRB    R0, [R4]
ROM:A08005EA 01 30                       ADD     R0, #1
ROM:A08005EC 20 70                       STRB    R0, [R4]
ROM:A08005EC
ROM:A08005EE
ROM:A08005EE             loc_A08005EE                            ; CODE XREF: sub_A0800538+9Cj
ROM:A08005EE 65 70                       STRB    R5, [R4,#1]
ROM:A08005F0 00 20                       MOV     R0, #0
ROM:A08005F2 C0 43                       MVN     R0, R0
ROM:A08005F4 A5 70                       STRB    R5, [R4,#2]
ROM:A08005F6 E0 81                       STRH    R0, [R4,#0xE]
ROM:A08005F8 25 20                       MOV     R0, #0x25
ROM:A08005FA 20 71                       STRB    R0, [R4,#4]
ROM:A08005FC FF 20                       MOV     R0, #0xFF
ROM:A08005FE 19 30                       ADD     R0, #0x19
ROM:A0800600 05 51                       STR     R5, [R0,R4]
ROM:A0800602 20 1C                       ADD     R0, R4, #0
ROM:A0800604 6C 22                       MOV     R2, #0x6C
ROM:A0800606 28 30                       ADD     R0, #0x28
ROM:A0800608 C3 49                       LDR     R1, =0xFFFF
ROM:A080060A 18 F0 FC EC                 BLX     j_SWI_0xBB_memset
ROM:A080060A
ROM:A080060E B0 BD                       POP     {R4,R5,R7,PC}
ROM:A080060E
ROM:A080060E             ; End of function sub_A0800538
ROM:A080060E
ROM:A0800610
ROM:A0800610             ; *************** S U B R O U T I N E ***************************************
ROM:A0800610
ROM:A0800610
ROM:A0800610             sub_A0800610                            ; CODE XREF: sub_A08007A2+4p
ROM:A0800610 F8 B5                       PUSH    {R3-R7,LR}
ROM:A0800612 06 1C                       ADD     R6, R0, #0
ROM:A0800614 FF 36                       ADD     R6, #0xFF
ROM:A0800616 01 36                       ADD     R6, #1
ROM:A0800618 37 1C                       ADD     R7, R6, #0
ROM:A080061A F1 6A                       LDR     R1, [R6,#0x2C]
ROM:A080061C FF 30                       ADD     R0, #0xFF
ROM:A080061E 21 30                       ADD     R0, #0x21
ROM:A0800620 10 37                       ADD     R7, #0x10
ROM:A0800622 00 25                       MOV     R5, #0
ROM:A0800624 00 24                       MOV     R4, #0
ROM:A0800626 01 29                       CMP     R1, #1
ROM:A0800628 71 D1                       BNE     loc_A080070E
ROM:A0800628
ROM:A080062A 01 78                       LDRB    R1, [R0]
ROM:A080062C 00 29                       CMP     R1, #0
ROM:A080062E 6E D1                       BNE     loc_A080070E
ROM:A080062E
ROM:A0800630 78 79                       LDRB    R0, [R7,#5]
ROM:A0800632 BA 4C                       LDR     R4, =0x21DA
ROM:A0800634 09 28                       CMP     R0, #9
ROM:A0800636 50 D2                       BCS     def_A080063E
ROM:A0800636
ROM:A0800638 01 A3                       ADR     R3, jpt_A080063E
ROM:A080063A 1B 5C                       LDRB    R3, [R3,R0]
ROM:A080063C 5B 00                       LSL     R3, R3, #1
ROM:A080063E 9F 44                       ADD     PC, R3
ROM:A080063E
ROM:A080063E             ; ---------------------------------------------------------------------------
ROM:A0800640 4C          jpt_A080063E    DCB 0x4C                ; DATA XREF: sub_A0800610+28o
ROM:A0800641 4C                          DCB 0x4C
ROM:A0800642 04                          DCB 4
ROM:A0800643 0D                          DCB 0xD
ROM:A0800644 17                          DCB 0x17
ROM:A0800645 22                          DCB 0x22
ROM:A0800646 2D                          DCB 0x2D
ROM:A0800647 37                          DCB 0x37
ROM:A0800648 41                          DCB 0x41
ROM:A0800649 00                          ALIGN 2
ROM:A080064A
ROM:A080064A             case_2                                  ; CODE XREF: sub_A0800610+2Ej
ROM:A080064A             ; jumptable A080063E entry 2
ROM:A080064A 14 20                       MOV     R0, #0x14
ROM:A080064C 19 F0 94 E8                 BLX     sub_A0819778
ROM:A080064C
ROM:A0800650 06 1C                       ADD     R6, R0, #0
ROM:A0800652 01 1C                       ADD     R1, R0, #0
ROM:A0800654 B2 48                       LDR     R0, =0x6B5
ROM:A0800656 19 F0 D0 E8                 BLX     sub_A08197F8
ROM:A0800656
ROM:A080065A 47 E0                       B       loc_A08006EC
ROM:A080065A
ROM:A080065C             ; ---------------------------------------------------------------------------
ROM:A080065C
ROM:A080065C             case_3                                  ; CODE XREF: sub_A0800610+2Ej
ROM:A080065C             ; jumptable A080063E entry 3
ROM:A080065C 16 20                       MOV     R0, #0x16
ROM:A080065E 19 F0 8C E8                 BLX     sub_A0819778
ROM:A080065E
ROM:A0800662 06 1C                       ADD     R6, R0, #0
ROM:A0800664 01 1C                       ADD     R1, R0, #0
ROM:A0800666 90 20                       MOV     R0, #0x90
ROM:A0800668 19 F0 C6 E8                 BLX     sub_A08197F8
ROM:A0800668
ROM:A080066C 16 25                       MOV     R5, #0x16
ROM:A080066E 3D E0                       B       loc_A08006EC
ROM:A080066E
ROM:A0800670             ; ---------------------------------------------------------------------------
ROM:A0800670
ROM:A0800670             case_4                                  ; CODE XREF: sub_A0800610+2Ej
ROM:A0800670             ; jumptable A080063E entry 4
ROM:A0800670 15 20                       MOV     R0, #0x15
ROM:A0800672 19 F0 82 E8                 BLX     sub_A0819778
ROM:A0800672
ROM:A0800676 06 1C                       ADD     R6, R0, #0
ROM:A0800678 01 1C                       ADD     R1, R0, #0
ROM:A080067A A9 48                       LDR     R0, =0x6B5
ROM:A080067C 19 38                       SUB     R0, #0x19
ROM:A080067E 19 F0 BC E8                 BLX     sub_A08197F8
ROM:A080067E
ROM:A0800682 15 25                       MOV     R5, #0x15
ROM:A0800684 32 E0                       B       loc_A08006EC
ROM:A0800684
ROM:A0800686             ; ---------------------------------------------------------------------------
ROM:A0800686
ROM:A0800686             case_5                                  ; CODE XREF: sub_A0800610+2Ej
ROM:A0800686             ; jumptable A080063E entry 5
ROM:A0800686 1E 20                       MOV     R0, #0x1E
ROM:A0800688 19 F0 76 E8                 BLX     sub_A0819778
ROM:A0800688
ROM:A080068C 06 1C                       ADD     R6, R0, #0
ROM:A080068E 01 1C                       ADD     R1, R0, #0
ROM:A0800690 A2 48                       LDR     R0, =0x21DA
ROM:A0800692 32 30                       ADD     R0, #0x32
ROM:A0800694 19 F0 B0 E8                 BLX     sub_A08197F8
ROM:A0800694
ROM:A0800698 1E 25                       MOV     R5, #0x1E
ROM:A080069A 27 E0                       B       loc_A08006EC
ROM:A080069A
ROM:A080069C             ; ---------------------------------------------------------------------------
ROM:A080069C
ROM:A080069C             case_6                                  ; CODE XREF: sub_A0800610+2Ej
ROM:A080069C             ; jumptable A080063E entry 6
ROM:A080069C 2B 20                       MOV     R0, #0x2B
ROM:A080069E 19 F0 6C E8                 BLX     sub_A0819778
ROM:A080069E
ROM:A08006A2 06 1C                       ADD     R6, R0, #0
ROM:A08006A4 01 1C                       ADD     R1, R0, #0
ROM:A08006A6 9F 48                       LDR     R0, =0xDDD
ROM:A08006A8 19 F0 A6 E8                 BLX     sub_A08197F8
ROM:A08006A8
ROM:A08006AC 2B 25                       MOV     R5, #0x2B
ROM:A08006AE 1D E0                       B       loc_A08006EC
ROM:A08006AE
ROM:A08006B0             ; ---------------------------------------------------------------------------
ROM:A08006B0
ROM:A08006B0             case_7                                  ; CODE XREF: sub_A0800610+2Ej
ROM:A08006B0             ; jumptable A080063E entry 7
ROM:A08006B0 22 20                       MOV     R0, #0x22
ROM:A08006B2 19 F0 62 E8                 BLX     sub_A0819778
ROM:A08006B2
ROM:A08006B6 06 1C                       ADD     R6, R0, #0
ROM:A08006B8 01 1C                       ADD     R1, R0, #0
ROM:A08006BA 9B 48                       LDR     R0, =0x23EF
ROM:A08006BC 19 F0 9C E8                 BLX     sub_A08197F8
ROM:A08006BC
ROM:A08006C0 22 25                       MOV     R5, #0x22
ROM:A08006C2 13 E0                       B       loc_A08006EC
ROM:A08006C2
ROM:A08006C4             ; ---------------------------------------------------------------------------
ROM:A08006C4
ROM:A08006C4             case_8                                  ; CODE XREF: sub_A0800610+2Ej
ROM:A08006C4             ; jumptable A080063E entry 8
ROM:A08006C4 28 20                       MOV     R0, #0x28
ROM:A08006C6 19 F0 58 E8                 BLX     sub_A0819778
ROM:A08006C6
ROM:A08006CA 06 1C                       ADD     R6, R0, #0
ROM:A08006CC 01 1C                       ADD     R1, R0, #0
ROM:A08006CE 93 48                       LDR     R0, =0x21DA
ROM:A08006D0 97 38                       SUB     R0, #0x97
ROM:A08006D2 19 F0 92 E8                 BLX     sub_A08197F8
ROM:A08006D2
ROM:A08006D6 28 25                       MOV     R5, #0x28
ROM:A08006D8 08 E0                       B       loc_A08006EC
ROM:A08006D8
ROM:A08006DA             ; ---------------------------------------------------------------------------
ROM:A08006DA
ROM:A08006DA             def_A080063E                            ; CODE XREF: sub_A0800610+26j
ROM:A08006DA                                                     ; sub_A0800610+2Ej
ROM:A08006DA             ; jumptable A080063E default entry
ROM:A08006DA             ; jumptable A080063E entries 0,1
ROM:A08006DA 32 20                       MOV     R0, #0x32
ROM:A08006DC 19 F0 4C E8                 BLX     sub_A0819778
ROM:A08006DC
ROM:A08006E0 06 1C                       ADD     R6, R0, #0
ROM:A08006E2 01 1C                       ADD     R1, R0, #0
ROM:A08006E4 20 1C                       ADD     R0, R4, #0
ROM:A08006E6 19 F0 88 E8                 BLX     sub_A08197F8
ROM:A08006E6
ROM:A08006EA 32 25                       MOV     R5, #0x32
ROM:A08006EA
ROM:A08006EC
ROM:A08006EC             loc_A08006EC                            ; CODE XREF: sub_A0800610+4Aj
ROM:A08006EC                                                     ; sub_A0800610+5Ej
ROM:A08006EC                                                     ; sub_A0800610+74j
ROM:A08006EC                                                     ; sub_A0800610+8Aj
ROM:A08006EC                                                     ; sub_A0800610+9Ej
ROM:A08006EC                                                     ; sub_A0800610+B2j ...
ROM:A08006EC 28 1C                       ADD     R0, R5, #0
ROM:A08006EE 14 30                       ADD     R0, #0x14
ROM:A08006F0 19 F0 42 E8                 BLX     sub_A0819778
ROM:A08006F0
ROM:A08006F4 04 1C                       ADD     R4, R0, #0
ROM:A08006F6 01 1C                       ADD     R1, R0, #0
ROM:A08006F8 8C 48                       LDR     R0, =0x813
ROM:A08006FA 19 F0 7E E8                 BLX     sub_A08197F8
ROM:A08006FA
ROM:A08006FE 02 20                       MOV     R0, #2
ROM:A0800700 19 F0 3A E8                 BLX     sub_A0819778
ROM:A0800700
ROM:A0800704 05 1C                       ADD     R5, R0, #0
ROM:A0800706 8A A1                       ADR     R1, unk_A0800930
ROM:A0800708 19 F0 7A E8                 BLX     sub_A0819800
ROM:A0800708
ROM:A080070C 00 E0                       B       loc_A0800710
ROM:A080070C
ROM:A080070E             ; ---------------------------------------------------------------------------
ROM:A080070E
ROM:A080070E             loc_A080070E                            ; CODE XREF: sub_A0800610+18j
ROM:A080070E                                                     ; sub_A0800610+1Ej
ROM:A080070E 14 E0                       B       loc_A080073A
ROM:A080070E
ROM:A0800710             ; ---------------------------------------------------------------------------
ROM:A0800710
ROM:A0800710             loc_A0800710                            ; CODE XREF: sub_A0800610+FCj
ROM:A0800710 29 1C                       ADD     R1, R5, #0
ROM:A0800712 20 1C                       ADD     R0, R4, #0
ROM:A0800714 10 F5 E6 F8                 BL      sub_A05108E4
ROM:A0800714
ROM:A0800718 00 2E                       CMP     R6, #0
ROM:A080071A 03 D0                       BEQ     loc_A0800724
ROM:A080071A
ROM:A080071C 31 1C                       ADD     R1, R6, #0
ROM:A080071E 20 1C                       ADD     R0, R4, #0
ROM:A0800720 10 F5 E0 F8                 BL      sub_A05108E4
ROM:A0800720
ROM:A0800724
ROM:A0800724             loc_A0800724                            ; CODE XREF: sub_A0800610+10Aj
ROM:A0800724 00 2D                       CMP     R5, #0
ROM:A0800726 02 D0                       BEQ     loc_A080072E
ROM:A0800726
ROM:A0800728 28 1C                       ADD     R0, R5, #0
ROM:A080072A 19 F0 2C E8                 BLX     sub_A0819784
ROM:A080072A
ROM:A080072E
ROM:A080072E             loc_A080072E                            ; CODE XREF: sub_A0800610+116j
ROM:A080072E 00 2E                       CMP     R6, #0
ROM:A0800730 35 D0                       BEQ     loc_A080079E
ROM:A0800730
ROM:A0800732 30 1C                       ADD     R0, R6, #0
ROM:A0800734 19 F0 26 E8                 BLX     sub_A0819784
ROM:A0800734
ROM:A0800738 31 E0                       B       loc_A080079E
ROM:A0800738
ROM:A080073A             ; ---------------------------------------------------------------------------
ROM:A080073A
ROM:A080073A             loc_A080073A                            ; CODE XREF: sub_A0800610:loc_A080070Ej
ROM:A080073A 31 6B                       LDR     R1, [R6,#0x30]
ROM:A080073C 01 29                       CMP     R1, #1
ROM:A080073E 07 D1                       BNE     loc_A0800750
ROM:A080073E
ROM:A0800740 10 20                       MOV     R0, #0x10
ROM:A0800742 19 F0 1A E8                 BLX     sub_A0819778
ROM:A0800742
ROM:A0800746 04 1C                       ADD     R4, R0, #0
ROM:A0800748 B9 79                       LDRB    R1, [R7,#6]
ROM:A080074A F0 F6 B6 F9                 BL      sub_A06F0ABA
ROM:A080074A
ROM:A080074E 26 E0                       B       loc_A080079E
ROM:A080074E
ROM:A0800750             ; ---------------------------------------------------------------------------
ROM:A0800750
ROM:A0800750             loc_A0800750                            ; CODE XREF: sub_A0800610+12Ej
ROM:A0800750 B1 6B                       LDR     R1, [R6,#0x38]
ROM:A0800752 01 29                       CMP     R1, #1
ROM:A0800754 09 D1                       BNE     loc_A080076A
ROM:A0800754
ROM:A0800756 28 20                       MOV     R0, #0x28
ROM:A0800758 19 F0 0E E8                 BLX     sub_A0819778
ROM:A0800758
ROM:A080075C 04 1C                       ADD     R4, R0, #0
ROM:A080075E 01 1C                       ADD     R1, R0, #0
ROM:A0800760 6E 48                       LDR     R0, =0x21DA
ROM:A0800762 97 38                       SUB     R0, #0x97
ROM:A0800764 19 F0 48 E8                 BLX     sub_A08197F8
ROM:A0800764
ROM:A0800768 19 E0                       B       loc_A080079E
ROM:A0800768
ROM:A080076A             ; ---------------------------------------------------------------------------
ROM:A080076A
ROM:A080076A             loc_A080076A                            ; CODE XREF: sub_A0800610+144j
ROM:A080076A F1 6B                       LDR     R1, [R6,#0x3C]
ROM:A080076C 01 29                       CMP     R1, #1
ROM:A080076E 0A D1                       BNE     loc_A0800786
ROM:A080076E
ROM:A0800770 1F 20                       MOV     R0, #0x1F
ROM:A0800772 19 F0 02 E8                 BLX     sub_A0819778
ROM:A0800772
ROM:A0800776 04 1C                       ADD     R4, R0, #0
ROM:A0800778 30 69                       LDR     R0, [R6,#0x10]
ROM:A080077A 80 30                       ADD     R0, #0x80
ROM:A080077C 41 68                       LDR     R1, [R0,#4]
ROM:A080077E 20 1C                       ADD     R0, R4, #0
ROM:A0800780 10 F5 8D F8                 BL      sub_A051089E
ROM:A0800780
ROM:A0800784 0B E0                       B       loc_A080079E
ROM:A0800784
ROM:A0800786             ; ---------------------------------------------------------------------------
ROM:A0800786
ROM:A0800786             loc_A0800786                            ; CODE XREF: sub_A0800610+15Ej
ROM:A0800786 00 78                       LDRB    R0, [R0]
ROM:A0800788 01 28                       CMP     R0, #1
ROM:A080078A 08 D1                       BNE     loc_A080079E
ROM:A080078A
ROM:A080078C 1B 20                       MOV     R0, #0x1B
ROM:A080078E 18 F0 F4 EF                 BLX     sub_A0819778
ROM:A080078E
ROM:A0800792 04 1C                       ADD     R4, R0, #0
ROM:A0800794 01 1C                       ADD     R1, R0, #0
ROM:A0800796 63 48                       LDR     R0, =0xDDD
ROM:A0800798 2F 38                       SUB     R0, #0x2F
ROM:A080079A 19 F0 2E E8                 BLX     sub_A08197F8
ROM:A080079A
ROM:A080079E
ROM:A080079E             loc_A080079E                            ; CODE XREF: sub_A0800610+120j
ROM:A080079E                                                     ; sub_A0800610+128j
ROM:A080079E                                                     ; sub_A0800610+13Ej
ROM:A080079E                                                     ; sub_A0800610+158j
ROM:A080079E                                                     ; sub_A0800610+174j
ROM:A080079E                                                     ; sub_A0800610+17Aj
ROM:A080079E 20 1C                       ADD     R0, R4, #0
ROM:A08007A0 F8 BD                       POP     {R3-R7,PC}
ROM:A08007A0
ROM:A08007A0             ; End of function sub_A0800610
ROM:A08007A0
ROM:A08007A2
ROM:A08007A2             ; *************** S U B R O U T I N E ***************************************
ROM:A08007A2
ROM:A08007A2
ROM:A08007A2             sub_A08007A2                            ; CODE XREF: ROM:A08007F4p
ROM:A08007A2                                                     ; ROM:A080088Cp
ROM:A08007A2                                                     ; ROM:A08009C0p
ROM:A08007A2 70 B5                       PUSH    {R4-R6,LR}
ROM:A08007A4 04 1C                       ADD     R4, R0, #0
ROM:A08007A6 FF F7 33 FF                 BL      sub_A0800610
ROM:A08007A6
ROM:A08007AA 25 1C                       ADD     R5, R4, #0
ROM:A08007AC FF 35                       ADD     R5, #0xFF
ROM:A08007AE 01 35                       ADD     R5, #1
ROM:A08007B0 06 1C                       ADD     R6, R0, #0
ROM:A08007B2 A8 69                       LDR     R0, [R5,#0x18]
ROM:A08007B4 00 28                       CMP     R0, #0
ROM:A08007B6 04 D1                       BNE     loc_A08007C2
ROM:A08007B6
ROM:A08007B8 C0 34                       ADD     R4, #0xC0
ROM:A08007BA 60 6B                       LDR     R0, [R4,#0x34]
ROM:A08007BC 19 F0 14 EC                 BLX     sub_A0819FE8
ROM:A08007BC
ROM:A08007C0 A8 61                       STR     R0, [R5,#0x18]
ROM:A08007C0
ROM:A08007C2
ROM:A08007C2             loc_A08007C2                            ; CODE XREF: sub_A08007A2+14j
ROM:A08007C2 5C 4B                       LDR     R3, =(sub_A0092F92+1)
ROM:A08007C4 5C 4A                       LDR     R2, =(sub_A0092F50+1)
ROM:A08007C6 31 1C                       ADD     R1, R6, #0
ROM:A08007C8 A8 69                       LDR     R0, [R5,#0x18]
ROM:A08007CA 19 F0 14 EC                 BLX     sub_A0819FF4
ROM:A08007CA
ROM:A08007CE 70 BD                       POP     {R4-R6,PC}
ROM:A08007CE
ROM:A08007CE             ; End of function sub_A08007A2
ROM:A08007CE
ROM:A08007D0             ; ---------------------------------------------------------------------------
ROM:A08007D0 10 B5                       PUSH    {R4,LR}
ROM:A08007D2 04 1C                       ADD     R4, R0, #0
ROM:A08007D4 FF F7 B0 FE                 BL      sub_A0800538
ROM:A08007D4
ROM:A08007D8 20 1C                       ADD     R0, R4, #0
ROM:A08007DA FF 30                       ADD     R0, #0xFF
ROM:A08007DC 01 30                       ADD     R0, #1
ROM:A08007DE C1 6A                       LDR     R1, [R0,#0x2C]
ROM:A08007E0 01 29                       CMP     R1, #1
ROM:A08007E2 02 D0                       BEQ     loc_A08007EA
ROM:A08007E2
ROM:A08007E4 00 6B                       LDR     R0, [R0,#0x30]
ROM:A08007E6 01 28                       CMP     R0, #1
ROM:A08007E8 06 D1                       BNE     loc_A08007F8
ROM:A08007E8
ROM:A08007EA
ROM:A08007EA             loc_A08007EA                            ; CODE XREF: ROM:A08007E2j
ROM:A08007EA F4 20                       MOV     R0, #0xF4
ROM:A08007EC 00 59                       LDR     R0, [R0,R4]
ROM:A08007EE 00 28                       CMP     R0, #0
ROM:A08007F0 02 D0                       BEQ     loc_A08007F8
ROM:A08007F0
ROM:A08007F2 20 1C                       ADD     R0, R4, #0
ROM:A08007F4 FF F7 D5 FF                 BL      sub_A08007A2
ROM:A08007F4
ROM:A08007F8
ROM:A08007F8             loc_A08007F8                            ; CODE XREF: ROM:A08007E8j
ROM:A08007F8                                                     ; ROM:A08007F0j
ROM:A08007F8 10 BD                       POP     {R4,PC}
ROM:A08007F8
ROM:A08007FA             ; ---------------------------------------------------------------------------
ROM:A08007FA F8 B5                       PUSH    {R3-R7,LR}
ROM:A08007FC 05 1C                       ADD     R5, R0, #0
ROM:A08007FE 4E 48                       LDR     R0, =(sub_A0092F50+1)
ROM:A0800800 4C 49                       LDR     R1, =(sub_A0092F92+1)
ROM:A0800802 19 F0 DA EB                 BLX     sub_A0819FB8
ROM:A0800802
ROM:A0800806 2F 1C                       ADD     R7, R5, #0
ROM:A0800808 C0 37                       ADD     R7, #0xC0
ROM:A080080A 78 63                       STR     R0, [R7,#0x34]
ROM:A080080C 04 1C                       ADD     R4, R0, #0
ROM:A080080E 28 1C                       ADD     R0, R5, #0
ROM:A0800810 FF F7 92 FE                 BL      sub_A0800538
ROM:A0800810
ROM:A0800814 E8 88                       LDRH    R0, [R5,#6]
ROM:A0800816 29 78                       LDRB    R1, [R5]
ROM:A0800818 3E 1C                       ADD     R6, R7, #0
ROM:A080081A 40 36                       ADD     R6, #0x40
ROM:A080081C 41 18                       ADD     R1, R0, R1
ROM:A080081E 00 29                       CMP     R1, #0
ROM:A0800820 08 D0                       BEQ     loc_A0800834
ROM:A0800820
ROM:A0800822 FF 20                       MOV     R0, #0xFF
ROM:A0800824 21 30                       ADD     R0, #0x21
ROM:A0800826 40 5D                       LDRB    R0, [R0,R5]
ROM:A0800828 01 28                       CMP     R0, #1
ROM:A080082A 01 D1                       BNE     loc_A0800830
ROM:A080082A
ROM:A080082C 43 49                       LDR     R1, =unk_A08D4D8C
ROM:A080082E 0D E0                       B       loc_A080084C
ROM:A080082E
ROM:A0800830             ; ---------------------------------------------------------------------------
ROM:A0800830
ROM:A0800830             loc_A0800830                            ; CODE XREF: ROM:A080082Aj
ROM:A0800830 43 49                       LDR     R1, =unk_A08D4D5C
ROM:A0800832 0B E0                       B       loc_A080084C
ROM:A0800832
ROM:A0800834             ; ---------------------------------------------------------------------------
ROM:A0800834
ROM:A0800834             loc_A0800834                            ; CODE XREF: ROM:A0800820j
ROM:A0800834 31 69                       LDR     R1, [R6,#0x10]
ROM:A0800836 09 78                       LDRB    R1, [R1]
ROM:A0800838 00 29                       CMP     R1, #0
ROM:A080083A 04 D1                       BNE     loc_A0800846
ROM:A080083A
ROM:A080083C B1 6B                       LDR     R1, [R6,#0x38]
ROM:A080083E 01 29                       CMP     R1, #1
ROM:A0800840 03 D1                       BNE     loc_A080084A
ROM:A0800840
ROM:A0800842 00 28                       CMP     R0, #0
ROM:A0800844 01 D1                       BNE     loc_A080084A
ROM:A0800844
ROM:A0800846
ROM:A0800846             loc_A0800846                            ; CODE XREF: ROM:A080083Aj
ROM:A0800846 3F 49                       LDR     R1, =unk_A08D4DEC
ROM:A0800848 00 E0                       B       loc_A080084C
ROM:A0800848
ROM:A080084A             ; ---------------------------------------------------------------------------
ROM:A080084A
ROM:A080084A             loc_A080084A                            ; CODE XREF: ROM:A0800840j
ROM:A080084A                                                     ; ROM:A0800844j
ROM:A080084A 3F 49                       LDR     R1, =unk_A08D4DBC
ROM:A080084A
ROM:A080084C
ROM:A080084C             loc_A080084C                            ; CODE XREF: ROM:A080082Ej
ROM:A080084C                                                     ; ROM:A0800832j
ROM:A080084C                                                     ; ROM:A0800848j
ROM:A080084C 20 1C                       ADD     R0, R4, #0
ROM:A080084E 19 F0 BA EB                 BLX     sub_A0819FC4
ROM:A080084E
ROM:A0800852 29 1C                       ADD     R1, R5, #0
ROM:A0800854 20 1C                       ADD     R0, R4, #0
ROM:A0800856 19 F0 BC EB                 BLX     sub_A0819FD0
ROM:A0800856
ROM:A080085A 21 1C                       ADD     R1, R4, #0
ROM:A080085C 30 69                       LDR     R0, [R6,#0x10]
ROM:A080085E 10 F0 73 F9                 BL      sub_A0810B48
ROM:A080085E
ROM:A0800862 34 4A                       LDR     R2, =(sub_A0092F92+1)
ROM:A0800864 34 49                       LDR     R1, =(sub_A0092F50+1)
ROM:A0800866 20 1C                       ADD     R0, R4, #0
ROM:A0800868 1B F0 08 EC                 BLX     sub_A081C07C
ROM:A0800868
ROM:A080086C F0 6A                       LDR     R0, [R6,#0x2C]
ROM:A080086E 01 28                       CMP     R0, #1
ROM:A0800870 02 D0                       BEQ     loc_A0800878
ROM:A0800870
ROM:A0800872 30 6B                       LDR     R0, [R6,#0x30]
ROM:A0800874 01 28                       CMP     R0, #1
ROM:A0800876 02 D1                       BNE     loc_A080087E
ROM:A0800876
ROM:A0800878
ROM:A0800878             loc_A0800878                            ; CODE XREF: ROM:A0800870j
ROM:A0800878 78 6B                       LDR     R0, [R7,#0x34]
ROM:A080087A 00 28                       CMP     R0, #0
ROM:A080087C 05 D1                       BNE     loc_A080088A
ROM:A080087C
ROM:A080087E
ROM:A080087E             loc_A080087E                            ; CODE XREF: ROM:A0800876j
ROM:A080087E F0 6B                       LDR     R0, [R6,#0x3C]
ROM:A0800880 01 28                       CMP     R0, #1
ROM:A0800882 02 D0                       BEQ     loc_A080088A
ROM:A0800882
ROM:A0800884 B0 6B                       LDR     R0, [R6,#0x38]
ROM:A0800886 01 28                       CMP     R0, #1
ROM:A0800888 02 D1                       BNE     loc_A0800890
ROM:A0800888
ROM:A080088A
ROM:A080088A             loc_A080088A                            ; CODE XREF: ROM:A080087Cj
ROM:A080088A                                                     ; ROM:A0800882j
ROM:A080088A 28 1C                       ADD     R0, R5, #0
ROM:A080088C FF F7 89 FF                 BL      sub_A08007A2
ROM:A080088C
ROM:A0800890
ROM:A0800890             loc_A0800890                            ; CODE XREF: ROM:A0800888j
ROM:A0800890 E8 88                       LDRH    R0, [R5,#6]
ROM:A0800892 29 78                       LDRB    R1, [R5]
ROM:A0800894 41 18                       ADD     R1, R0, R1
ROM:A0800896 20 1C                       ADD     R0, R4, #0
ROM:A0800898 19 F0 B2 EB                 BLX     sub_A081A000
ROM:A0800898
ROM:A080089C 00 21                       MOV     R1, #0
ROM:A080089E 20 1C                       ADD     R0, R4, #0
ROM:A08008A0 19 F0 6C E8                 BLX     sub_A081997C
ROM:A08008A0
ROM:A08008A4 29 48                       LDR     R0, =off_A08D4E80
ROM:A08008A6 1F F0 D8 E8                 BLX     sub_A081FA58
ROM:A08008A6
ROM:A08008AA 20 1C                       ADD     R0, R4, #0
ROM:A08008AC 19 F0 AE EB                 BLX     sub_A081A00C
ROM:A08008AC
ROM:A08008B0 F8 BD                       POP     {R3-R7,PC}
ROM:A08008B0
ROM:A08008B2             ; ---------------------------------------------------------------------------
ROM:A08008B2 F8 B5                       PUSH    {R3-R7,LR}
ROM:A08008B4 20 4F                       LDR     R7, =(sub_A0092F50+1)
ROM:A08008B6 04 1C                       ADD     R4, R0, #0
ROM:A08008B8 38 1C                       ADD     R0, R7, #0
ROM:A08008BA 1E 49                       LDR     R1, =(sub_A0092F92+1)
ROM:A08008BC 19 F0 7C EB                 BLX     sub_A0819FB8
ROM:A08008BC
ROM:A08008C0 05 1C                       ADD     R5, R0, #0
ROM:A08008C2 20 1C                       ADD     R0, R4, #0
ROM:A08008C4 C0 30                       ADD     R0, #0xC0
ROM:A08008C6 00 90                       STR     R0, [SP]
ROM:A08008C8 45 63                       STR     R5, [R0,#0x34]
ROM:A08008CA 20 1C                       ADD     R0, R4, #0
ROM:A08008CC FF F7 34 FE                 BL      sub_A0800538
ROM:A08008CC
ROM:A08008D0 E0 88                       LDRH    R0, [R4,#6]
ROM:A08008D2 21 78                       LDRB    R1, [R4]
ROM:A08008D4 26 1C                       ADD     R6, R4, #0
ROM:A08008D6 FF 36                       ADD     R6, #0xFF
ROM:A08008D8 01 36                       ADD     R6, #1
ROM:A08008DA 40 18                       ADD     R0, R0, R1
ROM:A08008DC 00 28                       CMP     R0, #0
ROM:A08008DE 39 D0                       BEQ     loc_A0800954
ROM:A08008DE
ROM:A08008E0 FF 20                       MOV     R0, #0xFF
ROM:A08008E2 21 30                       ADD     R0, #0x21
ROM:A08008E4 00 5D                       LDRB    R0, [R0,R4]
ROM:A08008E6 01 28                       CMP     R0, #1
ROM:A08008E8 07 D0                       BEQ     loc_A08008FA
ROM:A08008E8
ROM:A08008EA F0 6A                       LDR     R0, [R6,#0x2C]
ROM:A08008EC 01 28                       CMP     R0, #1
ROM:A08008EE 2F D1                       BNE     loc_A0800950
ROM:A08008EE
ROM:A08008F0 FF 20                       MOV     R0, #0xFF
ROM:A08008F2 16 30                       ADD     R0, #0x16
ROM:A08008F4 00 5D                       LDRB    R0, [R0,R4]
ROM:A08008F6 01 28                       CMP     R0, #1
ROM:A08008F8 2A D1                       BNE     loc_A0800950
ROM:A08008F8
ROM:A08008FA
ROM:A08008FA             loc_A08008FA                            ; CODE XREF: ROM:A08008E8j
ROM:A08008FA 10 49                       LDR     R1, =unk_A08D4D8C
ROM:A08008FC 2B E0                       B       loc_A0800956
ROM:A08008FC
ROM:A08008FC             ; ---------------------------------------------------------------------------
ROM:A08008FE 00                          DCB    0
ROM:A08008FF 00                          DCB    0
ROM:A0800900 84 4E 8D A0 off_A0800900    DCD unk_A08D4E84        ; DATA XREF: sub_A0800538+14r
ROM:A0800904 4C 4F 8D A0 off_A0800904    DCD unk_A08D4F4C        ; DATA XREF: sub_A0800538+2Ar
ROM:A0800908 E8 4E 8D A0 off_A0800908    DCD unk_A08D4EE8        ; DATA XREF: sub_A0800538+48r
ROM:A080090C C0 4E 8D A0 off_A080090C    DCD unk_A08D4EC0        ; DATA XREF: sub_A0800538+66r
ROM:A0800910 FC 4E 8D A0 off_A0800910    DCD unk_A08D4EFC        ; DATA XREF: sub_A0800538+84r
ROM:A0800914 10 4F 8D A0 off_A0800914    DCD unk_A08D4F10        ; DATA XREF: sub_A0800538+A2r
ROM:A0800918 FF FF 00 00 dword_A0800918  DCD 0xFFFF              ; DATA XREF: sub_A0800538+D0r
ROM:A080091C DA 21 00 00 dword_A080091C  DCD 0x21DA              ; DATA XREF: sub_A0800610+22r
ROM:A080091C                                                     ; sub_A0800610+80r
ROM:A080091C                                                     ; sub_A0800610+BEr
ROM:A080091C                                                     ; sub_A0800610+150r
ROM:A0800920 B5 06 00 00 dword_A0800920  DCD 0x6B5               ; DATA XREF: sub_A0800610+44r
ROM:A0800920                                                     ; sub_A0800610+6Ar
ROM:A0800924 DD 0D 00 00 dword_A0800924  DCD 0xDDD               ; DATA XREF: sub_A0800610+96r
ROM:A0800924                                                     ; sub_A0800610+186r
ROM:A0800928 EF 23 00 00 dword_A0800928  DCD 0x23EF              ; DATA XREF: sub_A0800610+AAr
ROM:A080092C 13 08 00 00 dword_A080092C  DCD 0x813               ; DATA XREF: sub_A0800610+E8r
ROM:A0800930 3A          unk_A0800930    DCB 0x3A ; :            ; DATA XREF: sub_A0800610+F6o
ROM:A0800931 20                          DCB 0x20
ROM:A0800932 00                          DCB    0
ROM:A0800933 00                          DCB    0
ROM:A0800934 93 2F 09 A0 off_A0800934    DCD sub_A0092F92+1      ; DATA XREF: sub_A08007A2:loc_A08007C2r
ROM:A0800934                                                     ; ROM:A0800800r
ROM:A0800934                                                     ; ROM:A0800862r
ROM:A0800934                                                     ; ROM:A08008BAr
ROM:A0800938 51 2F 09 A0 off_A0800938    DCD sub_A0092F50+1      ; DATA XREF: sub_A08007A2+22r
ROM:A0800938                                                     ; ROM:A08007FEr
ROM:A0800938                                                     ; ROM:A0800864r
ROM:A0800938                                                     ; ROM:A08008B4r
ROM:A080093C 8C 4D 8D A0 off_A080093C    DCD unk_A08D4D8C        ; DATA XREF: ROM:A080082Cr
ROM:A080093C                                                     ; ROM:loc_A08008FAr
ROM:A0800940 5C 4D 8D A0 off_A0800940    DCD unk_A08D4D5C        ; DATA XREF: ROM:loc_A0800830r
ROM:A0800944 EC 4D 8D A0 off_A0800944    DCD unk_A08D4DEC        ; DATA XREF: ROM:loc_A0800846r
ROM:A0800948 BC 4D 8D A0 off_A0800948    DCD unk_A08D4DBC        ; DATA XREF: ROM:loc_A080084Ar
ROM:A080094C 80 4E 8D A0 off_A080094C    DCD off_A08D4E80        ; DATA XREF: ROM:A08008A4r
ROM:A0800950             ; ---------------------------------------------------------------------------
ROM:A0800950
ROM:A0800950             loc_A0800950                            ; CODE XREF: ROM:A08008EEj
ROM:A0800950                                                     ; ROM:A08008F8j
ROM:A0800950 F7 49                       LDR     R1, =unk_A08D4D5C
ROM:A0800952 00 E0                       B       loc_A0800956
ROM:A0800952
ROM:A0800954             ; ---------------------------------------------------------------------------
ROM:A0800954
ROM:A0800954             loc_A0800954                            ; CODE XREF: ROM:A08008DEj
ROM:A0800954 F7 49                       LDR     R1, =unk_A08D4E1C
ROM:A0800954
ROM:A0800956
ROM:A0800956             loc_A0800956                            ; CODE XREF: ROM:A08008FCj
ROM:A0800956                                                     ; ROM:A0800952j
ROM:A0800956 28 1C                       ADD     R0, R5, #0
ROM:A0800958 19 F0 34 EB                 BLX     sub_A0819FC4
ROM:A0800958
ROM:A080095C 21 1C                       ADD     R1, R4, #0
ROM:A080095E 28 1C                       ADD     R0, R5, #0
ROM:A0800960 19 F0 36 EB                 BLX     sub_A0819FD0
ROM:A0800960
ROM:A0800964 F0 6A                       LDR     R0, [R6,#0x2C]
ROM:A0800966 01 28                       CMP     R0, #1
ROM:A0800968 02 D1                       BNE     loc_A0800970
ROM:A0800968
ROM:A080096A 3A 1C                       ADD     R2, R7, #0
ROM:A080096C F2 49                       LDR     R1, =unk_A08D4C08
ROM:A080096E 01 E0                       B       loc_A0800974
ROM:A080096E
ROM:A0800970             ; ---------------------------------------------------------------------------
ROM:A0800970
ROM:A0800970             loc_A0800970                            ; CODE XREF: ROM:A0800968j
ROM:A0800970 F2 49                       LDR     R1, =unk_A08D4B0C
ROM:A0800972 3A 1C                       ADD     R2, R7, #0
ROM:A0800972
ROM:A0800974
ROM:A0800974             loc_A0800974                            ; CODE XREF: ROM:A080096Ej
ROM:A0800974 28 1C                       ADD     R0, R5, #0
ROM:A0800976 19 F0 32 EB                 BLX     sub_A0819FDC
ROM:A0800976
ROM:A080097A 39 1C                       ADD     R1, R7, #0
ROM:A080097C 28 1C                       ADD     R0, R5, #0
ROM:A080097E F0 4A                       LDR     R2, =(sub_A0092F92+1)
ROM:A0800980 1B F0 7C EB                 BLX     sub_A081C07C
ROM:A0800980
ROM:A0800984 E0 88                       LDRH    R0, [R4,#6]
ROM:A0800986 21 78                       LDRB    R1, [R4]
ROM:A0800988 41 18                       ADD     R1, R0, R1
ROM:A080098A 28 1C                       ADD     R0, R5, #0
ROM:A080098C 19 F0 38 EB                 BLX     sub_A081A000
ROM:A080098C
ROM:A0800990 20 78                       LDRB    R0, [R4]
ROM:A0800992 E1 88                       LDRH    R1, [R4,#6]
ROM:A0800994 40 18                       ADD     R0, R0, R1
ROM:A0800996 21 89                       LDRH    R1, [R4,#8]
ROM:A0800998 88 42                       CMP     R0, R1
ROM:A080099A 00 D2                       BCS     loc_A080099E
ROM:A080099A
ROM:A080099C 00 21                       MOV     R1, #0
ROM:A080099C
ROM:A080099E
ROM:A080099E             loc_A080099E                            ; CODE XREF: ROM:A080099Aj
ROM:A080099E 28 1C                       ADD     R0, R5, #0
ROM:A08009A0 18 F0 EC EF                 BLX     sub_A081997C
ROM:A08009A0
ROM:A08009A4 F0 6A                       LDR     R0, [R6,#0x2C]
ROM:A08009A6 01 28                       CMP     R0, #1
ROM:A08009A8 02 D0                       BEQ     loc_A08009B0
ROM:A08009A8
ROM:A08009AA 30 6B                       LDR     R0, [R6,#0x30]
ROM:A08009AC 01 28                       CMP     R0, #1
ROM:A08009AE 03 D1                       BNE     loc_A08009B8
ROM:A08009AE
ROM:A08009B0
ROM:A08009B0             loc_A08009B0                            ; CODE XREF: ROM:A08009A8j
ROM:A08009B0 00 98                       LDR     R0, [SP]
ROM:A08009B2 40 6B                       LDR     R0, [R0,#0x34]
ROM:A08009B4 00 28                       CMP     R0, #0
ROM:A08009B6 02 D1                       BNE     loc_A08009BE
ROM:A08009B6
ROM:A08009B8
ROM:A08009B8             loc_A08009B8                            ; CODE XREF: ROM:A08009AEj
ROM:A08009B8 F0 6B                       LDR     R0, [R6,#0x3C]
ROM:A08009BA 01 28                       CMP     R0, #1
ROM:A08009BC 02 D1                       BNE     loc_A08009C4
ROM:A08009BC
ROM:A08009BE
ROM:A08009BE             loc_A08009BE                            ; CODE XREF: ROM:A08009B6j
ROM:A08009BE 20 1C                       ADD     R0, R4, #0
ROM:A08009C0 FF F7 EF FE                 BL      sub_A08007A2
ROM:A08009C0
ROM:A08009C4
ROM:A08009C4             loc_A08009C4                            ; CODE XREF: ROM:A08009BCj
ROM:A08009C4 DF 48                       LDR     R0, =off_A08D4E80
ROM:A08009C6 1F F0 48 E8                 BLX     sub_A081FA58
ROM:A08009C6
ROM:A08009CA 28 1C                       ADD     R0, R5, #0
ROM:A08009CC F8 BD                       POP     {R3-R7,PC}
ROM:A08009CC
ROM:A08009CE
ROM:A08009CE             ; *************** S U B R O U T I N E ***************************************
ROM:A08009CE
ROM:A08009CE
ROM:A08009CE             sub_A08009CE                            ; CODE XREF: sub_A08013E4+23Ep
ROM:A08009CE                                                     ; ROM:A0801876p
ROM:A08009CE                                                     ; ROM:A08018C8p
ROM:A08009CE 30 B5                       PUSH    {R4,R5,LR}
ROM:A08009D0 00 22                       MOV     R2, #0
ROM:A08009D2 D4 43                       MVN     R4, R2
ROM:A08009D2
ROM:A08009D4
ROM:A08009D4             loc_A08009D4                            ; CODE XREF: sub_A08009CE+24j
ROM:A08009D4 0C 23                       MOV     R3, #0xC
ROM:A08009D6 53 43                       MUL     R3, R2
ROM:A08009D8 1B 18                       ADD     R3, R3, R0
ROM:A08009DA 1D 8D                       LDRH    R5, [R3,#0x28]
ROM:A08009DC 8D 42                       CMP     R5, R1
ROM:A08009DE 02 D1                       BNE     loc_A08009E6
ROM:A08009DE
ROM:A08009E0 1C 1C                       ADD     R4, R3, #0
ROM:A08009E2 2A 23                       MOV     R3, #0x2A
ROM:A08009E4 E4 5E                       LDRSH   R4, [R4,R3]
ROM:A08009E4
ROM:A08009E6
ROM:A08009E6             loc_A08009E6                            ; CODE XREF: sub_A08009CE+10j
ROM:A08009E6 01 32                       ADD     R2, #1
ROM:A08009E8 12 04                       LSL     R2, R2, #0x10
ROM:A08009EA 12 14                       ASR     R2, R2, #0x10
ROM:A08009EC 63 1C                       ADD     R3, R4, #1
ROM:A08009EE 01 D1                       BNE     loc_A08009F4
ROM:A08009EE
ROM:A08009F0 09 2A                       CMP     R2, #9
ROM:A08009F2 EF DB                       BLT     loc_A08009D4
ROM:A08009F2
ROM:A08009F4
ROM:A08009F4             loc_A08009F4                            ; CODE XREF: sub_A08009CE+20j
ROM:A08009F4 20 1C                       ADD     R0, R4, #0
ROM:A08009F6 30 BD                       POP     {R4,R5,PC}
ROM:A08009F6
ROM:A08009F6             ; End of function sub_A08009CE
ROM:A08009F6
ROM:A08009F8
ROM:A08009F8             ; *************** S U B R O U T I N E ***************************************
ROM:A08009F8
ROM:A08009F8
ROM:A08009F8             sub_A08009F8                            ; CODE XREF: sub_A0800B94+B4p
ROM:A08009F8                                                     ; sub_A0800EDE+18Ap
ROM:A08009F8                                                     ; sub_A08010B8+192p
ROM:A08009F8                                                     ; sub_A08010B8+1E8p
ROM:A08009F8
ROM:A08009F8             var_28          = -0x28
ROM:A08009F8             var_24          = -0x24
ROM:A08009F8             var_20          = -0x20
ROM:A08009F8             var_18          = -0x18
ROM:A08009F8             var_14          = -0x14
ROM:A08009F8
ROM:A08009F8 70 B5                       PUSH    {R4-R6,LR}
ROM:A08009FA 05 1C                       ADD     R5, R0, #0
ROM:A08009FC 00 20                       MOV     R0, #0
ROM:A08009FE 86 B0                       SUB     SP, SP, #0x18
ROM:A0800A00 0C 1C                       ADD     R4, R1, #0
ROM:A0800A02 00 29                       CMP     R1, #0
ROM:A0800A04 05 90                       STR     R0, [SP,#0x28+var_14]
ROM:A0800A06 04 90                       STR     R0, [SP,#0x28+var_18]
ROM:A0800A08 39 D0                       BEQ     loc_A0800A7E
ROM:A0800A08
ROM:A0800A0A 04 AA                       ADD     R2, SP, #0x28+var_18
ROM:A0800A0C 05 A9                       ADD     R1, SP, #0x28+var_14
ROM:A0800A0E 00 91                       STR     R1, [SP,#0x28+var_28]
ROM:A0800A10 01 92                       STR     R2, [SP,#0x28+var_24]
ROM:A0800A12 05 26                       MOV     R6, #5
ROM:A0800A14 33 1C                       ADD     R3, R6, #0
ROM:A0800A16 00 22                       MOV     R2, #0
ROM:A0800A18 00 21                       MOV     R1, #0
ROM:A0800A1A 20 1C                       ADD     R0, R4, #0
ROM:A0800A1C 18 F0 02 EB                 BLX     sub_A0819024
ROM:A0800A1C
ROM:A0800A20 C0 35                       ADD     R5, #0xC0
ROM:A0800A22 68 6B                       LDR     R0, [R5,#0x34]
ROM:A0800A24 02 A9                       ADD     R1, SP, #0x28+var_20
ROM:A0800A26 1A F0 5A E9                 BLX     sub_A081ACDC
ROM:A0800A26
ROM:A0800A2A 00 AB                       ADD     R3, SP, #0x28+var_28
ROM:A0800A2C 98 89                       LDRH    R0, [R3,#0xC]
ROM:A0800A2E 19 89                       LDRH    R1, [R3,#8]
ROM:A0800A30 40 1A                       SUB     R0, R0, R1
ROM:A0800A32 3C 38                       SUB     R0, #0x3C
ROM:A0800A34 05 04                       LSL     R5, R0, #0x10
ROM:A0800A36 05 98                       LDR     R0, [SP,#0x28+var_14]
ROM:A0800A38 2D 0C                       LSR     R5, R5, #0x10


ROM:A0800A3A 00 04                       LSL     R0, R0, #0x10
ROM:A0800A3C 00 0C                       LSR     R0, R0, #0x10
ROM:A0800A3E A8 42                       CMP     R0, R5
ROM:A0800A40 1D D9                       BLS     loc_A0800A7E
ROM:A0800A40
ROM:A0800A42 12 E0                       B       loc_A0800A6A
ROM:A0800A42
ROM:A0800A44             ; ---------------------------------------------------------------------------
ROM:A0800A44
ROM:A0800A44             loc_A0800A44                            ; CODE XREF: sub_A08009F8+7Aj
ROM:A0800A44 20 1C                       ADD     R0, R4, #0
ROM:A0800A46 0F F5 6E FB                 BL      sub_A0510126
ROM:A0800A46
ROM:A0800A4A 02 38                       SUB     R0, #2
ROM:A0800A4C 01 04                       LSL     R1, R0, #0x10
ROM:A0800A4E 09 0C                       LSR     R1, R1, #0x10
ROM:A0800A50 20 1C                       ADD     R0, R4, #0
ROM:A0800A52 10 F5 5D F8                 BL      sub_A0510B10
ROM:A0800A52
ROM:A0800A56 04 AA                       ADD     R2, SP, #0x28+var_18
ROM:A0800A58 05 A9                       ADD     R1, SP, #0x28+var_14
ROM:A0800A5A 00 91                       STR     R1, [SP,#0x28+var_28]
ROM:A0800A5C 01 92                       STR     R2, [SP,#0x28+var_24]
ROM:A0800A5E 00 22                       MOV     R2, #0
ROM:A0800A60 00 21                       MOV     R1, #0
ROM:A0800A62 33 1C                       ADD     R3, R6, #0
ROM:A0800A64 20 1C                       ADD     R0, R4, #0
ROM:A0800A66 18 F0 DE EA                 BLX     sub_A0819024
ROM:A0800A66
ROM:A0800A6A
ROM:A0800A6A             loc_A0800A6A                            ; CODE XREF: sub_A08009F8+4Aj
ROM:A0800A6A 05 98                       LDR     R0, [SP,#0x28+var_14]


ROM:A0800A6C 00 04                       LSL     R0, R0, #0x10
ROM:A0800A6E 00 0C                       LSR     R0, R0, #0x10
ROM:A0800A70 A8 42                       CMP     R0, R5
ROM:A0800A72 E7 D8                       BHI     loc_A0800A44
ROM:A0800A72
ROM:A0800A74 39 21 89 02                 MOVL    R1, 0xE400
ROM:A0800A78 20 1C                       ADD     R0, R4, #0
ROM:A0800A7A 0F F5 97 FF                 BL      sub_A05109AC
ROM:A0800A7A
ROM:A0800A7E
ROM:A0800A7E             loc_A0800A7E                            ; CODE XREF: sub_A08009F8+10j
ROM:A0800A7E                                                     ; sub_A08009F8+48j
ROM:A0800A7E 06 B0                       ADD     SP, SP, #0x18
ROM:A0800A80 70 BD                       POP     {R4-R6,PC}
ROM:A0800A80
ROM:A0800A80             ; End of function sub_A08009F8
ROM:A0800A80
ROM:A0800A82
ROM:A0800A82             ; *************** S U B R O U T I N E ***************************************
ROM:A0800A82
ROM:A0800A82
ROM:A0800A82             sub_A0800A82                            ; CODE XREF: sub_A0800B94+AAp
ROM:A0800A82                                                     ; sub_A0800EDE+116p
ROM:A0800A82 B0 B5                       PUSH    {R4,R5,R7,LR}
ROM:A0800A84 05 1C                       ADD     R5, R0, #0
ROM:A0800A86 02 20                       MOV     R0, #2
ROM:A0800A88 18 F0 76 EE                 BLX     sub_A0819778
ROM:A0800A88
ROM:A0800A8C 04 1C                       ADD     R4, R0, #0
ROM:A0800A8E 64 2D                       CMP     R5, #0x64
ROM:A0800A90 10 D0                       BEQ     loc_A0800AB4
ROM:A0800A90
ROM:A0800A92 07 DC                       BGT     loc_A0800AA4
ROM:A0800A92
ROM:A0800A94 1D 2D                       CMP     R5, #0x1D
ROM:A0800A96 11 D0                       BEQ     loc_A0800ABC
ROM:A0800A96
ROM:A0800A98 62 2D                       CMP     R5, #0x62
ROM:A0800A9A 09 D0                       BEQ     loc_A0800AB0
ROM:A0800A9A
ROM:A0800A9C 63 2D                       CMP     R5, #0x63
ROM:A0800A9E 0F D1                       BNE     loc_A0800AC0
ROM:A0800A9E
ROM:A0800AA0 63 20                       MOV     R0, #0x63
ROM:A0800AA2 0E E0                       B       loc_A0800AC2
ROM:A0800AA2
ROM:A0800AA4             ; ---------------------------------------------------------------------------
ROM:A0800AA4
ROM:A0800AA4             loc_A0800AA4                            ; CODE XREF: sub_A0800A82+10j
ROM:A0800AA4 65 2D                       CMP     R5, #0x65
ROM:A0800AA6 07 D0                       BEQ     loc_A0800AB8
ROM:A0800AA6
ROM:A0800AA8 A9 2D                       CMP     R5, #0xA9
ROM:A0800AAA 09 D1                       BNE     loc_A0800AC0
ROM:A0800AAA
ROM:A0800AAC A9 20                       MOV     R0, #0xA9
ROM:A0800AAE 08 E0                       B       loc_A0800AC2
ROM:A0800AAE
ROM:A0800AB0             ; ---------------------------------------------------------------------------
ROM:A0800AB0
ROM:A0800AB0             loc_A0800AB0                            ; CODE XREF: sub_A0800A82+18j
ROM:A0800AB0 62 20                       MOV     R0, #0x62
ROM:A0800AB2 06 E0                       B       loc_A0800AC2
ROM:A0800AB2
ROM:A0800AB4             ; ---------------------------------------------------------------------------
ROM:A0800AB4
ROM:A0800AB4             loc_A0800AB4                            ; CODE XREF: sub_A0800A82+Ej
ROM:A0800AB4 64 20                       MOV     R0, #0x64
ROM:A0800AB6 04 E0                       B       loc_A0800AC2
ROM:A0800AB6
ROM:A0800AB8             ; ---------------------------------------------------------------------------
ROM:A0800AB8
ROM:A0800AB8             loc_A0800AB8                            ; CODE XREF: sub_A0800A82+24j
ROM:A0800AB8 65 20                       MOV     R0, #0x65
ROM:A0800ABA 02 E0                       B       loc_A0800AC2
ROM:A0800ABA
ROM:A0800ABC             ; ---------------------------------------------------------------------------
ROM:A0800ABC
ROM:A0800ABC             loc_A0800ABC                            ; CODE XREF: sub_A0800A82+14j
ROM:A0800ABC 1D 20                       MOV     R0, #0x1D
ROM:A0800ABE 00 E0                       B       loc_A0800AC2
ROM:A0800ABE
ROM:A0800AC0             ; ---------------------------------------------------------------------------
ROM:A0800AC0
ROM:A0800AC0             loc_A0800AC0                            ; CODE XREF: sub_A0800A82+1Cj
ROM:A0800AC0                                                     ; sub_A0800A82+28j
ROM:A0800AC0 FF 20                       MOV     R0, #0xFF
ROM:A0800AC0
ROM:A0800AC2
ROM:A0800AC2             loc_A0800AC2                            ; CODE XREF: sub_A0800A82+20j
ROM:A0800AC2                                                     ; sub_A0800A82+2Cj
ROM:A0800AC2                                                     ; sub_A0800A82+30j
ROM:A0800AC2                                                     ; sub_A0800A82+34j
ROM:A0800AC2                                                     ; sub_A0800A82+38j
ROM:A0800AC2                                                     ; sub_A0800A82+3Cj
ROM:A0800AC2 1F F0 EA EB                 BLX     sub_A0820298
ROM:A0800AC2
ROM:A0800AC6 18 F0 08 EF                 BLX     sub_A08198D8
ROM:A0800AC6
ROM:A0800ACA 01 1C                       ADD     R1, R0, #0
ROM:A0800ACC 20 1C                       ADD     R0, R4, #0
ROM:A0800ACE 0F F5 6D FF                 BL      sub_A05109AC
ROM:A0800ACE
ROM:A0800AD2 20 1C                       ADD     R0, R4, #0
ROM:A0800AD4 B0 BD                       POP     {R4,R5,R7,PC}
ROM:A0800AD4
ROM:A0800AD4             ; End of function sub_A0800A82
ROM:A0800AD4
ROM:A0800AD6
ROM:A0800AD6             ; *************** S U B R O U T I N E ***************************************
ROM:A0800AD6
ROM:A0800AD6
ROM:A0800AD6             sub_A0800AD6                            ; CODE XREF: sub_A0800B94+16p
ROM:A0800AD6                                                     ; sub_A0800CAA+20p
ROM:A0800AD6                                                     ; sub_A0800EDE+1Ep
ROM:A0800AD6                                                     ; sub_A0800EDE+2Ap
ROM:A0800AD6                                                     ; sub_A0800EDE+36p
ROM:A0800AD6                                                     ; sub_A0800EDE+42p ...
ROM:A0800AD6
ROM:A0800AD6             var_54          = -0x54
ROM:A0800AD6             var_40          = -0x40
ROM:A0800AD6             var_28          = -0x28
ROM:A0800AD6             var_24          = -0x24
ROM:A0800AD6             var_1C          = -0x1C
ROM:A0800AD6
ROM:A0800AD6 F7 B5                       PUSH    {R0-R2,R4-R7,LR}
ROM:A0800AD8 07 1C                       ADD     R7, R0, #0
ROM:A0800ADA C0 37                       ADD     R7, #0xC0
ROM:A0800ADC 15 1C                       ADD     R5, R2, #0
ROM:A0800ADE 00 22                       MOV     R2, #0
ROM:A0800AE0 00 24                       MOV     R4, #0
ROM:A0800AE2 29 1C                       ADD     R1, R5, #0
ROM:A0800AE4 B8 6B                       LDR     R0, [R7,#0x38]
ROM:A0800AE6 8E B0                       SUB     SP, SP, #0x38
ROM:A0800AE8 18 F0 EE EF                 BLX     sub_A0819AC8
ROM:A0800AE8
ROM:A0800AEC 06 1C                       ADD     R6, R0, #0
ROM:A0800AEE B8 6B                       LDR     R0, [R7,#0x38]
ROM:A0800AF0 DC 21                       MOV     R1, #0xDC
ROM:A0800AF2 09 5C                       LDRB    R1, [R1,R0]
ROM:A0800AF4 00 29                       CMP     R1, #0
ROM:A0800AF6 42 D1                       BNE     loc_A0800B7E
ROM:A0800AF6
ROM:A0800AF8 30 2D                       CMP     R5, #0x30
ROM:A0800AFA 25 D1                       BNE     loc_A0800B48
ROM:A0800AFA
ROM:A0800AFC 0B 22                       MOV     R2, #0xB
ROM:A0800AFE 06 A9                       ADD     R1, SP, #0x58+var_40
ROM:A0800B00 01 A8                       ADD     R0, SP, #0x58+var_54
ROM:A0800B02 0F F5 14 FE                 BL      sub_A051072E
ROM:A0800B02
ROM:A0800B06 05 1C                       ADD     R5, R0, #0
ROM:A0800B08 B8 6B                       LDR     R0, [R7,#0x38]
ROM:A0800B0A 31 1C                       ADD     R1, R6, #0
ROM:A0800B0C 19 F0 12 E8                 BLX     sub_A0819B34
ROM:A0800B0C
ROM:A0800B10 01 68                       LDR     R1, [R0]
ROM:A0800B12 40 68                       LDR     R0, [R0,#4]
ROM:A0800B14 0C 91                       STR     R1, [SP,#0x58+var_28]
ROM:A0800B16 00 21                       MOV     R1, #0
ROM:A0800B18 0D 90                       STR     R0, [SP,#0x58+var_24]
ROM:A0800B1A 28 1C                       ADD     R0, R5, #0
ROM:A0800B1C 0F F5 F8 FF                 BL      sub_A0510B10
ROM:A0800B1C
ROM:A0800B20 0F 22                       MOV     R2, #0xF
ROM:A0800B22 28 1C                       ADD     R0, R5, #0
ROM:A0800B24 0C A9                       ADD     R1, SP, #0x58+var_28
ROM:A0800B26 18 F0 4C EE                 BLX     sub_A08197C0
ROM:A0800B26
ROM:A0800B2A 28 1C                       ADD     R0, R5, #0
ROM:A0800B2C 0F F5 FB FA                 BL      sub_A0510126
ROM:A0800B2C
ROM:A0800B30 01 30                       ADD     R0, #1
ROM:A0800B32 18 F0 22 EE                 BLX     sub_A0819778
ROM:A0800B32
ROM:A0800B36 04 1C                       ADD     R4, R0, #0
ROM:A0800B38 20 21                       MOV     R1, #0x20
ROM:A0800B3A 0F F5 37 FF                 BL      sub_A05109AC
ROM:A0800B3A
ROM:A0800B3E 29 1C                       ADD     R1, R5, #0
ROM:A0800B40 20 1C                       ADD     R0, R4, #0
ROM:A0800B42 0F F5 CF FE                 BL      sub_A05108E4
ROM:A0800B42
ROM:A0800B46 1A E0                       B       loc_A0800B7E
ROM:A0800B46
ROM:A0800B48             ; ---------------------------------------------------------------------------
ROM:A0800B48
ROM:A0800B48             loc_A0800B48                            ; CODE XREF: sub_A0800AD6+24j
ROM:A0800B48 69 2D                       CMP     R5, #0x69
ROM:A0800B4A 0C D0                       BEQ     loc_A0800B66
ROM:A0800B4A
ROM:A0800B4C 31 1C                       ADD     R1, R6, #0
ROM:A0800B4E 18 F0 CE EF                 BLX     sub_A0819AEC
ROM:A0800B4E
ROM:A0800B52 05 1C                       ADD     R5, R0, #0
ROM:A0800B54 0F F5 E7 FA                 BL      sub_A0510126
ROM:A0800B54
ROM:A0800B58 18 F0 0E EE                 BLX     sub_A0819778
ROM:A0800B58
ROM:A0800B5C 04 1C                       ADD     R4, R0, #0
ROM:A0800B5E 29 1C                       ADD     R1, R5, #0
ROM:A0800B60 0F F5 9D FE                 BL      sub_A051089E
ROM:A0800B60
ROM:A0800B64 0B E0                       B       loc_A0800B7E
ROM:A0800B64
ROM:A0800B66             ; ---------------------------------------------------------------------------
ROM:A0800B66
ROM:A0800B66             loc_A0800B66                            ; CODE XREF: sub_A0800AD6+74j
ROM:A0800B66 31 1C                       ADD     R1, R6, #0
ROM:A0800B68 18 F0 DE EF                 BLX     sub_A0819B28
ROM:A0800B68
ROM:A0800B6C 05 1C                       ADD     R5, R0, #0
ROM:A0800B6E 06 D0                       BEQ     loc_A0800B7E
ROM:A0800B6E
ROM:A0800B70 05 20                       MOV     R0, #5
ROM:A0800B72 18 F0 02 EE                 BLX     sub_A0819778
ROM:A0800B72
ROM:A0800B76 04 1C                       ADD     R4, R0, #0
ROM:A0800B78 29 68                       LDR     R1, [R5]
ROM:A0800B7A 10 F5 FC F8                 BL      sub_A0510D76
ROM:A0800B7A
ROM:A0800B7E
ROM:A0800B7E             loc_A0800B7E                            ; CODE XREF: sub_A0800AD6+20j
ROM:A0800B7E                                                     ; sub_A0800AD6+70j
ROM:A0800B7E                                                     ; sub_A0800AD6+8Ej
ROM:A0800B7E                                                     ; sub_A0800AD6+98j
ROM:A0800B7E 0F 98                       LDR     R0, [SP,#0x58+var_1C]
ROM:A0800B80 00 2C                       CMP     R4, #0
ROM:A0800B82 04 60                       STR     R4, [R0]
ROM:A0800B84 04 D0                       BEQ     loc_A0800B90
ROM:A0800B84
ROM:A0800B86 20 1C                       ADD     R0, R4, #0
ROM:A0800B88 0F F5 CD FA                 BL      sub_A0510126
ROM:A0800B88
ROM:A0800B8C
ROM:A0800B8C             loc_A0800B8C                            ; CODE XREF: sub_A0800AD6+BCj
ROM:A0800B8C 11 B0                       ADD     SP, SP, #0x44
ROM:A0800B8E F0 BD                       POP     {R4-R7,PC}
ROM:A0800B8E
ROM:A0800B90             ; ---------------------------------------------------------------------------
ROM:A0800B90
ROM:A0800B90             loc_A0800B90                            ; CODE XREF: sub_A0800AD6+AEj
ROM:A0800B90 00 20                       MOV     R0, #0
ROM:A0800B92 FB E7                       B       loc_A0800B8C
ROM:A0800B92
ROM:A0800B92             ; End of function sub_A0800AD6
ROM:A0800B92
ROM:A0800B94
ROM:A0800B94             ; *************** S U B R O U T I N E ***************************************
ROM:A0800B94
ROM:A0800B94
ROM:A0800B94             sub_A0800B94                            ; CODE XREF: sub_A08013E4+1C4p
ROM:A0800B94
ROM:A0800B94             var_230         = -0x230
ROM:A0800B94             var_22C         = -0x22C
ROM:A0800B94             var_28          = -0x28
ROM:A0800B94             var_24          = -0x24
ROM:A0800B94             var_20          = -0x20
ROM:A0800B94             var_1C          = -0x1C
ROM:A0800B94             var_18          = -0x18
ROM:A0800B94
ROM:A0800B94 F7 B5                       PUSH    {R0-R2,R4-R7,LR}
ROM:A0800B96 FF B0                       SUB     SP, SP, #0x1FC
ROM:A0800B98 85 B0                       SUB     SP, SP, #0x14
ROM:A0800B9A FF 21                       MOV     R1, #0xFF
ROM:A0800B9C 00 27                       MOV     R7, #0
ROM:A0800B9E 00 91                       STR     R1, [SP,#0x230+var_230]
ROM:A0800BA0 00 25                       MOV     R5, #0
ROM:A0800BA2 50 22                       MOV     R2, #0x50
ROM:A0800BA4 83 A9                       ADD     R1, SP, #0x230+var_24
ROM:A0800BA6 83 97                       STR     R7, [SP,#0x230+var_24]
ROM:A0800BA8 84 98                       LDR     R0, [SP,#0x230+var_20]
ROM:A0800BAA FF F7 94 FF                 BL      sub_A0800AD6
ROM:A0800BAA
ROM:A0800BAE 00 28                       CMP     R0, #0
ROM:A0800BB0 05 D0                       BEQ     loc_A0800BBE
ROM:A0800BB0
ROM:A0800BB2 18 F0 E2 ED                 BLX     sub_A0819778
ROM:A0800BB2
ROM:A0800BB6 05 1C                       ADD     R5, R0, #0
ROM:A0800BB8 83 99                       LDR     R1, [SP,#0x230+var_24]
ROM:A0800BBA 0F F5 93 FE                 BL      sub_A05108E4
ROM:A0800BBA
ROM:A0800BBE
ROM:A0800BBE             loc_A0800BBE                            ; CODE XREF: sub_A0800B94+1Cj
ROM:A0800BBE 84 9E                       LDR     R6, [SP,#0x230+var_20]
ROM:A0800BC0 00 22                       MOV     R2, #0
ROM:A0800BC2 C0 36                       ADD     R6, #0xC0
ROM:A0800BC4 B0 6B                       LDR     R0, [R6,#0x38]
ROM:A0800BC6 1D 21                       MOV     R1, #0x1D
ROM:A0800BC8 18 F0 7E EF                 BLX     sub_A0819AC8
ROM:A0800BC8
ROM:A0800BCC 01 1C                       ADD     R1, R0, #0
ROM:A0800BCE B0 6B                       LDR     R0, [R6,#0x38]
ROM:A0800BD0 18 F0 92 EF                 BLX     sub_A0819AF8
ROM:A0800BD0
ROM:A0800BD4 00 28                       CMP     R0, #0
ROM:A0800BD6 1E D0                       BEQ     loc_A0800C16
ROM:A0800BD6
ROM:A0800BD8 00 22                       MOV     R2, #0
ROM:A0800BDA 1D 21                       MOV     R1, #0x1D
ROM:A0800BDC B0 6B                       LDR     R0, [R6,#0x38]
ROM:A0800BDE 18 F0 74 EF                 BLX     sub_A0819AC8
ROM:A0800BDE
ROM:A0800BE2 01 1C                       ADD     R1, R0, #0
ROM:A0800BE4 B0 6B                       LDR     R0, [R6,#0x38]
ROM:A0800BE6 18 F0 88 EF                 BLX     sub_A0819AF8
ROM:A0800BE6
ROM:A0800BEA 1D 21                       MOV     R1, #0x1D
ROM:A0800BEC 00 91                       STR     R1, [SP,#0x230+var_230]
ROM:A0800BEE 00 28                       CMP     R0, #0
ROM:A0800BF0 11 D0                       BEQ     loc_A0800C16
ROM:A0800BF0
ROM:A0800BF2 01 22 52 02                 MOVL    R2, 0x200
ROM:A0800BF6 01 A9                       ADD     R1, SP, #0x230+var_22C
ROM:A0800BF8 18 F0 1A EE                 BLX     sub_A0819830
ROM:A0800BF8
ROM:A0800BFC 01 A8                       ADD     R0, SP, #0x230+var_22C
ROM:A0800BFE 18 F0 72 EA                 BLX     sub_A08190E4
ROM:A0800BFE
ROM:A0800C02 07 04                       LSL     R7, R0, #0x10
ROM:A0800C04 3F 0C                       LSR     R7, R7, #0x10
ROM:A0800C06 38 1C                       ADD     R0, R7, #0
ROM:A0800C08 18 F0 B6 ED                 BLX     sub_A0819778
ROM:A0800C08
ROM:A0800C0C 04 1C                       ADD     R4, R0, #0
ROM:A0800C0E 01 A9                       ADD     R1, SP, #0x230+var_22C
ROM:A0800C10 10 F5 83 F8                 BL      sub_A0510D1A
ROM:A0800C10
ROM:A0800C14 07 E0                       B       loc_A0800C26
ROM:A0800C14
ROM:A0800C16             ; ---------------------------------------------------------------------------
ROM:A0800C16
ROM:A0800C16             loc_A0800C16                            ; CODE XREF: sub_A0800B94+42j
ROM:A0800C16                                                     ; sub_A0800B94+5Cj
ROM:A0800C16 36 20                       MOV     R0, #0x36
ROM:A0800C18 18 F0 AE ED                 BLX     sub_A0819778
ROM:A0800C18
ROM:A0800C1C 04 1C                       ADD     R4, R0, #0
ROM:A0800C1E 01 1C                       ADD     R1, R0, #0
ROM:A0800C20 49 48                       LDR     R0, =0x1108A
ROM:A0800C22 18 F0 EA ED                 BLX     sub_A08197F8
ROM:A0800C22
ROM:A0800C26
ROM:A0800C26             loc_A0800C26                            ; CODE XREF: sub_A0800B94+80j
ROM:A0800C26 83 98                       LDR     R0, [SP,#0x230+var_24]
ROM:A0800C28 00 28                       CMP     R0, #0
ROM:A0800C2A 07 D1                       BNE     loc_A0800C3C
ROM:A0800C2A
ROM:A0800C2C 38 1C                       ADD     R0, R7, #0
ROM:A0800C2E 18 F0 A4 ED                 BLX     sub_A0819778
ROM:A0800C2E
ROM:A0800C32 83 90                       STR     R0, [SP,#0x230+var_24]
ROM:A0800C34 21 1C                       ADD     R1, R4, #0
ROM:A0800C36 0F F5 32 FE                 BL      sub_A051089E
ROM:A0800C36
ROM:A0800C3A 83 9D                       LDR     R5, [SP,#0x230+var_24]
ROM:A0800C3A
ROM:A0800C3C
ROM:A0800C3C             loc_A0800C3C                            ; CODE XREF: sub_A0800B94+96j
ROM:A0800C3C 00 98                       LDR     R0, [SP,#0x230+var_230]
ROM:A0800C3E FF F7 20 FF                 BL      sub_A0800A82
ROM:A0800C3E
ROM:A0800C42 82 90                       STR     R0, [SP,#0x230+var_28]
ROM:A0800C44 84 98                       LDR     R0, [SP,#0x230+var_20]
ROM:A0800C46 21 1C                       ADD     R1, R4, #0
ROM:A0800C48 FF F7 D6 FE                 BL      sub_A08009F8
ROM:A0800C48
ROM:A0800C4C 20 1C                       ADD     R0, R4, #0
ROM:A0800C4E 0F F5 6A FA                 BL      sub_A0510126
ROM:A0800C4E
ROM:A0800C52 04 30                       ADD     R0, #4
ROM:A0800C54 18 F0 90 ED                 BLX     sub_A0819778
ROM:A0800C54
ROM:A0800C58 07 1C                       ADD     R7, R0, #0
ROM:A0800C5A 3C A1                       ADR     R1, unk_A0800D4C
ROM:A0800C5C 18 F0 D0 ED                 BLX     sub_A0819800
ROM:A0800C5C
ROM:A0800C60 21 1C                       ADD     R1, R4, #0
ROM:A0800C62 38 1C                       ADD     R0, R7, #0
ROM:A0800C64 0F F5 3E FE                 BL      sub_A05108E4
ROM:A0800C64
ROM:A0800C68 58 F6 2C F9                 BL      sub_A0658EC4
ROM:A0800C68
ROM:A0800C6C 00 28                       CMP     R0, #0
ROM:A0800C6E 03 D0                       BEQ     loc_A0800C78
ROM:A0800C6E
ROM:A0800C70 71 6B                       LDR     R1, [R6,#0x34]
ROM:A0800C72 83 98                       LDR     R0, [SP,#0x230+var_24]
ROM:A0800C74 0F F0 3A FF                 BL      sub_A0810AEC
ROM:A0800C74
ROM:A0800C78
ROM:A0800C78             loc_A0800C78                            ; CODE XREF: sub_A0800B94+DAj
ROM:A0800C78 82 98                       LDR     R0, [SP,#0x230+var_28]
ROM:A0800C7A 00 28                       CMP     R0, #0
ROM:A0800C7C 02 D0                       BEQ     loc_A0800C84
ROM:A0800C7C
ROM:A0800C7E 82 98                       LDR     R0, [SP,#0x230+var_28]
ROM:A0800C80 18 F0 80 ED                 BLX     sub_A0819784
ROM:A0800C80
ROM:A0800C84
ROM:A0800C84             loc_A0800C84                            ; CODE XREF: sub_A0800B94+E8j
ROM:A0800C84 00 2C                       CMP     R4, #0
ROM:A0800C86 02 D0                       BEQ     loc_A0800C8E
ROM:A0800C86
ROM:A0800C88 20 1C                       ADD     R0, R4, #0
ROM:A0800C8A 18 F0 7C ED                 BLX     sub_A0819784
ROM:A0800C8A
ROM:A0800C8E
ROM:A0800C8E             loc_A0800C8E                            ; CODE XREF: sub_A0800B94+F2j
ROM:A0800C8E 83 98                       LDR     R0, [SP,#0x230+var_24]
ROM:A0800C90 00 28                       CMP     R0, #0
ROM:A0800C92 03 D0                       BEQ     loc_A0800C9C
ROM:A0800C92
ROM:A0800C94 A8 42                       CMP     R0, R5
ROM:A0800C96 01 D0                       BEQ     loc_A0800C9C
ROM:A0800C96
ROM:A0800C98 18 F0 74 ED                 BLX     sub_A0819784
ROM:A0800C98
ROM:A0800C9C
ROM:A0800C9C             loc_A0800C9C                            ; CODE XREF: sub_A0800B94+FEj
ROM:A0800C9C                                                     ; sub_A0800B94+102j
ROM:A0800C9C 85 98                       LDR     R0, [SP,#0x230+var_1C]
ROM:A0800C9E 05 60                       STR     R5, [R0]
ROM:A0800CA0 86 98                       LDR     R0, [SP,#0x230+var_18]
ROM:A0800CA2 07 60                       STR     R7, [R0]
ROM:A0800CA4 7F B0                       ADD     SP, SP, #0x1FC
ROM:A0800CA6 08 B0                       ADD     SP, SP, #0x20
ROM:A0800CA8 F0 BD                       POP     {R4-R7,PC}
ROM:A0800CA8
ROM:A0800CA8             ; End of function sub_A0800B94
ROM:A0800CA8
ROM:A0800CAA
ROM:A0800CAA             ; *************** S U B R O U T I N E ***************************************
ROM:A0800CAA
ROM:A0800CAA
ROM:A0800CAA             sub_A0800CAA                            ; CODE XREF: sub_A08013E4+1B8p
ROM:A0800CAA
ROM:A0800CAA             var_14          = -0x14
ROM:A0800CAA             var_10          = -0x10
ROM:A0800CAA             arg_4           =  4
ROM:A0800CAA
ROM:A0800CAA F7 B5                       PUSH    {R0-R2,R4-R7,LR}
ROM:A0800CAC 29 4B                       LDR     R3, =0xFFFFF640
ROM:A0800CAE 07 1C                       ADD     R7, R0, #0
ROM:A0800CB0 9D 44                       ADD     SP, R3
ROM:A0800CB2 09 A9                       ADD     R1, SP, #0x20+arg_4
ROM:A0800CB4 04 A8                       ADD     R0, SP, #0x20+var_10
ROM:A0800CB6 28 4A                       LDR     R2, =0x4CB
ROM:A0800CB8 0F F5 39 FD                 BL      sub_A051072E
ROM:A0800CB8
ROM:A0800CBC 06 1C                       ADD     R6, R0, #0
ROM:A0800CBE 00 20                       MOV     R0, #0
ROM:A0800CC0 03 90                       STR     R0, [SP,#0x20+var_14]
ROM:A0800CC2 00 25                       MOV     R5, #0
ROM:A0800CC4 A9 22                       MOV     R2, #0xA9
ROM:A0800CC6 38 1C                       ADD     R0, R7, #0
ROM:A0800CC8 03 A9                       ADD     R1, SP, #0x20+var_14
ROM:A0800CCA FF F7 04 FF                 BL      sub_A0800AD6
ROM:A0800CCA
ROM:A0800CCE 00 28                       CMP     R0, #0
ROM:A0800CD0 05 D0                       BEQ     loc_A0800CDE
ROM:A0800CD0
ROM:A0800CD2 18 F0 52 ED                 BLX     sub_A0819778
ROM:A0800CD2
ROM:A0800CD6 05 1C                       ADD     R5, R0, #0
ROM:A0800CD8 03 99                       LDR     R1, [SP,#0x20+var_14]
ROM:A0800CDA 0F F5 03 FE                 BL      sub_A05108E4
ROM:A0800CDA
ROM:A0800CDE
ROM:A0800CDE             loc_A0800CDE                            ; CODE XREF: sub_A0800CAA+26j
ROM:A0800CDE 24 20                       MOV     R0, #0x24
ROM:A0800CE0 18 F0 4A ED                 BLX     sub_A0819778
ROM:A0800CE0
ROM:A0800CE4 04 1C                       ADD     R4, R0, #0
ROM:A0800CE6 C0 37                       ADD     R7, #0xC0
ROM:A0800CE8 13 23 DB 01                 MOVL    R3, 0x980
ROM:A0800CEC 6B 44                       ADD     R3, SP
ROM:A0800CEE DF 63                       STR     R7, [R3,#0x3C]
ROM:A0800CF0 B8 6B                       LDR     R0, [R7,#0x38]
ROM:A0800CF2 1E 21                       MOV     R1, #0x1E
ROM:A0800CF4 1E F0 94 EE                 BLX     sub_A081FA20
ROM:A0800CF4
ROM:A0800CF8 03 1C                       ADD     R3, R0, #0
ROM:A0800CFA 20 1C                       ADD     R0, R4, #0
ROM:A0800CFC 13 A2                       ADR     R2, unk_A0800D4C
ROM:A0800CFE 17 A1                       ADR     R1, unk_A0800D5C
ROM:A0800D00 18 F0 7E ED                 BLX     sub_A0819800
ROM:A0800D00
ROM:A0800D04 31 1C                       ADD     R1, R6, #0
ROM:A0800D06 17 48                       LDR     R0, =0x11470
ROM:A0800D08 18 F0 76 ED                 BLX     sub_A08197F8
ROM:A0800D08
ROM:A0800D0C 20 21                       MOV     R1, #0x20
ROM:A0800D0E 20 1C                       ADD     R0, R4, #0
ROM:A0800D10 0F F5 4C FE                 BL      sub_A05109AC
ROM:A0800D10
ROM:A0800D14 31 1C                       ADD     R1, R6, #0
ROM:A0800D16 20 1C                       ADD     R0, R4, #0
ROM:A0800D18 0F F5 E4 FD                 BL      sub_A05108E4
ROM:A0800D18
ROM:A0800D1C 58 F6 D2 F8                 BL      sub_A0658EC4
ROM:A0800D1C
ROM:A0800D20 00 28                       CMP     R0, #0
ROM:A0800D22 24 D0                       BEQ     loc_A0800D6E
ROM:A0800D22
ROM:A0800D24 13 23 DB 01                 MOVL    R3, 0x980
ROM:A0800D28 6B 44                       ADD     R3, SP
ROM:A0800D2A DF 6B                       LDR     R7, [R3,#0x3C]
ROM:A0800D2C 79 6B                       LDR     R1, [R7,#0x34]
ROM:A0800D2E 1B E0                       B       loc_A0800D68
ROM:A0800D2E
ROM:A0800D2E             ; ---------------------------------------------------------------------------
ROM:A0800D30 5C 4D 8D A0 off_A0800D30    DCD unk_A08D4D5C        ; DATA XREF: ROM:loc_A0800950r
ROM:A0800D34 1C 4E 8D A0 off_A0800D34    DCD unk_A08D4E1C        ; DATA XREF: ROM:loc_A0800954r
ROM:A0800D38 08 4C 8D A0 off_A0800D38    DCD unk_A08D4C08        ; DATA XREF: ROM:A080096Cr
ROM:A0800D3C 0C 4B 8D A0 off_A0800D3C    DCD unk_A08D4B0C        ; DATA XREF: ROM:loc_A0800970r
ROM:A0800D40 93 2F 09 A0 off_A0800D40    DCD SWI_0x15_mfree      ; DATA XREF: ROM:A080097Er
ROM:A0800D44 80 4E 8D A0 off_A0800D44    DCD off_A08D4E80        ; DATA XREF: ROM:loc_A08009C4r
ROM:A0800D48 8A 10 01 00 dword_A0800D48  DCD 0x1108A             ; DATA XREF: sub_A0800B94+8Cr
ROM:A0800D4C 20          unk_A0800D4C    DCB 0x20                ; DATA XREF: sub_A0800B94+C6o
ROM:A0800D4C                                                     ; sub_A0800CAA+52o
ROM:A0800D4D 20                          DCB 0x20
ROM:A0800D4E 20                          DCB 0x20
ROM:A0800D4F 20                          DCB 0x20
ROM:A0800D50 00                          DCB    0
ROM:A0800D51 00                          DCB    0
ROM:A0800D52 00                          DCB    0
ROM:A0800D53 00                          DCB    0
ROM:A0800D54 40 F6 FF FF dword_A0800D54  DCD 0xFFFFF640          ; DATA XREF: sub_A0800CAA+2r
ROM:A0800D58 CB 04 00 00 dword_A0800D58  DCD 0x4CB               ; DATA XREF: sub_A0800CAA+Cr
ROM:A0800D5C 25          unk_A0800D5C    DCB 0x25 ; %            ; DATA XREF: sub_A0800CAA+54o
ROM:A0800D5D 73                          DCB 0x73 ; s
ROM:A0800D5E 25                          DCB 0x25 ; %
ROM:A0800D5F 64                          DCB 0x64 ; d
ROM:A0800D60 00                          DCB    0
ROM:A0800D61 00                          DCB    0
ROM:A0800D62 00                          DCB    0
ROM:A0800D63 00                          DCB    0
ROM:A0800D64 70 14 01 00 dword_A0800D64  DCD 0x11470             ; DATA XREF: sub_A0800CAA+5Cr
ROM:A0800D68             ; ---------------------------------------------------------------------------
ROM:A0800D68
ROM:A0800D68             loc_A0800D68                            ; CODE XREF: sub_A0800CAA+84j
ROM:A0800D68 03 98                       LDR     R0, [SP,#0x20+var_14]
ROM:A0800D6A 0F F0 BF FE                 BL      sub_A0810AEC
ROM:A0800D6A
ROM:A0800D6E
ROM:A0800D6E             loc_A0800D6E                            ; CODE XREF: sub_A0800CAA+78j
ROM:A0800D6E 03 98                       LDR     R0, [SP,#0x20+var_14]
ROM:A0800D70 00 28                       CMP     R0, #0
ROM:A0800D72 01 D0                       BEQ     loc_A0800D78
ROM:A0800D72
ROM:A0800D74 18 F0 06 ED                 BLX     sub_A0819784
ROM:A0800D74
ROM:A0800D78
ROM:A0800D78             loc_A0800D78                            ; CODE XREF: sub_A0800CAA+C8j
ROM:A0800D78 13 23 DB 01                 MOVL    R3, 0x980
ROM:A0800D7C 6B 44                       ADD     R3, SP
ROM:A0800D7E 58 6C                       LDR     R0, [R3,#0x44]
ROM:A0800D80 05 60                       STR     R5, [R0]
ROM:A0800D82 98 6C                       LDR     R0, [R3,#0x48]
ROM:A0800D84 EC 4B                       LDR     R3, =0x9CC
ROM:A0800D86 04 60                       STR     R4, [R0]
ROM:A0800D88 9D 44                       ADD     SP, R3
ROM:A0800D8A F0 BD                       POP     {R4-R7,PC}
ROM:A0800D8A
ROM:A0800D8A             ; End of function sub_A0800CAA
ROM:A0800D8A
ROM:A0800D8C
ROM:A0800D8C             ; *************** S U B R O U T I N E ***************************************


//X
ROM:A0800D8C             sub_A0800D8C                            ; CODE XREF: sub_A0800EDE+140p
ROM:A0800D8C                                                     ; sub_A08010B8+1C6p
ROM:A0800D8C
ROM:A0800D8C             var_28          = -0x28
ROM:A0800D8C             var_20          = -0x20
ROM:A0800D8C             var_1C          = -0x1C
ROM:A0800D8C             var_18          = -0x18
ROM:A0800D8C             arg_0           =  0
ROM:A0800D8C             arg_4           =  4
ROM:A0800D8C             arg_8           =  8
ROM:A0800D8C             arg_C           =  0xC
ROM:A0800D8C             arg_10          =  0x10
ROM:A0800D8C             arg_14          =  0x14
ROM:A0800D8C
ROM:A0800D8C FF B5                       PUSH    {R0-R7,LR}
ROM:A0800D8E 81 B0                       SUB     SP, SP, #4
ROM:A0800D90 07 1C                       ADD     R7, R0, #0
ROM:A0800D92 00 20                       MOV     R0, #0
ROM:A0800D94 00 25                       MOV     R5, #0
ROM:A0800D96 00 24                       MOV     R4, #0
ROM:A0800D98 00 23                       MOV     R3, #0
ROM:A0800D9A 00 2F                       CMP     R7, #0
ROM:A0800D9C 0D 99                       LDR     R1, [SP,#0x28+arg_C]
ROM:A0800D9E 0E 9A                       LDR     R2, [SP,#0x28+arg_10]
ROM:A0800DA0 0C 9E                       LDR     R6, [SP,#0x28+arg_8]
ROM:A0800DA2 4A D0                       BEQ     loc_A0800E3A
ROM:A0800DA2
ROM:A0800DA4 02 2F                       CMP     R7, #2
ROM:A0800DA6 1B D0                       BEQ     loc_A0800DE0
ROM:A0800DA6
ROM:A0800DA8 03 2F                       CMP     R7, #3
ROM:A0800DAA 46 D1                       BNE     loc_A0800E3A
ROM:A0800DAA
ROM:A0800DAC 00 2A                       CMP     R2, #0
ROM:A0800DAE 02 D0                       BEQ     loc_A0800DB6
ROM:A0800DAE
ROM:A0800DB0 10 1C                       ADD     R0, R2, #0
ROM:A0800DB2 0A 9D                       LDR     R5, [SP,#0x28+arg_0]
ROM:A0800DB4 08 E0                       B       loc_A0800DC8
ROM:A0800DB4
ROM:A0800DB6             ; ---------------------------------------------------------------------------
ROM:A0800DB6
ROM:A0800DB6             loc_A0800DB6                            ; CODE XREF: sub_A0800D8C+22j
ROM:A0800DB6 00 2E                       CMP     R6, #0
ROM:A0800DB8 02 D0                       BEQ     loc_A0800DC0
ROM:A0800DB8
ROM:A0800DBA 30 1C                       ADD     R0, R6, #0
ROM:A0800DBC 03 9D                       LDR     R5, [SP,#0x28+var_1C]
ROM:A0800DBE 03 E0                       B       loc_A0800DC8
ROM:A0800DBE
ROM:A0800DC0             ; ---------------------------------------------------------------------------
ROM:A0800DC0
ROM:A0800DC0             loc_A0800DC0                            ; CODE XREF: sub_A0800D8C+2Cj
ROM:A0800DC0 00 29                       CMP     R1, #0
ROM:A0800DC2 01 D0                       BEQ     loc_A0800DC8
ROM:A0800DC2
ROM:A0800DC4 04 9D                       LDR     R5, [SP,#0x28+var_18]
ROM:A0800DC6 08 1C                       ADD     R0, R1, #0
ROM:A0800DC6
ROM:A0800DC8
ROM:A0800DC8             loc_A0800DC8                            ; CODE XREF: sub_A0800D8C+28j
ROM:A0800DC8                                                     ; sub_A0800D8C+32j
ROM:A0800DC8                                                     ; sub_A0800D8C+36j
ROM:A0800DC8 00 2A                       CMP     R2, #0
ROM:A0800DCA 04 D0                       BEQ     loc_A0800DD6
ROM:A0800DCA
ROM:A0800DCC 00 2E                       CMP     R6, #0
ROM:A0800DCE 20 D1                       BNE     loc_A0800E12
ROM:A0800DCE
ROM:A0800DD0 00 29                       CMP     R1, #0
ROM:A0800DD2 46 D0                       BEQ     loc_A0800E62
ROM:A0800DD2
ROM:A0800DD4 43 E0                       B       loc_A0800E5E
ROM:A0800DD4
ROM:A0800DD6             ; ---------------------------------------------------------------------------
ROM:A0800DD6
ROM:A0800DD6             loc_A0800DD6                            ; CODE XREF: sub_A0800D8C+3Ej
ROM:A0800DD6 00 2E                       CMP     R6, #0
ROM:A0800DD8 43 D0                       BEQ     loc_A0800E62
ROM:A0800DD8
ROM:A0800DDA 00 29                       CMP     R1, #0
ROM:A0800DDC 41 D0                       BEQ     loc_A0800E62
ROM:A0800DDC
ROM:A0800DDE 3E E0                       B       loc_A0800E5E
ROM:A0800DDE
ROM:A0800DE0             ; ---------------------------------------------------------------------------
ROM:A0800DE0
ROM:A0800DE0             loc_A0800DE0                            ; CODE XREF: sub_A0800D8C+1Aj
ROM:A0800DE0 0F 9F                       LDR     R7, [SP,#0x28+arg_14]
ROM:A0800DE2 00 2F                       CMP     R7, #0
ROM:A0800DE4 02 D0                       BEQ     loc_A0800DEC
ROM:A0800DE4
ROM:A0800DE6 0F 98                       LDR     R0, [SP,#0x28+arg_14]
ROM:A0800DE8 0B 9D                       LDR     R5, [SP,#0x28+arg_4]
ROM:A0800DEA 0D E0                       B       loc_A0800E08
ROM:A0800DEA
ROM:A0800DEC             ; ---------------------------------------------------------------------------
ROM:A0800DEC
ROM:A0800DEC             loc_A0800DEC                            ; CODE XREF: sub_A0800D8C+58j
ROM:A0800DEC 00 2E                       CMP     R6, #0
ROM:A0800DEE 02 D0                       BEQ     loc_A0800DF6
ROM:A0800DEE
ROM:A0800DF0 30 1C                       ADD     R0, R6, #0
ROM:A0800DF2 03 9D                       LDR     R5, [SP,#0x28+var_1C]
ROM:A0800DF4 08 E0                       B       loc_A0800E08
ROM:A0800DF4
ROM:A0800DF6             ; ---------------------------------------------------------------------------
ROM:A0800DF6
ROM:A0800DF6             loc_A0800DF6                            ; CODE XREF: sub_A0800D8C+62j
ROM:A0800DF6 00 29                       CMP     R1, #0
ROM:A0800DF8 02 D0                       BEQ     loc_A0800E00
ROM:A0800DF8
ROM:A0800DFA 08 1C                       ADD     R0, R1, #0
ROM:A0800DFC 04 9D                       LDR     R5, [SP,#0x28+var_18]
ROM:A0800DFE 03 E0                       B       loc_A0800E08
ROM:A0800DFE
ROM:A0800E00             ; ---------------------------------------------------------------------------
ROM:A0800E00
ROM:A0800E00             loc_A0800E00                            ; CODE XREF: sub_A0800D8C+6Cj
ROM:A0800E00 00 2A                       CMP     R2, #0
ROM:A0800E02 01 D0                       BEQ     loc_A0800E08
ROM:A0800E02
ROM:A0800E04 0A 9D                       LDR     R5, [SP,#0x28+arg_0]
ROM:A0800E06 10 1C                       ADD     R0, R2, #0
ROM:A0800E06
ROM:A0800E08
ROM:A0800E08             loc_A0800E08                            ; CODE XREF: sub_A0800D8C+5Ej
ROM:A0800E08                                                     ; sub_A0800D8C+68j
ROM:A0800E08                                                     ; sub_A0800D8C+72j
ROM:A0800E08                                                     ; sub_A0800D8C+76j
ROM:A0800E08 0F 9F                       LDR     R7, [SP,#0x28+arg_14]
ROM:A0800E0A 00 2F                       CMP     R7, #0
ROM:A0800E0C 09 D0                       BEQ     loc_A0800E22
ROM:A0800E0C
ROM:A0800E0E 00 2E                       CMP     R6, #0
ROM:A0800E10 02 D0                       BEQ     loc_A0800E18
ROM:A0800E10
ROM:A0800E12
ROM:A0800E12             loc_A0800E12                            ; CODE XREF: sub_A0800D8C+42j
ROM:A0800E12 33 1C                       ADD     R3, R6, #0
ROM:A0800E14 03 9C                       LDR     R4, [SP,#0x28+var_1C]
ROM:A0800E16 24 E0                       B       loc_A0800E62
ROM:A0800E16
ROM:A0800E18             ; ---------------------------------------------------------------------------
ROM:A0800E18
ROM:A0800E18             loc_A0800E18                            ; CODE XREF: sub_A0800D8C+84j
ROM:A0800E18 00 29                       CMP     R1, #0
ROM:A0800E1A 20 D1                       BNE     loc_A0800E5E
ROM:A0800E1A
ROM:A0800E1C 00 2A                       CMP     R2, #0
ROM:A0800E1E 20 D0                       BEQ     loc_A0800E62
ROM:A0800E1E
ROM:A0800E20 27 E0                       B       loc_A0800E72
ROM:A0800E20
ROM:A0800E22             ; ---------------------------------------------------------------------------
ROM:A0800E22
ROM:A0800E22             loc_A0800E22                            ; CODE XREF: sub_A0800D8C+80j
ROM:A0800E22 00 2E                       CMP     R6, #0
ROM:A0800E24 04 D0                       BEQ     loc_A0800E30
ROM:A0800E24
ROM:A0800E26 00 29                       CMP     R1, #0
ROM:A0800E28 19 D1                       BNE     loc_A0800E5E
ROM:A0800E28
ROM:A0800E2A 00 2A                       CMP     R2, #0
ROM:A0800E2C 19 D0                       BEQ     loc_A0800E62
ROM:A0800E2C
ROM:A0800E2E 20 E0                       B       loc_A0800E72
ROM:A0800E2E
ROM:A0800E30             ; ---------------------------------------------------------------------------
ROM:A0800E30
ROM:A0800E30             loc_A0800E30                            ; CODE XREF: sub_A0800D8C+98j
ROM:A0800E30 00 29                       CMP     R1, #0
ROM:A0800E32 16 D0                       BEQ     loc_A0800E62
ROM:A0800E32
ROM:A0800E34 00 2A                       CMP     R2, #0
ROM:A0800E36 14 D0                       BEQ     loc_A0800E62
ROM:A0800E36
ROM:A0800E38 1B E0                       B       loc_A0800E72
ROM:A0800E38
ROM:A0800E3A             ; ---------------------------------------------------------------------------
ROM:A0800E3A
ROM:A0800E3A             loc_A0800E3A                            ; CODE XREF: sub_A0800D8C+16j
ROM:A0800E3A                                                     ; sub_A0800D8C+1Ej
ROM:A0800E3A 00 2E                       CMP     R6, #0
ROM:A0800E3C 02 D0                       BEQ     loc_A0800E44
ROM:A0800E3C
ROM:A0800E3E 30 1C                       ADD     R0, R6, #0
ROM:A0800E40 03 9D                       LDR     R5, [SP,#0x28+var_1C]
ROM:A0800E42 08 E0                       B       loc_A0800E56
ROM:A0800E42
ROM:A0800E44             ; ---------------------------------------------------------------------------
ROM:A0800E44
ROM:A0800E44             loc_A0800E44                            ; CODE XREF: sub_A0800D8C+B0j
ROM:A0800E44 00 29                       CMP     R1, #0
ROM:A0800E46 02 D0                       BEQ     loc_A0800E4E
ROM:A0800E46
ROM:A0800E48 08 1C                       ADD     R0, R1, #0
ROM:A0800E4A 04 9D                       LDR     R5, [SP,#0x28+var_18]
ROM:A0800E4C 03 E0                       B       loc_A0800E56
ROM:A0800E4C
ROM:A0800E4E             ; ---------------------------------------------------------------------------
ROM:A0800E4E
ROM:A0800E4E             loc_A0800E4E                            ; CODE XREF: sub_A0800D8C+BAj
ROM:A0800E4E 00 2A                       CMP     R2, #0
ROM:A0800E50 01 D0                       BEQ     loc_A0800E56
ROM:A0800E50
ROM:A0800E52 0A 9D                       LDR     R5, [SP,#0x28+arg_0]
ROM:A0800E54 10 1C                       ADD     R0, R2, #0
ROM:A0800E54
ROM:A0800E56
ROM:A0800E56             loc_A0800E56                            ; CODE XREF: sub_A0800D8C+B6j
ROM:A0800E56                                                     ; sub_A0800D8C+C0j
ROM:A0800E56                                                     ; sub_A0800D8C+C4j
ROM:A0800E56 00 2E                       CMP     R6, #0
ROM:A0800E58 07 D0                       BEQ     loc_A0800E6A
ROM:A0800E58
ROM:A0800E5A 00 29                       CMP     R1, #0
ROM:A0800E5C 02 D0                       BEQ     loc_A0800E64
ROM:A0800E5C
ROM:A0800E5E
ROM:A0800E5E             loc_A0800E5E                            ; CODE XREF: sub_A0800D8C+48j
ROM:A0800E5E                                                     ; sub_A0800D8C+52j
ROM:A0800E5E                                                     ; sub_A0800D8C+8Ej
ROM:A0800E5E                                                     ; sub_A0800D8C+9Cj
ROM:A0800E5E 04 9C                       LDR     R4, [SP,#0x28+var_18]
ROM:A0800E60 0B 1C                       ADD     R3, R1, #0
ROM:A0800E60
ROM:A0800E62
ROM:A0800E62             loc_A0800E62                            ; CODE XREF: sub_A0800D8C+46j
ROM:A0800E62                                                     ; sub_A0800D8C+4Cj
ROM:A0800E62                                                     ; sub_A0800D8C+50j
ROM:A0800E62                                                     ; sub_A0800D8C+8Aj
ROM:A0800E62                                                     ; sub_A0800D8C+92j
ROM:A0800E62                                                     ; sub_A0800D8C+A0j ...
ROM:A0800E62 08 E0                       B       loc_A0800E76
ROM:A0800E62
ROM:A0800E64             ; ---------------------------------------------------------------------------
ROM:A0800E64
ROM:A0800E64             loc_A0800E64                            ; CODE XREF: sub_A0800D8C+D0j
ROM:A0800E64 00 2A                       CMP     R2, #0
ROM:A0800E66 06 D0                       BEQ     loc_A0800E76
ROM:A0800E66

//I
ROM:A0800E68 03 E0                       B       loc_A0800E72
ROM:A0800E68
ROM:A0800E6A             ; ---------------------------------------------------------------------------
ROM:A0800E6A
ROM:A0800E6A             loc_A0800E6A                            ; CODE XREF: sub_A0800D8C+CCj
ROM:A0800E6A 00 29                       CMP     R1, #0
ROM:A0800E6C 03 D0                       BEQ     loc_A0800E76
ROM:A0800E6C
ROM:A0800E6E 00 2A                       CMP     R2, #0
ROM:A0800E70 01 D0                       BEQ     loc_A0800E76
ROM:A0800E70
ROM:A0800E72
ROM:A0800E72             loc_A0800E72                            ; CODE XREF: sub_A0800D8C+94j
ROM:A0800E72                                                     ; sub_A0800D8C+A2j
ROM:A0800E72                                                     ; sub_A0800D8C+ACj
ROM:A0800E72                                                     ; sub_A0800D8C+DCj
ROM:A0800E72 0A 9C                       LDR     R4, [SP,#0x28+arg_0]
ROM:A0800E74 13 1C                       ADD     R3, R2, #0
ROM:A0800E74
ROM:A0800E76
ROM:A0800E76             loc_A0800E76                            ; CODE XREF: sub_A0800D8C:loc_A0800E62j
ROM:A0800E76                                                     ; sub_A0800D8C+DAj
ROM:A0800E76                                                     ; sub_A0800D8C+E0j
ROM:A0800E76                                                     ; sub_A0800D8C+E4j
ROM:A0800E76 00 2B                       CMP     R3, #0
ROM:A0800E78 06 D1                       BNE     loc_A0800E88
ROM:A0800E78
ROM:A0800E7A 18 F0 7E EC                 BLX     sub_A0819778
ROM:A0800E7A
ROM:A0800E7E 06 1C                       ADD     R6, R0, #0
ROM:A0800E80 29 1C                       ADD     R1, R5, #0
ROM:A0800E82 0F F5 0C FD                 BL      sub_A051089E
ROM:A0800E82
ROM:A0800E86 0A E0                       B       loc_A0800E9E
ROM:A0800E86
ROM:A0800E88             ; ---------------------------------------------------------------------------
ROM:A0800E88
ROM:A0800E88             loc_A0800E88                            ; CODE XREF: sub_A0800D8C+ECj
ROM:A0800E88 C0 18                       ADD     R0, R0, R3
ROM:A0800E8A 04 30                       ADD     R0, #4
ROM:A0800E8C 18 F0 74 EC                 BLX     sub_A0819778
ROM:A0800E8C
ROM:A0800E90 06 1C                       ADD     R6, R0, #0
ROM:A0800E92 2A 1C                       ADD     R2, R5, #0
ROM:A0800E94 00 94                       STR     R4, [SP,#0x28+var_28]
ROM:A0800E96 A9 A3                       ADR     R3, unk_A080113C
ROM:A0800E98 A9 A1                       ADR     R1, unk_A0801140
ROM:A0800E9A 18 F0 B2 EC                 BLX     sub_A0819800
ROM:A0800E9A
ROM:A0800E9E
ROM:A0800E9E             loc_A0800E9E                            ; CODE XREF: sub_A0800D8C+FAj
ROM:A0800E9E 03 9C                       LDR     R4, [SP,#0x28+var_1C]
ROM:A0800EA0 00 2C                       CMP     R4, #0
ROM:A0800EA2 02 D0                       BEQ     loc_A0800EAA
ROM:A0800EA2
ROM:A0800EA4 03 98                       LDR     R0, [SP,#0x28+var_1C]
ROM:A0800EA6 18 F0 6E EC                 BLX     sub_A0819784
ROM:A0800EA6
ROM:A0800EAA
ROM:A0800EAA             loc_A0800EAA                            ; CODE XREF: sub_A0800D8C+116j
ROM:A0800EAA 04 9C                       LDR     R4, [SP,#0x28+var_18]
ROM:A0800EAC 00 2C                       CMP     R4, #0
ROM:A0800EAE 02 D0                       BEQ     loc_A0800EB6
ROM:A0800EAE
ROM:A0800EB0 04 98                       LDR     R0, [SP,#0x28+var_18]
ROM:A0800EB2 18 F0 68 EC                 BLX     sub_A0819784
ROM:A0800EB2
ROM:A0800EB6
ROM:A0800EB6             loc_A0800EB6                            ; CODE XREF: sub_A0800D8C+122j
ROM:A0800EB6 0A 9C                       LDR     R4, [SP,#0x28+arg_0]
ROM:A0800EB8 00 2C                       CMP     R4, #0
ROM:A0800EBA 02 D0                       BEQ     loc_A0800EC2
ROM:A0800EBA
ROM:A0800EBC 0A 98                       LDR     R0, [SP,#0x28+arg_0]
ROM:A0800EBE 18 F0 62 EC                 BLX     sub_A0819784
ROM:A0800EBE
ROM:A0800EC2
ROM:A0800EC2             loc_A0800EC2                            ; CODE XREF: sub_A0800D8C+12Ej
ROM:A0800EC2 0B 9D                       LDR     R5, [SP,#0x28+arg_4]
ROM:A0800EC4 00 2D                       CMP     R5, #0
ROM:A0800EC6 02 D0                       BEQ     loc_A0800ECE
ROM:A0800EC6
ROM:A0800EC8 0B 98                       LDR     R0, [SP,#0x28+arg_4]
ROM:A0800ECA 18 F0 5C EC                 BLX     sub_A0819784
ROM:A0800ECA
ROM:A0800ECE
ROM:A0800ECE             loc_A0800ECE                            ; CODE XREF: sub_A0800D8C+13Aj
ROM:A0800ECE 30 1C                       ADD     R0, R6, #0
ROM:A0800ED0 0F F5 29 F9                 BL      sub_A0510126
ROM:A0800ED0

//G
ROM:A0800ED4 02 99                       LDR     R1, [SP,#0x28+var_20]
ROM:A0800ED6 08 80                       STRH    R0, [R1]
ROM:A0800ED8 05 B0                       ADD     SP, SP, #0x14
ROM:A0800EDA 30 1C                       ADD     R0, R6, #0
ROM:A0800EDC F0 BD                       POP     {R4-R7,PC}
ROM:A0800EDC
ROM:A0800EDC             ; End of function sub_A0800D8C
ROM:A0800EDC
ROM:A0800EDE
ROM:A0800EDE             ; *************** S U B R O U T I N E ***************************************


//F
ROM:A0800EDE
ROM:A0800EDE             sub_A0800EDE                            ; CODE XREF: sub_A08013E4+1A8p
ROM:A0800EDE                                                     ; ROM:A0801D3Cp
ROM:A0800EDE
ROM:A0800EDE             var_268         = -0x268
ROM:A0800EDE             var_264         = -0x264
ROM:A0800EDE             var_260         = -0x260
ROM:A0800EDE             var_25C         = -0x25C
ROM:A0800EDE             var_258         = -0x258
ROM:A0800EDE             var_254         = -0x254
ROM:A0800EDE             var_24C         = -0x24C
ROM:A0800EDE             var_68          = -0x68
ROM:A0800EDE             var_48          = -0x48
ROM:A0800EDE             var_44          = -0x44
ROM:A0800EDE             var_40          = -0x40
ROM:A0800EDE             var_3C          = -0x3C
ROM:A0800EDE             var_38          = -0x38
ROM:A0800EDE             var_34          = -0x34
ROM:A0800EDE             var_30          = -0x30
ROM:A0800EDE             var_2C          = -0x2C
ROM:A0800EDE             var_28          = -0x28
ROM:A0800EDE             var_24          = -0x24
ROM:A0800EDE             var_1C          = -0x1C
ROM:A0800EDE             var_18          = -0x18
ROM:A0800EDE
ROM:A0800EDE F7 B5                       PUSH    {R0-R2,R4-R7,LR}
ROM:A0800EE0 FF B0                       SUB     SP, SP, #0x1FC
ROM:A0800EE2 93 B0                       SUB     SP, SP, #0x4C
ROM:A0800EE4 06 1C                       ADD     R6, R0, #0
ROM:A0800EE6 00 20                       MOV     R0, #0
ROM:A0800EE8 80 AB                       ADD     R3, SP, #0x268+var_68
ROM:A0800EEA 18 87                       STRH    R0, [R3,#0x38]
ROM:A0800EEC 8C 90                       STR     R0, [SP,#0x268+var_38]
ROM:A0800EEE 8B 90                       STR     R0, [SP,#0x268+var_3C]
ROM:A0800EF0 8A 90                       STR     R0, [SP,#0x268+var_40]
ROM:A0800EF2 88 90                       STR     R0, [SP,#0x268+var_48]
ROM:A0800EF4 FF 27                       MOV     R7, #0xFF
ROM:A0800EF6 23 22                       MOV     R2, #0x23
ROM:A0800EF8 30 1C                       ADD     R0, R6, #0
ROM:A0800EFA 8C A9                       ADD     R1, SP, #0x268+var_38
ROM:A0800EFC FF F7 EB FD                 BL      sub_A0800AD6
ROM:A0800EFC
ROM:A0800F00 91 90                       STR     R0, [SP,#0x268+var_24]
ROM:A0800F02 24 22                       MOV     R2, #0x24
ROM:A0800F04 30 1C                       ADD     R0, R6, #0
ROM:A0800F06 8B A9                       ADD     R1, SP, #0x268+var_3C
ROM:A0800F08 FF F7 E5 FD                 BL      sub_A0800AD6
ROM:A0800F08
ROM:A0800F0C 90 90                       STR     R0, [SP,#0x268+var_28]
ROM:A0800F0E 29 22                       MOV     R2, #0x29
ROM:A0800F10 30 1C                       ADD     R0, R6, #0
ROM:A0800F12 8A A9                       ADD     R1, SP, #0x268+var_40
ROM:A0800F14 FF F7 DF FD                 BL      sub_A0800AD6
ROM:A0800F14
ROM:A0800F18 8F 90                       STR     R0, [SP,#0x268+var_2C]
ROM:A0800F1A 60 22                       MOV     R2, #0x60
ROM:A0800F1C 30 1C                       ADD     R0, R6, #0
ROM:A0800F1E 88 A9                       ADD     R1, SP, #0x268+var_48
ROM:A0800F20 FF F7 D9 FD                 BL      sub_A0800AD6
ROM:A0800F20
ROM:A0800F24 34 1C                       ADD     R4, R6, #0
ROM:A0800F26 C0 34                       ADD     R4, #0xC0
ROM:A0800F28 8D 90                       STR     R0, [SP,#0x268+var_34]
ROM:A0800F2A 00 22                       MOV     R2, #0
ROM:A0800F2C A1 21                       MOV     R1, #0xA1
ROM:A0800F2E A0 6B                       LDR     R0, [R4,#0x38]
ROM:A0800F30 18 F0 CA ED                 BLX     sub_A0819AC8
ROM:A0800F30
ROM:A0800F34 01 1C                       ADD     R1, R0, #0
ROM:A0800F36 A0 6B                       LDR     R0, [R4,#0x38]
ROM:A0800F38 18 F0 DE ED                 BLX     sub_A0819AF8
ROM:A0800F38
ROM:A0800F3C 00 28                       CMP     R0, #0
ROM:A0800F3E 50 D0                       BEQ     loc_A0800FE2
ROM:A0800F3E
ROM:A0800F40 00 22                       MOV     R2, #0
ROM:A0800F42 A1 21                       MOV     R1, #0xA1
ROM:A0800F44 A0 6B                       LDR     R0, [R4,#0x38]
ROM:A0800F46 18 F0 C0 ED                 BLX     sub_A0819AC8
ROM:A0800F46
ROM:A0800F4A 01 1C                       ADD     R1, R0, #0
ROM:A0800F4C A0 6B                       LDR     R0, [R4,#0x38]
ROM:A0800F4E 18 F0 D4 ED                 BLX     sub_A0819AF8
ROM:A0800F4E
ROM:A0800F52 05 1C                       ADD     R5, R0, #0
ROM:A0800F54 00 22                       MOV     R2, #0
ROM:A0800F56 64 21                       MOV     R1, #0x64
ROM:A0800F58 A0 6B                       LDR     R0, [R4,#0x38]
ROM:A0800F5A 18 F0 B6 ED                 BLX     sub_A0819AC8
ROM:A0800F5A
ROM:A0800F5E 01 1C                       ADD     R1, R0, #0
ROM:A0800F60 A0 6B                       LDR     R0, [R4,#0x38]
ROM:A0800F62 18 F0 CA ED                 BLX     sub_A0819AF8
ROM:A0800F62
ROM:A0800F66 00 28                       CMP     R0, #0
ROM:A0800F68 01 D0                       BEQ     loc_A0800F6E
ROM:A0800F68
ROM:A0800F6A 64 27                       MOV     R7, #0x64
ROM:A0800F6C 25 E0                       B       loc_A0800FBA
ROM:A0800F6C
ROM:A0800F6E             ; ---------------------------------------------------------------------------
ROM:A0800F6E
ROM:A0800F6E             loc_A0800F6E                            ; CODE XREF: sub_A0800EDE+8Aj
ROM:A0800F6E 00 22                       MOV     R2, #0
ROM:A0800F70 65 21                       MOV     R1, #0x65
ROM:A0800F72 A0 6B                       LDR     R0, [R4,#0x38]
ROM:A0800F74 18 F0 A8 ED                 BLX     sub_A0819AC8
ROM:A0800F74
ROM:A0800F78 01 1C                       ADD     R1, R0, #0
ROM:A0800F7A A0 6B                       LDR     R0, [R4,#0x38]
ROM:A0800F7C 18 F0 BC ED                 BLX     sub_A0819AF8
ROM:A0800F7C
ROM:A0800F80 00 28                       CMP     R0, #0
ROM:A0800F82 01 D0                       BEQ     loc_A0800F88
ROM:A0800F82
ROM:A0800F84 65 27                       MOV     R7, #0x65
ROM:A0800F86 18 E0                       B       loc_A0800FBA
ROM:A0800F86
ROM:A0800F88             ; ---------------------------------------------------------------------------
ROM:A0800F88
ROM:A0800F88             loc_A0800F88                            ; CODE XREF: sub_A0800EDE+A4j
ROM:A0800F88 00 22                       MOV     R2, #0
ROM:A0800F8A 62 21                       MOV     R1, #0x62
ROM:A0800F8C A0 6B                       LDR     R0, [R4,#0x38]
ROM:A0800F8E 18 F0 9C ED                 BLX     sub_A0819AC8
ROM:A0800F8E
ROM:A0800F92 01 1C                       ADD     R1, R0, #0
ROM:A0800F94 A0 6B                       LDR     R0, [R4,#0x38]
ROM:A0800F96 18 F0 B0 ED                 BLX     sub_A0819AF8
ROM:A0800F96
ROM:A0800F9A 00 28                       CMP     R0, #0
ROM:A0800F9C 0C D1                       BNE     loc_A0800FB8
ROM:A0800F9C
ROM:A0800F9E 00 22                       MOV     R2, #0
ROM:A0800FA0 63 21                       MOV     R1, #0x63
ROM:A0800FA2 A0 6B                       LDR     R0, [R4,#0x38]
ROM:A0800FA4 18 F0 90 ED                 BLX     sub_A0819AC8
ROM:A0800FA4
ROM:A0800FA8 01 1C                       ADD     R1, R0, #0
ROM:A0800FAA A0 6B                       LDR     R0, [R4,#0x38]
ROM:A0800FAC 18 F0 A4 ED                 BLX     sub_A0819AF8
ROM:A0800FAC
ROM:A0800FB0 00 28                       CMP     R0, #0
ROM:A0800FB2 01 D0                       BEQ     loc_A0800FB8
ROM:A0800FB2
ROM:A0800FB4 63 27                       MOV     R7, #0x63
ROM:A0800FB6 00 E0                       B       loc_A0800FBA
ROM:A0800FB6
ROM:A0800FB8             ; ---------------------------------------------------------------------------
ROM:A0800FB8
ROM:A0800FB8             loc_A0800FB8                            ; CODE XREF: sub_A0800EDE+BEj
ROM:A0800FB8                                                     ; sub_A0800EDE+D4j
ROM:A0800FB8 62 27                       MOV     R7, #0x62
ROM:A0800FB8
ROM:A0800FBA
ROM:A0800FBA             loc_A0800FBA                            ; CODE XREF: sub_A0800EDE+8Ej
ROM:A0800FBA                                                     ; sub_A0800EDE+A8j
ROM:A0800FBA                                                     ; sub_A0800EDE+D8j
ROM:A0800FBA 00 2D                       CMP     R5, #0
ROM:A0800FBC 11 D0                       BEQ     loc_A0800FE2
ROM:A0800FBC
ROM:A0800FBE 01 22 52 02                 MOVL    R2, 0x200
ROM:A0800FC2 28 1C                       ADD     R0, R5, #0
ROM:A0800FC4 07 A9                       ADD     R1, SP, #0x268+var_24C
ROM:A0800FC6 18 F0 34 EC                 BLX     sub_A0819830
ROM:A0800FC6
ROM:A0800FCA 07 A8                       ADD     R0, SP, #0x268+var_24C
ROM:A0800FCC 18 F0 8A E8                 BLX     sub_A08190E4
ROM:A0800FCC


//ADRBKLST_ALLOCWS_HOOK
ROM:A0800FD0 00 04                       LSL     R0, R0, #0x10
ROM:A0800FD2 00 0C                       LSR     R0, R0, #0x10
ROM:A0800FD4 18 F0 D0 EB                 BLX     sub_A0819778
ROM:A0800FD4
ROM:A0800FD8 05 1C                       ADD     R5, R0, #0
ROM:A0800FDA 07 A9                       ADD     R1, SP, #0x268+var_24C
ROM:A0800FDC 0F F5 9D FE                 BL      sub_A0510D1A
ROM:A0800FDC
ROM:A0800FE0 07 E0                       B       loc_A0800FF2
ROM:A0800FE0
ROM:A0800FE2             ; ---------------------------------------------------------------------------
ROM:A0800FE2

//E
ROM:A0800FE2             loc_A0800FE2                            ; CODE XREF: sub_A0800EDE+60j
ROM:A0800FE2                                                     ; sub_A0800EDE+DEj
ROM:A0800FE2 36 20                       MOV     R0, #0x36
ROM:A0800FE4 18 F0 C8 EB                 BLX     sub_A0819778
ROM:A0800FE4
ROM:A0800FE8 05 1C                       ADD     R5, R0, #0
ROM:A0800FEA 01 1C                       ADD     R1, R0, #0
ROM:A0800FEC 56 48                       LDR     R0, =0x1108A
ROM:A0800FEE 18 F0 04 EC                 BLX     sub_A08197F8
ROM:A0800FEE
ROM:A0800FF2
ROM:A0800FF2             loc_A0800FF2                            ; CODE XREF: sub_A0800EDE+102j
ROM:A0800FF2 38 1C                       ADD     R0, R7, #0
ROM:A0800FF4 FF F7 45 FD                 BL      sub_A0800A82
ROM:A0800FF4
ROM:A0800FF8 07 1C                       ADD     R7, R0, #0
ROM:A0800FFA 8F 99                       LDR     R1, [SP,#0x268+var_2C]
ROM:A0800FFC 90 98                       LDR     R0, [SP,#0x268+var_28]
ROM:A0800FFE 8D 9A                       LDR     R2, [SP,#0x268+var_34]
ROM:A0801000 04 91                       STR     R1, [SP,#0x268+var_258]
ROM:A0801002 88 99                       LDR     R1, [SP,#0x268+var_48]
ROM:A0801004 03 90                       STR     R0, [SP,#0x268+var_25C]
ROM:A0801006 8A 98                       LDR     R0, [SP,#0x268+var_40]
ROM:A0801008 05 92                       STR     R2, [SP,#0x268+var_254]
ROM:A080100A 91 9A                       LDR     R2, [SP,#0x268+var_24]
ROM:A080100C 00 90                       STR     R0, [SP,#0x268+var_268]
ROM:A080100E FF 20                       MOV     R0, #0xFF
ROM:A0801010 01 91                       STR     R1, [SP,#0x268+var_264]
ROM:A0801012 15 30                       ADD     R0, #0x15
ROM:A0801014 02 92                       STR     R2, [SP,#0x268+var_260]
ROM:A0801016 80 5D                       LDRB    R0, [R0,R6]
ROM:A0801018 8C 9A                       LDR     R2, [SP,#0x268+var_38]
ROM:A080101A 8B 9B                       LDR     R3, [SP,#0x268+var_3C]
ROM:A080101C 8E A9                       ADD     R1, SP, #0x268+var_30
ROM:A080101E FF F7 B5 FE                 BL      sub_A0800D8C
ROM:A080101E
ROM:A0801022 89 90                       STR     R0, [SP,#0x268+var_44]
ROM:A0801024 57 F6 4E FF                 BL      sub_A0658EC4
ROM:A0801024
ROM:A0801028 00 28                       CMP     R0, #0
ROM:A080102A 03 D0                       BEQ     loc_A0801034
ROM:A080102A
ROM:A080102C 61 6B                       LDR     R1, [R4,#0x34]
ROM:A080102E 89 98                       LDR     R0, [SP,#0x268+var_44]
ROM:A0801030 0F F0 5C FD                 BL      sub_A0810AEC
ROM:A0801030
ROM:A0801034
ROM:A0801034             loc_A0801034                            ; CODE XREF: sub_A0800EDE+14Cj
ROM:A0801034 89 98                       LDR     R0, [SP,#0x268+var_44]
ROM:A0801036 93 99                       LDR     R1, [SP,#0x268+var_1C]
ROM:A0801038 08 60                       STR     R0, [R1]
ROM:A080103A A0 6B                       LDR     R0, [R4,#0x38]
ROM:A080103C 18 F0 4A ED                 BLX     sub_A0819AD4
ROM:A080103C
ROM:A0801040 31 1C                       ADD     R1, R6, #0
ROM:A0801042 FF 31                       ADD     R1, #0xFF
ROM:A0801044 01 31                       ADD     R1, #1
ROM:A0801046 0A 89                       LDRH    R2, [R1,#8]
ROM:A0801048 90 42                       CMP     R0, R2
ROM:A080104A 0B D1                       BNE     loc_A0801064
ROM:A080104A
ROM:A080104C C8 68                       LDR     R0, [R1,#0xC]
ROM:A080104E 01 28                       CMP     R0, #1
ROM:A0801050 08 D1                       BNE     loc_A0801064
ROM:A0801050
ROM:A0801052 22 20                       MOV     R0, #0x22
ROM:A0801054 18 F0 90 EB                 BLX     sub_A0819778
ROM:A0801054
ROM:A0801058 04 1C                       ADD     R4, R0, #0
ROM:A080105A 01 1C                       ADD     R1, R0, #0
ROM:A080105C 3B 48                       LDR     R0, =0xDAA
ROM:A080105E 18 F0 CC EB                 BLX     sub_A08197F8
ROM:A080105E
ROM:A0801062 1A E0                       B       loc_A080109A
ROM:A0801062
ROM:A0801064             ; ---------------------------------------------------------------------------
ROM:A0801064
ROM:A0801064             loc_A0801064                            ; CODE XREF: sub_A0800EDE+16Cj
ROM:A0801064                                                     ; sub_A0800EDE+172j
ROM:A0801064 29 1C                       ADD     R1, R5, #0
ROM:A0801066 30 1C                       ADD     R0, R6, #0
ROM:A0801068 FF F7 C6 FC                 BL      sub_A08009F8
ROM:A0801068

//ADRBKLST_CATWS_HOOK
ROM:A080106C 28 1C                       ADD     R0, R5, #0
ROM:A080106E 0F F5 5A F8                 BL      sub_A0510126
ROM:A080106E
ROM:A0801072 04 1C                       ADD     R4, R0, #0
ROM:A0801074 38 1C                       ADD     R0, R7, #0
ROM:A0801076 0F F5 56 F8                 BL      sub_A0510126
ROM:A0801076
ROM:A080107A 20 18                       ADD     R0, R4, R0
ROM:A080107C 01 30                       ADD     R0, #1
ROM:A080107E 18 F0 7C EB                 BLX     sub_A0819778
ROM:A080107E
ROM:A0801082 04 1C                       ADD     R4, R0, #0
ROM:A0801084 20 21                       MOV     R1, #0x20
ROM:A0801086 0F F5 91 FC                 BL      sub_A05109AC
ROM:A0801086
ROM:A080108A 39 1C                       ADD     R1, R7, #0
ROM:A080108C 20 1C                       ADD     R0, R4, #0
ROM:A080108E 0F F5 06 FC                 BL      sub_A051089E
ROM:A080108E
ROM:A0801092 29 1C                       ADD     R1, R5, #0
ROM:A0801094 20 1C                       ADD     R0, R4, #0
ROM:A0801096 0F F5 25 FC                 BL      sub_A05108E4
ROM:A0801096
ROM:A080109A
ROM:A080109A             loc_A080109A                            ; CODE XREF: sub_A0800EDE+184j
ROM:A080109A 00 2F                       CMP     R7, #0
ROM:A080109C 02 D0                       BEQ     loc_A08010A4
ROM:A080109C
ROM:A080109E 38 1C                       ADD     R0, R7, #0
ROM:A08010A0 18 F0 70 EB                 BLX     sub_A0819784
ROM:A08010A0
ROM:A08010A4
ROM:A08010A4             loc_A08010A4                            ; CODE XREF: sub_A0800EDE+1BEj
ROM:A08010A4 00 2D                       CMP     R5, #0
ROM:A08010A6 02 D0                       BEQ     loc_A08010AE
ROM:A08010A6
ROM:A08010A8 28 1C                       ADD     R0, R5, #0
ROM:A08010AA 18 F0 6C EB                 BLX     sub_A0819784
ROM:A08010AA
ROM:A08010AE
ROM:A08010AE             loc_A08010AE                            ; CODE XREF: sub_A0800EDE+1C8j
ROM:A08010AE 94 98                       LDR     R0, [SP,#0x268+var_18]
ROM:A08010B0 04 60                       STR     R4, [R0]
ROM:A08010B2 7F B0                       ADD     SP, SP, #0x1FC
ROM:A08010B4 16 B0                       ADD     SP, SP, #0x58
ROM:A08010B6 F0 BD                       POP     {R4-R7,PC}
ROM:A08010B6
ROM:A08010B6             ; End of function sub_A0800EDE
ROM:A08010B6
ROM:A08010B8
ROM:A08010B8             ; *************** S U B R O U T I N E ***************************************


//D
ROM:A08010B8
ROM:A08010B8             sub_A08010B8                            ; CODE XREF: sub_A08013E4+190p
ROM:A08010B8
ROM:A08010B8             var_260         = -0x260
ROM:A08010B8             var_25C         = -0x25C
ROM:A08010B8             var_258         = -0x258
ROM:A08010B8             var_254         = -0x254
ROM:A08010B8             var_250         = -0x250
ROM:A08010B8             var_24C         = -0x24C
ROM:A08010B8             var_248         = -0x248
ROM:A08010B8             var_60          = -0x60
ROM:A08010B8             var_44          = -0x44
ROM:A08010B8             var_40          = -0x40
ROM:A08010B8             var_3C          = -0x3C
ROM:A08010B8             var_38          = -0x38
ROM:A08010B8             var_34          = -0x34
ROM:A08010B8             var_30          = -0x30
ROM:A08010B8             var_2C          = -0x2C
ROM:A08010B8             var_28          = -0x28
ROM:A08010B8             var_24          = -0x24
ROM:A08010B8             var_1C          = -0x1C
ROM:A08010B8             var_18          = -0x18
ROM:A08010B8
ROM:A08010B8 F7 B5                       PUSH    {R0-R2,R4-R7,LR}
ROM:A08010BA FF B0                       SUB     SP, SP, #0x1FC
ROM:A08010BC 91 B0                       SUB     SP, SP, #0x44
ROM:A08010BE 04 1C                       ADD     R4, R0, #0
ROM:A08010C0 00 20                       MOV     R0, #0
ROM:A08010C2 80 AB                       ADD     R3, SP, #0x260+var_60
ROM:A08010C4 18 86                       STRH    R0, [R3,#0x30]
ROM:A08010C6 8B 90                       STR     R0, [SP,#0x260+var_34]
ROM:A08010C8 8A 90                       STR     R0, [SP,#0x260+var_38]
ROM:A08010CA 89 90                       STR     R0, [SP,#0x260+var_3C]
ROM:A08010CC 88 90                       STR     R0, [SP,#0x260+var_40]
ROM:A08010CE 87 90                       STR     R0, [SP,#0x260+var_44]
ROM:A08010D0 23 22                       MOV     R2, #0x23
ROM:A08010D2 20 1C                       ADD     R0, R4, #0
ROM:A08010D4 8B A9                       ADD     R1, SP, #0x260+var_34
ROM:A08010D6 FF F7 FE FC                 BL      sub_A0800AD6
ROM:A08010D6
ROM:A08010DA 8F 90                       STR     R0, [SP,#0x260+var_24]
ROM:A08010DC 24 22                       MOV     R2, #0x24
ROM:A08010DE 20 1C                       ADD     R0, R4, #0
ROM:A08010E0 8A A9                       ADD     R1, SP, #0x260+var_38
ROM:A08010E2 FF F7 F8 FC                 BL      sub_A0800AD6
ROM:A08010E2
ROM:A08010E6 8E 90                       STR     R0, [SP,#0x260+var_28]
ROM:A08010E8 29 22                       MOV     R2, #0x29
ROM:A08010EA 20 1C                       ADD     R0, R4, #0
ROM:A08010EC 89 A9                       ADD     R1, SP, #0x260+var_3C
ROM:A08010EE FF F7 F2 FC                 BL      sub_A0800AD6
ROM:A08010EE
ROM:A08010F2 8D 90                       STR     R0, [SP,#0x260+var_2C]
ROM:A08010F4 60 22                       MOV     R2, #0x60
ROM:A08010F6 20 1C                       ADD     R0, R4, #0
ROM:A08010F8 88 A9                       ADD     R1, SP, #0x260+var_40
ROM:A08010FA FF F7 EC FC                 BL      sub_A0800AD6
ROM:A08010FA
ROM:A08010FE 27 1C                       ADD     R7, R4, #0
ROM:A0801100 FF 37                       ADD     R7, #0xFF
ROM:A0801102 11 37                       ADD     R7, #0x11
ROM:A0801104 06 1C                       ADD     R6, R0, #0
ROM:A0801106 78 79                       LDRB    R0, [R7,#5]
ROM:A0801108 25 1C                       ADD     R5, R4, #0
ROM:A080110A C0 35                       ADD     R5, #0xC0
ROM:A080110C 07 28                       CMP     R0, #7
ROM:A080110E 66 D2                       BCS     def_A0801116
ROM:A080110E
ROM:A0801110 01 A3                       ADR     R3, jpt_A0801116
ROM:A0801112 1B 5C                       LDRB    R3, [R3,R0]
ROM:A0801114 5B 00                       LSL     R3, R3, #1
ROM:A0801116 9F 44                       ADD     PC, R3


//C
ROM:A0801116             ; ---------------------------------------------------------------------------
ROM:A0801118 62          jpt_A0801116    DCB 0x62                ; DATA XREF: sub_A08010B8+58o
ROM:A0801119 03                          DCB 3
ROM:A080111A 05                          DCB 5
ROM:A080111B 24                          DCB 0x24
ROM:A080111C 26                          DCB 0x26
ROM:A080111D 2E                          DCB 0x2E
ROM:A080111E 47                          DCB 0x47
ROM:A080111F 00                          ALIGN 2
ROM:A0801120
ROM:A0801120             case_1                                  ; CODE XREF: sub_A08010B8+5Ej
ROM:A0801120             ; jumptable A0801116 entry 1
ROM:A0801120 69 22                       MOV     R2, #0x69
ROM:A0801122 65 E0                       B       loc_A08011F0
ROM:A0801122
ROM:A0801124             ; ---------------------------------------------------------------------------
ROM:A0801124
ROM:A0801124             case_2                                  ; CODE XREF: sub_A08010B8+5Ej
ROM:A0801124             ; jumptable A0801116 entry 2
ROM:A0801124 2F 22                       MOV     R2, #0x2F
ROM:A0801126 20 1C                       ADD     R0, R4, #0
ROM:A0801128 87 A9                       ADD     R1, SP, #0x260+var_44
ROM:A080112A FF F7 D4 FC                 BL      sub_A0800AD6
ROM:A080112A
ROM:A080112E 00 28                       CMP     R0, #0
ROM:A0801130 0E D0                       BEQ     loc_A0801150
ROM:A0801130
ROM:A0801132 2F 22                       MOV     R2, #0x2F
ROM:A0801134 5C E0                       B       loc_A08011F0
ROM:A0801134
ROM:A0801134             ; ---------------------------------------------------------------------------
ROM:A0801136 00                          DCB    0
ROM:A0801137 00                          DCB    0
ROM:A0801138 CC 09 00 00 dword_A0801138  DCD 0x9CC               ; DATA XREF: sub_A0800CAA+DAr


ROM:A080113C 2C          unk_A080113C    DCB 0x2C ; ,            ; DATA XREF: sub_A0800D8C+10Ao
ROM:A080113D 00                          DCB    0
ROM:A080113E 00                          DCB    0
ROM:A080113F 00                          DCB    0
ROM:A0801140 25          unk_A0801140    DCB 0x25 ; %            ; DATA XREF: sub_A0800D8C+10Co
ROM:A0801141 77                          DCB 0x77 ; w
ROM:A0801142 25                          DCB 0x25 ; %
ROM:A0801143 73                          DCB 0x73 ; s
ROM:A0801144 20                          DCB 0x20
ROM:A0801145 25                          DCB 0x25 ; %
ROM:A0801146 77                          DCB 0x77 ; w
ROM:A0801147 00                          DCB    0
ROM:A0801148 8A 10 01 00 dword_A0801148  DCD 0x1108A             ; DATA XREF: sub_A0800EDE+10Er
ROM:A080114C AA 0D 00 00 dword_A080114C  DCD 0xDAA               ; DATA XREF: sub_A0800EDE+17Er
ROM:A0801150             ; ---------------------------------------------------------------------------
ROM:A0801150
ROM:A0801150             loc_A0801150                            ; CODE XREF: sub_A08010B8+78j
ROM:A0801150 73 22                       MOV     R2, #0x73
ROM:A0801152 20 1C                       ADD     R0, R4, #0
ROM:A0801154 87 A9                       ADD     R1, SP, #0x260+var_44
ROM:A0801156 FF F7 BE FC                 BL      sub_A0800AD6
ROM:A0801156
ROM:A080115A 00 28                       CMP     R0, #0
ROM:A080115C 4C D0                       BEQ     loc_A08011F8
ROM:A080115C
ROM:A080115E 73 22                       MOV     R2, #0x73
ROM:A0801160 46 E0                       B       loc_A08011F0
ROM:A0801160
ROM:A0801162             ; ---------------------------------------------------------------------------
ROM:A0801162
ROM:A0801162             case_3                                  ; CODE XREF: sub_A08010B8+5Ej
ROM:A0801162             ; jumptable A0801116 entry 3
ROM:A0801162 30 22                       MOV     R2, #0x30
ROM:A0801164 44 E0                       B       loc_A08011F0
ROM:A0801164
ROM:A0801166             ; ---------------------------------------------------------------------------
ROM:A0801166
ROM:A0801166             case_4                                  ; CODE XREF: sub_A08010B8+5Ej
ROM:A0801166             ; jumptable A0801116 entry 4
ROM:A0801166 33 22                       MOV     R2, #0x33
ROM:A0801168 20 1C                       ADD     R0, R4, #0
ROM:A080116A 87 A9                       ADD     R1, SP, #0x260+var_44
ROM:A080116C FF F7 B3 FC                 BL      sub_A0800AD6
ROM:A080116C
ROM:A0801170 00 28                       CMP     R0, #0
ROM:A0801172 41 D0                       BEQ     loc_A08011F8
ROM:A0801172
ROM:A0801174 14 E0                       B       loc_A08011A0
ROM:A0801174
ROM:A0801176             ; ---------------------------------------------------------------------------
ROM:A0801176
ROM:A0801176             case_5                                  ; CODE XREF: sub_A08010B8+5Ej
ROM:A0801176             ; jumptable A0801116 entry 5
ROM:A0801176 66 22                       MOV     R2, #0x66
ROM:A0801178 20 1C                       ADD     R0, R4, #0
ROM:A080117A 87 A9                       ADD     R1, SP, #0x260+var_44
ROM:A080117C FF F7 AB FC                 BL      sub_A0800AD6
ROM:A080117C
ROM:A0801180 00 28                       CMP     R0, #0
ROM:A0801182 0D D1                       BNE     loc_A08011A0
ROM:A0801182
ROM:A0801184 67 22                       MOV     R2, #0x67
ROM:A0801186 20 1C                       ADD     R0, R4, #0
ROM:A0801188 87 A9                       ADD     R1, SP, #0x260+var_44
ROM:A080118A FF F7 A4 FC                 BL      sub_A0800AD6
ROM:A080118A
ROM:A080118E 00 28                       CMP     R0, #0
ROM:A0801190 06 D1                       BNE     loc_A08011A0
ROM:A0801190
ROM:A0801192 68 22                       MOV     R2, #0x68
ROM:A0801194 20 1C                       ADD     R0, R4, #0
ROM:A0801196 87 A9                       ADD     R1, SP, #0x260+var_44
ROM:A0801198 FF F7 9D FC                 BL      sub_A0800AD6
ROM:A0801198
ROM:A080119C 00 28                       CMP     R0, #0
ROM:A080119E 2B D0                       BEQ     loc_A08011F8
ROM:A080119E
ROM:A08011A0
ROM:A08011A0             loc_A08011A0                            ; CODE XREF: sub_A08010B8+BCj
ROM:A08011A0                                                     ; sub_A08010B8+CAj
ROM:A08011A0                                                     ; sub_A08010B8+D8j
ROM:A08011A0 87 98                       LDR     R0, [SP,#0x260+var_44]
ROM:A08011A2 1F F5 9A FA                 BL      sub_A05206DA
ROM:A08011A2
ROM:A08011A6 27 E0                       B       loc_A08011F8
ROM:A08011A6
ROM:A08011A8             ; ---------------------------------------------------------------------------
ROM:A08011A8
ROM:A08011A8             case_6                                  ; CODE XREF: sub_A08010B8+5Ej
ROM:A08011A8             ; jumptable A0801116 entry 6
ROM:A08011A8 6B 22                       MOV     R2, #0x6B
ROM:A08011AA 20 1C                       ADD     R0, R4, #0
ROM:A08011AC 87 A9                       ADD     R1, SP, #0x260+var_44
ROM:A08011AE FF F7 92 FC                 BL      sub_A0800AD6
ROM:A08011AE
ROM:A08011B2 00 28                       CMP     R0, #0
ROM:A08011B4 01 D0                       BEQ     loc_A08011BA
ROM:A08011B4
ROM:A08011B6 6B 22                       MOV     R2, #0x6B
ROM:A08011B8 1A E0                       B       loc_A08011F0
ROM:A08011B8
ROM:A08011BA             ; ---------------------------------------------------------------------------
ROM:A08011BA
ROM:A08011BA             loc_A08011BA                            ; CODE XREF: sub_A08010B8+FCj
ROM:A08011BA 5D 22                       MOV     R2, #0x5D
ROM:A08011BC 20 1C                       ADD     R0, R4, #0
ROM:A08011BE 87 A9                       ADD     R1, SP, #0x260+var_44
ROM:A08011C0 FF F7 89 FC                 BL      sub_A0800AD6
ROM:A08011C0
ROM:A08011C4 00 28                       CMP     R0, #0
ROM:A08011C6 01 D0                       BEQ     loc_A08011CC
ROM:A08011C6
ROM:A08011C8 5D 22                       MOV     R2, #0x5D
ROM:A08011CA 11 E0                       B       loc_A08011F0
ROM:A08011CA
ROM:A08011CC             ; ---------------------------------------------------------------------------
ROM:A08011CC
ROM:A08011CC             loc_A08011CC                            ; CODE XREF: sub_A08010B8+10Ej
ROM:A08011CC 71 22                       MOV     R2, #0x71
ROM:A08011CE 20 1C                       ADD     R0, R4, #0
ROM:A08011D0 87 A9                       ADD     R1, SP, #0x260+var_44
ROM:A08011D2 FF F7 80 FC                 BL      sub_A0800AD6
ROM:A08011D2
ROM:A08011D6 00 28                       CMP     R0, #0
ROM:A08011D8 02 D0                       BEQ     loc_A08011E0
ROM:A08011D8
ROM:A08011DA 71 22                       MOV     R2, #0x71
ROM:A08011DC 08 E0                       B       loc_A08011F0
ROM:A08011DC
ROM:A08011DE             ; ---------------------------------------------------------------------------
ROM:A08011DE
ROM:A08011DE             def_A0801116                            ; CODE XREF: sub_A08010B8+56j
ROM:A08011DE                                                     ; sub_A08010B8+5Ej
ROM:A08011DE             ; jumptable A0801116 default entry
ROM:A08011DE             ; jumptable A0801116 entry 0


//A
ROM:A08011DE 0C E0                       B       loc_A08011FA
ROM:A08011DE
ROM:A08011E0             ; ---------------------------------------------------------------------------
ROM:A08011E0             loc_A08011E0                            ; CODE XREF: sub_A08010B8+120j
ROM:A08011E0 72 22                       MOV     R2, #0x72
ROM:A08011E2 20 1C                       ADD     R0, R4, #0
ROM:A08011E4 87 A9                       ADD     R1, SP, #0x260+var_44
ROM:A08011E6 FF F7 76 FC                 BL      sub_A0800AD6
ROM:A08011EA 00 28                       CMP     R0, #0
ROM:A08011EC 04 D0                       BEQ     loc_A08011F8
ROM:A08011EE 72 22                       MOV     R2, #0x72
ROM:A08011F0             loc_A08011F0                            ; CODE XREF: sub_A08010B8+6Aj
ROM:A08011F0 87 A9                       ADD     R1, SP, #0x260+var_44
ROM:A08011F2 20 1C                       ADD     R0, R4, #0
ROM:A08011F4 FF F7 6F FC                 BL      sub_A0800AD6
ROM:A08011F8             loc_A08011F8                            ; CODE XREF: sub_A08010B8+A4j
ROM:A08011F8 32 E0                       B       loc_A0801260
ROM:A08011FA             ; ---------------------------------------------------------------------------
ROM:A08011FA             loc_A08011FA                            ; CODE XREF: sub_A08010B8:def_A0801116j
ROM:A08011FA 00 22                       MOV     R2, #0
ROM:A08011FC A1 21                       MOV     R1, #0xA1
ROM:A08011FE A8 6B                       LDR     R0, [R5,#0x38]
ROM:A0801200 18 F0 62 EC                 BLX     sub_A0819AC8
ROM:A0801200
ROM:A0801204 01 1C                       ADD     R1, R0, #0
ROM:A0801206 A8 6B                       LDR     R0, [R5,#0x38]
ROM:A0801208 18 F0 76 EC                 BLX     sub_A0819AF8
ROM:A0801208
ROM:A080120C 00 28                       CMP     R0, #0
ROM:A080120E 1F D0                       BEQ     loc_A0801250
ROM:A080120E
ROM:A0801210 00 22                       MOV     R2, #0
ROM:A0801212 A1 21                       MOV     R1, #0xA1
ROM:A0801214 A8 6B                       LDR     R0, [R5,#0x38]
ROM:A0801216 18 F0 58 EC                 BLX     sub_A0819AC8
ROM:A0801216
ROM:A080121A 01 1C                       ADD     R1, R0, #0
ROM:A080121C A8 6B                       LDR     R0, [R5,#0x38]
ROM:A080121E 18 F0 6C EC                 BLX     sub_A0819AF8
ROM:A080121E
ROM:A0801222 00 28                       CMP     R0, #0
ROM:A0801224 14 D0                       BEQ     loc_A0801250
ROM:A0801224
ROM:A0801226 01 22 52 02                 MOVL    R2, 0x200
ROM:A080122A 06 A9                       ADD     R1, SP, #0x260+var_248
ROM:A080122C 18 F0 00 EB                 BLX     sub_A0819830
ROM:A080122C
ROM:A0801230 06 A8                       ADD     R0, SP, #0x260+var_248
ROM:A0801232 17 F0 58 EF                 BLX     sub_A08190E4
ROM:A0801232


//ADRBKLST_ALLOCWS_HOOK3
ROM:A0801236 00 04                       LSL     R0, R0, #0x10
ROM:A0801238 00 0C                       LSR     R0, R0, #0x10
ROM:A080123A 18 F0 9E EA                 BLX     sub_A0819778
ROM:A080123A
ROM:A080123E 87 90                       STR     R0, [SP,#0x260+var_44]
ROM:A0801240 06 A9                       ADD     R1, SP, #0x260+var_248
ROM:A0801242 0F F5 6A FD                 BL      sub_A0510D1A
ROM:A0801242
ROM:A0801246 20 1C                       ADD     R0, R4, #0
ROM:A0801248 87 99                       LDR     R1, [SP,#0x260+var_44]
ROM:A080124A FF F7 D5 FB                 BL      sub_A08009F8
ROM:A080124A
ROM:A080124E 07 E0                       B       loc_A0801260
ROM:A080124E
ROM:A0801250             ; ---------------------------------------------------------------------------

//B
ROM:A0801250             loc_A0801250                            ; CODE XREF: sub_A08010B8+156j
ROM:A0801250                                                     ; sub_A08010B8+16Cj
ROM:A0801250 36 20                       MOV     R0, #0x36
ROM:A0801252 18 F0 92 EA                 BLX     sub_A0819778
ROM:A0801252
ROM:A0801256 87 90                       STR     R0, [SP,#0x260+var_44]
ROM:A0801258 01 1C                       ADD     R1, R0, #0
ROM:A080125A E8 48                       LDR     R0, =0x1108A
ROM:A080125C 18 F0 CC EA                 BLX     sub_A08197F8
ROM:A080125C
ROM:A0801260
ROM:A0801260             loc_A0801260                            ; CODE XREF: sub_A08010B8:loc_A08011F8j
ROM:A0801260                                                     ; sub_A08010B8+196j
ROM:A0801260 8E 98                       LDR     R0, [SP,#0x260+var_28]
ROM:A0801262 8D 99                       LDR     R1, [SP,#0x260+var_2C]
ROM:A0801264 03 90                       STR     R0, [SP,#0x260+var_254]
ROM:A0801266 04 91                       STR     R1, [SP,#0x260+var_250]
ROM:A0801268 88 99                       LDR     R1, [SP,#0x260+var_40]
ROM:A080126A 89 98                       LDR     R0, [SP,#0x260+var_3C]
ROM:A080126C 8F 9A                       LDR     R2, [SP,#0x260+var_24]
ROM:A080126E 01 91                       STR     R1, [SP,#0x260+var_25C]
ROM:A0801270 05 96                       STR     R6, [SP,#0x260+var_24C]
ROM:A0801272 00 90                       STR     R0, [SP,#0x260+var_260]
ROM:A0801274 02 92                       STR     R2, [SP,#0x260+var_258]
ROM:A0801276 38 79                       LDRB    R0, [R7,#4]
ROM:A0801278 8B 9A                       LDR     R2, [SP,#0x260+var_34]
ROM:A080127A 8A 9B                       LDR     R3, [SP,#0x260+var_38]
ROM:A080127C 8C A9                       ADD     R1, SP, #0x260+var_30
ROM:A080127E FF F7 85 FD                 BL      sub_A0800D8C
ROM:A080127E
ROM:A0801282 06 1C                       ADD     R6, R0, #0
ROM:A0801284 57 F6 1E FE                 BL      sub_A0658EC4
ROM:A0801284
ROM:A0801288 00 28                       CMP     R0, #0
ROM:A080128A 03 D0                       BEQ     loc_A0801294
ROM:A080128A
ROM:A080128C 30 1C                       ADD     R0, R6, #0
ROM:A080128E 69 6B                       LDR     R1, [R5,#0x34]
ROM:A0801290 0F F0 2C FC                 BL      sub_A0810AEC
ROM:A0801290
ROM:A0801294
ROM:A0801294             loc_A0801294                            ; CODE XREF: sub_A08010B8+1D2j
ROM:A0801294 91 98                       LDR     R0, [SP,#0x260+var_1C]
ROM:A0801296 06 60                       STR     R6, [R0]
ROM:A0801298 87 99                       LDR     R1, [SP,#0x260+var_44]
ROM:A080129A 00 29                       CMP     R1, #0
ROM:A080129C 23 D0                       BEQ     loc_A08012E6
ROM:A080129C
ROM:A080129E 20 1C                       ADD     R0, R4, #0
ROM:A08012A0 FF F7 AA FB                 BL      sub_A08009F8
ROM:A08012A0


//ADRBKLST_CATWS_HOOK3
ROM:A08012A4 87 98                       LDR     R0, [SP,#0x260+var_44]
ROM:A08012A6 0E F5 3E FF                 BL      sub_A0510126
ROM:A08012A6
ROM:A08012AA 04 30                       ADD     R0, #4
ROM:A08012AC 18 F0 64 EA                 BLX     sub_A0819778
ROM:A08012AC
ROM:A08012B0 04 1C                       ADD     R4, R0, #0
ROM:A08012B2 20 21                       MOV     R1, #0x20
ROM:A08012B4 0F F5 7A FB                 BL      sub_A05109AC
ROM:A08012B4
ROM:A08012B8 20 21                       MOV     R1, #0x20
ROM:A08012BA 20 1C                       ADD     R0, R4, #0
ROM:A08012BC 0F F5 76 FB                 BL      sub_A05109AC
ROM:A08012BC
ROM:A08012C0 20 21                       MOV     R1, #0x20
ROM:A08012C2 20 1C                       ADD     R0, R4, #0
ROM:A08012C4 0F F5 72 FB                 BL      sub_A05109AC
ROM:A08012C4
ROM:A08012C8 20 21                       MOV     R1, #0x20
ROM:A08012CA 20 1C                       ADD     R0, R4, #0
ROM:A08012CC 0F F5 6E FB                 BL      sub_A05109AC
ROM:A08012CC
ROM:A08012D0 20 1C                       ADD     R0, R4, #0
ROM:A08012D2 87 99                       LDR     R1, [SP,#0x260+var_44]
ROM:A08012D4 0F F5 06 FB                 BL      sub_A05108E4
ROM:A08012D4
ROM:A08012D8 92 98                       LDR     R0, [SP,#0x260+var_18]
ROM:A08012DA 04 60                       STR     R4, [R0]
ROM:A08012DC 87 98                       LDR     R0, [SP,#0x260+var_44]
ROM:A08012DE 00 28                       CMP     R0, #0
ROM:A08012E0 01 D0                       BEQ     loc_A08012E6
ROM:A08012E0
ROM:A08012E2 18 F0 50 EA                 BLX     sub_A0819784
ROM:A08012E2
ROM:A08012E6
ROM:A08012E6             loc_A08012E6                            ; CODE XREF: sub_A08010B8+1E4j
ROM:A08012E6                                                     ; sub_A08010B8+228j
ROM:A08012E6 7F B0                       ADD     SP, SP, #0x1FC
ROM:A08012E8 14 B0                       ADD     SP, SP, #0x50
ROM:A08012EA F0 BD                       POP     {R4-R7,PC}
ROM:A08012EA
ROM:A08012EA             ; End of function sub_A08010B8
ROM:A08012EA
ROM:A08012EC
ROM:A08012EC             ; *************** S U B R O U T I N E ***************************************
ROM:A08012EC
ROM:A08012EC
ROM:A08012EC             sub_A08012EC                            ; CODE XREF: sub_A08013E4+168p
ROM:A08012EC
ROM:A08012EC             var_20          = -0x20
ROM:A08012EC             var_18          = -0x18
ROM:A08012EC
ROM:A08012EC F3 B5                       PUSH    {R0,R1,R4-R7,LR}
ROM:A08012EE 07 1C                       ADD     R7, R0, #0
ROM:A08012F0 05 1C                       ADD     R5, R0, #0
ROM:A08012F2 00 24                       MOV     R4, #0
ROM:A08012F4 C0 37                       ADD     R7, #0xC0
ROM:A08012F6 81 B0                       SUB     SP, SP, #4
ROM:A08012F8 46 78                       LDRB    R6, [R0,#1]
ROM:A08012FA 70 E0                       B       loc_A08013DE
ROM:A08012FA
ROM:A08012FC             ; ---------------------------------------------------------------------------
ROM:A08012FC
ROM:A08012FC             loc_A08012FC                            ; CODE XREF: sub_A08012EC+F4j
ROM:A08012FC C0 48                       LDR     R0, =0xFFFF
ROM:A08012FE 09 2C                       CMP     R4, #9
ROM:A0801300 03 D2                       BCS     loc_A080130A
ROM:A0801300
ROM:A0801302 0C 20                       MOV     R0, #0xC
ROM:A0801304 60 43                       MUL     R0, R4
ROM:A0801306 40 19                       ADD     R0, R0, R5
ROM:A0801308 00 8D                       LDRH    R0, [R0,#0x28]
ROM:A0801308
ROM:A080130A
ROM:A080130A             loc_A080130A                            ; CODE XREF: sub_A08012EC+14j
ROM:A080130A 00 2E                       CMP     R6, #0
ROM:A080130C 04 D0                       BEQ     loc_A0801318
ROM:A080130C
ROM:A080130E 02 99                       LDR     R1, [SP,#0x20+var_18]
ROM:A0801310 88 42                       CMP     R0, R1
ROM:A0801312 01 D1                       BNE     loc_A0801318
ROM:A0801312
ROM:A0801314 0A 24                       MOV     R4, #0xA
ROM:A0801316 62 E0                       B       loc_A08013DE
ROM:A0801316
ROM:A0801318             ; ---------------------------------------------------------------------------
ROM:A0801318
ROM:A0801318             loc_A0801318                            ; CODE XREF: sub_A08012EC+20j
ROM:A0801318                                                     ; sub_A08012EC+26j
ROM:A0801318 B4 42                       CMP     R4, R6
ROM:A080131A 55 D1                       BNE     loc_A08013C8
ROM:A080131A
ROM:A080131C 28 79                       LDRB    R0, [R5,#4]
ROM:A080131E 26 28                       CMP     R0, #0x26
ROM:A0801320 13 D1                       BNE     loc_A080134A
ROM:A0801320
ROM:A0801322 08 24                       MOV     R4, #8
ROM:A0801322
ROM:A0801324
ROM:A0801324             loc_A0801324                            ; CODE XREF: sub_A08012EC+4Ej
ROM:A0801324 0C 20                       MOV     R0, #0xC
ROM:A0801326 60 43                       MUL     R0, R4
ROM:A0801328 41 19                       ADD     R1, R0, R5
ROM:A080132A 08 1C                       ADD     R0, R1, #0
ROM:A080132C 1C 31                       ADD     R1, #0x1C
ROM:A080132E 28 30                       ADD     R0, #0x28
ROM:A0801330 0E C9                       LDMIA   R1!, {R1-R3}
ROM:A0801332 FF 34                       ADD     R4, #0xFF
ROM:A0801334 24 06                       LSL     R4, R4, #0x18
ROM:A0801336 24 0E                       LSR     R4, R4, #0x18
ROM:A0801338 0E C0                       STMIA   R0!, {R1-R3}
ROM:A080133A F3 D1                       BNE     loc_A0801324
ROM:A080133A
ROM:A080133C 68 78                       LDRB    R0, [R5,#1]
ROM:A080133E 09 28                       CMP     R0, #9
ROM:A0801340 01 D2                       BCS     loc_A0801346
ROM:A0801340
ROM:A0801342 01 30                       ADD     R0, #1
ROM:A0801344 68 70                       STRB    R0, [R5,#1]
ROM:A0801344
ROM:A0801346
ROM:A0801346             loc_A0801346                            ; CODE XREF: sub_A08012EC+54j
ROM:A0801346 00 26                       MOV     R6, #0
ROM:A0801348 14 E0                       B       loc_A0801374
ROM:A0801348
ROM:A080134A             ; ---------------------------------------------------------------------------
ROM:A080134A
ROM:A080134A             loc_A080134A                            ; CODE XREF: sub_A08012EC+34j
ROM:A080134A 68 78                       LDRB    R0, [R5,#1]
ROM:A080134C 09 28                       CMP     R0, #9
ROM:A080134E 02 D2                       BCS     loc_A0801356
ROM:A080134E
ROM:A0801350 01 30                       ADD     R0, #1
ROM:A0801352 68 70                       STRB    R0, [R5,#1]
ROM:A0801354 0E E0                       B       loc_A0801374
ROM:A0801354
ROM:A0801356             ; ---------------------------------------------------------------------------
ROM:A0801356
ROM:A0801356             loc_A0801356                            ; CODE XREF: sub_A08012EC+62j
ROM:A0801356 00 24                       MOV     R4, #0
ROM:A0801356
ROM:A0801358
ROM:A0801358             loc_A0801358                            ; CODE XREF: sub_A08012EC+84j
ROM:A0801358 0C 20                       MOV     R0, #0xC
ROM:A080135A 60 43                       MUL     R0, R4
ROM:A080135C 01 34                       ADD     R4, #1
ROM:A080135E 41 19                       ADD     R1, R0, R5
ROM:A0801360 08 1C                       ADD     R0, R1, #0
ROM:A0801362 34 31                       ADD     R1, #0x34
ROM:A0801364 28 30                       ADD     R0, #0x28
ROM:A0801366 0E C9                       LDMIA   R1!, {R1-R3}
ROM:A0801368 24 06                       LSL     R4, R4, #0x18
ROM:A080136A 24 0E                       LSR     R4, R4, #0x18
ROM:A080136C 08 2C                       CMP     R4, #8
ROM:A080136E 0E C0                       STMIA   R0!, {R1-R3}
ROM:A0801370 F2 D3                       BCC     loc_A0801358
ROM:A0801370
ROM:A0801372 08 26                       MOV     R6, #8
ROM:A0801372
ROM:A0801374
ROM:A0801374             loc_A0801374                            ; CODE XREF: sub_A08012EC+5Cj
ROM:A0801374                                                     ; sub_A08012EC+68j
ROM:A0801374 0C 21                       MOV     R1, #0xC
ROM:A0801376 71 43                       MUL     R1, R6
ROM:A0801378 02 98                       LDR     R0, [SP,#0x20+var_18]
ROM:A080137A 49 19                       ADD     R1, R1, R5
ROM:A080137C 00 91                       STR     R1, [SP,#0x20+var_20]
ROM:A080137E 08 85                       STRH    R0, [R1,#0x28]
ROM:A0801380 B8 6B                       LDR     R0, [R7,#0x38]
ROM:A0801382 18 F0 A8 EB                 BLX     sub_A0819AD4
ROM:A0801382
ROM:A0801386 00 99                       LDR     R1, [SP,#0x20+var_20]
ROM:A0801388 48 85                       STRH    R0, [R1,#0x2A]
ROM:A080138A B8 6B                       LDR     R0, [R7,#0x38]
ROM:A080138C 19 F0 E0 EE                 BLX     sub_A081B150
ROM:A080138C
ROM:A0801390 00 99                       LDR     R1, [SP,#0x20+var_20]
ROM:A0801392 C8 62                       STR     R0, [R1,#0x2C]
ROM:A0801394 B8 6B                       LDR     R0, [R7,#0x38]
ROM:A0801396 80 F7 44 FF                 BL      sub_A0782222
ROM:A0801396
ROM:A080139A 01 21 C9 02                 MOVL    R1, 0x800
ROM:A080139E 08 43                       ORR     R0, R1
ROM:A08013A0 00 99                       LDR     R1, [SP,#0x20+var_20]
ROM:A08013A2 08 86                       STRH    R0, [R1,#0x30]
ROM:A08013A4 B8 6B                       LDR     R0, [R7,#0x38]
ROM:A08013A6 D0 30                       ADD     R0, #0xD0
ROM:A08013A8 00 7B                       LDRB    R0, [R0,#0xC]
ROM:A08013AA 00 28                       CMP     R0, #0
ROM:A08013AC 0C D0                       BEQ     loc_A08013C8
ROM:A08013AC
ROM:A08013AE 95 49                       LDR     R1, =unk_A08D1BA0
ROM:A08013B0 02 20                       MOV     R0, #2
ROM:A08013B2 E1 F4 10 E9                 BLX     sub_A04E25D4
ROM:A08013B2
ROM:A08013B6 00 28                       CMP     R0, #0
ROM:A08013B8 07 D0                       BEQ     loc_A08013CA
ROM:A08013B8
ROM:A08013BA 02 DF                       SWI     2
ROM:A08013BC 03 22                       MOV     R2, #3
ROM:A08013BE 02 20                       MOV     R0, #2
ROM:A08013C0 90 49                       LDR     R1, =unk_A08D1BA0
ROM:A08013C2 91 4B                       LDR     R3, =0xEC10
ROM:A08013C4 E0 F4 EE EF                 BLX     sub_A04E23A4
ROM:A08013C4
ROM:A08013C8
ROM:A08013C8             loc_A08013C8                            ; CODE XREF: sub_A08012EC+2Ej
ROM:A08013C8                                                     ; sub_A08012EC+C0j
ROM:A08013C8 06 E0                       B       loc_A08013D8
ROM:A08013C8
ROM:A08013CA             ; ---------------------------------------------------------------------------
ROM:A08013CA
ROM:A08013CA             loc_A08013CA                            ; CODE XREF: sub_A08012EC+CCj
ROM:A08013CA 03 DF                       SWI     3
ROM:A08013CC 03 22                       MOV     R2, #3
ROM:A08013CE 02 20                       MOV     R0, #2
ROM:A08013D0 8C 49                       LDR     R1, =unk_A08D1BA0
ROM:A08013D2 8D 4B                       LDR     R3, =0xEC10
ROM:A08013D4 E1 F4 54 E8                 BLX     sub_A04E2480
ROM:A08013D4
ROM:A08013D8
ROM:A08013D8             loc_A08013D8                            ; CODE XREF: sub_A08012EC:loc_A08013C8j
ROM:A08013D8 01 34                       ADD     R4, #1
ROM:A08013DA 24 06                       LSL     R4, R4, #0x18
ROM:A08013DC 24 0E                       LSR     R4, R4, #0x18
ROM:A08013DC
ROM:A08013DE
ROM:A08013DE             loc_A08013DE                            ; CODE XREF: sub_A08012EC+Ej
ROM:A08013DE                                                     ; sub_A08012EC+2Aj
ROM:A08013DE B4 42                       CMP     R4, R6
ROM:A08013E0 8C D9                       BLS     loc_A08012FC
ROM:A08013E0
ROM:A08013E2 FE BD                       POP     {R1-R7,PC}
ROM:A08013E2
ROM:A08013E2             ; End of function sub_A08012EC
ROM:A08013E2
ROM:A08013E4
ROM:A08013E4             ; *************** S U B R O U T I N E ***************************************
ROM:A08013E4
ROM:A08013E4
ROM:A08013E4             sub_A08013E4                            ; CODE XREF: ROM:A08017D6p
ROM:A08013E4                                                     ; ROM:A08017EAp
ROM:A08013E4
ROM:A08013E4             var_B0          = -0xB0
ROM:A08013E4             var_AC          = -0xAC
ROM:A08013E4             var_98          = -0x98
ROM:A08013E4             var_44          = -0x44
ROM:A08013E4             var_40          = -0x40
ROM:A08013E4             var_3C          = -0x3C
ROM:A08013E4             var_38          = -0x38
ROM:A08013E4             var_34          = -0x34
ROM:A08013E4             var_30          = -0x30
ROM:A08013E4             var_2C          = -0x2C
ROM:A08013E4             var_28          = -0x28
ROM:A08013E4             var_24          = -0x24
ROM:A08013E4             var_20          = -0x20
ROM:A08013E4             var_1C          = -0x1C
ROM:A08013E4             var_18          = -0x18
ROM:A08013E4
ROM:A08013E4 F0 B5                       PUSH    {R4-R7,LR}
ROM:A08013E6 A7 B0                       SUB     SP, SP, #0x9C
ROM:A08013E8 00 21                       MOV     R1, #0
ROM:A08013EA 04 1C                       ADD     R4, R0, #0
ROM:A08013EC 24 91                       STR     R1, [SP,#0xB0+var_20]
ROM:A08013EE 22 91                       STR     R1, [SP,#0xB0+var_28]
ROM:A08013F0 21 91                       STR     R1, [SP,#0xB0+var_2C]
ROM:A08013F2 20 91                       STR     R1, [SP,#0xB0+var_30]
ROM:A08013F4 62 8A                       LDRH    R2, [R4,#0x12]
ROM:A08013F6 25 1C                       ADD     R5, R4, #0
ROM:A08013F8 0F 1C                       ADD     R7, R1, #0
ROM:A08013FA 1B 92                       STR     R2, [SP,#0xB0+var_44]
ROM:A08013FC 23 92                       STR     R2, [SP,#0xB0+var_24]
ROM:A08013FE 21 78                       LDRB    R1, [R4]
ROM:A0801400 C0 35                       ADD     R5, #0xC0
ROM:A0801402 2E 1C                       ADD     R6, R5, #0
ROM:A0801404 40 36                       ADD     R6, #0x40
ROM:A0801406 00 20                       MOV     R0, #0
ROM:A0801408 91 42                       CMP     R1, R2
ROM:A080140A 71 D9                       BLS     loc_A08014F0
ROM:A080140A
ROM:A080140C 68 6B                       LDR     R0, [R5,#0x34]
ROM:A080140E 00 28                       CMP     R0, #0
ROM:A0801410 6F D0                       BEQ     loc_A08014F2
ROM:A0801410
ROM:A0801412 1A F0 F4 ED                 BLX     sub_A081BFFC
ROM:A0801412
ROM:A0801416 02 28                       CMP     R0, #2
ROM:A0801418 6B D1                       BNE     loc_A08014F2
ROM:A0801418
ROM:A080141A 68 6B                       LDR     R0, [R5,#0x34]
ROM:A080141C 18 F0 62 EA                 BLX     sub_A08198E4
ROM:A080141C
ROM:A0801420 1F 90                       STR     R0, [SP,#0xB0+var_34]
ROM:A0801422 FC 20                       MOV     R0, #0xFC
ROM:A0801424 00 5D                       LDRB    R0, [R0,R4]
ROM:A0801426 0F 28                       CMP     R0, #0xF
ROM:A0801428 1D D1                       BNE     loc_A0801466
ROM:A0801428
ROM:A080142A 2A 22                       MOV     R2, #0x2A
ROM:A080142C 06 A9                       ADD     R1, SP, #0xB0+var_98
ROM:A080142E 01 A8                       ADD     R0, SP, #0xB0+var_AC
ROM:A0801430 0F F5 7D F9                 BL      sub_A051072E
ROM:A0801430
ROM:A0801434 07 1C                       ADD     R7, R0, #0
ROM:A0801436 30 69                       LDR     R0, [R6,#0x10]
ROM:A0801438 14 21                       MOV     R1, #0x14
ROM:A080143A 80 30                       ADD     R0, #0x80
ROM:A080143C 40 8B                       LDRH    R0, [R0,#0x1A]
ROM:A080143E 23 9A                       LDR     R2, [SP,#0xB0+var_24]
ROM:A0801440 51 43                       MUL     R1, R2
ROM:A0801442 09 19                       ADD     R1, R1, R4
ROM:A0801444 80 31                       ADD     R1, #0x80
ROM:A0801446 88 63                       STR     R0, [R1,#0x38]
ROM:A0801448 39 1C                       ADD     R1, R7, #0
ROM:A080144A 18 F0 D6 E9                 BLX     sub_A08197F8
ROM:A080144A
ROM:A080144E 38 1C                       ADD     R0, R7, #0
ROM:A0801450 0E F5 69 FE                 BL      sub_A0510126
ROM:A0801450
ROM:A0801454 01 1C                       ADD     R1, R0, #0
ROM:A0801456 68 6B                       LDR     R0, [R5,#0x34]
ROM:A0801458 18 F0 4A EA                 BLX     sub_A08198F0
ROM:A0801458
ROM:A080145C 22 90                       STR     R0, [SP,#0xB0+var_28]
ROM:A080145E 39 1C                       ADD     R1, R7, #0
ROM:A0801460 0F F5 1D FA                 BL      sub_A051089E
ROM:A0801460
ROM:A0801464 36 E0                       B       loc_A08014D4
ROM:A0801464
ROM:A0801466             ; ---------------------------------------------------------------------------
ROM:A0801466
ROM:A0801466             loc_A0801466                            ; CODE XREF: sub_A08013E4+44j
ROM:A0801466 23 9A                       LDR     R2, [SP,#0xB0+var_24]
ROM:A0801468 14 21                       MOV     R1, #0x14
ROM:A080146A 51 43                       MUL     R1, R2
ROM:A080146C 09 19                       ADD     R1, R1, R4
ROM:A080146E 26 91                       STR     R1, [SP,#0xB0+var_18]
ROM:A0801470 80 31                       ADD     R1, #0x80
ROM:A0801472 25 91                       STR     R1, [SP,#0xB0+var_1C]
ROM:A0801474 89 6B                       LDR     R1, [R1,#0x38]
ROM:A0801476 00 29                       CMP     R1, #0
ROM:A0801478 19 D1                       BNE     loc_A08014AE
ROM:A0801478
ROM:A080147A 00 28                       CMP     R0, #0
ROM:A080147C 2C D1                       BNE     loc_A08014D8
ROM:A080147C
ROM:A080147E 30 68                       LDR     R0, [R6]
ROM:A0801480 0E F5 51 FE                 BL      sub_A0510126
ROM:A0801480
ROM:A0801484 01 1C                       ADD     R1, R0, #0
ROM:A0801486 68 6B                       LDR     R0, [R5,#0x34]
ROM:A0801488 18 F0 32 EA                 BLX     sub_A08198F0
ROM:A0801488
ROM:A080148C 22 90                       STR     R0, [SP,#0xB0+var_28]
ROM:A080148E 31 68                       LDR     R1, [R6]
ROM:A0801490 0F F5 05 FA                 BL      sub_A051089E
ROM:A0801490
ROM:A0801494 70 68                       LDR     R0, [R6,#4]
ROM:A0801496 0E F5 46 FE                 BL      sub_A0510126
ROM:A0801496
ROM:A080149A 01 1C                       ADD     R1, R0, #0
ROM:A080149C 68 6B                       LDR     R0, [R5,#0x34]
ROM:A080149E 18 F0 28 EA                 BLX     sub_A08198F0
ROM:A080149E
ROM:A08014A2 20 90                       STR     R0, [SP,#0xB0+var_30]
ROM:A08014A4 71 68                       LDR     R1, [R6,#4]
ROM:A08014A6 0F F5 FA F9                 BL      sub_A051089E
ROM:A08014A6
ROM:A08014AA 58 48                       LDR     R0, =unk_A08D4F70
ROM:A08014AC 13 E0                       B       loc_A08014D6
ROM:A08014AC
ROM:A08014AE             ; ---------------------------------------------------------------------------
ROM:A08014AE
ROM:A08014AE             loc_A08014AE                            ; CODE XREF: sub_A08013E4+94j
ROM:A08014AE 25 99                       LDR     R1, [SP,#0xB0+var_1C]
ROM:A08014B0 C9 6B                       LDR     R1, [R1,#0x3C]
ROM:A08014B2 68 6B                       LDR     R0, [R5,#0x34]
ROM:A08014B4 18 F0 1C EA                 BLX     sub_A08198F0
ROM:A08014B4
ROM:A08014B8 25 99                       LDR     R1, [SP,#0xB0+var_1C]
ROM:A08014BA 22 90                       STR     R0, [SP,#0xB0+var_28]
ROM:A08014BC 88 6B                       LDR     R0, [R1,#0x38]
ROM:A08014BE 22 99                       LDR     R1, [SP,#0xB0+var_28]
ROM:A08014C0 18 F0 9A E9                 BLX     sub_A08197F8
ROM:A08014C0
ROM:A08014C4 26 99                       LDR     R1, [SP,#0xB0+var_18]
ROM:A08014C6 C0 31                       ADD     R1, #0xC0
ROM:A08014C8 49 68                       LDR     R1, [R1,#4]
ROM:A08014CA 68 6B                       LDR     R0, [R5,#0x34]
ROM:A08014CC 04 31                       ADD     R1, #4
ROM:A08014CE 18 F0 10 EA                 BLX     sub_A08198F0
ROM:A08014CE
ROM:A08014D2 20 90                       STR     R0, [SP,#0xB0+var_30]
ROM:A08014D2
ROM:A08014D4
ROM:A08014D4             loc_A08014D4                            ; CODE XREF: sub_A08013E4+80j
ROM:A08014D4 4E 48                       LDR     R0, =unk_A0C6DEA8
ROM:A08014D4
ROM:A08014D6
ROM:A08014D6             loc_A08014D6                            ; CODE XREF: sub_A08013E4+C8j
ROM:A08014D6 07 1C                       ADD     R7, R0, #0
ROM:A08014D6
ROM:A08014D8
ROM:A08014D8             loc_A08014D8                            ; CODE XREF: sub_A08013E4+98j
ROM:A08014D8 68 6B                       LDR     R0, [R5,#0x34]
ROM:A08014DA 1F 99                       LDR     R1, [SP,#0xB0+var_34]
ROM:A08014DC 3A 1C                       ADD     R2, R7, #0
ROM:A08014DE 18 F0 0E EA                 BLX     sub_A08198FC
ROM:A08014DE
ROM:A08014E2 23 9A                       LDR     R2, [SP,#0xB0+var_24]
ROM:A08014E4 14 20                       MOV     R0, #0x14
ROM:A08014E6 50 43                       MUL     R0, R2
ROM:A08014E8 00 19                       ADD     R0, R0, R4
ROM:A08014EA C0 30                       ADD     R0, #0xC0
ROM:A08014EC 00 7A                       LDRB    R0, [R0,#8]
ROM:A08014EE 01 E0                       B       loc_A08014F4
ROM:A08014EE
ROM:A08014F0             ; ---------------------------------------------------------------------------
ROM:A08014F0
ROM:A08014F0             loc_A08014F0                            ; CODE XREF: sub_A08013E4+26j
ROM:A08014F0 11 E0                       B       loc_A0801516
ROM:A08014F0
ROM:A08014F2             ; ---------------------------------------------------------------------------
ROM:A08014F2
ROM:A08014F2             loc_A08014F2                            ; CODE XREF: sub_A08013E4+2Cj
ROM:A08014F2                                                     ; sub_A08013E4+34j
ROM:A08014F2 7A E0                       B       loc_A08015EA
ROM:A08014F2
ROM:A08014F4             ; ---------------------------------------------------------------------------
ROM:A08014F4
ROM:A08014F4             loc_A08014F4                            ; CODE XREF: sub_A08013E4+10Aj
ROM:A08014F4 21 1C                       ADD     R1, R4, #0
ROM:A08014F6 00 F0 24 FC                 BL      sub_A0801D42
ROM:A08014F6
ROM:A08014FA 23 9A                       LDR     R2, [SP,#0xB0+var_24]
ROM:A08014FC 00 92                       STR     R2, [SP,#0xB0+var_B0]
ROM:A08014FE 68 6B                       LDR     R0, [R5,#0x34]
ROM:A0801500 1F 99                       LDR     R1, [SP,#0xB0+var_34]
ROM:A0801502 20 9B                       LDR     R3, [SP,#0xB0+var_30]
ROM:A0801504 22 9A                       LDR     R2, [SP,#0xB0+var_28]
ROM:A0801506 18 F0 00 EA                 BLX     sub_A0819908
ROM:A0801506
ROM:A080150A A0 8C                       LDRH    R0, [R4,#0x24]
ROM:A080150C 00 28                       CMP     R0, #0
ROM:A080150E 6C D0                       BEQ     loc_A08015EA
ROM:A080150E
ROM:A0801510
ROM:A0801510             loc_A0801510                            ; CODE XREF: sub_A08013E4+338j
ROM:A0801510 01 38                       SUB     R0, #1
ROM:A0801512 A0 84                       STRH    R0, [R4,#0x24]
ROM:A0801514 69 E0                       B       loc_A08015EA
ROM:A0801514
ROM:A0801516             ; ---------------------------------------------------------------------------
ROM:A0801516
ROM:A0801516             loc_A0801516                            ; CODE XREF: sub_A08013E4:loc_A08014F0j
ROM:A0801516 23 9A                       LDR     R2, [SP,#0xB0+var_24]
ROM:A0801518 51 1A                       SUB     R1, R2, R1
ROM:A080151A 0F 04                       LSL     R7, R1, #0x10
ROM:A080151C E1 89                       LDRH    R1, [R4,#0xE]
ROM:A080151E 3F 0C                       LSR     R7, R7, #0x10
ROM:A0801520 B9 42                       CMP     R1, R7
ROM:A0801522 63 D1                       BNE     loc_A08015EC
ROM:A0801522
ROM:A0801524 A9 6B                       LDR     R1, [R5,#0x38]
ROM:A0801526 D0 31                       ADD     R1, #0xD0
ROM:A0801528 09 7B                       LDRB    R1, [R1,#0xC]
ROM:A080152A 06 29                       CMP     R1, #6
ROM:A080152C 65 D0                       BEQ     loc_A08015FA
ROM:A080152C
ROM:A080152E 07 29                       CMP     R1, #7
ROM:A0801530 63 D0                       BEQ     loc_A08015FA
ROM:A0801530
ROM:A0801532 68 6B                       LDR     R0, [R5,#0x34]
ROM:A0801534 00 28                       CMP     R0, #0
ROM:A0801536 58 D0                       BEQ     loc_A08015EA
ROM:A0801536
ROM:A0801538 1A F0 60 ED                 BLX     sub_A081BFFC
ROM:A0801538
ROM:A080153C 02 28                       CMP     R0, #2
ROM:A080153E 54 D1                       BNE     loc_A08015EA
ROM:A080153E
ROM:A0801540 68 6B                       LDR     R0, [R5,#0x34]
ROM:A0801542 18 F0 D0 E9                 BLX     sub_A08198E4
ROM:A0801542
ROM:A0801546 1F 90                       STR     R0, [SP,#0xB0+var_34]
ROM:A0801548 39 1C                       ADD     R1, R7, #0
ROM:A080154A 20 1C                       ADD     R0, R4, #0
ROM:A080154C FF F7 CE FE                 BL      sub_A08012EC
ROM:A080154C
ROM:A0801550 27 82                       STRH    R7, [R4,#0x10]
ROM:A0801552 F0 6A                       LDR     R0, [R6,#0x2C]
ROM:A0801554 00 28                       CMP     R0, #0
ROM:A0801556 A8 6B                       LDR     R0, [R5,#0x38]
ROM:A0801558 C0 68                       LDR     R0, [R0,#0xC]
ROM:A080155A 80 69                       LDR     R0, [R0,#0x18]
ROM:A080155C 10 D0                       BEQ     loc_A0801580
ROM:A080155C
ROM:A080155E 80 0E                       LSR     R0, R0, #0x1A
ROM:A0801560 28 28                       CMP     R0, #0x28
ROM:A0801562 0A D1                       BNE     loc_A080157A
ROM:A0801562
ROM:A0801564 FF 20                       MOV     R0, #0xFF
ROM:A0801566 16 30                       ADD     R0, #0x16
ROM:A0801568 00 5D                       LDRB    R0, [R0,R4]
ROM:A080156A 01 28                       CMP     R0, #1
ROM:A080156C 0B D0                       BEQ     loc_A0801586
ROM:A080156C
ROM:A080156E 20 AA                       ADD     R2, SP, #0xB0+var_30
ROM:A0801570 21 A9                       ADD     R1, SP, #0xB0+var_2C
ROM:A0801572 20 1C                       ADD     R0, R4, #0
ROM:A0801574 FF F7 A0 FD                 BL      sub_A08010B8
ROM:A0801574
ROM:A0801578 18 E0                       B       loc_A08015AC
ROM:A0801578
ROM:A080157A             ; ---------------------------------------------------------------------------
ROM:A080157A
ROM:A080157A             loc_A080157A                            ; CODE XREF: sub_A08013E4+17Ej
ROM:A080157A 3D 28                       CMP     R0, #0x3D
ROM:A080157C 11 D1                       BNE     loc_A08015A2
ROM:A080157C
ROM:A080157E 0A E0                       B       loc_A0801596
ROM:A080157E
ROM:A0801580             ; ---------------------------------------------------------------------------
ROM:A0801580
ROM:A0801580             loc_A0801580                            ; CODE XREF: sub_A08013E4+178j
ROM:A0801580 80 0E                       LSR     R0, R0, #0x1A
ROM:A0801582 28 28                       CMP     R0, #0x28
ROM:A0801584 05 D1                       BNE     loc_A0801592
ROM:A0801584
ROM:A0801586
ROM:A0801586             loc_A0801586                            ; CODE XREF: sub_A08013E4+188j
ROM:A0801586 20 AA                       ADD     R2, SP, #0xB0+var_30
ROM:A0801588 21 A9                       ADD     R1, SP, #0xB0+var_2C
ROM:A080158A 20 1C                       ADD     R0, R4, #0
ROM:A080158C FF F7 A7 FC                 BL      sub_A0800EDE
ROM:A080158C
ROM:A0801590 0C E0                       B       loc_A08015AC
ROM:A0801590
ROM:A0801592             ; ---------------------------------------------------------------------------
ROM:A0801592
ROM:A0801592             loc_A0801592                            ; CODE XREF: sub_A08013E4+1A0j
ROM:A0801592 3D 28                       CMP     R0, #0x3D
ROM:A0801594 05 D1                       BNE     loc_A08015A2
ROM:A0801594
ROM:A0801596
ROM:A0801596             loc_A0801596                            ; CODE XREF: sub_A08013E4+19Aj
ROM:A0801596 20 AA                       ADD     R2, SP, #0xB0+var_30
ROM:A0801598 21 A9                       ADD     R1, SP, #0xB0+var_2C
ROM:A080159A 20 1C                       ADD     R0, R4, #0
ROM:A080159C FF F7 85 FB                 BL      sub_A0800CAA
ROM:A080159C
ROM:A08015A0 04 E0                       B       loc_A08015AC
ROM:A08015A0
ROM:A08015A2             ; ---------------------------------------------------------------------------
ROM:A08015A2
ROM:A08015A2             loc_A08015A2                            ; CODE XREF: sub_A08013E4+198j
ROM:A08015A2                                                     ; sub_A08013E4+1B0j
ROM:A08015A2 20 AA                       ADD     R2, SP, #0xB0+var_30
ROM:A08015A4 21 A9                       ADD     R1, SP, #0xB0+var_2C
ROM:A08015A6 20 1C                       ADD     R0, R4, #0
ROM:A08015A8 FF F7 F4 FA                 BL      sub_A0800B94
ROM:A08015A8
ROM:A08015AC
ROM:A08015AC             loc_A08015AC                            ; CODE XREF: sub_A08013E4+194j
ROM:A08015AC                                                     ; sub_A08013E4+1ACj
ROM:A08015AC                                                     ; sub_A08013E4+1BCj
ROM:A08015AC 21 98                       LDR     R0, [SP,#0xB0+var_2C]
ROM:A08015AE 0E F5 BA FD                 BL      sub_A0510126
ROM:A08015AE
ROM:A08015B2 08 30                       ADD     R0, #8
ROM:A08015B4 01 04                       LSL     R1, R0, #0x10
ROM:A08015B6 09 0C                       LSR     R1, R1, #0x10
ROM:A08015B8 68 6B                       LDR     R0, [R5,#0x34]
ROM:A08015BA 18 F0 9A E9                 BLX     sub_A08198F0
ROM:A08015BA
ROM:A08015BE 22 90                       STR     R0, [SP,#0xB0+var_28]
ROM:A08015C0 21 99                       LDR     R1, [SP,#0xB0+var_2C]
ROM:A08015C2 0F F5 6C F9                 BL      sub_A051089E
ROM:A08015C2
ROM:A08015C6 21 98                       LDR     R0, [SP,#0xB0+var_2C]
ROM:A08015C8 18 F0 DC E8                 BLX     sub_A0819784
ROM:A08015C8
ROM:A08015CC A8 6B                       LDR     R0, [R5,#0x38]
ROM:A08015CE C0 68                       LDR     R0, [R0,#0xC]
ROM:A08015D0 80 69                       LDR     R0, [R0,#0x18]
ROM:A08015D2 80 0E                       LSR     R0, R0, #0x1A
ROM:A08015D4 01 28                       CMP     R0, #1
ROM:A08015D6 0D D0                       BEQ     loc_A08015F4
ROM:A08015D6
ROM:A08015D8 04 28                       CMP     R0, #4
ROM:A08015DA 08 D0                       BEQ     loc_A08015EE
ROM:A08015DA
ROM:A08015DC 28 28                       CMP     R0, #0x28
ROM:A08015DE 01 D0                       BEQ     loc_A08015E4
ROM:A08015DE
ROM:A08015E0 3D 28                       CMP     R0, #0x3D
ROM:A08015E2 17 D0                       BEQ     loc_A0801614
ROM:A08015E2
ROM:A08015E4
ROM:A08015E4             loc_A08015E4                            ; CODE XREF: sub_A08013E4+1FAj
ROM:A08015E4 09 48                       LDR     R0, =unk_A08D4F70
ROM:A08015E6 10 38                       SUB     R0, #0x10
ROM:A08015E8 15 E0                       B       loc_A0801616
ROM:A08015E8
ROM:A08015EA             ; ---------------------------------------------------------------------------
ROM:A08015EA
ROM:A08015EA             loc_A08015EA                            ; CODE XREF: sub_A08013E4:loc_A08014F2j
ROM:A08015EA                                                     ; sub_A08013E4+12Aj
ROM:A08015EA                                                     ; sub_A08013E4+130j
ROM:A08015EA                                                     ; sub_A08013E4+152j
ROM:A08015EA                                                     ; sub_A08013E4+15Aj
ROM:A08015EA 98 E0                       B       loc_A080171E
ROM:A08015EA
ROM:A08015EC             ; ---------------------------------------------------------------------------
ROM:A08015EC
ROM:A08015EC             loc_A08015EC                            ; CODE XREF: sub_A08013E4+13Ej
ROM:A08015EC 99 E0                       B       loc_A0801722
ROM:A08015EC
ROM:A08015EE             ; ---------------------------------------------------------------------------
ROM:A08015EE
ROM:A08015EE             loc_A08015EE                            ; CODE XREF: sub_A08013E4+1F6j
ROM:A08015EE 07 48                       LDR     R0, =unk_A08D4F70
ROM:A08015F0 0C 38                       SUB     R0, #0xC
ROM:A08015F2 10 E0                       B       loc_A0801616
ROM:A08015F2
ROM:A08015F4             ; ---------------------------------------------------------------------------
ROM:A08015F4
ROM:A08015F4             loc_A08015F4                            ; CODE XREF: sub_A08013E4+1F2j
ROM:A08015F4 05 48                       LDR     R0, =unk_A08D4F70
ROM:A08015F6 08 38                       SUB     R0, #8
ROM:A08015F8 0D E0                       B       loc_A0801616
ROM:A08015F8
ROM:A08015FA             ; ---------------------------------------------------------------------------
ROM:A08015FA
ROM:A08015FA             loc_A08015FA                            ; CODE XREF: sub_A08013E4+148j
ROM:A08015FA                                                     ; sub_A08013E4+14Cj
ROM:A08015FA A3 E0                       B       loc_A0801744
ROM:A08015FA
ROM:A08015FA             ; ---------------------------------------------------------------------------
ROM:A08015FC 8A 10 01 00 dword_A08015FC  DCD 0x1108A             ; DATA XREF: sub_A08010B8+1A2r
ROM:A0801600 FF FF 00 00 dword_A0801600  DCD 0xFFFF              ; DATA XREF: sub_A08012EC:loc_A08012FCr
ROM:A0801604 A0 1B 8D A0 off_A0801604    DCD unk_A08D1BA0        ; DATA XREF: sub_A08012EC+C2r
ROM:A0801604                                                     ; sub_A08012EC+D4r
ROM:A0801604                                                     ; sub_A08012EC+E4r
ROM:A0801608 10 EC 00 00 dword_A0801608  DCD 0xEC10              ; DATA XREF: sub_A08012EC+D6r
ROM:A0801608                                                     ; sub_A08012EC+E6r
ROM:A080160C 70 4F 8D A0 off_A080160C    DCD unk_A08D4F70        ; DATA XREF: sub_A08013E4+C6r
ROM:A080160C                                                     ; sub_A08013E4:loc_A08015E4r
ROM:A080160C                                                     ; sub_A08013E4:loc_A08015EEr
ROM:A080160C                                                     ; sub_A08013E4:loc_A08015F4r
ROM:A0801610 A8 DE C6 A0 off_A0801610    DCD unk_A0C6DEA8        ; DATA XREF: sub_A08013E4:loc_A08014D4r
ROM:A0801614             ; ---------------------------------------------------------------------------
ROM:A0801614
ROM:A0801614             loc_A0801614                            ; CODE XREF: sub_A08013E4+1FEj
ROM:A0801614 E5 48                       LDR     R0, =unk_A08D4F6C
ROM:A0801614
ROM:A0801616
ROM:A0801616             loc_A0801616                            ; CODE XREF: sub_A08013E4+204j
ROM:A0801616                                                     ; sub_A08013E4+20Ej
ROM:A0801616                                                     ; sub_A08013E4+214j
ROM:A0801616 1E 90                       STR     R0, [SP,#0xB0+var_38]
ROM:A0801618 B0 6A                       LDR     R0, [R6,#0x28]
ROM:A080161A 00 28                       CMP     R0, #0
ROM:A080161C 2F D0                       BEQ     loc_A080167E
ROM:A080161C
ROM:A080161E 39 1C                       ADD     R1, R7, #0
ROM:A0801620 20 1C                       ADD     R0, R4, #0
ROM:A0801622 FF F7 D4 F9                 BL      sub_A08009CE
ROM:A0801622
ROM:A0801626 01 1C                       ADD     R1, R0, #0
ROM:A0801628 09 04                       LSL     R1, R1, #0x10
ROM:A080162A 09 0C                       LSR     R1, R1, #0x10
ROM:A080162C A8 6B                       LDR     R0, [R5,#0x38]
ROM:A080162E 1E F0 C8 ED                 BLX     sub_A08201C0
ROM:A080162E
ROM:A0801632 1D 90                       STR     R0, [SP,#0xB0+var_3C]
ROM:A0801634 A8 6B                       LDR     R0, [R5,#0x38]
ROM:A0801636 D0 30                       ADD     R0, #0xD0
ROM:A0801638 00 7B                       LDRB    R0, [R0,#0xC]
ROM:A080163A 00 28                       CMP     R0, #0
ROM:A080163C 14 D0                       BEQ     loc_A0801668
ROM:A080163C
ROM:A080163E DC 49                       LDR     R1, =unk_A08D1BA0
ROM:A0801640 02 20                       MOV     R0, #2
ROM:A0801642 E0 F4 C8 EF                 BLX     sub_A04E25D4
ROM:A0801642
ROM:A0801646 00 28                       CMP     R0, #0
ROM:A0801648 07 D0                       BEQ     loc_A080165A
ROM:A0801648
ROM:A080164A 02 DF                       SWI     2
ROM:A080164C 03 22                       MOV     R2, #3
ROM:A080164E 02 20                       MOV     R0, #2
ROM:A0801650 D7 49                       LDR     R1, =unk_A08D1BA0
ROM:A0801652 D8 4B                       LDR     R3, =0xEC10
ROM:A0801654 E0 F4 A6 EE                 BLX     sub_A04E23A4
ROM:A0801654
ROM:A0801658 06 E0                       B       loc_A0801668
ROM:A0801658
ROM:A080165A             ; ---------------------------------------------------------------------------
ROM:A080165A
ROM:A080165A             loc_A080165A                            ; CODE XREF: sub_A08013E4+264j
ROM:A080165A 03 DF                       SWI     3
ROM:A080165C 03 22                       MOV     R2, #3
ROM:A080165E 02 20                       MOV     R0, #2
ROM:A0801660 D3 49                       LDR     R1, =unk_A08D1BA0
ROM:A0801662 D4 4B                       LDR     R3, =0xEC10
ROM:A0801664 E0 F4 0C EF                 BLX     sub_A04E2480
ROM:A0801664
ROM:A0801668
ROM:A0801668             loc_A0801668                            ; CODE XREF: sub_A08013E4+258j
ROM:A0801668                                                     ; sub_A08013E4+274j
ROM:A0801668 1D 98                       LDR     R0, [SP,#0xB0+var_3C]
ROM:A080166A 01 28                       CMP     R0, #1
ROM:A080166C 03 D1                       BNE     loc_A0801676
ROM:A080166C
ROM:A080166E D2 48                       LDR     R0, =unk_A0C6DEB0
ROM:A0801670 1E 90                       STR     R0, [SP,#0xB0+var_38]
ROM:A0801672 08 20                       MOV     R0, #8
ROM:A0801674 21 E0                       B       loc_A08016BA
ROM:A0801674
ROM:A0801676             ; ---------------------------------------------------------------------------
ROM:A0801676
ROM:A0801676             loc_A0801676                            ; CODE XREF: sub_A08013E4+288j
ROM:A0801676 D1 48                       LDR     R0, =unk_A0C6DEB8
ROM:A0801678 1E 90                       STR     R0, [SP,#0xB0+var_38]
ROM:A080167A 07 20                       MOV     R0, #7
ROM:A080167C 1D E0                       B       loc_A08016BA
ROM:A080167C
ROM:A080167E             ; ---------------------------------------------------------------------------
ROM:A080167E
ROM:A080167E             loc_A080167E                            ; CODE XREF: sub_A08013E4+238j
ROM:A080167E 30 69                       LDR     R0, [R6,#0x10]
ROM:A0801680 00 78                       LDRB    R0, [R0]
ROM:A0801682 10 28                       CMP     R0, #0x10
ROM:A0801684 0E D2                       BCS     def_A080168C
ROM:A0801684
ROM:A0801686 02 A3                       ADR     R3, jpt_A080168C
ROM:A0801688 1B 5C                       LDRB    R3, [R3,R0]
ROM:A080168A 5B 00                       LSL     R3, R3, #1
ROM:A080168C 9F 44                       ADD     PC, R3
ROM:A080168C
ROM:A080168C             ; ---------------------------------------------------------------------------
ROM:A080168E 00 00                       ALIGN 4
ROM:A0801690 0A          jpt_A080168C    DCB 0xA                 ; DATA XREF: sub_A08013E4+2A2o
ROM:A0801691 08                          DCB 8
ROM:A0801692 0A                          DCB 0xA
ROM:A0801693 0A                          DCB 0xA
ROM:A0801694 08                          DCB 8
ROM:A0801695 08                          DCB 8
ROM:A0801696 08                          DCB 8
ROM:A0801697 08                          DCB 8
ROM:A0801698 0A                          DCB 0xA
ROM:A0801699 0A                          DCB 0xA
ROM:A080169A 0A                          DCB 0xA
ROM:A080169B 08                          DCB 8
ROM:A080169C 08                          DCB 8
ROM:A080169D 0A                          DCB 0xA
ROM:A080169E 0A                          DCB 0xA
ROM:A080169F 08                          DCB 8
ROM:A08016A0             ; ---------------------------------------------------------------------------
ROM:A08016A0
ROM:A08016A0             case_15                                 ; CODE XREF: sub_A08013E4+2A8j
ROM:A08016A0             ; jumptable A080168C entries 1,4-7,11,12,15
ROM:A08016A0 06 20                       MOV     R0, #6
ROM:A08016A2 0A E0                       B       loc_A08016BA
ROM:A08016A2
ROM:A08016A4             ; ---------------------------------------------------------------------------
ROM:A08016A4
ROM:A08016A4             def_A080168C                            ; CODE XREF: sub_A08013E4+2A0j
ROM:A08016A4                                                     ; sub_A08013E4+2A8j
ROM:A08016A4             ; jumptable A080168C default entry
ROM:A08016A4             ; jumptable A080168C entries 0,2,3,8-10,13,14
ROM:A08016A4 30 6B                       LDR     R0, [R6,#0x30]
ROM:A08016A6 01 28                       CMP     R0, #1
ROM:A08016A8 01 D1                       BNE     loc_A08016AE
ROM:A08016A8
ROM:A08016AA 0C 20                       MOV     R0, #0xC
ROM:A08016AC 05 E0                       B       loc_A08016BA
ROM:A08016AC
ROM:A08016AE             ; ---------------------------------------------------------------------------
ROM:A08016AE
ROM:A08016AE             loc_A08016AE                            ; CODE XREF: sub_A08013E4+2C4j
ROM:A08016AE B0 6B                       LDR     R0, [R6,#0x38]
ROM:A08016B0 01 28                       CMP     R0, #1
ROM:A08016B2 01 D1                       BNE     loc_A08016B8
ROM:A08016B2
ROM:A08016B4 0D 20                       MOV     R0, #0xD
ROM:A08016B6 00 E0                       B       loc_A08016BA
ROM:A08016B6
ROM:A08016B8             ; ---------------------------------------------------------------------------
ROM:A08016B8
ROM:A08016B8             loc_A08016B8                            ; CODE XREF: sub_A08013E4+2CEj
ROM:A08016B8 01 20                       MOV     R0, #1
ROM:A08016B8
ROM:A08016BA
ROM:A08016BA             loc_A08016BA                            ; CODE XREF: sub_A08013E4+290j
ROM:A08016BA                                                     ; sub_A08013E4+298j
ROM:A08016BA                                                     ; sub_A08013E4+2BEj
ROM:A08016BA                                                     ; sub_A08013E4+2C8j
ROM:A08016BA                                                     ; sub_A08013E4+2D2j
ROM:A08016BA 1C 90                       STR     R0, [SP,#0xB0+var_40]
ROM:A08016BC A9 6B                       LDR     R1, [R5,#0x38]
ROM:A08016BE 30 69                       LDR     R0, [R6,#0x10]
ROM:A08016C0 80 F7 66 FE                 BL      sub_A0782390
ROM:A08016C0
ROM:A08016C4 01 28                       CMP     R0, #1
ROM:A08016C6 68 6B                       LDR     R0, [R5,#0x34]
ROM:A08016C8 0A D1                       BNE     loc_A08016E0
ROM:A08016C8
ROM:A08016CA 01 22                       MOV     R2, #1
ROM:A08016CC 1B 99                       LDR     R1, [SP,#0xB0+var_44]
ROM:A08016CE 18 F0 82 ED                 BLX     sub_A081A1D4
ROM:A08016CE
ROM:A08016D2 20 78                       LDRB    R0, [R4]
ROM:A08016D4 C0 19                       ADD     R0, R0, R7
ROM:A08016D6 02 04                       LSL     R2, R0, #0x10
ROM:A08016D8 12 0C                       LSR     R2, R2, #0x10
ROM:A08016DA 21 1C                       ADD     R1, R4, #0
ROM:A08016DC 1C 98                       LDR     R0, [SP,#0xB0+var_40]
ROM:A08016DE 0B E0                       B       loc_A08016F8
ROM:A08016DE
ROM:A08016E0             ; ---------------------------------------------------------------------------
ROM:A08016E0
ROM:A08016E0             loc_A08016E0                            ; CODE XREF: sub_A08013E4+2E4j
ROM:A08016E0 00 22                       MOV     R2, #0
ROM:A08016E2 1B 99                       LDR     R1, [SP,#0xB0+var_44]
ROM:A08016E4 18 F0 76 ED                 BLX     sub_A081A1D4
ROM:A08016E4
ROM:A08016E8 B5 48                       LDR     R0, =unk_A0C6DEA8
ROM:A08016EA 1E 90                       STR     R0, [SP,#0xB0+var_38]
ROM:A08016EC 21 78                       LDRB    R1, [R4]
ROM:A08016EE 0E 20                       MOV     R0, #0xE
ROM:A08016F0 C9 19                       ADD     R1, R1, R7
ROM:A08016F2 0A 04                       LSL     R2, R1, #0x10
ROM:A08016F4 12 0C                       LSR     R2, R2, #0x10
ROM:A08016F6 21 1C                       ADD     R1, R4, #0
ROM:A08016F6
ROM:A08016F8
ROM:A08016F8             loc_A08016F8                            ; CODE XREF: sub_A08013E4+2FAj
ROM:A08016F8 00 F0 23 FB                 BL      sub_A0801D42
ROM:A08016F8
ROM:A08016FC 68 6B                       LDR     R0, [R5,#0x34]
ROM:A08016FE 1F 99                       LDR     R1, [SP,#0xB0+var_34]
ROM:A0801700 1E 9A                       LDR     R2, [SP,#0xB0+var_38]
ROM:A0801702 18 F0 FC E8                 BLX     sub_A08198FC
ROM:A0801702
ROM:A0801706 62 8A                       LDRH    R2, [R4,#0x12]
ROM:A0801708 00 92                       STR     R2, [SP,#0xB0+var_B0]
ROM:A080170A 68 6B                       LDR     R0, [R5,#0x34]
ROM:A080170C 1F 99                       LDR     R1, [SP,#0xB0+var_34]
ROM:A080170E 20 9B                       LDR     R3, [SP,#0xB0+var_30]
ROM:A0801710 22 9A                       LDR     R2, [SP,#0xB0+var_28]
ROM:A0801712 18 F0 FA E8                 BLX     sub_A0819908
ROM:A0801712
ROM:A0801716 A0 8C                       LDRH    R0, [R4,#0x24]
ROM:A0801718 00 28                       CMP     R0, #0
ROM:A080171A 00 D0                       BEQ     loc_A080171E
ROM:A080171A
ROM:A080171C F8 E6                       B       loc_A0801510
ROM:A080171C
ROM:A080171E             ; ---------------------------------------------------------------------------
ROM:A080171E
ROM:A080171E             loc_A080171E                            ; CODE XREF: sub_A08013E4:loc_A08015EAj
ROM:A080171E                                                     ; sub_A08013E4+336j
ROM:A080171E 01 20                       MOV     R0, #1
ROM:A0801720 34 E0                       B       loc_A080178C
ROM:A0801720
ROM:A0801722             ; ---------------------------------------------------------------------------
ROM:A0801722
ROM:A0801722             loc_A0801722                            ; CODE XREF: sub_A08013E4:loc_A08015ECj
ROM:A0801722 60 78                       LDRB    R0, [R4,#1]
ROM:A0801724 00 25                       MOV     R5, #0
ROM:A0801726 00 28                       CMP     R0, #0
ROM:A0801728 02 D1                       BNE     loc_A0801730
ROM:A0801728
ROM:A080172A A6 48                       LDR     R0, =0xFFFF
ROM:A080172C 81 42                       CMP     R1, R0
ROM:A080172E 26 D0                       BEQ     loc_A080177E
ROM:A080172E
ROM:A0801730
ROM:A0801730             loc_A0801730                            ; CODE XREF: sub_A08013E4+344j
ROM:A0801730 7A 1A                       SUB     R2, R7, R1
ROM:A0801732 10 04                       LSL     R0, R2, #0x10
ROM:A0801734 00 14                       ASR     R0, R0, #0x10
ROM:A0801736 43 1C                       ADD     R3, R0, #1
ROM:A0801738 06 D0                       BEQ     loc_A0801748
ROM:A0801738
ROM:A080173A 01 28                       CMP     R0, #1
ROM:A080173C 08 D1                       BNE     loc_A0801750
ROM:A080173C
ROM:A080173E 48 1C                       ADD     R0, R1, #1
ROM:A0801740 E0 81                       STRH    R0, [R4,#0xE]
ROM:A0801742 05 20                       MOV     R0, #5
ROM:A0801742
ROM:A0801744
ROM:A0801744             loc_A0801744                            ; CODE XREF: sub_A08013E4:loc_A08015FAj
ROM:A0801744                                                     ; sub_A08013E4+36Aj
ROM:A0801744                                                     ; sub_A08013E4+382j
ROM:A0801744                                                     ; sub_A08013E4+38Aj
ROM:A0801744                                                     ; sub_A08013E4+39Ej
ROM:A0801744                                                     ; sub_A08013E4+3A6j ...
ROM:A0801744 27 B0                       ADD     SP, SP, #0x9C
ROM:A0801746 F0 BD                       POP     {R4-R7,PC}
ROM:A0801746
ROM:A0801748             ; ---------------------------------------------------------------------------
ROM:A0801748
ROM:A0801748             loc_A0801748                            ; CODE XREF: sub_A08013E4+354j
ROM:A0801748 48 1E                       SUB     R0, R1, #1
ROM:A080174A E0 81                       STRH    R0, [R4,#0xE]
ROM:A080174C 03 20                       MOV     R0, #3
ROM:A080174E F9 E7                       B       loc_A0801744
ROM:A080174E
ROM:A0801750             ; ---------------------------------------------------------------------------
ROM:A0801750
ROM:A0801750             loc_A0801750                            ; CODE XREF: sub_A08013E4+358j
ROM:A0801750 01 28                       CMP     R0, #1
ROM:A0801752 0D DD                       BLE     loc_A0801770
ROM:A0801752
ROM:A0801754 09 28                       CMP     R0, #9
ROM:A0801756 07 DB                       BLT     loc_A0801768
ROM:A0801756
ROM:A0801758 E0 88                       LDRH    R0, [R4,#6]
ROM:A080175A C3 1B                       SUB     R3, R0, R7
ROM:A080175C 9A 42                       CMP     R2, R3
ROM:A080175E 03 DD                       BLE     loc_A0801768
ROM:A080175E
ROM:A0801760 01 38                       SUB     R0, #1
ROM:A0801762 E0 81                       STRH    R0, [R4,#0xE]
ROM:A0801764 08 20                       MOV     R0, #8
ROM:A0801766 ED E7                       B       loc_A0801744
ROM:A0801766
ROM:A0801768             ; ---------------------------------------------------------------------------
ROM:A0801768
ROM:A0801768             loc_A0801768                            ; CODE XREF: sub_A08013E4+372j
ROM:A0801768                                                     ; sub_A08013E4+37Aj
ROM:A0801768 48 1C                       ADD     R0, R1, #1
ROM:A080176A E0 81                       STRH    R0, [R4,#0xE]
ROM:A080176C 06 20                       MOV     R0, #6
ROM:A080176E E9 E7                       B       loc_A0801744
ROM:A080176E
ROM:A0801770             ; ---------------------------------------------------------------------------
ROM:A0801770
ROM:A0801770             loc_A0801770                            ; CODE XREF: sub_A08013E4+36Ej
ROM:A0801770 08 22                       MOV     R2, #8
ROM:A0801772 D2 43                       MVN     R2, R2
ROM:A0801774 90 42                       CMP     R0, R2
ROM:A0801776 05 DC                       BGT     loc_A0801784
ROM:A0801776
ROM:A0801778 C8 1B                       SUB     R0, R1, R7
ROM:A080177A B8 42                       CMP     R0, R7
ROM:A080177C 02 DD                       BLE     loc_A0801784
ROM:A080177C
ROM:A080177E
ROM:A080177E             loc_A080177E                            ; CODE XREF: sub_A08013E4+34Aj
ROM:A080177E E5 81                       STRH    R5, [R4,#0xE]
ROM:A0801780 07 20                       MOV     R0, #7
ROM:A0801782 DF E7                       B       loc_A0801744
ROM:A0801782
ROM:A0801784             ; ---------------------------------------------------------------------------
ROM:A0801784
ROM:A0801784             loc_A0801784                            ; CODE XREF: sub_A08013E4+392j
ROM:A0801784                                                     ; sub_A08013E4+398j
ROM:A0801784 48 1E                       SUB     R0, R1, #1
ROM:A0801786 E0 81                       STRH    R0, [R4,#0xE]
ROM:A0801788 04 20                       MOV     R0, #4
ROM:A080178A DB E7                       B       loc_A0801744
ROM:A080178A
ROM:A080178C             ; ---------------------------------------------------------------------------
ROM:A080178C
ROM:A080178C             loc_A080178C                            ; CODE XREF: sub_A08013E4+33Cj
ROM:A080178C                                                     ; sub_A08013E4+3BEj
ROM:A080178C 24 99                       LDR     R1, [SP,#0xB0+var_20]
ROM:A080178E 49 00                       LSL     R1, R1, #1
ROM:A0801790 09 19                       ADD     R1, R1, R4
ROM:A0801792 8A 8A                       LDRH    R2, [R1,#0x14]
ROM:A0801794 4A 82                       STRH    R2, [R1,#0x12]
ROM:A0801796 24 99                       LDR     R1, [SP,#0xB0+var_20]
ROM:A0801798 01 31                       ADD     R1, #1
ROM:A080179A 09 04                       LSL     R1, R1, #0x10
ROM:A080179C 09 0C                       LSR     R1, R1, #0x10
ROM:A080179E 24 91                       STR     R1, [SP,#0xB0+var_20]
ROM:A08017A0 08 29                       CMP     R1, #8
ROM:A08017A2 F3 D3                       BCC     loc_A080178C
ROM:A08017A2
ROM:A08017A4 A1 78                       LDRB    R1, [R4,#2]
ROM:A08017A6 FF 31                       ADD     R1, #0xFF
ROM:A08017A8 A1 70                       STRB    R1, [R4,#2]
ROM:A08017AA CB E7                       B       loc_A0801744
ROM:A08017AA
ROM:A08017AA             ; End of function sub_A08013E4
ROM:A08017AA
ROM:A08017AC             ; ---------------------------------------------------------------------------
ROM:A08017AC 80 B5                       PUSH    {R7,LR}
ROM:A08017AE 82 78                       LDRB    R2, [R0,#2]
ROM:A08017B0 09 2A                       CMP     R2, #9
ROM:A08017B2 01 D1                       BNE     loc_A08017B8
ROM:A08017B2
ROM:A08017B4 08 22                       MOV     R2, #8
ROM:A08017B6 82 70                       STRB    R2, [R0,#2]
ROM:A08017B6
ROM:A08017B8
ROM:A08017B8             loc_A08017B8                            ; CODE XREF: ROM:A08017B2j
ROM:A08017B8 82 78                       LDRB    R2, [R0,#2]
ROM:A08017BA 09 04                       LSL     R1, R1, #0x10
ROM:A08017BC 09 14                       ASR     R1, R1, #0x10
ROM:A08017BE 01 32                       ADD     R2, #1
ROM:A08017C0 12 06                       LSL     R2, R2, #0x18
ROM:A08017C2 12 0E                       LSR     R2, R2, #0x18
ROM:A08017C4 82 70                       STRB    R2, [R0,#2]
ROM:A08017C6 01 2A                       CMP     R2, #1
ROM:A08017C8 04 D9                       BLS     loc_A08017D4
ROM:A08017C8
ROM:A08017CA 52 00                       LSL     R2, R2, #1
ROM:A08017CC 10 18                       ADD     R0, R2, R0
ROM:A08017CE 01 82                       STRH    R1, [R0,#0x10]
ROM:A08017D0 02 20                       MOV     R0, #2
ROM:A08017D2 80 BD                       POP     {R7,PC}
ROM:A08017D2
ROM:A08017D4             ; ---------------------------------------------------------------------------
ROM:A08017D4
ROM:A08017D4             loc_A08017D4                            ; CODE XREF: ROM:A08017C8j
ROM:A08017D4 41 82                       STRH    R1, [R0,#0x12]
ROM:A08017D6 FF F7 05 FE                 BL      sub_A08013E4
ROM:A08017D6
ROM:A08017DA 80 BD                       POP     {R7,PC}
ROM:A08017DA
ROM:A08017DC             ; ---------------------------------------------------------------------------
ROM:A08017DC 10 B5                       PUSH    {R4,LR}
ROM:A08017DE 04 1C                       ADD     R4, R0, #0
ROM:A08017E0 A1 78                       LDRB    R1, [R4,#2]
ROM:A08017E2 00 20                       MOV     R0, #0
ROM:A08017E4 00 29                       CMP     R1, #0
ROM:A08017E6 07 D0                       BEQ     loc_A08017F8
ROM:A08017E6
ROM:A08017E8
ROM:A08017E8             loc_A08017E8                            ; CODE XREF: ROM:A08017F6j
ROM:A08017E8 20 1C                       ADD     R0, R4, #0
ROM:A08017EA FF F7 FB FD                 BL      sub_A08013E4
ROM:A08017EA
ROM:A08017EE 01 28                       CMP     R0, #1
ROM:A08017F0 02 D1                       BNE     loc_A08017F8
ROM:A08017F0
ROM:A08017F2 A1 78                       LDRB    R1, [R4,#2]
ROM:A08017F4 00 29                       CMP     R1, #0
ROM:A08017F6 F7 D1                       BNE     loc_A08017E8
ROM:A08017F6
ROM:A08017F8
ROM:A08017F8             loc_A08017F8                            ; CODE XREF: ROM:A08017E6j
ROM:A08017F8                                                     ; ROM:A08017F0j
ROM:A08017F8 10 BD                       POP     {R4,PC}
ROM:A08017F8
ROM:A08017FA
ROM:A08017FA             ; *************** S U B R O U T I N E ***************************************
ROM:A08017FA
ROM:A08017FA
ROM:A08017FA             sub_A08017FA                            ; CODE XREF: ROM:A0801834p
ROM:A08017FA                                                     ; ROM:A080185Ep
ROM:A08017FA FF 22                       MOV     R2, #0xFF
ROM:A08017FC 25 32                       ADD     R2, #0x25
ROM:A08017FE 80 B5                       PUSH    {R7,LR}
ROM:A0801800 12 58                       LDR     R2, [R2,R0]
ROM:A0801802 C0 30                       ADD     R0, #0xC0
ROM:A0801804 40 6B                       LDR     R0, [R0,#0x34]
ROM:A0801806 00 2A                       CMP     R2, #0
ROM:A0801808 02 D0                       BEQ     loc_A0801810
ROM:A0801808
ROM:A080180A 1E F0 24 EB                 BLX     sub_A081FE54
ROM:A080180A
ROM:A080180E 80 BD                       POP     {R7,PC}
ROM:A080180E
ROM:A0801810             ; ---------------------------------------------------------------------------
ROM:A0801810
ROM:A0801810             loc_A0801810                            ; CODE XREF: sub_A08017FA+Ej
ROM:A0801810 18 F0 B4 E8                 BLX     sub_A081997C
ROM:A0801810
ROM:A0801814 80 BD                       POP     {R7,PC}
ROM:A0801814
ROM:A0801814             ; End of function sub_A08017FA
ROM:A0801814
ROM:A0801816
ROM:A0801816             ; *************** S U B R O U T I N E ***************************************
ROM:A0801816
ROM:A0801816
ROM:A0801816             sub_A0801816                            ; CODE XREF: sub_A07FC694+D6p
ROM:A0801816                                                     ; ROM:A080182Ap
ROM:A0801816                                                     ; ROM:A0801896p
ROM:A0801816 80 B5                       PUSH    {R7,LR}
ROM:A0801818 C0 30                       ADD     R0, #0xC0
ROM:A080181A 40 6B                       LDR     R0, [R0,#0x34]
ROM:A080181C 18 F0 7A E8                 BLX     sub_A0819914
ROM:A080181C
ROM:A0801820 00 04                       LSL     R0, R0, #0x10
ROM:A0801822 00 0C                       LSR     R0, R0, #0x10
ROM:A0801824 80 BD                       POP     {R7,PC}
ROM:A0801824
ROM:A0801824             ; End of function sub_A0801816
ROM:A0801824
ROM:A0801826             ; ---------------------------------------------------------------------------
ROM:A0801826 B0 B5                       PUSH    {R4,R5,R7,LR}
ROM:A0801828 04 1C                       ADD     R4, R0, #0
ROM:A080182A FF F7 F4 FF                 BL      sub_A0801816
ROM:A080182A
ROM:A080182E 05 1C                       ADD     R5, R0, #0
ROM:A0801830 20 1C                       ADD     R0, R4, #0
ROM:A0801832 21 89                       LDRH    R1, [R4,#8]
ROM:A0801834 FF F7 E1 FF                 BL      sub_A08017FA
ROM:A0801834
ROM:A0801838 E0 88                       LDRH    R0, [R4,#6]
ROM:A080183A 21 78                       LDRB    R1, [R4]
ROM:A080183C 41 18                       ADD     R1, R0, R1
ROM:A080183E 0C D0                       BEQ     loc_A080185A
ROM:A080183E
ROM:A0801840 F4 20                       MOV     R0, #0xF4
ROM:A0801842 00 59                       LDR     R0, [R0,R4]
ROM:A0801844 18 F0 A0 E8                 BLX     sub_A0819988
ROM:A0801844
ROM:A0801848 E0 88                       LDRH    R0, [R4,#6]
ROM:A080184A 21 78                       LDRB    R1, [R4]
ROM:A080184C 40 18                       ADD     R0, R0, R1
ROM:A080184E A8 42                       CMP     R0, R5
ROM:A0801850 07 D8                       BHI     loc_A0801862
ROM:A0801850
ROM:A0801852 01 38                       SUB     R0, #1
ROM:A0801854 01 04                       LSL     R1, R0, #0x10
ROM:A0801856 09 0C                       LSR     R1, R1, #0x10
ROM:A0801858 00 E0                       B       loc_A080185C
ROM:A0801858
ROM:A080185A             ; ---------------------------------------------------------------------------
ROM:A080185A
ROM:A080185A             loc_A080185A                            ; CODE XREF: ROM:A080183Ej
ROM:A080185A 00 21                       MOV     R1, #0
ROM:A080185A
ROM:A080185C
ROM:A080185C             loc_A080185C                            ; CODE XREF: ROM:A0801858j
ROM:A080185C 20 1C                       ADD     R0, R4, #0
ROM:A080185E FF F7 CC FF                 BL      sub_A08017FA
ROM:A080185E
ROM:A0801862
ROM:A0801862             loc_A0801862                            ; CODE XREF: ROM:A0801850j
ROM:A0801862 B0 BD                       POP     {R4,R5,R7,PC}
ROM:A0801862
ROM:A0801864             ; ---------------------------------------------------------------------------
ROM:A0801864 10 B5                       PUSH    {R4,LR}
ROM:A0801866 04 1C                       ADD     R4, R0, #0
ROM:A0801868 C0 30                       ADD     R0, #0xC0
ROM:A080186A 40 6B                       LDR     R0, [R0,#0x34]
ROM:A080186C 18 F0 52 E8                 BLX     sub_A0819914
ROM:A080186C
ROM:A0801870 01 04                       LSL     R1, R0, #0x10
ROM:A0801872 09 0C                       LSR     R1, R1, #0x10
ROM:A0801874 20 1C                       ADD     R0, R4, #0
ROM:A0801876 FF F7 AA F8                 BL      sub_A08009CE
ROM:A0801876
ROM:A080187A 00 04                       LSL     R0, R0, #0x10
ROM:A080187C 00 0C                       LSR     R0, R0, #0x10
ROM:A080187E 10 BD                       POP     {R4,PC}
ROM:A080187E
ROM:A0801880             ; ---------------------------------------------------------------------------
ROM:A0801880 80 B5                       PUSH    {R7,LR}
ROM:A0801882 C0 30                       ADD     R0, #0xC0
ROM:A0801884 40 6B                       LDR     R0, [R0,#0x34]
ROM:A0801886 1B F0 02 EB                 BLX     sub_A081CE8C
ROM:A0801886
ROM:A080188A 80 BD                       POP     {R7,PC}
ROM:A080188A
ROM:A080188C             ; ---------------------------------------------------------------------------
ROM:A080188C F3 B5                       PUSH    {R0,R1,R4-R7,LR}
ROM:A080188E 83 B0                       SUB     SP, SP, #0xC
ROM:A0801890 18 F0 C2 EB                 BLX     sub_A081A018
ROM:A0801890
ROM:A0801894 05 1C                       ADD     R5, R0, #0
ROM:A0801896 FF F7 BE FF                 BL      sub_A0801816
ROM:A0801896
ROM:A080189A 29 78                       LDRB    R1, [R5]
ROM:A080189C 06 23                       MOV     R3, #6
ROM:A080189E 1B 27                       MOV     R7, #0x1B
ROM:A08018A0 40 1A                       SUB     R0, R0, R1
ROM:A08018A2 02 04                       LSL     R2, R0, #0x10
ROM:A08018A4 12 14                       ASR     R2, R2, #0x10
ROM:A08018A6 02 92                       STR     R2, [SP,#8]
ROM:A08018A8 E8 5E                       LDRSH   R0, [R5,R3]
ROM:A08018AA BF 02                       LSL     R7, R7, #0xA
ROM:A08018AC DC 1F                       SUB     R4, R3, #7
ROM:A08018AE 82 42                       CMP     R2, R0
ROM:A08018B0 45 4E                       LDR     R6, =0x4209
ROM:A08018B2 01 DB                       BLT     loc_A08018B8
ROM:A08018B2
ROM:A08018B4 00 28                       CMP     R0, #0
ROM:A08018B6 64 D1                       BNE     loc_A0801982
ROM:A08018B6
ROM:A08018B8
ROM:A08018B8             loc_A08018B8                            ; CODE XREF: ROM:A08018B2j
ROM:A08018B8 02 9A                       LDR     R2, [SP,#8]
ROM:A08018BA 00 2A                       CMP     R2, #0
ROM:A08018BC 0F DB                       BLT     loc_A08018DE
ROM:A08018BC
ROM:A08018BE 02 9A                       LDR     R2, [SP,#8]
ROM:A08018C0 11 04                       LSL     R1, R2, #0x10
ROM:A08018C2 09 0C                       LSR     R1, R1, #0x10
ROM:A08018C4 29 81                       STRH    R1, [R5,#8]
ROM:A08018C6 28 1C                       ADD     R0, R5, #0
ROM:A08018C8 FF F7 81 F8                 BL      sub_A08009CE
ROM:A08018C8
ROM:A08018CC 04 1C                       ADD     R4, R0, #0
ROM:A08018CE 68 81                       STRH    R0, [R5,#0xA]
ROM:A08018D0 FF 21                       MOV     R1, #0xFF
ROM:A08018D2 11 31                       ADD     R1, #0x11
ROM:A08018D4 3B 48                       LDR     R0, =0xFFFF
ROM:A08018D6 49 59                       LDR     R1, [R1,R5]
ROM:A08018D8 01 38                       SUB     R0, #1
ROM:A08018DA 40 31                       ADD     R1, #0x40
ROM:A08018DC 48 83                       STRH    R0, [R1,#0x1A]
ROM:A08018DC
ROM:A08018DE
ROM:A08018DE             loc_A08018DE                            ; CODE XREF: ROM:A08018BCj
ROM:A08018DE 04 98                       LDR     R0, [SP,#0x10]
ROM:A08018E0 02 23                       MOV     R3, #2
ROM:A08018E2 C0 5E                       LDRSH   R0, [R0,R3]
ROM:A08018E4 36 28                       CMP     R0, #0x36
ROM:A08018E6 5D D0                       BEQ     loc_A08019A4
ROM:A08018E6
ROM:A08018E8 1E DC                       BGT     loc_A0801928
ROM:A08018E8
ROM:A08018EA 25 28                       CMP     R0, #0x25
ROM:A08018EC 5B D0                       BEQ     loc_A08019A6
ROM:A08018EC
ROM:A08018EE 10 DC                       BGT     loc_A0801912
ROM:A08018EE
ROM:A08018F0 01 28                       CMP     R0, #1
ROM:A08018F2 59 D0                       BEQ     loc_A08019A8
ROM:A08018F2
ROM:A08018F4 2E 49                       LDR     R1, =unk_A08D1BA0
ROM:A08018F6 05 28                       CMP     R0, #5
ROM:A08018F8 57 D0                       BEQ     loc_A08019AA
ROM:A08018F8
ROM:A08018FA 08 28                       CMP     R0, #8
ROM:A08018FC 66 D0                       BEQ     loc_A08019CC
ROM:A08018FC
ROM:A08018FE 15 28                       CMP     R0, #0x15
ROM:A0801900 65 D1                       BNE     loc_A08019CE
ROM:A0801900
ROM:A0801902 FF 35                       ADD     R5, #0xFF
ROM:A0801904 01 35                       ADD     R5, #1
ROM:A0801906 28 69                       LDR     R0, [R5,#0x10]
ROM:A0801908 1E F5 37 FC                 BL      sub_A052017A
ROM:A0801908
ROM:A080190C 01 28                       CMP     R0, #1
ROM:A080190E 71 D0                       BEQ     loc_A08019F4
ROM:A080190E
ROM:A0801910 5D E0                       B       loc_A08019CE
ROM:A0801910
ROM:A0801912             ; ---------------------------------------------------------------------------
ROM:A0801912
ROM:A0801912             loc_A0801912                            ; CODE XREF: ROM:A08018EEj
ROM:A0801912 26 28                       CMP     R0, #0x26
ROM:A0801914 6F D0                       BEQ     loc_A08019F6
ROM:A0801914
ROM:A0801916 2F 28                       CMP     R0, #0x2F
ROM:A0801918 46 D0                       BEQ     loc_A08019A8
ROM:A0801918
ROM:A080191A 34 28                       CMP     R0, #0x34
ROM:A080191C 6C D0                       BEQ     loc_A08019F8
ROM:A080191C
ROM:A080191E 35 28                       CMP     R0, #0x35
ROM:A0801920 55 D1                       BNE     loc_A08019CE
ROM:A0801920
ROM:A0801922 81 22                       MOV     R2, #0x81
ROM:A0801924 98 23                       MOV     R3, #0x98
ROM:A0801926 17 E1                       B       loc_A0801B58
ROM:A0801926
ROM:A0801928             ; ---------------------------------------------------------------------------
ROM:A0801928
ROM:A0801928             loc_A0801928                            ; CODE XREF: ROM:A08018E8j
ROM:A0801928 7B 28                       CMP     R0, #0x7B
ROM:A080192A 66 D0                       BEQ     loc_A08019FA
ROM:A080192A
ROM:A080192C 0B DC                       BGT     loc_A0801946
ROM:A080192C
ROM:A080192E 3D 28                       CMP     R0, #0x3D
ROM:A0801930 31 D0                       BEQ     loc_A0801996
ROM:A0801930
ROM:A0801932 40 28                       CMP     R0, #0x40
ROM:A0801934 60 D0                       BEQ     loc_A08019F8
ROM:A0801934
ROM:A0801936 47 28                       CMP     R0, #0x47
ROM:A0801938 0E D0                       BEQ     loc_A0801958
ROM:A0801938
ROM:A080193A 67 28                       CMP     R0, #0x67
ROM:A080193C 47 D1                       BNE     loc_A08019CE
ROM:A080193C
ROM:A080193E 00 20                       MOV     R0, #0
ROM:A0801940 81 22                       MOV     R2, #0x81
ROM:A0801942 A0 23                       MOV     R3, #0xA0
ROM:A0801944 0A E1                       B       loc_A0801B5C
ROM:A0801944
ROM:A0801946             ; ---------------------------------------------------------------------------
ROM:A0801946
ROM:A0801946             loc_A0801946                            ; CODE XREF: ROM:A080192Cj
ROM:A0801946 7C 28                       CMP     R0, #0x7C
ROM:A0801948 2E D0                       BEQ     loc_A08019A8
ROM:A0801948
ROM:A080194A 88 28                       CMP     R0, #0x88
ROM:A080194C 69 D0                       BEQ     loc_A0801A22
ROM:A080194C
ROM:A080194E 9C 28                       CMP     R0, #0x9C
ROM:A0801950 3D D1                       BNE     loc_A08019CE
ROM:A0801950
ROM:A0801952 81 22                       MOV     R2, #0x81
ROM:A0801954 AE 23                       MOV     R3, #0xAE
ROM:A0801956 FF E0                       B       loc_A0801B58
ROM:A0801956
ROM:A0801958             ; ---------------------------------------------------------------------------
ROM:A0801958
ROM:A0801958             loc_A0801958                            ; CODE XREF: ROM:A0801938j
ROM:A0801958 00 2C                       CMP     R4, #0
ROM:A080195A 13 DB                       BLT     loc_A0801984
ROM:A080195A
ROM:A080195C 68 89                       LDRH    R0, [R5,#0xA]
ROM:A080195E 1E F5 ED FE                 BL      sub_A052073C
ROM:A080195E
ROM:A0801962 28 28                       CMP     R0, #0x28
ROM:A0801964 02 D1                       BNE     loc_A080196C
ROM:A0801964
ROM:A0801966 81 22                       MOV     R2, #0x81
ROM:A0801968 05 23                       MOV     R3, #5
ROM:A080196A F5 E0                       B       loc_A0801B58
ROM:A080196A
ROM:A080196C             ; ---------------------------------------------------------------------------
ROM:A080196C
ROM:A080196C             loc_A080196C                            ; CODE XREF: ROM:A0801964j
ROM:A080196C 68 89                       LDRH    R0, [R5,#0xA]
ROM:A080196E 1E F5 E5 FE                 BL      sub_A052073C
ROM:A080196E
ROM:A0801972 3D 28                       CMP     R0, #0x3D
ROM:A0801974 02 D1                       BNE     loc_A080197C
ROM:A0801974
ROM:A0801976 81 22                       MOV     R2, #0x81
ROM:A0801978 90 23                       MOV     R3, #0x90
ROM:A080197A ED E0                       B       loc_A0801B58
ROM:A080197A
ROM:A080197C             ; ---------------------------------------------------------------------------
ROM:A080197C
ROM:A080197C             loc_A080197C                            ; CODE XREF: ROM:A0801974j
ROM:A080197C 81 22                       MOV     R2, #0x81
ROM:A080197E 06 23                       MOV     R3, #6
ROM:A0801980 EA E0                       B       loc_A0801B58
ROM:A0801980
ROM:A0801982             ; ---------------------------------------------------------------------------
ROM:A0801982
ROM:A0801982             loc_A0801982                            ; CODE XREF: ROM:A08018B6j
ROM:A0801982 09 E1                       B       loc_A0801B98
ROM:A0801982
ROM:A0801984             ; ---------------------------------------------------------------------------
ROM:A0801984
ROM:A0801984             loc_A0801984                            ; CODE XREF: ROM:A080195Aj
ROM:A0801984 E8 78                       LDRB    R0, [R5,#3]
ROM:A0801986 C0 06                       LSL     R0, R0, #0x1B
ROM:A0801988 34 D5                       BPL     loc_A08019F4
ROM:A0801988
ROM:A080198A 81 22                       MOV     R2, #0x81
ROM:A080198C 07 23                       MOV     R3, #7
ROM:A080198E FF 35                       ADD     R5, #0xFF
ROM:A0801990 01 35                       ADD     R5, #1
ROM:A0801992 28 89                       LDRH    R0, [R5,#8]
ROM:A0801994 E2 E0                       B       loc_A0801B5C
ROM:A0801994
ROM:A0801996             ; ---------------------------------------------------------------------------
ROM:A0801996
ROM:A0801996             loc_A0801996                            ; CODE XREF: ROM:A0801930j
ROM:A0801996 FC 20                       MOV     R0, #0xFC
ROM:A0801998 40 5D                       LDRB    R0, [R0,R5]
ROM:A080199A 06 28                       CMP     R0, #6
ROM:A080199C 18 D1                       BNE     loc_A08019D0
ROM:A080199C
ROM:A080199E 81 22                       MOV     R2, #0x81
ROM:A08019A0 9F 23                       MOV     R3, #0x9F
ROM:A08019A2 D9 E0                       B       loc_A0801B58
ROM:A08019A2
ROM:A08019A4             ; ---------------------------------------------------------------------------
ROM:A08019A4
ROM:A08019A4             loc_A08019A4                            ; CODE XREF: ROM:A08018E6j
ROM:A08019A4 75 E0                       B       loc_A0801A92
ROM:A08019A4
ROM:A08019A6             ; ---------------------------------------------------------------------------
ROM:A08019A6
ROM:A08019A6             loc_A08019A6                            ; CODE XREF: ROM:A08018ECj
ROM:A08019A6 7C E0                       B       loc_A0801AA2
ROM:A08019A6
ROM:A08019A8             ; ---------------------------------------------------------------------------
ROM:A08019A8
ROM:A08019A8             loc_A08019A8                            ; CODE XREF: ROM:A08018F2j
ROM:A08019A8                                                     ; ROM:A0801918j
ROM:A08019A8                                                     ; ROM:A0801948j
ROM:A08019A8 CE E0                       B       loc_A0801B48
ROM:A08019A8
ROM:A08019AA             ; ---------------------------------------------------------------------------
ROM:A08019AA
ROM:A08019AA             loc_A08019AA                            ; CODE XREF: ROM:A08018F8j
ROM:A08019AA 80 E0                       B       loc_A0801AAE
ROM:A08019AA
ROM:A08019AA             ; ---------------------------------------------------------------------------
ROM:A08019AC 6C 4F 8D A0 off_A08019AC    DCD unk_A08D4F6C        ; DATA XREF: sub_A08013E4:loc_A0801614r
ROM:A08019B0 A0 1B 8D A0 off_A08019B0    DCD unk_A08D1BA0        ; DATA XREF: sub_A08013E4+25Ar
ROM:A08019B0                                                     ; sub_A08013E4+26Cr
ROM:A08019B0                                                     ; sub_A08013E4+27Cr
ROM:A08019B0                                                     ; ROM:A08018F4r
ROM:A08019B4 10 EC 00 00 dword_A08019B4  DCD 0xEC10              ; DATA XREF: sub_A08013E4+26Er
ROM:A08019B4                                                     ; sub_A08013E4+27Er
ROM:A08019B8 B0 DE C6 A0 off_A08019B8    DCD unk_A0C6DEB0        ; DATA XREF: sub_A08013E4+28Ar
ROM:A08019BC B8 DE C6 A0 off_A08019BC    DCD unk_A0C6DEB8        ; DATA XREF: sub_A08013E4:loc_A0801676r
ROM:A08019C0 A8 DE C6 A0 off_A08019C0    DCD unk_A0C6DEA8        ; DATA XREF: sub_A08013E4+304r
ROM:A08019C4 FF FF 00 00 dword_A08019C4  DCD 0xFFFF              ; DATA XREF: sub_A08013E4+346r
ROM:A08019C4                                                     ; ROM:A08018D4r
ROM:A08019C8 09 42 00 00 dword_A08019C8  DCD 0x4209              ; DATA XREF: ROM:A08018B0r
ROM:A08019CC             ; ---------------------------------------------------------------------------
ROM:A08019CC
ROM:A08019CC             loc_A08019CC                            ; CODE XREF: ROM:A08018FCj
ROM:A08019CC 9D E0                       B       loc_A0801B0A
ROM:A08019CC
ROM:A08019CE             ; ---------------------------------------------------------------------------
ROM:A08019CE
ROM:A08019CE             loc_A08019CE                            ; CODE XREF: ROM:A0801900j
ROM:A08019CE                                                     ; ROM:A0801910j
ROM:A08019CE                                                     ; ROM:A0801920j
ROM:A08019CE                                                     ; ROM:A080193Cj
ROM:A08019CE                                                     ; ROM:A0801950j
ROM:A08019CE 18 E1                       B       loc_A0801C02
ROM:A08019CE
ROM:A08019D0             ; ---------------------------------------------------------------------------
ROM:A08019D0
ROM:A08019D0             loc_A08019D0                            ; CODE XREF: ROM:A080199Cj
ROM:A08019D0 97 21                       MOV     R1, #0x97
ROM:A08019D2 04 28                       CMP     R0, #4
ROM:A08019D4 03 D0                       BEQ     loc_A08019DE
ROM:A08019D4
ROM:A08019D6 0B 28                       CMP     R0, #0xB
ROM:A08019D8 01 D0                       BEQ     loc_A08019DE
ROM:A08019D8
ROM:A08019DA 0F 28                       CMP     R0, #0xF
ROM:A08019DC 1A D1                       BNE     loc_A0801A14
ROM:A08019DC
ROM:A08019DE
ROM:A08019DE             loc_A08019DE                            ; CODE XREF: ROM:A08019D4j
ROM:A08019DE                                                     ; ROM:A08019D8j
ROM:A08019DE 2A 1C                       ADD     R2, R5, #0
ROM:A08019E0 FF 32                       ADD     R2, #0xFF
ROM:A08019E2 01 32                       ADD     R2, #1
ROM:A08019E4 93 6B                       LDR     R3, [R2,#0x38]
ROM:A08019E6 01 2B                       CMP     R3, #1
ROM:A08019E8 11 D1                       BNE     loc_A0801A0E
ROM:A08019E8
ROM:A08019EA 04 28                       CMP     R0, #4
ROM:A08019EC 0F D1                       BNE     loc_A0801A0E
ROM:A08019EC
ROM:A08019EE 10 69                       LDR     R0, [R2,#0x10]
ROM:A08019F0 80 30                       ADD     R0, #0x80
ROM:A08019F2 03 E0                       B       loc_A08019FC
ROM:A08019F2
ROM:A08019F4             ; ---------------------------------------------------------------------------
ROM:A08019F4
ROM:A08019F4             loc_A08019F4                            ; CODE XREF: ROM:A080190Ej
ROM:A08019F4                                                     ; ROM:A0801988j
ROM:A08019F4 99 E0                       B       loc_A0801B2A
ROM:A08019F4
ROM:A08019F6             ; ---------------------------------------------------------------------------
ROM:A08019F6
ROM:A08019F6             loc_A08019F6                            ; CODE XREF: ROM:A0801914j
ROM:A08019F6 4F E0                       B       loc_A0801A98
ROM:A08019F6
ROM:A08019F8             ; ---------------------------------------------------------------------------
ROM:A08019F8
ROM:A08019F8             loc_A08019F8                            ; CODE XREF: ROM:A080191Cj
ROM:A08019F8                                                     ; ROM:A0801934j
ROM:A08019F8 C0 E0                       B       loc_A0801B7C
ROM:A08019F8
ROM:A08019FA             ; ---------------------------------------------------------------------------
ROM:A08019FA
ROM:A08019FA             loc_A08019FA                            ; CODE XREF: ROM:A080192Aj
ROM:A08019FA 33 E0                       B       loc_A0801A64
ROM:A08019FA
ROM:A08019FC             ; ---------------------------------------------------------------------------
ROM:A08019FC
ROM:A08019FC             loc_A08019FC                            ; CODE XREF: ROM:A08019F2j
ROM:A08019FC C0 68                       LDR     R0, [R0,#0xC]
ROM:A08019FE 00 28                       CMP     R0, #0
ROM:A0801A00 02 D1                       BNE     loc_A0801A08
ROM:A0801A00
ROM:A0801A02 81 22                       MOV     R2, #0x81
ROM:A0801A04 8D 23                       MOV     R3, #0x8D
ROM:A0801A06 A7 E0                       B       loc_A0801B58
ROM:A0801A06
ROM:A0801A08             ; ---------------------------------------------------------------------------
ROM:A0801A08
ROM:A0801A08             loc_A0801A08                            ; CODE XREF: ROM:A0801A00j
ROM:A0801A08 81 22                       MOV     R2, #0x81
ROM:A0801A0A 92 23                       MOV     R3, #0x92
ROM:A0801A0C A4 E0                       B       loc_A0801B58
ROM:A0801A0C
ROM:A0801A0E             ; ---------------------------------------------------------------------------
ROM:A0801A0E
ROM:A0801A0E             loc_A0801A0E                            ; CODE XREF: ROM:A08019E8j
ROM:A0801A0E                                                     ; ROM:A08019ECj
ROM:A0801A0E                                                     ; ROM:A0801A5Cj
ROM:A0801A0E 81 22                       MOV     R2, #0x81
ROM:A0801A10 0B 1C                       ADD     R3, R1, #0
ROM:A0801A12 A1 E0                       B       loc_A0801B58
ROM:A0801A12
ROM:A0801A14             ; ---------------------------------------------------------------------------
ROM:A0801A14
ROM:A0801A14             loc_A0801A14                            ; CODE XREF: ROM:A08019DCj
ROM:A0801A14 07 28                       CMP     R0, #7
ROM:A0801A16 01 D0                       BEQ     loc_A0801A1C
ROM:A0801A16
ROM:A0801A18 02 28                       CMP     R0, #2
ROM:A0801A1A 03 D1                       BNE     loc_A0801A24
ROM:A0801A1A
ROM:A0801A1C
ROM:A0801A1C             loc_A0801A1C                            ; CODE XREF: ROM:A0801A16j
ROM:A0801A1C 81 22                       MOV     R2, #0x81
ROM:A0801A1E 9C 23                       MOV     R3, #0x9C
ROM:A0801A20 9A E0                       B       loc_A0801B58
ROM:A0801A20
ROM:A0801A22             ; ---------------------------------------------------------------------------
ROM:A0801A22
ROM:A0801A22             loc_A0801A22                            ; CODE XREF: ROM:A080194Cj
ROM:A0801A22 B5 E0                       B       loc_A0801B90
ROM:A0801A22
ROM:A0801A24             ; ---------------------------------------------------------------------------
ROM:A0801A24
ROM:A0801A24             loc_A0801A24                            ; CODE XREF: ROM:A0801A1Aj
ROM:A0801A24 0C 28                       CMP     R0, #0xC
ROM:A0801A26 0C D1                       BNE     loc_A0801A42
ROM:A0801A26
ROM:A0801A28 FF 35                       ADD     R5, #0xFF
ROM:A0801A2A 01 35                       ADD     R5, #1
ROM:A0801A2C 28 69                       LDR     R0, [R5,#0x10]
ROM:A0801A2E 60 30                       ADD     R0, #0x60
ROM:A0801A30 00 79                       LDRB    R0, [R0,#4]
ROM:A0801A32 01 28                       CMP     R0, #1
ROM:A0801A34 02 D1                       BNE     loc_A0801A3C
ROM:A0801A34
ROM:A0801A36 81 22                       MOV     R2, #0x81
ROM:A0801A38 67 23                       MOV     R3, #0x67
ROM:A0801A3A 8D E0                       B       loc_A0801B58
ROM:A0801A3A
ROM:A0801A3C             ; ---------------------------------------------------------------------------
ROM:A0801A3C
ROM:A0801A3C             loc_A0801A3C                            ; CODE XREF: ROM:A0801A34j
ROM:A0801A3C 81 22                       MOV     R2, #0x81
ROM:A0801A3E 6A 23                       MOV     R3, #0x6A
ROM:A0801A40 8A E0                       B       loc_A0801B58
ROM:A0801A40
ROM:A0801A42             ; ---------------------------------------------------------------------------
ROM:A0801A42
ROM:A0801A42             loc_A0801A42                            ; CODE XREF: ROM:A0801A26j
ROM:A0801A42 05 28                       CMP     R0, #5
ROM:A0801A44 71 D1                       BNE     loc_A0801B2A
ROM:A0801A44
ROM:A0801A46 FF 35                       ADD     R5, #0xFF
ROM:A0801A48 01 35                       ADD     R5, #1
ROM:A0801A4A 28 69                       LDR     R0, [R5,#0x10]
ROM:A0801A4C 82 6F                       LDR     R2, [R0,#0x78]
ROM:A0801A4E 01 2A                       CMP     R2, #1
ROM:A0801A50 02 D1                       BNE     loc_A0801A58
ROM:A0801A50
ROM:A0801A52 81 22                       MOV     R2, #0x81
ROM:A0801A54 AC 23                       MOV     R3, #0xAC
ROM:A0801A56 7F E0                       B       loc_A0801B58
ROM:A0801A56
ROM:A0801A58             ; ---------------------------------------------------------------------------
ROM:A0801A58
ROM:A0801A58             loc_A0801A58                            ; CODE XREF: ROM:A0801A50j
ROM:A0801A58 C0 6F                       LDR     R0, [R0,#0x7C]
ROM:A0801A5A 01 28                       CMP     R0, #1
ROM:A0801A5C D7 D1                       BNE     loc_A0801A0E
ROM:A0801A5C
ROM:A0801A5E 81 22                       MOV     R2, #0x81
ROM:A0801A60 AD 23                       MOV     R3, #0xAD
ROM:A0801A62 79 E0                       B       loc_A0801B58
ROM:A0801A62
ROM:A0801A64             ; ---------------------------------------------------------------------------
ROM:A0801A64
ROM:A0801A64             loc_A0801A64                            ; CODE XREF: ROM:loc_A08019FAj
ROM:A0801A64 FC 20                       MOV     R0, #0xFC
ROM:A0801A66 40 5D                       LDRB    R0, [R0,R5]
ROM:A0801A68 06 28                       CMP     R0, #6
ROM:A0801A6A 02 D1                       BNE     loc_A0801A72
ROM:A0801A6A
ROM:A0801A6C 81 22                       MOV     R2, #0x81
ROM:A0801A6E A1 23                       MOV     R3, #0xA1
ROM:A0801A70 72 E0                       B       loc_A0801B58
ROM:A0801A70
ROM:A0801A72             ; ---------------------------------------------------------------------------
ROM:A0801A72
ROM:A0801A72             loc_A0801A72                            ; CODE XREF: ROM:A0801A6Aj
ROM:A0801A72 FF 35                       ADD     R5, #0xFF
ROM:A0801A74 01 35                       ADD     R5, #1
ROM:A0801A76 28 6B                       LDR     R0, [R5,#0x30]
ROM:A0801A78 01 28                       CMP     R0, #1
ROM:A0801A7A 02 D0                       BEQ     loc_A0801A82
ROM:A0801A7A
ROM:A0801A7C E8 6B                       LDR     R0, [R5,#0x3C]
ROM:A0801A7E 01 28                       CMP     R0, #1
ROM:A0801A80 03 D1                       BNE     loc_A0801A8A
ROM:A0801A80
ROM:A0801A82
ROM:A0801A82             loc_A0801A82                            ; CODE XREF: ROM:A0801A7Aj
ROM:A0801A82 00 20                       MOV     R0, #0
ROM:A0801A84 81 22                       MOV     R2, #0x81
ROM:A0801A86 AB 23                       MOV     R3, #0xAB
ROM:A0801A88 68 E0                       B       loc_A0801B5C
ROM:A0801A88
ROM:A0801A8A             ; ---------------------------------------------------------------------------
ROM:A0801A8A
ROM:A0801A8A             loc_A0801A8A                            ; CODE XREF: ROM:A0801A80j
ROM:A0801A8A 00 20                       MOV     R0, #0
ROM:A0801A8C 81 22                       MOV     R2, #0x81
ROM:A0801A8E 6B 23                       MOV     R3, #0x6B
ROM:A0801A90 64 E0                       B       loc_A0801B5C
ROM:A0801A90
ROM:A0801A92             ; ---------------------------------------------------------------------------
ROM:A0801A92
ROM:A0801A92             loc_A0801A92                            ; CODE XREF: ROM:loc_A08019A4j
ROM:A0801A92 99 23                       MOV     R3, #0x99
ROM:A0801A94 81 22                       MOV     R2, #0x81
ROM:A0801A96 5F E0                       B       loc_A0801B58
ROM:A0801A96
ROM:A0801A98             ; ---------------------------------------------------------------------------
ROM:A0801A98
ROM:A0801A98             loc_A0801A98                            ; CODE XREF: ROM:loc_A08019F6j
ROM:A0801A98 A8 78                       LDRB    R0, [R5,#2]
ROM:A0801A9A 00 28                       CMP     R0, #0
ROM:A0801A9C 45 D1                       BNE     loc_A0801B2A
ROM:A0801A9C
ROM:A0801A9E 26 20                       MOV     R0, #0x26
ROM:A0801AA0 03 E0                       B       loc_A0801AAA
ROM:A0801AA0
ROM:A0801AA2             ; ---------------------------------------------------------------------------
ROM:A0801AA2
ROM:A0801AA2             loc_A0801AA2                            ; CODE XREF: ROM:loc_A08019A6j
ROM:A0801AA2 A8 78                       LDRB    R0, [R5,#2]
ROM:A0801AA4 00 28                       CMP     R0, #0
ROM:A0801AA6 40 D1                       BNE     loc_A0801B2A
ROM:A0801AA6
ROM:A0801AA8 25 20                       MOV     R0, #0x25
ROM:A0801AA8
ROM:A0801AAA
ROM:A0801AAA             loc_A0801AAA                            ; CODE XREF: ROM:A0801AA0j
ROM:A0801AAA 28 71                       STRB    R0, [R5,#4]
ROM:A0801AAC A9 E0                       B       loc_A0801C02
ROM:A0801AAC
ROM:A0801AAE             ; ---------------------------------------------------------------------------
ROM:A0801AAE
ROM:A0801AAE             loc_A0801AAE                            ; CODE XREF: ROM:loc_A08019AAj
ROM:A0801AAE 02 9A                       LDR     R2, [SP,#8]
ROM:A0801AB0 00 2A                       CMP     R2, #0
ROM:A0801AB2 07 DB                       BLT     loc_A0801AC4
ROM:A0801AB2
ROM:A0801AB4 FC 20                       MOV     R0, #0xFC
ROM:A0801AB6 40 5D                       LDRB    R0, [R0,R5]
ROM:A0801AB8 03 28                       CMP     R0, #3
ROM:A0801ABA 01 D0                       BEQ     loc_A0801AC0
ROM:A0801ABA
ROM:A0801ABC 00 28                       CMP     R0, #0
ROM:A0801ABE 01 D1                       BNE     loc_A0801AC4
ROM:A0801ABE
ROM:A0801AC0
ROM:A0801AC0             loc_A0801AC0                            ; CODE XREF: ROM:A0801ABAj
ROM:A0801AC0 00 2C                       CMP     R4, #0
ROM:A0801AC2 08 DA                       BGE     loc_A0801AD6
ROM:A0801AC2
ROM:A0801AC4
ROM:A0801AC4             loc_A0801AC4                            ; CODE XREF: ROM:A0801AB2j
ROM:A0801AC4                                                     ; ROM:A0801ABEj
ROM:A0801AC4 FF 35                       ADD     R5, #0xFF
ROM:A0801AC6 01 35                       ADD     R5, #1
ROM:A0801AC8 28 89                       LDRH    R0, [R5,#8]
ROM:A0801ACA C9 4A                       LDR     R2, =0xFFFF
ROM:A0801ACC 90 42                       CMP     R0, R2
ROM:A0801ACE 2C D0                       BEQ     loc_A0801B2A
ROM:A0801ACE
ROM:A0801AD0 02 9A                       LDR     R2, [SP,#8]
ROM:A0801AD2 53 1C                       ADD     R3, R2, #1
ROM:A0801AD4 29 D1                       BNE     loc_A0801B2A
ROM:A0801AD4
ROM:A0801AD6
ROM:A0801AD6             loc_A0801AD6                            ; CODE XREF: ROM:A0801AC2j
ROM:A0801AD6 63 1C                       ADD     R3, R4, #1
ROM:A0801AD8 14 D1                       BNE     loc_A0801B04
ROM:A0801AD8
ROM:A0801ADA 0D 1C                       ADD     R5, R1, #0
ROM:A0801ADC 02 20                       MOV     R0, #2
ROM:A0801ADE E0 F4 7A ED                 BLX     sub_A04E25D4
ROM:A0801ADE
ROM:A0801AE2 00 28                       CMP     R0, #0
ROM:A0801AE4 07 D0                       BEQ     loc_A0801AF6
ROM:A0801AE4
ROM:A0801AE6 02 DF                       SWI     2
ROM:A0801AE8 03 22                       MOV     R2, #3
ROM:A0801AEA 29 1C                       ADD     R1, R5, #0
ROM:A0801AEC 02 20                       MOV     R0, #2
ROM:A0801AEE C1 4B                       LDR     R3, =0xEC10
ROM:A0801AF0 E0 F4 58 EC                 BLX     sub_A04E23A4
ROM:A0801AF0
ROM:A0801AF4 06 E0                       B       loc_A0801B04
ROM:A0801AF4
ROM:A0801AF6             ; ---------------------------------------------------------------------------
ROM:A0801AF6
ROM:A0801AF6             loc_A0801AF6                            ; CODE XREF: ROM:A0801AE4j
ROM:A0801AF6 03 DF                       SWI     3
ROM:A0801AF8 03 22                       MOV     R2, #3
ROM:A0801AFA 29 1C                       ADD     R1, R5, #0
ROM:A0801AFC 02 20                       MOV     R0, #2
ROM:A0801AFE BD 4B                       LDR     R3, =0xEC10
ROM:A0801B00 E0 F4 BE EC                 BLX     sub_A04E2480
ROM:A0801B00
ROM:A0801B04
ROM:A0801B04             loc_A0801B04                            ; CODE XREF: ROM:A0801AD8j
ROM:A0801B04                                                     ; ROM:A0801AF4j
ROM:A0801B04 81 22                       MOV     R2, #0x81
ROM:A0801B06 5C 23                       MOV     R3, #0x5C
ROM:A0801B08 26 E0                       B       loc_A0801B58
ROM:A0801B08
ROM:A0801B0A             ; ---------------------------------------------------------------------------
ROM:A0801B0A
ROM:A0801B0A             loc_A0801B0A                            ; CODE XREF: ROM:loc_A08019CCj
ROM:A0801B0A 02 9A                       LDR     R2, [SP,#8]
ROM:A0801B0C 00 2A                       CMP     R2, #0
ROM:A0801B0E 0C DB                       BLT     loc_A0801B2A
ROM:A0801B0E
ROM:A0801B10 63 1C                       ADD     R3, R4, #1
ROM:A0801B12 16 D1                       BNE     loc_A0801B42
ROM:A0801B12
ROM:A0801B14 0D 1C                       ADD     R5, R1, #0
ROM:A0801B16 02 20                       MOV     R0, #2
ROM:A0801B18 E0 F4 5C ED                 BLX     sub_A04E25D4
ROM:A0801B18
ROM:A0801B1C 00 28                       CMP     R0, #0
ROM:A0801B1E 09 D0                       BEQ     loc_A0801B34
ROM:A0801B1E
ROM:A0801B20 02 DF                       SWI     2
ROM:A0801B22 03 22                       MOV     R2, #3
ROM:A0801B24 29 1C                       ADD     R1, R5, #0
ROM:A0801B26 B3 4B                       LDR     R3, =0xEC10
ROM:A0801B28 00 E0                       B       loc_A0801B2C
ROM:A0801B28
ROM:A0801B2A             ; ---------------------------------------------------------------------------
ROM:A0801B2A
ROM:A0801B2A             loc_A0801B2A                            ; CODE XREF: ROM:loc_A08019F4j
ROM:A0801B2A                                                     ; ROM:A0801A44j
ROM:A0801B2A                                                     ; ROM:A0801A9Cj
ROM:A0801B2A                                                     ; ROM:A0801AA6j
ROM:A0801B2A                                                     ; ROM:A0801ACEj
ROM:A0801B2A                                                     ; ROM:A0801AD4j ...
ROM:A0801B2A 23 E0                       B       loc_A0801B74
ROM:A0801B2A
ROM:A0801B2C             ; ---------------------------------------------------------------------------
ROM:A0801B2C
ROM:A0801B2C             loc_A0801B2C                            ; CODE XREF: ROM:A0801B28j
ROM:A0801B2C 02 20                       MOV     R0, #2
ROM:A0801B2E E0 F4 3A EC                 BLX     sub_A04E23A4
ROM:A0801B2E
ROM:A0801B32 06 E0                       B       loc_A0801B42
ROM:A0801B32
ROM:A0801B34             ; ---------------------------------------------------------------------------
ROM:A0801B34
ROM:A0801B34             loc_A0801B34                            ; CODE XREF: ROM:A0801B1Ej
ROM:A0801B34 03 DF                       SWI     3
ROM:A0801B36 03 22                       MOV     R2, #3
ROM:A0801B38 29 1C                       ADD     R1, R5, #0
ROM:A0801B3A 02 20                       MOV     R0, #2
ROM:A0801B3C AD 4B                       LDR     R3, =0xEC10
ROM:A0801B3E E0 F4 A0 EC                 BLX     sub_A04E2480
ROM:A0801B3E
ROM:A0801B42
ROM:A0801B42             loc_A0801B42                            ; CODE XREF: ROM:A0801B12j
ROM:A0801B42                                                     ; ROM:A0801B32j
ROM:A0801B42 81 22                       MOV     R2, #0x81
ROM:A0801B44 9E 23                       MOV     R3, #0x9E
ROM:A0801B46 07 E0                       B       loc_A0801B58
ROM:A0801B46
ROM:A0801B48             ; ---------------------------------------------------------------------------
ROM:A0801B48
ROM:A0801B48             loc_A0801B48                            ; CODE XREF: ROM:loc_A08019A8j
ROM:A0801B48 28 1C                       ADD     R0, R5, #0
ROM:A0801B4A FF 30                       ADD     R0, #0xFF
ROM:A0801B4C 01 30                       ADD     R0, #1
ROM:A0801B4E 81 6A                       LDR     R1, [R0,#0x28]
ROM:A0801B50 01 29                       CMP     R1, #1
ROM:A0801B52 05 D1                       BNE     loc_A0801B60
ROM:A0801B52
ROM:A0801B54 81 22                       MOV     R2, #0x81
ROM:A0801B56 9B 23                       MOV     R3, #0x9B
ROM:A0801B56
ROM:A0801B58
ROM:A0801B58             loc_A0801B58                            ; CODE XREF: ROM:A0801926j
ROM:A0801B58                                                     ; ROM:A0801956j
ROM:A0801B58                                                     ; ROM:A080196Aj
ROM:A0801B58                                                     ; ROM:A080197Aj
ROM:A0801B58                                                     ; ROM:A0801980j
ROM:A0801B58                                                     ; ROM:A08019A2j ...
ROM:A0801B58 20 04                       LSL     R0, R4, #0x10
ROM:A0801B5A 00 0C                       LSR     R0, R0, #0x10
ROM:A0801B5A
ROM:A0801B5C
ROM:A0801B5C             loc_A0801B5C                            ; CODE XREF: ROM:A0801944j
ROM:A0801B5C                                                     ; ROM:A0801994j
ROM:A0801B5C                                                     ; ROM:A0801A88j
ROM:A0801B5C                                                     ; ROM:A0801A90j
ROM:A0801B5C                                                     ; ROM:A0801B8Ej
ROM:A0801B5C                                                     ; ROM:A0801B96j
ROM:A0801B5C 00 90                       STR     R0, [SP]
ROM:A0801B5E 05 E0                       B       loc_A0801B6C
ROM:A0801B5E
ROM:A0801B60             ; ---------------------------------------------------------------------------
ROM:A0801B60
ROM:A0801B60             loc_A0801B60                            ; CODE XREF: ROM:A0801B52j
ROM:A0801B60 00 69                       LDR     R0, [R0,#0x10]
ROM:A0801B62 00 23                       MOV     R3, #0
ROM:A0801B64 40 30                       ADD     R0, #0x40
ROM:A0801B66 44 83                       STRH    R4, [R0,#0x1A]
ROM:A0801B68 00 93                       STR     R3, [SP]
ROM:A0801B6A 81 22                       MOV     R2, #0x81
ROM:A0801B6A
ROM:A0801B6C
ROM:A0801B6C             loc_A0801B6C                            ; CODE XREF: ROM:A0801B5Ej
ROM:A0801B6C 39 1C                       ADD     R1, R7, #0
ROM:A0801B6E 30 1C                       ADD     R0, R6, #0
ROM:A0801B70 17 F0 1C EC                 BLX     sub_A08193AC
ROM:A0801B70
ROM:A0801B74
ROM:A0801B74             loc_A0801B74                            ; CODE XREF: ROM:loc_A0801B2Aj
ROM:A0801B74                                                     ; ROM:A0801B84j
ROM:A0801B74                                                     ; ROM:A0801C00j
ROM:A0801B74 00 20                       MOV     R0, #0
ROM:A0801B76 C0 43                       MVN     R0, R0
ROM:A0801B76
ROM:A0801B78
ROM:A0801B78             loc_A0801B78                            ; CODE XREF: ROM:A0801C04j
ROM:A0801B78 05 B0                       ADD     SP, SP, #0x14
ROM:A0801B7A F0 BD                       POP     {R4-R7,PC}
ROM:A0801B7A
ROM:A0801B7C             ; ---------------------------------------------------------------------------
ROM:A0801B7C
ROM:A0801B7C             loc_A0801B7C                            ; CODE XREF: ROM:loc_A08019F8j
ROM:A0801B7C FF 35                       ADD     R5, #0xFF
ROM:A0801B7E 01 35                       ADD     R5, #1
ROM:A0801B80 A8 6A                       LDR     R0, [R5,#0x28]
ROM:A0801B82 01 28                       CMP     R0, #1
ROM:A0801B84 F6 D1                       BNE     loc_A0801B74
ROM:A0801B84
ROM:A0801B86 00 20                       MOV     R0, #0
ROM:A0801B88 83 22                       MOV     R2, #0x83
ROM:A0801B8A 23 04                       LSL     R3, R4, #0x10
ROM:A0801B8C 1B 0C                       LSR     R3, R3, #0x10
ROM:A0801B8E E5 E7                       B       loc_A0801B5C
ROM:A0801B8E
ROM:A0801B90             ; ---------------------------------------------------------------------------
ROM:A0801B90
ROM:A0801B90             loc_A0801B90                            ; CODE XREF: ROM:loc_A0801A22j
ROM:A0801B90 00 20                       MOV     R0, #0
ROM:A0801B92 81 22                       MOV     R2, #0x81
ROM:A0801B94 AA 23                       MOV     R3, #0xAA
ROM:A0801B96 E1 E7                       B       loc_A0801B5C
ROM:A0801B96
ROM:A0801B98             ; ---------------------------------------------------------------------------
ROM:A0801B98
ROM:A0801B98             loc_A0801B98                            ; CODE XREF: ROM:loc_A0801982j
ROM:A0801B98 04 98                       LDR     R0, [SP,#0x10]
ROM:A0801B9A 02 23                       MOV     R3, #2
ROM:A0801B9C C0 5E                       LDRSH   R0, [R0,R3]
ROM:A0801B9E 02 9A                       LDR     R2, [SP,#8]
ROM:A0801BA0 89 18                       ADD     R1, R1, R2
ROM:A0801BA2 0B 04                       LSL     R3, R1, #0x10
ROM:A0801BA4 1B 0C                       LSR     R3, R3, #0x10
ROM:A0801BA6 00 21                       MOV     R1, #0
ROM:A0801BA8 00 22                       MOV     R2, #0
ROM:A0801BAA 27 28                       CMP     R0, #0x27
ROM:A0801BAC 15 D1                       BNE     loc_A0801BDA
ROM:A0801BAC
ROM:A0801BAE
ROM:A0801BAE             loc_A0801BAE                            ; CODE XREF: ROM:A0801BC8j
ROM:A0801BAE 88 00                       LSL     R0, R1, #2
ROM:A0801BB0 40 19                       ADD     R0, R0, R5
ROM:A0801BB2 80 30                       ADD     R0, #0x80
ROM:A0801BB4 84 8A                       LDRH    R4, [R0,#0x14]
ROM:A0801BB6 9C 42                       CMP     R4, R3
ROM:A0801BB8 00 D1                       BNE     loc_A0801BBC
ROM:A0801BB8
ROM:A0801BBA C2 8A                       LDRH    R2, [R0,#0x16]
ROM:A0801BBA
ROM:A0801BBC
ROM:A0801BBC             loc_A0801BBC                            ; CODE XREF: ROM:A0801BB8j
ROM:A0801BBC 01 31                       ADD     R1, #1
ROM:A0801BBE 09 04                       LSL     R1, R1, #0x10
ROM:A0801BC0 09 0C                       LSR     R1, R1, #0x10
ROM:A0801BC2 00 2A                       CMP     R2, #0
ROM:A0801BC4 01 D1                       BNE     loc_A0801BCA
ROM:A0801BC4
ROM:A0801BC6 09 29                       CMP     R1, #9
ROM:A0801BC8 F1 D3                       BCC     loc_A0801BAE
ROM:A0801BC8
ROM:A0801BCA
ROM:A0801BCA             loc_A0801BCA                            ; CODE XREF: ROM:A0801BC4j
ROM:A0801BCA 0C 20                       MOV     R0, #0xC
ROM:A0801BCC 50 43                       MUL     R0, R2
ROM:A0801BCE 8A 49                       LDR     R1, =unk_A08D4CA8
ROM:A0801BD0 40 18                       ADD     R0, R0, R1
ROM:A0801BD2 40 68                       LDR     R0, [R0,#4]
ROM:A0801BD4 89 49                       LDR     R1, =unk_A08D4C30
ROM:A0801BD6 C0 00                       LSL     R0, R0, #3
ROM:A0801BD8 08 5E                       LDRSH   R0, [R1,R0]
ROM:A0801BD8
ROM:A0801BDA
ROM:A0801BDA             loc_A0801BDA                            ; CODE XREF: ROM:A0801BACj
ROM:A0801BDA 01 28                       CMP     R0, #1
ROM:A0801BDC 01 D0                       BEQ     loc_A0801BE2
ROM:A0801BDC
ROM:A0801BDE 2F 28                       CMP     R0, #0x2F
ROM:A0801BE0 0F D1                       BNE     loc_A0801C02
ROM:A0801BE0
ROM:A0801BE2
ROM:A0801BE2             loc_A0801BE2                            ; CODE XREF: ROM:A0801BDCj
ROM:A0801BE2 FF 35                       ADD     R5, #0xFF
ROM:A0801BE4 01 35                       ADD     R5, #1
ROM:A0801BE6 A8 6A                       LDR     R0, [R5,#0x28]
ROM:A0801BE8 01 28                       CMP     R0, #1
ROM:A0801BEA 06 D1                       BNE     loc_A0801BFA
ROM:A0801BEA
ROM:A0801BEC 00 23                       MOV     R3, #0
ROM:A0801BEE 81 22                       MOV     R2, #0x81
ROM:A0801BF0 39 1C                       ADD     R1, R7, #0
ROM:A0801BF2 30 1C                       ADD     R0, R6, #0
ROM:A0801BF4 00 93                       STR     R3, [SP]
ROM:A0801BF6 17 F0 DA EB                 BLX     sub_A08193AC
ROM:A0801BF6
ROM:A0801BFA
ROM:A0801BFA             loc_A0801BFA                            ; CODE XREF: ROM:A0801BEAj
ROM:A0801BFA 01 20                       MOV     R0, #1
ROM:A0801BFC 18 F0 12 EA                 BLX     sub_A081A024
ROM:A0801BFC
ROM:A0801C00 B8 E7                       B       loc_A0801B74
ROM:A0801C00
ROM:A0801C02             ; ---------------------------------------------------------------------------
ROM:A0801C02
ROM:A0801C02             loc_A0801C02                            ; CODE XREF: ROM:loc_A08019CEj
ROM:A0801C02                                                     ; ROM:A0801AACj
ROM:A0801C02                                                     ; ROM:A0801BE0j
ROM:A0801C02 00 20                       MOV     R0, #0
ROM:A0801C04 B8 E7                       B       loc_A0801B78
ROM:A0801C04
ROM:A0801C06             ; ---------------------------------------------------------------------------
ROM:A0801C06
ROM:A0801C06             loc_A0801C06                            ; DATA XREF: ROM:off_A0801E04o
ROM:A0801C06 F8 B5                       PUSH    {R3-R7,LR}
ROM:A0801C08 0D 1C                       ADD     R5, R1, #0
ROM:A0801C0A 18 F0 06 EA                 BLX     sub_A081A018
ROM:A0801C0A
ROM:A0801C0E 04 1C                       ADD     R4, R0, #0
ROM:A0801C10 FF 34                       ADD     R4, #0xFF
ROM:A0801C12 01 34                       ADD     R4, #1
ROM:A0801C14 E0 69                       LDR     R0, [R4,#0x1C]
ROM:A0801C16 0E F5 86 FA                 BL      sub_A0510126
ROM:A0801C16
ROM:A0801C1A 06 1C                       ADD     R6, R0, #0
ROM:A0801C1C 28 1C                       ADD     R0, R5, #0
ROM:A0801C1E 0E F5 82 FA                 BL      sub_A0510126
ROM:A0801C1E
ROM:A0801C22 86 42                       CMP     R6, R0
ROM:A0801C24 08 D8                       BHI     loc_A0801C38
ROM:A0801C24
ROM:A0801C26 E0 69                       LDR     R0, [R4,#0x1C]
ROM:A0801C28 17 F0 AC ED                 BLX     sub_A0819784
ROM:A0801C28
ROM:A0801C2C 28 1C                       ADD     R0, R5, #0
ROM:A0801C2E 0E F5 7A FA                 BL      sub_A0510126
ROM:A0801C2E
ROM:A0801C32 17 F0 A2 ED                 BLX     sub_A0819778
ROM:A0801C32
ROM:A0801C36 E0 61                       STR     R0, [R4,#0x1C]
ROM:A0801C36
ROM:A0801C38
ROM:A0801C38             loc_A0801C38                            ; CODE XREF: ROM:A0801C24j
ROM:A0801C38 20 69                       LDR     R0, [R4,#0x10]
ROM:A0801C3A 00 26                       MOV     R6, #0
ROM:A0801C3C 40 30                       ADD     R0, #0x40
ROM:A0801C3E 86 81                       STRH    R6, [R0,#0xC]
ROM:A0801C40 E0 69                       LDR     R0, [R4,#0x1C]
ROM:A0801C42 29 1C                       ADD     R1, R5, #0
ROM:A0801C44 0E F5 2B FE                 BL      sub_A051089E
ROM:A0801C44
ROM:A0801C48 81 22                       MOV     R2, #0x81
ROM:A0801C4A 9A 23                       MOV     R3, #0x9A
ROM:A0801C4C 1B 21 89 02                 MOVL    R1, 0x6C00
ROM:A0801C50 00 96                       STR     R6, [SP]
ROM:A0801C52 6B 48                       LDR     R0, =0x4209
ROM:A0801C54 17 F0 AA EB                 BLX     sub_A08193AC
ROM:A0801C54
ROM:A0801C58 F0 43                       MVN     R0, R6
ROM:A0801C5A F8 BD                       POP     {R3-R7,PC}
ROM:A0801C5A
ROM:A0801C5C             ; ---------------------------------------------------------------------------
ROM:A0801C5C B0 B5                       PUSH    {R4,R5,R7,LR}
ROM:A0801C5E 04 1C                       ADD     R4, R0, #0
ROM:A0801C60 0D 1C                       ADD     R5, R1, #0
ROM:A0801C62 18 F0 DA E9                 BLX     sub_A081A018
ROM:A0801C62
ROM:A0801C66 01 2D                       CMP     R5, #1
ROM:A0801C68 0F D0                       BEQ     loc_A0801C8A
ROM:A0801C68
ROM:A0801C6A 04 2D                       CMP     R5, #4
ROM:A0801C6C 17 D0                       BEQ     loc_A0801C9E
ROM:A0801C6C
ROM:A0801C6E 05 2D                       CMP     R5, #5
ROM:A0801C70 0A D1                       BNE     loc_A0801C88
ROM:A0801C70
ROM:A0801C72 04 1C                       ADD     R4, R0, #0
ROM:A0801C74 FF 34                       ADD     R4, #0xFF
ROM:A0801C76 01 34                       ADD     R4, #1
ROM:A0801C78 A1 69                       LDR     R1, [R4,#0x18]
ROM:A0801C7A 00 29                       CMP     R1, #0
ROM:A0801C7C 04 D1                       BNE     loc_A0801C88
ROM:A0801C7C
ROM:A0801C7E C0 30                       ADD     R0, #0xC0
ROM:A0801C80 40 6B                       LDR     R0, [R0,#0x34]
ROM:A0801C82 18 F0 B2 E9                 BLX     sub_A0819FE8
ROM:A0801C82
ROM:A0801C86 A0 61                       STR     R0, [R4,#0x18]
ROM:A0801C86
ROM:A0801C88
ROM:A0801C88             loc_A0801C88                            ; CODE XREF: ROM:A0801C70j
ROM:A0801C88                                                     ; ROM:A0801C7Cj
ROM:A0801C88                                                     ; ROM:A0801C92j
ROM:A0801C88 B0 BD                       POP     {R4,R5,R7,PC}
ROM:A0801C88
ROM:A0801C8A             ; ---------------------------------------------------------------------------
ROM:A0801C8A
ROM:A0801C8A             loc_A0801C8A                            ; CODE XREF: ROM:A0801C68j
ROM:A0801C8A FF 30                       ADD     R0, #0xFF
ROM:A0801C8C 21 30                       ADD     R0, #0x21
ROM:A0801C8E 00 78                       LDRB    R0, [R0]
ROM:A0801C90 01 28                       CMP     R0, #1
ROM:A0801C92 F9 D0                       BEQ     loc_A0801C88
ROM:A0801C92
ROM:A0801C94 5B 49                       LDR     R1, =(loc_A0801C06+1)
ROM:A0801C96 20 1C                       ADD     R0, R4, #0
ROM:A0801C98 1C F0 9A EE                 BLX     sub_A081E9D0
ROM:A0801C98
ROM:A0801C9C
ROM:A0801C9C             loc_A0801C9C                            ; CODE XREF: ROM:A0801CA6j
ROM:A0801C9C B0 BD                       POP     {R4,R5,R7,PC}
ROM:A0801C9C
ROM:A0801C9E             ; ---------------------------------------------------------------------------
ROM:A0801C9E
ROM:A0801C9E             loc_A0801C9E                            ; CODE XREF: ROM:A0801C6Cj
ROM:A0801C9E FF 30                       ADD     R0, #0xFF
ROM:A0801CA0 11 30                       ADD     R0, #0x11
ROM:A0801CA2 00 79                       LDRB    R0, [R0,#4]
ROM:A0801CA4 01 28                       CMP     R0, #1
ROM:A0801CA6 F9 D1                       BNE     loc_A0801C9C
ROM:A0801CA6
ROM:A0801CA8 20 1C                       ADD     R0, R4, #0
ROM:A0801CAA 03 21                       MOV     R1, #3
ROM:A0801CAC 1E F0 C8 EC                 BLX     sub_A0820640
ROM:A0801CAC
ROM:A0801CB0 B0 BD                       POP     {R4,R5,R7,PC}
ROM:A0801CB0
ROM:A0801CB2             ; ---------------------------------------------------------------------------
ROM:A0801CB2 F8 B5                       PUSH    {R3-R7,LR}
ROM:A0801CB4 14 1C                       ADD     R4, R2, #0
ROM:A0801CB6 FF 34                       ADD     R4, #0xFF
ROM:A0801CB8 01 34                       ADD     R4, #1
ROM:A0801CBA 05 1C                       ADD     R5, R0, #0
ROM:A0801CBC E0 6A                       LDR     R0, [R4,#0x2C]
ROM:A0801CBE 80 27                       MOV     R7, #0x80
ROM:A0801CC0 0E 1C                       ADD     R6, R1, #0
ROM:A0801CC2 01 28                       CMP     R0, #1
ROM:A0801CC4 0D D1                       BNE     loc_A0801CE2
ROM:A0801CC4
ROM:A0801CC6 50 48                       LDR     R0, =0x55F
ROM:A0801CC8 1A F0 12 E8                 BLX     sub_A081BCF0
ROM:A0801CC8
ROM:A0801CCC 01 28                       CMP     R0, #1
ROM:A0801CCE 20 69                       LDR     R0, [R4,#0x10]
ROM:A0801CD0 03 D1                       BNE     loc_A0801CDA
ROM:A0801CD0
ROM:A0801CD2 80 6C                       LDR     R0, [R0,#0x48]
ROM:A0801CD4 00 28                       CMP     R0, #0
ROM:A0801CD6 19 D1                       BNE     loc_A0801D0C
ROM:A0801CD6
ROM:A0801CD8 10 E0                       B       loc_A0801CFC
ROM:A0801CD8
ROM:A0801CDA             ; ---------------------------------------------------------------------------
ROM:A0801CDA
ROM:A0801CDA             loc_A0801CDA                            ; CODE XREF: ROM:A0801CD0j
ROM:A0801CDA 40 6C                       LDR     R0, [R0,#0x44]
ROM:A0801CDC 00 28                       CMP     R0, #0
ROM:A0801CDE 15 D1                       BNE     loc_A0801D0C
ROM:A0801CDE
ROM:A0801CE0 0C E0                       B       loc_A0801CFC
ROM:A0801CE0
ROM:A0801CE2             ; ---------------------------------------------------------------------------
ROM:A0801CE2
ROM:A0801CE2             loc_A0801CE2                            ; CODE XREF: ROM:A0801CC4j
ROM:A0801CE2 20 6B                       LDR     R0, [R4,#0x30]
ROM:A0801CE4 00 28                       CMP     R0, #0
ROM:A0801CE6 09 D1                       BNE     loc_A0801CFC
ROM:A0801CE6
ROM:A0801CE8 A0 6B                       LDR     R0, [R4,#0x38]
ROM:A0801CEA 00 28                       CMP     R0, #0
ROM:A0801CEC 06 D1                       BNE     loc_A0801CFC
ROM:A0801CEC
ROM:A0801CEE E0 6B                       LDR     R0, [R4,#0x3C]
ROM:A0801CF0 00 28                       CMP     R0, #0
ROM:A0801CF2 03 D1                       BNE     loc_A0801CFC
ROM:A0801CF2
ROM:A0801CF4 20 69                       LDR     R0, [R4,#0x10]
ROM:A0801CF6 80 6B                       LDR     R0, [R0,#0x38]
ROM:A0801CF8 00 28                       CMP     R0, #0
ROM:A0801CFA 07 D1                       BNE     loc_A0801D0C
ROM:A0801CFA
ROM:A0801CFC
ROM:A0801CFC             loc_A0801CFC                            ; CODE XREF: ROM:A0801CD8j
ROM:A0801CFC                                                     ; ROM:A0801CE0j
ROM:A0801CFC                                                     ; ROM:A0801CE6j
ROM:A0801CFC                                                     ; ROM:A0801CECj
ROM:A0801CFC                                                     ; ROM:A0801CF2j
ROM:A0801CFC 3A 1C                       ADD     R2, R7, #0
ROM:A0801CFE 2B 1C                       ADD     R3, R5, #0
ROM:A0801D00 1B 21 89 02                 MOVL    R1, 0x6C00
ROM:A0801D04 00 96                       STR     R6, [SP]
ROM:A0801D06 3E 48                       LDR     R0, =0x4209
ROM:A0801D08 17 F0 50 EB                 BLX     sub_A08193AC
ROM:A0801D08
ROM:A0801D0C
ROM:A0801D0C             loc_A0801D0C                            ; CODE XREF: ROM:A0801CD6j
ROM:A0801D0C                                                     ; ROM:A0801CDEj
ROM:A0801D0C                                                     ; ROM:A0801CFAj
ROM:A0801D0C F8 BD                       POP     {R3-R7,PC}
ROM:A0801D0C
ROM:A0801D0E             ; ---------------------------------------------------------------------------
ROM:A0801D0E 10 B5                       PUSH    {R4,LR}
ROM:A0801D10 00 24                       MOV     R4, #0
ROM:A0801D12 00 28                       CMP     R0, #0
ROM:A0801D14 04 D0                       BEQ     loc_A0801D20
ROM:A0801D14
ROM:A0801D16 18 F0 2E EF                 BLX     sub_A081AB74
ROM:A0801D16
ROM:A0801D1A 00 28                       CMP     R0, #0
ROM:A0801D1C 00 D0                       BEQ     loc_A0801D20
ROM:A0801D1C
ROM:A0801D1E 04 1C                       ADD     R4, R0, #0
ROM:A0801D1E
ROM:A0801D20
ROM:A0801D20             loc_A0801D20                            ; CODE XREF: ROM:A0801D14j
ROM:A0801D20                                                     ; ROM:A0801D1Cj
ROM:A0801D20 20 1C                       ADD     R0, R4, #0
ROM:A0801D22 10 BD                       POP     {R4,PC}
ROM:A0801D22
ROM:A0801D24             ; ---------------------------------------------------------------------------
ROM:A0801D24 10 B5                       PUSH    {R4,LR}
ROM:A0801D26 04 1C                       ADD     R4, R0, #0
ROM:A0801D28 C0 30                       ADD     R0, #0xC0
ROM:A0801D2A 80 6B                       LDR     R0, [R0,#0x38]
ROM:A0801D2C 17 F0 D2 EE                 BLX     sub_A0819AD4
ROM:A0801D2C
ROM:A0801D30 21 1C                       ADD     R1, R4, #0
ROM:A0801D32 FF 31                       ADD     R1, #0xFF
ROM:A0801D34 01 31                       ADD     R1, #1
ROM:A0801D36 08 81                       STRH    R0, [R1,#8]
ROM:A0801D38 0A 1D                       ADD     R2, R1, #4
ROM:A0801D3A 20 1C                       ADD     R0, R4, #0
ROM:A0801D3C FF F7 CF F8                 BL      sub_A0800EDE
ROM:A0801D3C
ROM:A0801D40 10 BD                       POP     {R4,PC}
ROM:A0801D40
ROM:A0801D42
ROM:A0801D42             ; *************** S U B R O U T I N E ***************************************
ROM:A0801D42
ROM:A0801D42
ROM:A0801D42             sub_A0801D42                            ; CODE XREF: sub_A08013E4+112p
ROM:A0801D42                                                     ; sub_A08013E4:loc_A08016F8p
ROM:A0801D42 70 B5                       PUSH    {R4-R6,LR}
ROM:A0801D44 05 1C                       ADD     R5, R0, #0
ROM:A0801D46 0C 23                       MOV     R3, #0xC
ROM:A0801D48 0C 1C                       ADD     R4, R1, #0
ROM:A0801D4A 2B 49                       LDR     R1, =unk_A08D4CA8
ROM:A0801D4C 58 43                       MUL     R0, R3
ROM:A0801D4E 16 1C                       ADD     R6, R2, #0
ROM:A0801D50 41 18                       ADD     R1, R0, R1
ROM:A0801D52 F4 20                       MOV     R0, #0xF4
ROM:A0801D54 00 59                       LDR     R0, [R0,R4]
ROM:A0801D56 18 F0 76 EA                 BLX     sub_A081A244
ROM:A0801D56
ROM:A0801D5A 2A 1C                       ADD     R2, R5, #0
ROM:A0801D5C 31 1C                       ADD     R1, R6, #0
ROM:A0801D5E 20 1C                       ADD     R0, R4, #0
ROM:A0801D60 00 F0 01 F8                 BL      sub_A0801D66
ROM:A0801D60
ROM:A0801D64 70 BD                       POP     {R4-R6,PC}
ROM:A0801D64
ROM:A0801D64             ; End of function sub_A0801D42
ROM:A0801D64
ROM:A0801D66
ROM:A0801D66             ; *************** S U B R O U T I N E ***************************************
ROM:A0801D66
ROM:A0801D66
ROM:A0801D66             sub_A0801D66                            ; CODE XREF: sub_A0801D42+1Ep
ROM:A0801D66 30 B5                       PUSH    {R4,R5,LR}
ROM:A0801D68 44 79                       LDRB    R4, [R0,#5]
ROM:A0801D6A 00 23                       MOV     R3, #0
ROM:A0801D6C 3D E0                       B       loc_A0801DEA
ROM:A0801D6C
ROM:A0801D6E             ; ---------------------------------------------------------------------------
ROM:A0801D6E
ROM:A0801D6E             loc_A0801D6E                            ; CODE XREF: sub_A0801D66+86j
ROM:A0801D6E 00 2C                       CMP     R4, #0
ROM:A0801D70 07 D0                       BEQ     loc_A0801D82
ROM:A0801D70
ROM:A0801D72 9D 00                       LSL     R5, R3, #2
ROM:A0801D74 2D 18                       ADD     R5, R5, R0
ROM:A0801D76 80 35                       ADD     R5, #0x80
ROM:A0801D78 AD 8A                       LDRH    R5, [R5,#0x14]
ROM:A0801D7A 8D 42                       CMP     R5, R1
ROM:A0801D7C 01 D1                       BNE     loc_A0801D82
ROM:A0801D7C
ROM:A0801D7E 0A 23                       MOV     R3, #0xA
ROM:A0801D80 33 E0                       B       loc_A0801DEA
ROM:A0801D80
ROM:A0801D82             ; ---------------------------------------------------------------------------
ROM:A0801D82
ROM:A0801D82             loc_A0801D82                            ; CODE XREF: sub_A0801D66+Aj
ROM:A0801D82                                                     ; sub_A0801D66+16j
ROM:A0801D82 A3 42                       CMP     R3, R4
ROM:A0801D84 2E D1                       BNE     loc_A0801DE4
ROM:A0801D84
ROM:A0801D86 05 79                       LDRB    R5, [R0,#4]
ROM:A0801D88 26 2D                       CMP     R5, #0x26
ROM:A0801D8A 12 D1                       BNE     loc_A0801DB2
ROM:A0801D8A
ROM:A0801D8C 08 23                       MOV     R3, #8
ROM:A0801D8C
ROM:A0801D8E
ROM:A0801D8E             loc_A0801D8E                            ; CODE XREF: sub_A0801D66+3Cj
ROM:A0801D8E 9C 00                       LSL     R4, R3, #2
ROM:A0801D90 24 18                       ADD     R4, R4, R0
ROM:A0801D92 80 34                       ADD     R4, #0x80
ROM:A0801D94 25 8A                       LDRH    R5, [R4,#0x10]
ROM:A0801D96 FF 33                       ADD     R3, #0xFF
ROM:A0801D98 1B 06                       LSL     R3, R3, #0x18
ROM:A0801D9A A5 82                       STRH    R5, [R4,#0x14]
ROM:A0801D9C 65 8A                       LDRH    R5, [R4,#0x12]
ROM:A0801D9E 1B 0E                       LSR     R3, R3, #0x18
ROM:A0801DA0 E5 82                       STRH    R5, [R4,#0x16]
ROM:A0801DA2 F4 D1                       BNE     loc_A0801D8E
ROM:A0801DA2
ROM:A0801DA4 44 79                       LDRB    R4, [R0,#5]
ROM:A0801DA6 09 2C                       CMP     R4, #9
ROM:A0801DA8 01 D2                       BCS     loc_A0801DAE
ROM:A0801DA8
ROM:A0801DAA 01 34                       ADD     R4, #1
ROM:A0801DAC 44 71                       STRB    R4, [R0,#5]
ROM:A0801DAC
ROM:A0801DAE
ROM:A0801DAE             loc_A0801DAE                            ; CODE XREF: sub_A0801D66+42j
ROM:A0801DAE 00 24                       MOV     R4, #0
ROM:A0801DB0 13 E0                       B       loc_A0801DDA
ROM:A0801DB0
ROM:A0801DB2             ; ---------------------------------------------------------------------------
ROM:A0801DB2
ROM:A0801DB2             loc_A0801DB2                            ; CODE XREF: sub_A0801D66+24j
ROM:A0801DB2 45 79                       LDRB    R5, [R0,#5]
ROM:A0801DB4 09 2D                       CMP     R5, #9
ROM:A0801DB6 02 D2                       BCS     loc_A0801DBE
ROM:A0801DB6
ROM:A0801DB8 01 35                       ADD     R5, #1
ROM:A0801DBA 45 71                       STRB    R5, [R0,#5]
ROM:A0801DBC 0D E0                       B       loc_A0801DDA
ROM:A0801DBC
ROM:A0801DBE             ; ---------------------------------------------------------------------------
ROM:A0801DBE
ROM:A0801DBE             loc_A0801DBE                            ; CODE XREF: sub_A0801D66+50j
ROM:A0801DBE 00 23                       MOV     R3, #0
ROM:A0801DBE
ROM:A0801DC0
ROM:A0801DC0             loc_A0801DC0                            ; CODE XREF: sub_A0801D66+70j
ROM:A0801DC0 9C 00                       LSL     R4, R3, #2
ROM:A0801DC2 24 18                       ADD     R4, R4, R0
ROM:A0801DC4 80 34                       ADD     R4, #0x80
ROM:A0801DC6 25 8B                       LDRH    R5, [R4,#0x18]
ROM:A0801DC8 01 33                       ADD     R3, #1
ROM:A0801DCA 1B 06                       LSL     R3, R3, #0x18
ROM:A0801DCC A5 82                       STRH    R5, [R4,#0x14]
ROM:A0801DCE 65 8B                       LDRH    R5, [R4,#0x1A]
ROM:A0801DD0 1B 0E                       LSR     R3, R3, #0x18
ROM:A0801DD2 08 2B                       CMP     R3, #8
ROM:A0801DD4 E5 82                       STRH    R5, [R4,#0x16]
ROM:A0801DD6 F3 D3                       BCC     loc_A0801DC0
ROM:A0801DD6
ROM:A0801DD8 08 24                       MOV     R4, #8
ROM:A0801DD8
ROM:A0801DDA
ROM:A0801DDA             loc_A0801DDA                            ; CODE XREF: sub_A0801D66+4Aj
ROM:A0801DDA                                                     ; sub_A0801D66+56j
ROM:A0801DDA A5 00                       LSL     R5, R4, #2
ROM:A0801DDC 2D 18                       ADD     R5, R5, R0
ROM:A0801DDE 80 35                       ADD     R5, #0x80
ROM:A0801DE0 A9 82                       STRH    R1, [R5,#0x14]
ROM:A0801DE2 EA 82                       STRH    R2, [R5,#0x16]
ROM:A0801DE2
ROM:A0801DE4
ROM:A0801DE4             loc_A0801DE4                            ; CODE XREF: sub_A0801D66+1Ej
ROM:A0801DE4 01 33                       ADD     R3, #1
ROM:A0801DE6 1B 06                       LSL     R3, R3, #0x18
ROM:A0801DE8 1B 0E                       LSR     R3, R3, #0x18
ROM:A0801DE8
ROM:A0801DEA
ROM:A0801DEA             loc_A0801DEA                            ; CODE XREF: sub_A0801D66+6j
ROM:A0801DEA                                                     ; sub_A0801D66+1Aj
ROM:A0801DEA A3 42                       CMP     R3, R4
ROM:A0801DEC BF D9                       BLS     loc_A0801D6E
ROM:A0801DEC
ROM:A0801DEE 30 BD                       POP     {R4,R5,PC}
ROM:A0801DEE
ROM:A0801DEE             ; End of function sub_A0801D66
ROM:A0801DEE
ROM:A0801DEE             ; ---------------------------------------------------------------------------
ROM:A0801DF0 FF FF 00 00 dword_A0801DF0  DCD 0xFFFF              ; DATA XREF: ROM:A0801ACAr
ROM:A0801DF4 10 EC 00 00 dword_A0801DF4  DCD 0xEC10              ; DATA XREF: ROM:A0801AEEr
ROM:A0801DF4                                                     ; ROM:A0801AFEr
ROM:A0801DF4                                                     ; ROM:A0801B26r
ROM:A0801DF4                                                     ; ROM:A0801B3Cr
ROM:A0801DF8 A8 4C 8D A0 off_A0801DF8    DCD unk_A08D4CA8        ; DATA XREF: ROM:A0801BCEr
ROM:A0801DF8                                                     ; sub_A0801D42+8r
ROM:A0801DFC 30 4C 8D A0 off_A0801DFC    DCD unk_A08D4C30        ; DATA XREF: ROM:A0801BD4r
ROM:A0801E00 09 42 00 00 dword_A0801E00  DCD 0x4209              ; DATA XREF: ROM:A0801C52r
ROM:A0801E00                                                     ; ROM:A0801D06r
ROM:A0801E04 07 1C 80 A0 off_A0801E04    DCD loc_A0801C06+1      ; DATA XREF: ROM:A0801C94r
ROM:A0801E08 5F 05 00 00 dword_A0801E08  DCD 0x55F               ; DATA XREF: ROM:A0801CC6r
ROM:A0801E0C
ROM:A0801E0C             ; *************** S U B R O U T I N E ***************************************
ROM:A0801E0C
ROM:A0801E0C
ROM:A0801E0C             sub_A0801E0C                            ; CODE XREF: ROM:A0801ECAp
ROM:A0801E0C
ROM:A0801E0C             var_E4          = -0xE4
ROM:A0801E0C             var_B8          = -0xB8
ROM:A0801E0C             var_B4          = -0xB4
ROM:A0801E0C             var_AC          = -0xAC
ROM:A0801E0C             var_A8          = -0xA8
ROM:A0801E0C             var_A4          = -0xA4
ROM:A0801E0C             var_98          = -0x98
ROM:A0801E0C             var_94          = -0x94
ROM:A0801E0C             var_90          = -0x90
ROM:A0801E0C             var_8C          = -0x8C
ROM:A0801E0C             var_84          = -0x84
ROM:A0801E0C             var_64          = -0x64
ROM:A0801E0C             var_24          = -0x24
ROM:A0801E0C             var_18          = -0x18
ROM:A0801E0C             arg_0           =  0
ROM:A0801E0C             arg_4           =  4
ROM:A0801E0C
ROM:A0801E0C FF B5                       PUSH    {R0-R7,LR}
ROM:A0801E0E B1 B0                       SUB     SP, SP, #0xC4
ROM:A0801E10 0C 1C                       ADD     R4, R1, #0
ROM:A0801E12 17 1C                       ADD     R7, R2, #0
ROM:A0801E14 C0 21                       MOV     R1, #0xC0
ROM:A0801E16 01 A8                       ADD     R0, SP, #0xE8+var_E4
ROM:A0801E18 3A 9E                       LDR     R6, [SP,#0xE8+arg_0]
ROM:A0801E1A 17 F0 74 E9                 BLX     sub_A0819104
ROM:A0801E1A
ROM:A0801E1E 00 25                       MOV     R5, #0
ROM:A0801E20 0D 95                       STR     R5, [SP,#0xE8+var_B4]
ROM:A0801E22 0C 95                       STR     R5, [SP,#0xE8+var_B8]
ROM:A0801E24 0F 95                       STR     R5, [SP,#0xE8+var_AC]
ROM:A0801E26 E8 1E                       SUB     R0, R5, #3
ROM:A0801E28 10 AB                       ADD     R3, SP, #0xE8+var_A8
ROM:A0801E2A 18 80                       STRH    R0, [R3]
ROM:A0801E2C EF 48                       LDR     R0, =(sub_A0092F50+1)
ROM:A0801E2E EE 49                       LDR     R1, =(sub_A0092F92+1)
ROM:A0801E30 19 F0 B2 E9                 BLX     sub_A081B198
ROM:A0801E30
ROM:A0801E34 11 90                       STR     R0, [SP,#0xE8+var_A4]
ROM:A0801E36 01 1C                       ADD     R1, R0, #0
ROM:A0801E38 20 1C                       ADD     R0, R4, #0
ROM:A0801E3A 1D F0 B6 ED                 BLX     sub_A081F9A8
ROM:A0801E3A
ROM:A0801E3E 11 AC                       ADD     R4, SP, #0xE8+var_A4
ROM:A0801E40 26 71                       STRB    R6, [R4,#4]
ROM:A0801E42 3B 98                       LDR     R0, [SP,#0xE8+arg_4]
ROM:A0801E44 60 71                       STRB    R0, [R4,#5]
ROM:A0801E46 E5 80                       STRH    R5, [R4,#6]
ROM:A0801E48 31 98                       LDR     R0, [SP,#0xE8+var_24]
ROM:A0801E4A 16 95                       STR     R5, [SP,#0xE8+var_90]
ROM:A0801E4C 14 90                       STR     R0, [SP,#0xE8+var_98]
ROM:A0801E4E 15 A8                       ADD     R0, SP, #0xE8+var_94
ROM:A0801E50 17 95                       STR     R5, [SP,#0xE8+var_8C]
ROM:A0801E52 05 73                       STRB    R5, [R0,#0xC]
ROM:A0801E54 E5 83                       STRH    R5, [R4,#0x1E]
ROM:A0801E56 19 A8                       ADD     R0, SP, #0xE8+var_84
ROM:A0801E58 07 80                       STRH    R7, [R0]
ROM:A0801E5A 34 99                       LDR     R1, [SP,#0xE8+var_18]
ROM:A0801E5C 15 91                       STR     R1, [SP,#0xE8+var_94]
ROM:A0801E5E 87 80                       STRH    R7, [R0,#4]
ROM:A0801E60 01 27                       MOV     R7, #1
ROM:A0801E62 21 A8                       ADD     R0, SP, #0xE8+var_64
ROM:A0801E64 C7 63                       STR     R7, [R0,#0x3C]
ROM:A0801E66 01 2E                       CMP     R6, #1
ROM:A0801E68 08 D0                       BEQ     loc_A0801E7C
ROM:A0801E68
ROM:A0801E6A 02 2E                       CMP     R6, #2
ROM:A0801E6C 08 D1                       BNE     loc_A0801E80
ROM:A0801E6C
ROM:A0801E6E 11 98                       LDR     R0, [SP,#0xE8+var_A4]
ROM:A0801E70 1E F5 C8 FA                 BL      sub_A0520404
ROM:A0801E70
ROM:A0801E74 20 81                       STRH    R0, [R4,#8]
ROM:A0801E76 00 28                       CMP     R0, #0
ROM:A0801E78 03 D1                       BNE     loc_A0801E82
ROM:A0801E78
ROM:A0801E7A 27 71                       STRB    R7, [R4,#4]
ROM:A0801E7A
ROM:A0801E7C
ROM:A0801E7C             loc_A0801E7C                            ; CODE XREF: sub_A0801E0C+5Cj
ROM:A0801E7C 27 81                       STRH    R7, [R4,#8]
ROM:A0801E7E 00 E0                       B       loc_A0801E82
ROM:A0801E7E
ROM:A0801E80             ; ---------------------------------------------------------------------------
ROM:A0801E80
ROM:A0801E80             loc_A0801E80                            ; CODE XREF: sub_A0801E0C+60j
ROM:A0801E80 25 81                       STRH    R5, [R4,#8]
ROM:A0801E80
ROM:A0801E82
ROM:A0801E82             loc_A0801E82                            ; CODE XREF: sub_A0801E0C+6Cj
ROM:A0801E82                                                     ; sub_A0801E0C+72j
ROM:A0801E82 00 22                       MOV     R2, #0
ROM:A0801E84 01 A9                       ADD     R1, SP, #0xE8+var_E4
ROM:A0801E86 DA 48                       LDR     R0, =off_A08D1BBC
ROM:A0801E88 17 F0 AE ED                 BLX     sub_A08199E8
ROM:A0801E88
ROM:A0801E8C 35 B0                       ADD     SP, SP, #0xD4
ROM:A0801E8E F0 BD                       POP     {R4-R7,PC}
ROM:A0801E8E
ROM:A0801E8E             ; End of function sub_A0801E0C
ROM:A0801E8E
ROM:A0801E90             ; ---------------------------------------------------------------------------
ROM:A0801E90 FF B5                       PUSH    {R0-R7,LR}
ROM:A0801E92 83 B0                       SUB     SP, SP, #0xC
ROM:A0801E94 0D 9D                       LDR     R5, [SP,#0x34]
ROM:A0801E96 1F 1C                       ADD     R7, R3, #0
ROM:A0801E98 00 24                       MOV     R4, #0
ROM:A0801E9A 01 2D                       CMP     R5, #1
ROM:A0801E9C 0C 9E                       LDR     R6, [SP,#0x30]
ROM:A0801E9E 08 D0                       BEQ     loc_A0801EB2
ROM:A0801E9E
ROM:A0801EA0 02 2D                       CMP     R5, #2
ROM:A0801EA2 15 D0                       BEQ     loc_A0801ED0
ROM:A0801EA2
ROM:A0801EA4 03 2D                       CMP     R5, #3
ROM:A0801EA6 07 D0                       BEQ     loc_A0801EB8
ROM:A0801EA6
ROM:A0801EA8 04 2D                       CMP     R5, #4
ROM:A0801EAA 1E D1                       BNE     loc_A0801EEA
ROM:A0801EAA
ROM:A0801EAC FF 20                       MOV     R0, #0xFF
ROM:A0801EAE 08 30                       ADD     R0, #8
ROM:A0801EB0 10 E0                       B       loc_A0801ED4
ROM:A0801EB0
ROM:A0801EB2             ; ---------------------------------------------------------------------------
ROM:A0801EB2
ROM:A0801EB2             loc_A0801EB2                            ; CODE XREF: ROM:A0801E9Ej
ROM:A0801EB2 FF 20                       MOV     R0, #0xFF
ROM:A0801EB4 05 30                       ADD     R0, #5
ROM:A0801EB6 01 E0                       B       loc_A0801EBC
ROM:A0801EB6
ROM:A0801EB8             ; ---------------------------------------------------------------------------
ROM:A0801EB8
ROM:A0801EB8             loc_A0801EB8                            ; CODE XREF: ROM:A0801EA6j
ROM:A0801EB8 FF 20                       MOV     R0, #0xFF
ROM:A0801EBA 07 30                       ADD     R0, #7
ROM:A0801EBA
ROM:A0801EBC
ROM:A0801EBC             loc_A0801EBC                            ; CODE XREF: ROM:A0801EB6j
ROM:A0801EBC 11 F5 14 FE                 BL      sub_A0513AE8
ROM:A0801EBC
ROM:A0801EC0 00 96                       STR     R6, [SP]
ROM:A0801EC2 01 95                       STR     R5, [SP,#4]
ROM:A0801EC4 03 AA                       ADD     R2, SP, #0xC
ROM:A0801EC6 07 CA                       LDMIA   R2!, {R0-R2}
ROM:A0801EC8 3B 1C                       ADD     R3, R7, #0
ROM:A0801ECA FF F7 9F FF                 BL      sub_A0801E0C
ROM:A0801ECA
ROM:A0801ECE 0A E0                       B       loc_A0801EE6
ROM:A0801ECE
ROM:A0801ED0             ; ---------------------------------------------------------------------------
ROM:A0801ED0
ROM:A0801ED0             loc_A0801ED0                            ; CODE XREF: ROM:A0801EA2j
ROM:A0801ED0 FF 20                       MOV     R0, #0xFF
ROM:A0801ED2 06 30                       ADD     R0, #6
ROM:A0801ED2
ROM:A0801ED4
ROM:A0801ED4             loc_A0801ED4                            ; CODE XREF: ROM:A0801EB0j
ROM:A0801ED4 11 F5 08 FE                 BL      sub_A0513AE8
ROM:A0801ED4
ROM:A0801ED8 00 96                       STR     R6, [SP]
ROM:A0801EDA 01 95                       STR     R5, [SP,#4]
ROM:A0801EDC 03 AA                       ADD     R2, SP, #0xC
ROM:A0801EDE 07 CA                       LDMIA   R2!, {R0-R2}
ROM:A0801EE0 3B 1C                       ADD     R3, R7, #0
ROM:A0801EE2 0E F0 7B FE                 BL      sub_A0810BDC
ROM:A0801EE2
ROM:A0801EE6
ROM:A0801EE6             loc_A0801EE6                            ; CODE XREF: ROM:A0801ECEj
ROM:A0801EE6 04 1C                       ADD     R4, R0, #0
ROM:A0801EE8 17 E0                       B       loc_A0801F1A
ROM:A0801EE8
ROM:A0801EEA             ; ---------------------------------------------------------------------------
ROM:A0801EEA
ROM:A0801EEA             loc_A0801EEA                            ; CODE XREF: ROM:A0801EAAj
ROM:A0801EEA C1 4D                       LDR     R5, =off_A08D1BBC
ROM:A0801EEC 0C 3D                       SUB     R5, #0xC
ROM:A0801EEE 29 1C                       ADD     R1, R5, #0
ROM:A0801EF0 05 20                       MOV     R0, #5
ROM:A0801EF2 E0 F4 70 EB                 BLX     sub_A04E25D4
ROM:A0801EF2
ROM:A0801EF6 BF 4E                       LDR     R6, =0xEC10
ROM:A0801EF8 00 28                       CMP     R0, #0
ROM:A0801EFA 07 D0                       BEQ     loc_A0801F0C
ROM:A0801EFA
ROM:A0801EFC 02 DF                       SWI     2
ROM:A0801EFE 33 1C                       ADD     R3, R6, #0
ROM:A0801F00 29 1C                       ADD     R1, R5, #0
ROM:A0801F02 03 22                       MOV     R2, #3
ROM:A0801F04 05 20                       MOV     R0, #5
ROM:A0801F06 E0 F4 4E EA                 BLX     sub_A04E23A4
ROM:A0801F06
ROM:A0801F0A 06 E0                       B       loc_A0801F1A
ROM:A0801F0A
ROM:A0801F0C             ; ---------------------------------------------------------------------------
ROM:A0801F0C
ROM:A0801F0C             loc_A0801F0C                            ; CODE XREF: ROM:A0801EFAj
ROM:A0801F0C 03 DF                       SWI     3
ROM:A0801F0E 33 1C                       ADD     R3, R6, #0
ROM:A0801F10 29 1C                       ADD     R1, R5, #0
ROM:A0801F12 03 22                       MOV     R2, #3
ROM:A0801F14 05 20                       MOV     R0, #5
ROM:A0801F16 E0 F4 B4 EA                 BLX     sub_A04E2480
ROM:A0801F16
ROM:A0801F1A
ROM:A0801F1A             loc_A0801F1A                            ; CODE XREF: ROM:A0801EE8j
ROM:A0801F1A                                                     ; ROM:A0801F0Aj
ROM:A0801F1A 20 1C                       ADD     R0, R4, #0
ROM:A0801F1C 07 B0                       ADD     SP, SP, #0x1C
ROM:A0801F1E F0 BD                       POP     {R4-R7,PC}
ROM:A0801F1E
ROM:A0801F20
ROM:A0801F20             ; *************** S U B R O U T I N E ***************************************
ROM:A0801F20
ROM:A0801F20
ROM:A0801F20             sub_A0801F20                            ; CODE XREF: ROM:A08025E8p
ROM:A0801F20 F8 B5                       PUSH    {R3-R7,LR}
ROM:A0801F22 04 1C                       ADD     R4, R0, #0
ROM:A0801F24 0D 1C                       ADD     R5, R1, #0
ROM:A0801F26 00 22                       MOV     R2, #0
ROM:A0801F28 23 21                       MOV     R1, #0x23
ROM:A0801F2A 17 F0 CE ED                 BLX     sub_A0819AC8
ROM:A0801F2A
ROM:A0801F2E 00 27                       MOV     R7, #0
ROM:A0801F30 26 1C                       ADD     R6, R4, #0
ROM:A0801F32 D0 36                       ADD     R6, #0xD0
ROM:A0801F34 AF 60                       STR     R7, [R5,#8]
ROM:A0801F36 31 7B                       LDRB    R1, [R6,#0xC]
ROM:A0801F38 00 29                       CMP     R1, #0
ROM:A0801F3A 04 D1                       BNE     loc_A0801F46
ROM:A0801F3A
ROM:A0801F3C 01 1C                       ADD     R1, R0, #0
ROM:A0801F3E 20 1C                       ADD     R0, R4, #0
ROM:A0801F40 17 F0 D4 ED                 BLX     sub_A0819AEC
ROM:A0801F40
ROM:A0801F44 A8 60                       STR     R0, [R5,#8]
ROM:A0801F44
ROM:A0801F46
ROM:A0801F46             loc_A0801F46                            ; CODE XREF: sub_A0801F20+1Aj
ROM:A0801F46 00 22                       MOV     R2, #0
ROM:A0801F48 24 21                       MOV     R1, #0x24
ROM:A0801F4A 20 1C                       ADD     R0, R4, #0
ROM:A0801F4C 17 F0 BC ED                 BLX     sub_A0819AC8
ROM:A0801F4C
ROM:A0801F50 6F 60                       STR     R7, [R5,#4]
ROM:A0801F52 31 7B                       LDRB    R1, [R6,#0xC]
ROM:A0801F54 00 29                       CMP     R1, #0
ROM:A0801F56 06 D1                       BNE     loc_A0801F66
ROM:A0801F56
ROM:A0801F58 01 1C                       ADD     R1, R0, #0
ROM:A0801F5A 20 1C                       ADD     R0, R4, #0
ROM:A0801F5C 17 F0 C6 ED                 BLX     sub_A0819AEC
ROM:A0801F5C
ROM:A0801F60 68 60                       STR     R0, [R5,#4]
ROM:A0801F62 00 28                       CMP     R0, #0
ROM:A0801F64 0F D1                       BNE     loc_A0801F86
ROM:A0801F64
ROM:A0801F66
ROM:A0801F66             loc_A0801F66                            ; CODE XREF: sub_A0801F20+36j
ROM:A0801F66 A8 68                       LDR     R0, [R5,#8]
ROM:A0801F68 00 28                       CMP     R0, #0
ROM:A0801F6A 0C D1                       BNE     loc_A0801F86
ROM:A0801F6A
ROM:A0801F6C 00 22                       MOV     R2, #0
ROM:A0801F6E 29 21                       MOV     R1, #0x29
ROM:A0801F70 20 1C                       ADD     R0, R4, #0
ROM:A0801F72 17 F0 AA ED                 BLX     sub_A0819AC8
ROM:A0801F72
ROM:A0801F76 31 7B                       LDRB    R1, [R6,#0xC]
ROM:A0801F78 00 29                       CMP     R1, #0
ROM:A0801F7A 04 D1                       BNE     loc_A0801F86
ROM:A0801F7A
ROM:A0801F7C 01 1C                       ADD     R1, R0, #0
ROM:A0801F7E 20 1C                       ADD     R0, R4, #0
ROM:A0801F80 17 F0 B4 ED                 BLX     sub_A0819AEC
ROM:A0801F80
ROM:A0801F84 A8 60                       STR     R0, [R5,#8]
ROM:A0801F84
ROM:A0801F86
ROM:A0801F86             loc_A0801F86                            ; CODE XREF: sub_A0801F20+44j
ROM:A0801F86                                                     ; sub_A0801F20+4Aj
ROM:A0801F86                                                     ; sub_A0801F20+5Aj
ROM:A0801F86 20 1C                       ADD     R0, R4, #0
ROM:A0801F88 1E F0 60 EB                 BLX     sub_A082064C
ROM:A0801F88
ROM:A0801F8C 00 68                       LDR     R0, [R0]
ROM:A0801F8E 80 0E                       LSR     R0, R0, #0x1A
ROM:A0801F90 28 28                       CMP     R0, #0x28
ROM:A0801F92 06 D1                       BNE     loc_A0801FA2
ROM:A0801F92
ROM:A0801F94 00 22                       MOV     R2, #0
ROM:A0801F96 32 21                       MOV     R1, #0x32
ROM:A0801F98 20 1C                       ADD     R0, R4, #0
ROM:A0801F9A 17 F0 96 ED                 BLX     sub_A0819AC8
ROM:A0801F9A
ROM:A0801F9E 28 73                       STRB    R0, [R5,#0xC]
ROM:A0801F9E
ROM:A0801FA0
ROM:A0801FA0             loc_A0801FA0                            ; CODE XREF: sub_A0801F20+84j
ROM:A0801FA0 F8 BD                       POP     {R3-R7,PC}
ROM:A0801FA0
ROM:A0801FA2             ; ---------------------------------------------------------------------------
ROM:A0801FA2
ROM:A0801FA2             loc_A0801FA2                            ; CODE XREF: sub_A0801F20+72j
ROM:A0801FA2 2F 73                       STRB    R7, [R5,#0xC]
ROM:A0801FA4 FC E7                       B       loc_A0801FA0
ROM:A0801FA4
ROM:A0801FA4             ; End of function sub_A0801F20
ROM:A0801FA4
ROM:A0801FA6             ; ---------------------------------------------------------------------------
ROM:A0801FA6 F8 B5                       PUSH    {R3-R7,LR}
ROM:A0801FA8 04 1C                       ADD     R4, R0, #0
ROM:A0801FAA 00 6C                       LDR     R0, [R0,#0x40]
ROM:A0801FAC 91 4F                       LDR     R7, =0xEC10
ROM:A0801FAE 00 28                       CMP     R0, #0
ROM:A0801FB0 16 D1                       BNE     loc_A0801FE0
ROM:A0801FB0
ROM:A0801FB2 8F 4D                       LDR     R5, =off_A08D1BBC
ROM:A0801FB4 0C 3D                       SUB     R5, #0xC
ROM:A0801FB6 29 1C                       ADD     R1, R5, #0
ROM:A0801FB8 08 20                       MOV     R0, #8
ROM:A0801FBA E0 F4 0C EB                 BLX     sub_A04E25D4
ROM:A0801FBA
ROM:A0801FBE 00 28                       CMP     R0, #0
ROM:A0801FC0 07 D0                       BEQ     loc_A0801FD2
ROM:A0801FC0
ROM:A0801FC2 02 DF                       SWI     2
ROM:A0801FC4 3B 1C                       ADD     R3, R7, #0
ROM:A0801FC6 29 1C                       ADD     R1, R5, #0
ROM:A0801FC8 03 22                       MOV     R2, #3
ROM:A0801FCA 08 20                       MOV     R0, #8
ROM:A0801FCC E0 F4 EA E9                 BLX     sub_A04E23A4
ROM:A0801FCC
ROM:A0801FD0 06 E0                       B       loc_A0801FE0
ROM:A0801FD0
ROM:A0801FD2             ; ---------------------------------------------------------------------------
ROM:A0801FD2
ROM:A0801FD2             loc_A0801FD2                            ; CODE XREF: ROM:A0801FC0j
ROM:A0801FD2 03 DF                       SWI     3
ROM:A0801FD4 3B 1C                       ADD     R3, R7, #0
ROM:A0801FD6 29 1C                       ADD     R1, R5, #0
ROM:A0801FD8 03 22                       MOV     R2, #3
ROM:A0801FDA 08 20                       MOV     R0, #8
ROM:A0801FDC E0 F4 50 EA                 BLX     sub_A04E2480
ROM:A0801FDC
ROM:A0801FE0
ROM:A0801FE0             loc_A0801FE0                            ; CODE XREF: ROM:A0801FB0j
ROM:A0801FE0                                                     ; ROM:A0801FD0j
ROM:A0801FE0 20 1C                       ADD     R0, R4, #0
ROM:A0801FE2 40 30                       ADD     R0, #0x40
ROM:A0801FE4 00 90                       STR     R0, [SP]
ROM:A0801FE6 00 79                       LDRB    R0, [R0,#4]
ROM:A0801FE8 00 28                       CMP     R0, #0
ROM:A0801FEA 16 D0                       BEQ     loc_A080201A
ROM:A0801FEA
ROM:A0801FEC 80 4E                       LDR     R6, =off_A08D1BBC
ROM:A0801FEE 44 36                       ADD     R6, #0x44
ROM:A0801FF0 01 28                       CMP     R0, #1
ROM:A0801FF2 13 D0                       BEQ     loc_A080201C
ROM:A0801FF2
ROM:A0801FF4 02 28                       CMP     R0, #2
ROM:A0801FF6 10 D1                       BNE     loc_A080201A
ROM:A0801FF6
ROM:A0801FF8 20 6C                       LDR     R0, [R4,#0x40]
ROM:A0801FFA 40 6D                       LDR     R0, [R0,#0x54]
ROM:A0801FFC 00 28                       CMP     R0, #0
ROM:A0801FFE 20 69                       LDR     R0, [R4,#0x10]
ROM:A0802000 64 D0                       BEQ     loc_A08020CC
ROM:A0802000
ROM:A0802002 01 04                       LSL     R1, R0, #0x10
ROM:A0802004 09 0C                       LSR     R1, R1, #0x10
ROM:A0802006 A1 87                       STRH    R1, [R4,#0x3C]
ROM:A0802008 05 20                       MOV     R0, #5
ROM:A080200A 20 61                       STR     R0, [R4,#0x10]
ROM:A080200C 70 69                       LDR     R0, [R6,#0x14]
ROM:A080200E 00 28                       CMP     R0, #0
ROM:A0802010 03 D0                       BEQ     loc_A080201A
ROM:A0802010
ROM:A0802012 05 22                       MOV     R2, #5
ROM:A0802014 73 69                       LDR     R3, [R6,#0x14]
ROM:A0802016 20 1C                       ADD     R0, R4, #0
ROM:A0802018 98 47                       BLX     R3
ROM:A0802018
ROM:A080201A
ROM:A080201A             loc_A080201A                            ; CODE XREF: ROM:A0801FEAj
ROM:A080201A                                                     ; ROM:A0801FF6j
ROM:A080201A                                                     ; ROM:A0802010j
ROM:A080201A                                                     ; ROM:A0802058j
ROM:A080201A                                                     ; ROM:A0802062j
ROM:A080201A                                                     ; ROM:A08020C0j ...
ROM:A080201A F8 BD                       POP     {R3-R7,PC}
ROM:A080201A
ROM:A080201C             ; ---------------------------------------------------------------------------
ROM:A080201C
ROM:A080201C             loc_A080201C                            ; CODE XREF: ROM:A0801FF2j
ROM:A080201C 25 1C                       ADD     R5, R4, #0
ROM:A080201E 60 35                       ADD     R5, #0x60
ROM:A0802020 28 88                       LDRH    R0, [R5]
ROM:A0802022 1E F5 8B FB                 BL      sub_A052073C
ROM:A0802022
ROM:A0802026 3D 28                       CMP     R0, #0x3D
ROM:A0802028 1C D1                       BNE     loc_A0802064
ROM:A0802028
ROM:A080202A 00 98                       LDR     R0, [SP]
ROM:A080202C 40 79                       LDRB    R0, [R0,#5]
ROM:A080202E 01 28                       CMP     R0, #1
ROM:A0802030 01 D1                       BNE     loc_A0802036
ROM:A0802030
ROM:A0802032 71 49                       LDR     R1, =0x89F
ROM:A0802034 00 E0                       B       loc_A0802038
ROM:A0802034
ROM:A0802036             ; ---------------------------------------------------------------------------
ROM:A0802036
ROM:A0802036             loc_A0802036                            ; CODE XREF: ROM:A0802030j
ROM:A0802036 71 49                       LDR     R1, =0x1D70
ROM:A0802036
ROM:A0802038
ROM:A0802038             loc_A0802038                            ; CODE XREF: ROM:A0802034j
ROM:A0802038 01 20                       MOV     R0, #1
ROM:A080203A 17 F0 AC EC                 BLX     sub_A0819994
ROM:A080203A
ROM:A080203E A0 63                       STR     R0, [R4,#0x38]
ROM:A0802040 A8 88                       LDRH    R0, [R5,#4]
ROM:A0802042 E1 6C                       LDR     R1, [R4,#0x4C]
ROM:A0802044 40 31                       ADD     R1, #0x40
ROM:A0802046 88 81                       STRH    R0, [R1,#0xC]
ROM:A0802048 20 69                       LDR     R0, [R4,#0x10]
ROM:A080204A 01 04                       LSL     R1, R0, #0x10
ROM:A080204C 09 0C                       LSR     R1, R1, #0x10
ROM:A080204E A1 87                       STRH    R1, [R4,#0x3C]
ROM:A0802050 06 20                       MOV     R0, #6
ROM:A0802052 20 61                       STR     R0, [R4,#0x10]
ROM:A0802054 B0 69                       LDR     R0, [R6,#0x18]
ROM:A0802056 00 28                       CMP     R0, #0
ROM:A0802058 DF D0                       BEQ     loc_A080201A
ROM:A0802058
ROM:A080205A 06 22                       MOV     R2, #6
ROM:A080205C B3 69                       LDR     R3, [R6,#0x18]
ROM:A080205E 20 1C                       ADD     R0, R4, #0
ROM:A0802060 98 47                       BLX     R3
ROM:A0802062 DA E7                       B       loc_A080201A
ROM:A0802062
ROM:A0802064             ; ---------------------------------------------------------------------------
ROM:A0802064
ROM:A0802064             loc_A0802064                            ; CODE XREF: ROM:A0802028j
ROM:A0802064 20 6D                       LDR     R0, [R4,#0x50]
ROM:A0802066 00 28                       CMP     R0, #0
ROM:A0802068 03 D1                       BNE     loc_A0802072
ROM:A0802068
ROM:A080206A 29 88                       LDRH    R1, [R5]
ROM:A080206C 20 6C                       LDR     R0, [R4,#0x40]
ROM:A080206E 19 F0 88 E8                 BLX     sub_A081B180
ROM:A080206E
ROM:A0802072
ROM:A0802072             loc_A0802072                            ; CODE XREF: ROM:A0802068j
ROM:A0802072 20 6C                       LDR     R0, [R4,#0x40]
ROM:A0802074 D0 30                       ADD     R0, #0xD0
ROM:A0802076 00 7B                       LDRB    R0, [R0,#0xC]
ROM:A0802078 00 28                       CMP     R0, #0
ROM:A080207A 16 D0                       BEQ     loc_A08020AA
ROM:A080207A
ROM:A080207C 5C 4D                       LDR     R5, =off_A08D1BBC
ROM:A080207E 0C 3D                       SUB     R5, #0xC
ROM:A0802080 29 1C                       ADD     R1, R5, #0
ROM:A0802082 02 20                       MOV     R0, #2
ROM:A0802084 E0 F4 A6 EA                 BLX     sub_A04E25D4
ROM:A0802084
ROM:A0802088 00 28                       CMP     R0, #0
ROM:A080208A 07 D0                       BEQ     loc_A080209C
ROM:A080208A
ROM:A080208C 02 DF                       SWI     2
ROM:A080208E 3B 1C                       ADD     R3, R7, #0
ROM:A0802090 29 1C                       ADD     R1, R5, #0
ROM:A0802092 03 22                       MOV     R2, #3
ROM:A0802094 02 20                       MOV     R0, #2
ROM:A0802096 E0 F4 86 E9                 BLX     sub_A04E23A4
ROM:A0802096
ROM:A080209A 06 E0                       B       loc_A08020AA
ROM:A080209A
ROM:A080209C             ; ---------------------------------------------------------------------------
ROM:A080209C
ROM:A080209C             loc_A080209C                            ; CODE XREF: ROM:A080208Aj
ROM:A080209C 03 DF                       SWI     3
ROM:A080209E 3B 1C                       ADD     R3, R7, #0
ROM:A08020A0 29 1C                       ADD     R1, R5, #0
ROM:A08020A2 03 22                       MOV     R2, #3
ROM:A08020A4 02 20                       MOV     R0, #2
ROM:A08020A6 E0 F4 EC E9                 BLX     sub_A04E2480
ROM:A08020A6
ROM:A08020AA
ROM:A08020AA             loc_A08020AA                            ; CODE XREF: ROM:A080207Aj
ROM:A08020AA                                                     ; ROM:A080209Aj
ROM:A08020AA 20 6D                       LDR     R0, [R4,#0x50]
ROM:A08020AC 00 28                       CMP     R0, #0
ROM:A08020AE 20 69                       LDR     R0, [R4,#0x10]
ROM:A08020B0 0D D1                       BNE     loc_A08020CE
ROM:A08020B0
ROM:A08020B2 01 04                       LSL     R1, R0, #0x10
ROM:A08020B4 09 0C                       LSR     R1, R1, #0x10
ROM:A08020B6 A1 87                       STRH    R1, [R4,#0x3C]
ROM:A08020B8 01 20                       MOV     R0, #1
ROM:A08020BA 20 61                       STR     R0, [R4,#0x10]
ROM:A08020BC 70 68                       LDR     R0, [R6,#4]
ROM:A08020BE 00 28                       CMP     R0, #0
ROM:A08020C0 AB D0                       BEQ     loc_A080201A
ROM:A08020C0
ROM:A08020C2 01 22                       MOV     R2, #1
ROM:A08020C4 73 68                       LDR     R3, [R6,#4]
ROM:A08020C6 20 1C                       ADD     R0, R4, #0
ROM:A08020C8 98 47                       BLX     R3
ROM:A08020CA A6 E7                       B       loc_A080201A
ROM:A08020CA
ROM:A08020CC             ; ---------------------------------------------------------------------------
ROM:A08020CC
ROM:A08020CC             loc_A08020CC                            ; CODE XREF: ROM:A0802000j
ROM:A08020CC 0C E0                       B       loc_A08020E8
ROM:A08020CC
ROM:A08020CE             ; ---------------------------------------------------------------------------
ROM:A08020CE
ROM:A08020CE             loc_A08020CE                            ; CODE XREF: ROM:A08020B0j
ROM:A08020CE 01 04                       LSL     R1, R0, #0x10
ROM:A08020D0 09 0C                       LSR     R1, R1, #0x10
ROM:A08020D2 A1 87                       STRH    R1, [R4,#0x3C]
ROM:A08020D4 03 20                       MOV     R0, #3
ROM:A08020D6 20 61                       STR     R0, [R4,#0x10]
ROM:A08020D8 F0 68                       LDR     R0, [R6,#0xC]
ROM:A08020DA 00 28                       CMP     R0, #0
ROM:A08020DC 9D D0                       BEQ     loc_A080201A
ROM:A08020DC
ROM:A08020DE 03 22                       MOV     R2, #3
ROM:A08020E0 F3 68                       LDR     R3, [R6,#0xC]
ROM:A08020E2 20 1C                       ADD     R0, R4, #0
ROM:A08020E4 98 47                       BLX     R3
ROM:A08020E6 98 E7                       B       loc_A080201A
ROM:A08020E6
ROM:A08020E8             ; ---------------------------------------------------------------------------
ROM:A08020E8
ROM:A08020E8             loc_A08020E8                            ; CODE XREF: ROM:loc_A08020CCj
ROM:A08020E8 01 04                       LSL     R1, R0, #0x10
ROM:A08020EA 09 0C                       LSR     R1, R1, #0x10
ROM:A08020EC A1 87                       STRH    R1, [R4,#0x3C]
ROM:A08020EE 00 20                       MOV     R0, #0
ROM:A08020F0 20 61                       STR     R0, [R4,#0x10]
ROM:A08020F2 30 68                       LDR     R0, [R6]
ROM:A08020F4 00 28                       CMP     R0, #0
ROM:A08020F6 90 D0                       BEQ     loc_A080201A
ROM:A08020F6
ROM:A08020F8 00 22                       MOV     R2, #0
ROM:A08020FA 33 68                       LDR     R3, [R6]
ROM:A08020FC 20 1C                       ADD     R0, R4, #0
ROM:A08020FE 98 47                       BLX     R3
ROM:A0802100 8B E7                       B       loc_A080201A
ROM:A0802100
ROM:A0802102             ; ---------------------------------------------------------------------------
ROM:A0802102
ROM:A0802102             loc_A0802102                            ; DATA XREF: ROM:off_A08D1C00o
ROM:A0802102 38 B5                       PUSH    {R3-R5,LR}
ROM:A0802104 04 1C                       ADD     R4, R0, #0
ROM:A0802106 00 20                       MOV     R0, #0
ROM:A0802108 C0 43                       MVN     R0, R0
ROM:A080210A 25 1C                       ADD     R5, R4, #0
ROM:A080210C 00 AB                       ADD     R3, SP, #0
ROM:A080210E 18 80                       STRH    R0, [R3]
ROM:A0802110 80 35                       ADD     R5, #0x80
ROM:A0802112 E8 6B                       LDR     R0, [R5,#0x3C]
ROM:A0802114 00 28                       CMP     R0, #0
ROM:A0802116 1D D0                       BEQ     loc_A0802154
ROM:A0802116
ROM:A0802118 69 46                       MOV     R1, SP
ROM:A080211A 20 6C                       LDR     R0, [R4,#0x40]
ROM:A080211C 1E F0 48 EA                 BLX     sub_A08205B0
ROM:A080211C
ROM:A0802120 15 E0                       B       loc_A080214E
ROM:A0802120
ROM:A0802122             ; ---------------------------------------------------------------------------
ROM:A0802122
ROM:A0802122             loc_A0802122                            ; CODE XREF: ROM:A0802150j
ROM:A0802122 00 AB                       ADD     R3, SP, #0
ROM:A0802124 18 88                       LDRH    R0, [R3]
ROM:A0802126 1E F5 09 FB                 BL      sub_A052073C
ROM:A0802126
ROM:A080212A 3D 28                       CMP     R0, #0x3D
ROM:A080212C 0B D1                       BNE     loc_A0802146
ROM:A080212C
ROM:A080212E 00 AB                       ADD     R3, SP, #0
ROM:A0802130 19 88                       LDRH    R1, [R3]
ROM:A0802132 20 6C                       LDR     R0, [R4,#0x40]
ROM:A0802134 1E F0 44 E8                 BLX     sub_A08201C0
ROM:A0802134
ROM:A0802138 00 28                       CMP     R0, #0
ROM:A080213A 04 D0                       BEQ     loc_A0802146
ROM:A080213A
ROM:A080213C 00 AB                       ADD     R3, SP, #0
ROM:A080213E 19 88                       LDRH    R1, [R3]
ROM:A0802140 20 6C                       LDR     R0, [R4,#0x40]
ROM:A0802142 1E F0 44 E8                 BLX     sub_A08201CC
ROM:A0802142
ROM:A0802146
ROM:A0802146             loc_A0802146                            ; CODE XREF: ROM:A080212Cj
ROM:A0802146                                                     ; ROM:A080213Aj
ROM:A0802146 69 46                       MOV     R1, SP
ROM:A0802148 20 6C                       LDR     R0, [R4,#0x40]
ROM:A080214A 1E F0 38 EA                 BLX     sub_A08205BC
ROM:A080214A
ROM:A080214E
ROM:A080214E             loc_A080214E                            ; CODE XREF: ROM:A0802120j
ROM:A080214E 00 28                       CMP     R0, #0
ROM:A0802150 E7 D1                       BNE     loc_A0802122
ROM:A0802150
ROM:A0802152 E8 63                       STR     R0, [R5,#0x3C]
ROM:A0802152
ROM:A0802154
ROM:A0802154             loc_A0802154                            ; CODE XREF: ROM:A0802116j
ROM:A0802154 46 20                       MOV     R0, #0x46
ROM:A0802156 00 5B                       LDRH    R0, [R0,R4]
ROM:A0802158 25 1C                       ADD     R5, R4, #0
ROM:A080215A 60 35                       ADD     R5, #0x60
ROM:A080215C 00 28                       CMP     R0, #0
ROM:A080215E 20 6C                       LDR     R0, [R4,#0x40]
ROM:A0802160 03 D1                       BNE     loc_A080216A
ROM:A0802160
ROM:A0802162 29 1C                       ADD     R1, R5, #0
ROM:A0802164 1E F0 24 EA                 BLX     sub_A08205B0
ROM:A0802164
ROM:A0802168 02 E0                       B       loc_A0802170
ROM:A0802168
ROM:A080216A             ; ---------------------------------------------------------------------------
ROM:A080216A
ROM:A080216A             loc_A080216A                            ; CODE XREF: ROM:A0802160j
ROM:A080216A 29 1C                       ADD     R1, R5, #0
ROM:A080216C 1E F0 26 EA                 BLX     sub_A08205BC
ROM:A080216C
ROM:A0802170
ROM:A0802170             loc_A0802170                            ; CODE XREF: ROM:A0802168j
ROM:A0802170 00 28                       CMP     R0, #0
ROM:A0802172 08 D0                       BEQ     loc_A0802186
ROM:A0802172
ROM:A0802174 29 88                       LDRH    R1, [R5]
ROM:A0802176 20 6C                       LDR     R0, [R4,#0x40]
ROM:A0802178 19 F0 02 E8                 BLX     sub_A081B180
ROM:A0802178
ROM:A080217C 20 49                       LDR     R1, =0x6C8C
ROM:A080217E 20 6C                       LDR     R0, [R4,#0x40]
ROM:A0802180 19 F0 04 E8                 BLX     sub_A081B18C
ROM:A0802180
ROM:A0802184
ROM:A0802184             loc_A0802184                            ; CODE XREF: ROM:A08021A2j
ROM:A0802184 38 BD                       POP     {R3-R5,PC}
ROM:A0802184
ROM:A0802186             ; ---------------------------------------------------------------------------
ROM:A0802186
ROM:A0802186             loc_A0802186                            ; CODE XREF: ROM:A0802172j
ROM:A0802186 9C 20                       MOV     R0, #0x9C
ROM:A0802188 A0 61                       STR     R0, [R4,#0x18]
ROM:A080218A A8 88                       LDRH    R0, [R5,#4]
ROM:A080218C E1 6C                       LDR     R1, [R4,#0x4C]
ROM:A080218E 40 31                       ADD     R1, #0x40
ROM:A0802190 88 81                       STRH    R0, [R1,#0xC]
ROM:A0802192 1C 49                       LDR     R1, =0x1E74
ROM:A0802194 01 20                       MOV     R0, #1
ROM:A0802196 17 F0 FE EB                 BLX     sub_A0819994
ROM:A0802196
ROM:A080219A A0 63                       STR     R0, [R4,#0x38]
ROM:A080219C 02 20                       MOV     R0, #2
ROM:A080219E C0 43                       MVN     R0, R0
ROM:A08021A0 20 61                       STR     R0, [R4,#0x10]
ROM:A08021A2 EF E7                       B       loc_A0802184
ROM:A08021A2
ROM:A08021A4
ROM:A08021A4             ; *************** S U B R O U T I N E ***************************************
ROM:A08021A4
ROM:A08021A4
ROM:A08021A4             sub_A08021A4                            ; CODE XREF: sub_A0802216+5Ap
ROM:A08021A4                                                     ; ROM:A08022BCp
ROM:A08021A4                                                     ; ROM:A0802402p
ROM:A08021A4                                                     ; ROM:A08026B4p
ROM:A08021A4 B0 B5                       PUSH    {R4,R5,R7,LR}
ROM:A08021A6 01 1C                       ADD     R1, R0, #0
ROM:A08021A8 40 31                       ADD     R1, #0x40
ROM:A08021AA 0B 79                       LDRB    R3, [R1,#4]
ROM:A08021AC 02 24                       MOV     R4, #2
ROM:A08021AE 02 1C                       ADD     R2, R0, #0
ROM:A08021B0 60 32                       ADD     R2, #0x60
ROM:A08021B2 E4 43                       MVN     R4, R4
ROM:A08021B4 9C 25                       MOV     R5, #0x9C
ROM:A08021B6 02 2B                       CMP     R3, #2
ROM:A08021B8 26 D1                       BNE     loc_A0802208
ROM:A08021B8
ROM:A08021BA CB 88                       LDRH    R3, [R1,#6]
ROM:A08021BC 01 33                       ADD     R3, #1
ROM:A08021BE 1B 04                       LSL     R3, R3, #0x10
ROM:A08021C0 1B 0C                       LSR     R3, R3, #0x10
ROM:A08021C2 CB 80                       STRH    R3, [R1,#6]
ROM:A08021C4 09 89                       LDRH    R1, [R1,#8]
ROM:A08021C6 8B 42                       CMP     R3, R1
ROM:A08021C8 1E D0                       BEQ     loc_A0802208
ROM:A08021C8
ROM:A08021CA 01 69                       LDR     R1, [R0,#0x10]
ROM:A08021CC 00 22                       MOV     R2, #0
ROM:A08021CE 09 04                       LSL     R1, R1, #0x10
ROM:A08021D0 09 0C                       LSR     R1, R1, #0x10
ROM:A08021D2 81 87                       STRH    R1, [R0,#0x3C]
ROM:A08021D4 02 61                       STR     R2, [R0,#0x10]
ROM:A08021D6 06 4A                       LDR     R2, =off_A08D1BBC
ROM:A08021D8 44 32                       ADD     R2, #0x44
ROM:A08021DA 13 68                       LDR     R3, [R2]
ROM:A08021DC 00 2B                       CMP     R3, #0
ROM:A08021DE 02 D0                       BEQ     loc_A08021E6
ROM:A08021DE
ROM:A08021E0 13 68                       LDR     R3, [R2]
ROM:A08021E2 00 22                       MOV     R2, #0
ROM:A08021E4 98 47                       BLX     R3
ROM:A08021E4
ROM:A08021E6
ROM:A08021E6             loc_A08021E6                            ; CODE XREF: sub_A08021A4+3Aj
ROM:A08021E6 B0 BD                       POP     {R4,R5,R7,PC}
ROM:A08021E6
ROM:A08021E6             ; ---------------------------------------------------------------------------
ROM:A08021E8 93 2F 09 A0 off_A08021E8    DCD sub_A0092F92+1      ; DATA XREF: sub_A0801E0C+22r
ROM:A08021EC 51 2F 09 A0 off_A08021EC    DCD sub_A0092F50+1      ; DATA XREF: sub_A0801E0C+20r
ROM:A08021F0 BC 1B 8D A0 off_A08021F0    DCD off_A08D1BBC        ; DATA XREF: sub_A0801E0C+7Ar
ROM:A08021F0                                                     ; ROM:loc_A0801EEAr
ROM:A08021F0                                                     ; ROM:A0801FB2r
ROM:A08021F0                                                     ; ROM:A0801FECr
ROM:A08021F0                                                     ; ROM:A080207Cr
ROM:A08021F0                                                     ; sub_A08021A4+32r
ROM:A08021F4 10 EC 00 00 dword_A08021F4  DCD 0xEC10              ; DATA XREF: ROM:A0801EF6r
ROM:A08021F4                                                     ; ROM:A0801FACr
ROM:A08021F8 9F 08 00 00 dword_A08021F8  DCD 0x89F               ; DATA XREF: ROM:A0802032r
ROM:A08021FC 70 1D 00 00 dword_A08021FC  DCD 0x1D70              ; DATA XREF: ROM:loc_A0802036r
ROM:A0802200 8C 6C 00 00 dword_A0802200  DCD 0x6C8C              ; DATA XREF: ROM:A080217Cr
ROM:A0802204 74 1E 00 00 dword_A0802204  DCD 0x1E74              ; DATA XREF: ROM:A0802192r
ROM:A0802208             ; ---------------------------------------------------------------------------
ROM:A0802208
ROM:A0802208             loc_A0802208                            ; CODE XREF: sub_A08021A4+14j
ROM:A0802208                                                     ; sub_A08021A4+24j
ROM:A0802208 85 61                       STR     R5, [R0,#0x18]
ROM:A080220A 91 88                       LDRH    R1, [R2,#4]
ROM:A080220C C2 6C                       LDR     R2, [R0,#0x4C]
ROM:A080220E 40 32                       ADD     R2, #0x40
ROM:A0802210 91 81                       STRH    R1, [R2,#0xC]
ROM:A0802212 04 61                       STR     R4, [R0,#0x10]
ROM:A0802214 B0 BD                       POP     {R4,R5,R7,PC}
ROM:A0802214
ROM:A0802214             ; End of function sub_A08021A4
ROM:A0802214
ROM:A0802216
ROM:A0802216             ; *************** S U B R O U T I N E ***************************************
ROM:A0802216
ROM:A0802216
ROM:A0802216             sub_A0802216                            ; CODE XREF: ROM:A08022B4p
ROM:A0802216                                                     ; ROM:A08023F8p
ROM:A0802216 70 B5                       PUSH    {R4-R6,LR}
ROM:A0802218 04 1C                       ADD     R4, R0, #0
ROM:A080221A 00 26                       MOV     R6, #0
ROM:A080221C 00 22                       MOV     R2, #0
ROM:A080221E 1D 21                       MOV     R1, #0x1D
ROM:A0802220 00 6C                       LDR     R0, [R0,#0x40]
ROM:A0802222 17 F0 52 EC                 BLX     sub_A0819AC8
ROM:A0802222
ROM:A0802226 01 1C                       ADD     R1, R0, #0
ROM:A0802228 20 6C                       LDR     R0, [R4,#0x40]
ROM:A080222A DC 22                       MOV     R2, #0xDC
ROM:A080222C 12 5C                       LDRB    R2, [R2,R0]
ROM:A080222E 25 1C                       ADD     R5, R4, #0
ROM:A0802230 68 35                       ADD     R5, #0x68
ROM:A0802232 00 2A                       CMP     R2, #0
ROM:A0802234 06 D1                       BNE     loc_A0802244
ROM:A0802234
ROM:A0802236 17 F0 60 EC                 BLX     sub_A0819AF8
ROM:A0802236
ROM:A080223A 29 1C                       ADD     R1, R5, #0
ROM:A080223C 18 F0 D4 EA                 BLX     sub_A081A7E8
ROM:A080223C
ROM:A0802240 01 26                       MOV     R6, #1
ROM:A0802242 02 E0                       B       loc_A080224A
ROM:A0802242
ROM:A0802244             ; ---------------------------------------------------------------------------
ROM:A0802244
ROM:A0802244             loc_A0802244                            ; CODE XREF: sub_A0802216+1Ej
ROM:A0802244 28 1C                       ADD     R0, R5, #0
ROM:A0802246 1E F0 08 EA                 BLX     sub_A0820658
ROM:A0802246
ROM:A080224A
ROM:A080224A             loc_A080224A                            ; CODE XREF: sub_A0802216+2Cj
ROM:A080224A 25 65                       STR     R5, [R4,#0x50]
ROM:A080224C 01 2E                       CMP     R6, #1
ROM:A080224E 0E D1                       BNE     loc_A080226E
ROM:A080224E
ROM:A0802250 20 69                       LDR     R0, [R4,#0x10]
ROM:A0802252 01 04                       LSL     R1, R0, #0x10
ROM:A0802254 09 0C                       LSR     R1, R1, #0x10
ROM:A0802256 A1 87                       STRH    R1, [R4,#0x3C]
ROM:A0802258 03 20                       MOV     R0, #3
ROM:A080225A 20 61                       STR     R0, [R4,#0x10]
ROM:A080225C F7 48                       LDR     R0, =off_A08D1C00
ROM:A080225E C2 68                       LDR     R2, [R0,#0xC]
ROM:A0802260 00 2A                       CMP     R2, #0
ROM:A0802262 03 D0                       BEQ     loc_A080226C
ROM:A0802262
ROM:A0802264 03 22                       MOV     R2, #3
ROM:A0802266 C3 68                       LDR     R3, [R0,#0xC]
ROM:A0802268 20 1C                       ADD     R0, R4, #0
ROM:A080226A 98 47                       BLX     R3
ROM:A080226A
ROM:A080226C
ROM:A080226C             loc_A080226C                            ; CODE XREF: sub_A0802216+4Cj
ROM:A080226C 70 BD                       POP     {R4-R6,PC}
ROM:A080226C
ROM:A080226E             ; ---------------------------------------------------------------------------
ROM:A080226E
ROM:A080226E             loc_A080226E                            ; CODE XREF: sub_A0802216+38j
ROM:A080226E 20 1C                       ADD     R0, R4, #0
ROM:A0802270 FF F7 98 FF                 BL      sub_A08021A4
ROM:A0802270
ROM:A0802274 70 BD                       POP     {R4-R6,PC}
ROM:A0802274
ROM:A0802274             ; End of function sub_A0802216
ROM:A0802274
ROM:A0802276             ; ---------------------------------------------------------------------------
ROM:A0802276 B0 B5                       PUSH    {R4,R5,R7,LR}
ROM:A0802278 04 1C                       ADD     R4, R0, #0
ROM:A080227A 48 68                       LDR     R0, [R1,#4]
ROM:A080227C F0 4B                       LDR     R3, =0x6CA0
ROM:A080227E 01 25                       MOV     R5, #1
ROM:A0802280 98 42                       CMP     R0, R3
ROM:A0802282 3C D1                       BNE     loc_A08022FE
ROM:A0802282
ROM:A0802284 C9 68                       LDR     R1, [R1,#0xC]
ROM:A0802286 20 6C                       LDR     R0, [R4,#0x40]
ROM:A0802288 81 42                       CMP     R1, R0
ROM:A080228A 38 D1                       BNE     loc_A08022FE
ROM:A080228A
ROM:A080228C D0 30                       ADD     R0, #0xD0
ROM:A080228E 00 7B                       LDRB    R0, [R0,#0xC]
ROM:A0802290 00 25                       MOV     R5, #0
ROM:A0802292 00 28                       CMP     R0, #0
ROM:A0802294 04 D0                       BEQ     loc_A08022A0
ROM:A0802294
ROM:A0802296 E9 1E                       SUB     R1, R5, #3
ROM:A0802298 10 28                       CMP     R0, #0x10
ROM:A080229A 2D D1                       BNE     loc_A08022F8
ROM:A080229A
ROM:A080229C 88 20                       MOV     R0, #0x88
ROM:A080229E 2C E0                       B       loc_A08022FA
ROM:A080229E
ROM:A08022A0             ; ---------------------------------------------------------------------------
ROM:A08022A0
ROM:A08022A0             loc_A08022A0                            ; CODE XREF: ROM:A0802294j
ROM:A08022A0 20 1C                       ADD     R0, R4, #0
ROM:A08022A2 00 F0 63 FB                 BL      sub_A080296C
ROM:A08022A2
ROM:A08022A6 01 28                       CMP     R0, #1
ROM:A08022A8 0B D1                       BNE     loc_A08022C2
ROM:A08022A8
ROM:A08022AA 45 20                       MOV     R0, #0x45
ROM:A08022AC 00 5D                       LDRB    R0, [R0,R4]
ROM:A08022AE 01 28                       CMP     R0, #1
ROM:A08022B0 03 D1                       BNE     loc_A08022BA
ROM:A08022B0
ROM:A08022B2 20 1C                       ADD     R0, R4, #0
ROM:A08022B4 FF F7 AF FF                 BL      sub_A0802216
ROM:A08022B4
ROM:A08022B8 21 E0                       B       loc_A08022FE
ROM:A08022B8
ROM:A08022BA             ; ---------------------------------------------------------------------------
ROM:A08022BA
ROM:A08022BA             loc_A08022BA                            ; CODE XREF: ROM:A08022B0j
ROM:A08022BA 20 1C                       ADD     R0, R4, #0
ROM:A08022BC FF F7 72 FF                 BL      sub_A08021A4
ROM:A08022BC
ROM:A08022C0 1D E0                       B       loc_A08022FE
ROM:A08022C0
ROM:A08022C2             ; ---------------------------------------------------------------------------
ROM:A08022C2
ROM:A08022C2             loc_A08022C2                            ; CODE XREF: ROM:A08022A8j
ROM:A08022C2 E0 6C                       LDR     R0, [R4,#0x4C]
ROM:A08022C4 40 68                       LDR     R0, [R0,#4]
ROM:A08022C6 13 F6 F8 FA                 BL      sub_A06158BA
ROM:A08022C6
ROM:A08022CA 60 20                       MOV     R0, #0x60
ROM:A08022CC 01 5B                       LDRH    R1, [R0,R4]
ROM:A08022CE FF 23                       MOV     R3, #0xFF
ROM:A08022D0 01 22                       MOV     R2, #1
ROM:A08022D2 E0 6C                       LDR     R0, [R4,#0x4C]
ROM:A08022D4 D7 F7 D3 FA                 BL      sub_A07D987E
ROM:A08022D4
ROM:A08022D8 20 63                       STR     R0, [R4,#0x30]
ROM:A08022DA 20 69                       LDR     R0, [R4,#0x10]
ROM:A08022DC 01 04                       LSL     R1, R0, #0x10
ROM:A08022DE 09 0C                       LSR     R1, R1, #0x10
ROM:A08022E0 A1 87                       STRH    R1, [R4,#0x3C]
ROM:A08022E2 02 20                       MOV     R0, #2
ROM:A08022E4 20 61                       STR     R0, [R4,#0x10]
ROM:A08022E6 D5 48                       LDR     R0, =off_A08D1C00
ROM:A08022E8 82 68                       LDR     R2, [R0,#8]
ROM:A08022EA 00 2A                       CMP     R2, #0
ROM:A08022EC 07 D0                       BEQ     loc_A08022FE
ROM:A08022EC
ROM:A08022EE 02 22                       MOV     R2, #2
ROM:A08022F0 83 68                       LDR     R3, [R0,#8]
ROM:A08022F2 20 1C                       ADD     R0, R4, #0
ROM:A08022F4 98 47                       BLX     R3
ROM:A08022F6 02 E0                       B       loc_A08022FE
ROM:A08022F6
ROM:A08022F8             ; ---------------------------------------------------------------------------
ROM:A08022F8
ROM:A08022F8             loc_A08022F8                            ; CODE XREF: ROM:A080229Aj
ROM:A08022F8 87 20                       MOV     R0, #0x87
ROM:A08022F8
ROM:A08022FA
ROM:A08022FA             loc_A08022FA                            ; CODE XREF: ROM:A080229Ej
ROM:A08022FA A0 61                       STR     R0, [R4,#0x18]
ROM:A08022FC 21 61                       STR     R1, [R4,#0x10]
ROM:A08022FC
ROM:A08022FE
ROM:A08022FE             loc_A08022FE                            ; CODE XREF: ROM:A0802282j
ROM:A08022FE                                                     ; ROM:A080228Aj
ROM:A08022FE                                                     ; ROM:A08022B8j
ROM:A08022FE                                                     ; ROM:A08022C0j
ROM:A08022FE                                                     ; ROM:A08022ECj
ROM:A08022FE                                                     ; ROM:A08022F6j
ROM:A08022FE 28 1C                       ADD     R0, R5, #0
ROM:A0802300 B0 BD                       POP     {R4,R5,R7,PC}
ROM:A0802300
ROM:A0802302             ; ---------------------------------------------------------------------------
ROM:A0802302 CF 49                       LDR     R1, =0x6CA0
ROM:A0802304 80 B5                       PUSH    {R7,LR}
ROM:A0802306 00 6C                       LDR     R0, [R0,#0x40]
ROM:A0802308 14 39                       SUB     R1, #0x14
ROM:A080230A 18 F0 40 EF                 BLX     sub_A081B18C
ROM:A080230A
ROM:A080230E 80 BD                       POP     {R7,PC}
ROM:A080230E
ROM:A0802310             ; ---------------------------------------------------------------------------
ROM:A0802310 F8 B5                       PUSH    {R3-R7,LR}
ROM:A0802312 04 1C                       ADD     R4, R0, #0
ROM:A0802314 48 68                       LDR     R0, [R1,#4]
ROM:A0802316 CA 4B                       LDR     R3, =0x6CA0
ROM:A0802318 01 27                       MOV     R7, #1
ROM:A080231A 98 42                       CMP     R0, R3
ROM:A080231C 5B D1                       BNE     loc_A08023D6
ROM:A080231C
ROM:A080231E C9 68                       LDR     R1, [R1,#0xC]
ROM:A0802320 20 6C                       LDR     R0, [R4,#0x40]
ROM:A0802322 81 42                       CMP     R1, R0
ROM:A0802324 57 D1                       BNE     loc_A08023D6
ROM:A0802324
ROM:A0802326 DC 21                       MOV     R1, #0xDC
ROM:A0802328 09 5C                       LDRB    R1, [R1,R0]
ROM:A080232A 00 27                       MOV     R7, #0
ROM:A080232C 00 29                       CMP     R1, #0
ROM:A080232E 66 D1                       BNE     loc_A08023FE
ROM:A080232E
ROM:A0802330 25 1C                       ADD     R5, R4, #0
ROM:A0802332 40 35                       ADD     R5, #0x40
ROM:A0802334 29 79                       LDRB    R1, [R5,#4]
ROM:A0802336 26 1C                       ADD     R6, R4, #0
ROM:A0802338 60 36                       ADD     R6, #0x60
ROM:A080233A 02 29                       CMP     R1, #2
ROM:A080233C 53 D1                       BNE     loc_A08023E6
ROM:A080233C
ROM:A080233E 17 F0 CA EB                 BLX     sub_A0819AD4
ROM:A080233E
ROM:A0802342 01 1C                       ADD     R1, R0, #0
ROM:A0802344 20 6C                       LDR     R0, [R4,#0x40]
ROM:A0802346 1D F0 3C EF                 BLX     sub_A08201C0
ROM:A0802346
ROM:A080234A 00 90                       STR     R0, [SP]
ROM:A080234C 20 6C                       LDR     R0, [R4,#0x40]
ROM:A080234E D0 30                       ADD     R0, #0xD0
ROM:A0802350 00 7B                       LDRB    R0, [R0,#0xC]
ROM:A0802352 00 28                       CMP     R0, #0
ROM:A0802354 17 D0                       BEQ     loc_A0802386
ROM:A0802354
ROM:A0802356 B9 49                       LDR     R1, =off_A08D1C00
ROM:A0802358 50 39                       SUB     R1, #0x50
ROM:A080235A 02 20                       MOV     R0, #2
ROM:A080235C E0 F4 3A E9                 BLX     sub_A04E25D4
ROM:A080235C
ROM:A0802360 00 28                       CMP     R0, #0
ROM:A0802362 08 D0                       BEQ     loc_A0802376
ROM:A0802362
ROM:A0802364 02 DF                       SWI     2
ROM:A0802366 03 22                       MOV     R2, #3
ROM:A0802368 B4 49                       LDR     R1, =off_A08D1C00
ROM:A080236A B6 4B                       LDR     R3, =0xEC10
ROM:A080236C 50 39                       SUB     R1, #0x50
ROM:A080236E 02 20                       MOV     R0, #2
ROM:A0802370 E0 F4 18 E8                 BLX     sub_A04E23A4
ROM:A0802370
ROM:A0802374 07 E0                       B       loc_A0802386
ROM:A0802374
ROM:A0802376             ; ---------------------------------------------------------------------------
ROM:A0802376
ROM:A0802376             loc_A0802376                            ; CODE XREF: ROM:A0802362j
ROM:A0802376 03 DF                       SWI     3
ROM:A0802378 03 22                       MOV     R2, #3
ROM:A080237A B0 49                       LDR     R1, =off_A08D1C00
ROM:A080237C B1 4B                       LDR     R3, =0xEC10
ROM:A080237E 50 39                       SUB     R1, #0x50
ROM:A0802380 02 20                       MOV     R0, #2
ROM:A0802382 E0 F4 7E E8                 BLX     sub_A04E2480
ROM:A0802382
ROM:A0802386
ROM:A0802386             loc_A0802386                            ; CODE XREF: ROM:A0802354j
ROM:A0802386                                                     ; ROM:A0802374j
ROM:A0802386 00 98                       LDR     R0, [SP]
ROM:A0802388 00 28                       CMP     R0, #0
ROM:A080238A 25 D0                       BEQ     loc_A08023D8
ROM:A080238A
ROM:A080238C 20 1C                       ADD     R0, R4, #0
ROM:A080238E 00 F0 ED FA                 BL      sub_A080296C
ROM:A080238E
ROM:A0802392 01 28                       CMP     R0, #1
ROM:A0802394 03 D1                       BNE     loc_A080239E
ROM:A0802394
ROM:A0802396 68 79                       LDRB    R0, [R5,#5]
ROM:A0802398 01 28                       CMP     R0, #1
ROM:A080239A 31 D1                       BNE     loc_A0802400
ROM:A080239A
ROM:A080239C 2B E0                       B       loc_A08023F6
ROM:A080239C
ROM:A080239E             ; ---------------------------------------------------------------------------
ROM:A080239E
ROM:A080239E             loc_A080239E                            ; CODE XREF: ROM:A0802394j
ROM:A080239E E0 6C                       LDR     R0, [R4,#0x4C]
ROM:A08023A0 40 68                       LDR     R0, [R0,#4]
ROM:A08023A2 13 F6 8A FA                 BL      sub_A06158BA
ROM:A08023A2
ROM:A08023A6 20 6C                       LDR     R0, [R4,#0x40]
ROM:A08023A8 17 F0 94 EB                 BLX     sub_A0819AD4
ROM:A08023A8
ROM:A08023AC 01 1C                       ADD     R1, R0, #0
ROM:A08023AE FF 23                       MOV     R3, #0xFF
ROM:A08023B0 01 22                       MOV     R2, #1
ROM:A08023B2 E0 6C                       LDR     R0, [R4,#0x4C]
ROM:A08023B4 D7 F7 63 FA                 BL      sub_A07D987E
ROM:A08023B4
ROM:A08023B8 20 63                       STR     R0, [R4,#0x30]
ROM:A08023BA 20 69                       LDR     R0, [R4,#0x10]
ROM:A08023BC 01 04                       LSL     R1, R0, #0x10
ROM:A08023BE 09 0C                       LSR     R1, R1, #0x10
ROM:A08023C0 A1 87                       STRH    R1, [R4,#0x3C]
ROM:A08023C2 02 20                       MOV     R0, #2
ROM:A08023C4 20 61                       STR     R0, [R4,#0x10]
ROM:A08023C6 9D 48                       LDR     R0, =off_A08D1C00
ROM:A08023C8 82 68                       LDR     R2, [R0,#8]
ROM:A08023CA 00 2A                       CMP     R2, #0
ROM:A08023CC 03 D0                       BEQ     loc_A08023D6
ROM:A08023CC
ROM:A08023CE 02 22                       MOV     R2, #2
ROM:A08023D0 83 68                       LDR     R3, [R0,#8]
ROM:A08023D2 20 1C                       ADD     R0, R4, #0
ROM:A08023D4 98 47                       BLX     R3
ROM:A08023D4
ROM:A08023D6
ROM:A08023D6             loc_A08023D6                            ; CODE XREF: ROM:A080231Cj
ROM:A08023D6                                                     ; ROM:A0802324j
ROM:A08023D6                                                     ; ROM:A08023CCj
ROM:A08023D6 36 E0                       B       loc_A0802446
ROM:A08023D6
ROM:A08023D8             ; ---------------------------------------------------------------------------
ROM:A08023D8
ROM:A08023D8             loc_A08023D8                            ; CODE XREF: ROM:A080238Aj
ROM:A08023D8 9C 20                       MOV     R0, #0x9C
ROM:A08023DA A0 61                       STR     R0, [R4,#0x18]
ROM:A08023DC B0 88                       LDRH    R0, [R6,#4]
ROM:A08023DE E1 6C                       LDR     R1, [R4,#0x4C]
ROM:A08023E0 40 31                       ADD     R1, #0x40
ROM:A08023E2 88 81                       STRH    R0, [R1,#0xC]
ROM:A08023E4 2C E0                       B       loc_A0802440
ROM:A08023E4
ROM:A08023E6             ; ---------------------------------------------------------------------------
ROM:A08023E6
ROM:A08023E6             loc_A08023E6                            ; CODE XREF: ROM:A080233Cj
ROM:A08023E6 20 1C                       ADD     R0, R4, #0
ROM:A08023E8 00 F0 C0 FA                 BL      sub_A080296C
ROM:A08023E8
ROM:A08023EC 01 28                       CMP     R0, #1
ROM:A08023EE 0B D1                       BNE     loc_A0802408
ROM:A08023EE
ROM:A08023F0 68 79                       LDRB    R0, [R5,#5]
ROM:A08023F2 01 28                       CMP     R0, #1
ROM:A08023F4 04 D1                       BNE     loc_A0802400
ROM:A08023F4
ROM:A08023F6
ROM:A08023F6             loc_A08023F6                            ; CODE XREF: ROM:A080239Cj
ROM:A08023F6 20 1C                       ADD     R0, R4, #0
ROM:A08023F8 FF F7 0D FF                 BL      sub_A0802216
ROM:A08023F8
ROM:A08023FC 23 E0                       B       loc_A0802446
ROM:A08023FC
ROM:A08023FE             ; ---------------------------------------------------------------------------
ROM:A08023FE
ROM:A08023FE             loc_A08023FE                            ; CODE XREF: ROM:A080232Ej
ROM:A08023FE 1D E0                       B       loc_A080243C
ROM:A08023FE
ROM:A0802400             ; ---------------------------------------------------------------------------
ROM:A0802400
ROM:A0802400             loc_A0802400                            ; CODE XREF: ROM:A080239Aj
ROM:A0802400                                                     ; ROM:A08023F4j
ROM:A0802400 20 1C                       ADD     R0, R4, #0
ROM:A0802402 FF F7 CF FE                 BL      sub_A08021A4
ROM:A0802402
ROM:A0802406 1E E0                       B       loc_A0802446
ROM:A0802406
ROM:A0802408             ; ---------------------------------------------------------------------------
ROM:A0802408
ROM:A0802408             loc_A0802408                            ; CODE XREF: ROM:A08023EEj
ROM:A0802408 E0 6C                       LDR     R0, [R4,#0x4C]
ROM:A080240A 40 68                       LDR     R0, [R0,#4]
ROM:A080240C 13 F6 55 FA                 BL      sub_A06158BA
ROM:A080240C
ROM:A0802410 31 88                       LDRH    R1, [R6]
ROM:A0802412 FF 23                       MOV     R3, #0xFF
ROM:A0802414 01 22                       MOV     R2, #1
ROM:A0802416 E0 6C                       LDR     R0, [R4,#0x4C]
ROM:A0802418 D7 F7 31 FA                 BL      sub_A07D987E
ROM:A0802418
ROM:A080241C 20 63                       STR     R0, [R4,#0x30]
ROM:A080241E 20 69                       LDR     R0, [R4,#0x10]
ROM:A0802420 01 04                       LSL     R1, R0, #0x10
ROM:A0802422 09 0C                       LSR     R1, R1, #0x10
ROM:A0802424 A1 87                       STRH    R1, [R4,#0x3C]
ROM:A0802426 02 20                       MOV     R0, #2
ROM:A0802428 20 61                       STR     R0, [R4,#0x10]
ROM:A080242A 84 48                       LDR     R0, =off_A08D1C00
ROM:A080242C 82 68                       LDR     R2, [R0,#8]
ROM:A080242E 00 2A                       CMP     R2, #0
ROM:A0802430 09 D0                       BEQ     loc_A0802446
ROM:A0802430
ROM:A0802432 02 22                       MOV     R2, #2
ROM:A0802434 83 68                       LDR     R3, [R0,#8]
ROM:A0802436 20 1C                       ADD     R0, R4, #0
ROM:A0802438 98 47                       BLX     R3
ROM:A080243A 04 E0                       B       loc_A0802446
ROM:A080243A
ROM:A080243C             ; ---------------------------------------------------------------------------
ROM:A080243C
ROM:A080243C             loc_A080243C                            ; CODE XREF: ROM:loc_A08023FEj
ROM:A080243C 87 20                       MOV     R0, #0x87
ROM:A080243E A0 61                       STR     R0, [R4,#0x18]
ROM:A080243E
ROM:A0802440
ROM:A0802440             loc_A0802440                            ; CODE XREF: ROM:A08023E4j
ROM:A0802440 02 20                       MOV     R0, #2
ROM:A0802442 C0 43                       MVN     R0, R0
ROM:A0802444 20 61                       STR     R0, [R4,#0x10]
ROM:A0802444
ROM:A0802446
ROM:A0802446             loc_A0802446                            ; CODE XREF: ROM:loc_A08023D6j
ROM:A0802446                                                     ; ROM:A08023FCj
ROM:A0802446                                                     ; ROM:A0802406j
ROM:A0802446                                                     ; ROM:A0802430j
ROM:A0802446                                                     ; ROM:A080243Aj
ROM:A0802446 38 1C                       ADD     R0, R7, #0
ROM:A0802448 F8 BD                       POP     {R3-R7,PC}
ROM:A0802448
ROM:A080244A             ; ---------------------------------------------------------------------------
ROM:A080244A 70 47                       BX      LR
ROM:A080244A
ROM:A080244C             ; ---------------------------------------------------------------------------
ROM:A080244C F8 B5                       PUSH    {R3-R7,LR}
ROM:A080244E 04 1C                       ADD     R4, R0, #0
ROM:A0802450 48 68                       LDR     R0, [R1,#4]
ROM:A0802452 19 23 9B 02                 MOVL    R3, 0x6400
ROM:A0802456 00 25                       MOV     R5, #0
ROM:A0802458 98 42                       CMP     R0, R3
ROM:A080245A 4D D1                       BNE     loc_A08024F8
ROM:A080245A
ROM:A080245C 20 6B                       LDR     R0, [R4,#0x30]
ROM:A080245E CA 68                       LDR     R2, [R1,#0xC]
ROM:A0802460 90 42                       CMP     R0, R2
ROM:A0802462 40 D1                       BNE     loc_A08024E6
ROM:A0802462
ROM:A0802464 00 23                       MOV     R3, #0
ROM:A0802466 23 63                       STR     R3, [R4,#0x30]
ROM:A0802468 09 69                       LDR     R1, [R1,#0x10]
ROM:A080246A 74 4E                       LDR     R6, =off_A08D1C00
ROM:A080246C 85 29                       CMP     R1, #0x85
ROM:A080246E 1C D1                       BNE     loc_A08024AA
ROM:A080246E
ROM:A0802470 E0 6C                       LDR     R0, [R4,#0x4C]
ROM:A0802472 00 21                       MOV     R1, #0
ROM:A0802474 40 68                       LDR     R0, [R0,#4]
ROM:A0802476 13 F6 1D FB                 BL      sub_A0615AB4
ROM:A0802476
ROM:A080247A 20 65                       STR     R0, [R4,#0x50]
ROM:A080247C 18 F0 BA E9                 BLX     sub_A081A7F4
ROM:A080247C
ROM:A0802480 00 28                       CMP     R0, #0
ROM:A0802482 04 D1                       BNE     loc_A080248E
ROM:A0802482
ROM:A0802484 70 49                       LDR     R1, =0x17DC
ROM:A0802486 01 20                       MOV     R0, #1
ROM:A0802488 18 F0 5A E9                 BLX     sub_A081A740
ROM:A0802488
ROM:A080248C A0 63                       STR     R0, [R4,#0x38]
ROM:A080248C
ROM:A080248E
ROM:A080248E             loc_A080248E                            ; CODE XREF: ROM:A0802482j
ROM:A080248E 20 69                       LDR     R0, [R4,#0x10]
ROM:A0802490 01 04                       LSL     R1, R0, #0x10
ROM:A0802492 09 0C                       LSR     R1, R1, #0x10
ROM:A0802494 A1 87                       STRH    R1, [R4,#0x3C]
ROM:A0802496 03 20                       MOV     R0, #3
ROM:A0802498 20 61                       STR     R0, [R4,#0x10]
ROM:A080249A F0 68                       LDR     R0, [R6,#0xC]
ROM:A080249C 00 28                       CMP     R0, #0
ROM:A080249E 22 D0                       BEQ     loc_A08024E6
ROM:A080249E
ROM:A08024A0 03 22                       MOV     R2, #3
ROM:A08024A2 F3 68                       LDR     R3, [R6,#0xC]
ROM:A08024A4 20 1C                       ADD     R0, R4, #0
ROM:A08024A6 98 47                       BLX     R3
ROM:A08024A8 1D E0                       B       loc_A08024E6
ROM:A08024A8
ROM:A08024AA             ; ---------------------------------------------------------------------------
ROM:A08024AA
ROM:A08024AA             loc_A08024AA                            ; CODE XREF: ROM:A080246Ej
ROM:A08024AA 02 27                       MOV     R7, #2
ROM:A08024AC 20 1C                       ADD     R0, R4, #0
ROM:A08024AE 60 30                       ADD     R0, #0x60
ROM:A08024B0 FF 43                       MVN     R7, R7
ROM:A08024B2 84 29                       CMP     R1, #0x84
ROM:A08024B4 18 D1                       BNE     loc_A08024E8
ROM:A08024B4
ROM:A08024B6 21 1C                       ADD     R1, R4, #0
ROM:A08024B8 40 31                       ADD     R1, #0x40
ROM:A08024BA CA 88                       LDRH    R2, [R1,#6]
ROM:A08024BC 01 32                       ADD     R2, #1
ROM:A08024BE 12 04                       LSL     R2, R2, #0x10
ROM:A08024C0 12 0C                       LSR     R2, R2, #0x10
ROM:A08024C2 CA 80                       STRH    R2, [R1,#6]
ROM:A08024C4 09 89                       LDRH    R1, [R1,#8]
ROM:A08024C6 8A 42                       CMP     R2, R1
ROM:A08024C8 01 D1                       BNE     loc_A08024CE
ROM:A08024C8
ROM:A08024CA 9C 21                       MOV     R1, #0x9C
ROM:A08024CC 0D E0                       B       loc_A08024EA
ROM:A08024CC
ROM:A08024CE             ; ---------------------------------------------------------------------------
ROM:A08024CE
ROM:A08024CE             loc_A08024CE                            ; CODE XREF: ROM:A08024C8j
ROM:A08024CE 20 69                       LDR     R0, [R4,#0x10]
ROM:A08024D0 01 04                       LSL     R1, R0, #0x10
ROM:A08024D2 09 0C                       LSR     R1, R1, #0x10
ROM:A08024D4 A1 87                       STRH    R1, [R4,#0x3C]
ROM:A08024D6 23 61                       STR     R3, [R4,#0x10]
ROM:A08024D8 30 68                       LDR     R0, [R6]
ROM:A08024DA 00 28                       CMP     R0, #0
ROM:A08024DC 03 D0                       BEQ     loc_A08024E6
ROM:A08024DC
ROM:A08024DE 00 22                       MOV     R2, #0
ROM:A08024E0 33 68                       LDR     R3, [R6]
ROM:A08024E2 20 1C                       ADD     R0, R4, #0
ROM:A08024E4 98 47                       BLX     R3
ROM:A08024E4
ROM:A08024E6
ROM:A08024E6             loc_A08024E6                            ; CODE XREF: ROM:A0802462j
ROM:A08024E6                                                     ; ROM:A080249Ej
ROM:A08024E6                                                     ; ROM:A08024A8j
ROM:A08024E6                                                     ; ROM:A08024DCj
ROM:A08024E6 08 E0                       B       loc_A08024FA
ROM:A08024E6
ROM:A08024E8             ; ---------------------------------------------------------------------------
ROM:A08024E8
ROM:A08024E8             loc_A08024E8                            ; CODE XREF: ROM:A08024B4j
ROM:A08024E8 80 21                       MOV     R1, #0x80
ROM:A08024E8
ROM:A08024EA
ROM:A08024EA             loc_A08024EA                            ; CODE XREF: ROM:A08024CCj
ROM:A08024EA A1 61                       STR     R1, [R4,#0x18]
ROM:A08024EC 80 88                       LDRH    R0, [R0,#4]
ROM:A08024EE E1 6C                       LDR     R1, [R4,#0x4C]
ROM:A08024F0 40 31                       ADD     R1, #0x40
ROM:A08024F2 88 81                       STRH    R0, [R1,#0xC]
ROM:A08024F4 27 61                       STR     R7, [R4,#0x10]
ROM:A08024F6 00 E0                       B       loc_A08024FA
ROM:A08024F6
ROM:A08024F8             ; ---------------------------------------------------------------------------
ROM:A08024F8
ROM:A08024F8             loc_A08024F8                            ; CODE XREF: ROM:A080245Aj
ROM:A08024F8 01 25                       MOV     R5, #1
ROM:A08024F8
ROM:A08024FA
ROM:A08024FA             loc_A08024FA                            ; CODE XREF: ROM:loc_A08024E6j
ROM:A08024FA                                                     ; ROM:A08024F6j
ROM:A08024FA 28 1C                       ADD     R0, R5, #0
ROM:A08024FC F8 BD                       POP     {R3-R7,PC}
ROM:A08024FC
ROM:A08024FE
ROM:A08024FE             ; *************** S U B R O U T I N E ***************************************
ROM:A08024FE
ROM:A08024FE
ROM:A08024FE             sub_A08024FE                            ; CODE XREF: ROM:A0802608p
ROM:A08024FE
ROM:A08024FE             var_30          = -0x30
ROM:A08024FE             var_2C          = -0x2C
ROM:A08024FE             var_28          = -0x28
ROM:A08024FE             var_20          = -0x20
ROM:A08024FE             var_1C          = -0x1C
ROM:A08024FE             var_18          = -0x18
ROM:A08024FE
ROM:A08024FE FF B5                       PUSH    {R0-R7,LR}
ROM:A0802500 06 1C                       ADD     R6, R0, #0
ROM:A0802502 00 20                       MOV     R0, #0
ROM:A0802504 83 B0                       SUB     SP, SP, #0xC
ROM:A0802506 01 90                       STR     R0, [SP,#0x30+var_2C]
ROM:A0802508 00 90                       STR     R0, [SP,#0x30+var_30]
ROM:A080250A 04 98                       LDR     R0, [SP,#0x30+var_20]
ROM:A080250C 00 21                       MOV     R1, #0
ROM:A080250E 00 27                       MOV     R7, #0
ROM:A0802510 00 25                       MOV     R5, #0
ROM:A0802512 00 24                       MOV     R4, #0
ROM:A0802514 00 28                       CMP     R0, #0
ROM:A0802516 02 91                       STR     R1, [SP,#0x30+var_28]
ROM:A0802518 03 D0                       BEQ     loc_A0802522
ROM:A0802518
ROM:A080251A 04 98                       LDR     R0, [SP,#0x30+var_20]
ROM:A080251C 0D F5 03 FE                 BL      sub_A0510126
ROM:A080251C
ROM:A0802520 05 1C                       ADD     R5, R0, #0
ROM:A0802520
ROM:A0802522
ROM:A0802522             loc_A0802522                            ; CODE XREF: sub_A08024FE+1Aj
ROM:A0802522 05 98                       LDR     R0, [SP,#0x30+var_1C]
ROM:A0802524 00 28                       CMP     R0, #0
ROM:A0802526 03 D0                       BEQ     loc_A0802530
ROM:A0802526
ROM:A0802528 05 98                       LDR     R0, [SP,#0x30+var_1C]
ROM:A080252A 0D F5 FC FD                 BL      sub_A0510126
ROM:A080252A
ROM:A080252E 07 1C                       ADD     R7, R0, #0
ROM:A080252E
ROM:A0802530
ROM:A0802530             loc_A0802530                            ; CODE XREF: sub_A08024FE+28j
ROM:A0802530 00 2D                       CMP     R5, #0
ROM:A0802532 0B DD                       BLE     loc_A080254C
ROM:A0802532
ROM:A0802534 00 2F                       CMP     R7, #0
ROM:A0802536 09 DD                       BLE     loc_A080254C
ROM:A0802536
ROM:A0802538 06 98                       LDR     R0, [SP,#0x30+var_18]
ROM:A080253A 40 1B                       SUB     R0, R0, R5
ROM:A080253C 03 28                       CMP     R0, #3
ROM:A080253E 01 DB                       BLT     loc_A0802544
ROM:A080253E
ROM:A0802540 01 21                       MOV     R1, #1
ROM:A0802542 02 91                       STR     R1, [SP,#0x30+var_28]
ROM:A0802542
ROM:A0802544
ROM:A0802544             loc_A0802544                            ; CODE XREF: sub_A08024FE+40j
ROM:A0802544 02 28                       CMP     R0, #2
ROM:A0802546 01 DB                       BLT     loc_A080254C
ROM:A0802546
ROM:A0802548 01 20                       MOV     R0, #1
ROM:A080254A 01 90                       STR     R0, [SP,#0x30+var_2C]
ROM:A080254A
ROM:A080254C
ROM:A080254C             loc_A080254C                            ; CODE XREF: sub_A08024FE+34j
ROM:A080254C                                                     ; sub_A08024FE+38j
ROM:A080254C                                                     ; sub_A08024FE+48j
ROM:A080254C 06 98                       LDR     R0, [SP,#0x30+var_18]
ROM:A080254E 40 1B                       SUB     R0, R0, R5
ROM:A0802550 00 28                       CMP     R0, #0
ROM:A0802552 01 DC                       BGT     loc_A0802558
ROM:A0802552
ROM:A0802554 06 9D                       LDR     R5, [SP,#0x30+var_18]
ROM:A0802556 0D E0                       B       loc_A0802574
ROM:A0802556
ROM:A0802558             ; ---------------------------------------------------------------------------
ROM:A0802558
ROM:A0802558             loc_A0802558                            ; CODE XREF: sub_A08024FE+54j
ROM:A0802558 02 99                       LDR     R1, [SP,#0x30+var_28]
ROM:A080255A 40 1A                       SUB     R0, R0, R1
ROM:A080255C 01 99                       LDR     R1, [SP,#0x30+var_2C]
ROM:A080255E 44 1A                       SUB     R4, R0, R1
ROM:A0802560 BC 42                       CMP     R4, R7
ROM:A0802562 00 DD                       BLE     loc_A0802566
ROM:A0802562
ROM:A0802564 3C 1C                       ADD     R4, R7, #0
ROM:A0802564
ROM:A0802566
ROM:A0802566             loc_A0802566                            ; CODE XREF: sub_A08024FE+64j
ROM:A0802566 BC 42                       CMP     R4, R7
ROM:A0802568 04 DA                       BGE     loc_A0802574
ROM:A0802568
ROM:A080256A 01 2C                       CMP     R4, #1
ROM:A080256C 02 DD                       BLE     loc_A0802574
ROM:A080256C
ROM:A080256E 01 3C                       SUB     R4, #1
ROM:A0802570 01 20                       MOV     R0, #1
ROM:A0802572 00 90                       STR     R0, [SP,#0x30+var_30]
ROM:A0802572
ROM:A0802574
ROM:A0802574             loc_A0802574                            ; CODE XREF: sub_A08024FE+58j
ROM:A0802574                                                     ; sub_A08024FE+6Aj
ROM:A0802574                                                     ; sub_A08024FE+6Ej
ROM:A0802574 00 21                       MOV     R1, #0
ROM:A0802576 30 1C                       ADD     R0, R6, #0
ROM:A0802578 0E F5 CA FA                 BL      sub_A0510B10
ROM:A0802578
ROM:A080257C 00 2D                       CMP     R5, #0
ROM:A080257E 04 DD                       BLE     loc_A080258A
ROM:A080257E
ROM:A0802580 2A 1C                       ADD     R2, R5, #0
ROM:A0802582 30 1C                       ADD     R0, R6, #0
ROM:A0802584 04 99                       LDR     R1, [SP,#0x30+var_20]
ROM:A0802586 0E F5 9B F9                 BL      sub_A05108C0
ROM:A0802586
ROM:A080258A
ROM:A080258A             loc_A080258A                            ; CODE XREF: sub_A08024FE+80j
ROM:A080258A 02 99                       LDR     R1, [SP,#0x30+var_28]
ROM:A080258C 00 29                       CMP     R1, #0
ROM:A080258E 03 D0                       BEQ     loc_A0802598
ROM:A080258E
ROM:A0802590 2C 21                       MOV     R1, #0x2C
ROM:A0802592 30 1C                       ADD     R0, R6, #0
ROM:A0802594 0E F5 0A FA                 BL      sub_A05109AC
ROM:A0802594
ROM:A0802598
ROM:A0802598             loc_A0802598                            ; CODE XREF: sub_A08024FE+90j
ROM:A0802598 01 98                       LDR     R0, [SP,#0x30+var_2C]
ROM:A080259A 00 28                       CMP     R0, #0
ROM:A080259C 03 D0                       BEQ     loc_A08025A6
ROM:A080259C
ROM:A080259E 20 21                       MOV     R1, #0x20
ROM:A08025A0 30 1C                       ADD     R0, R6, #0
ROM:A08025A2 0E F5 03 FA                 BL      sub_A05109AC
ROM:A08025A2
ROM:A08025A6
ROM:A08025A6             loc_A08025A6                            ; CODE XREF: sub_A08024FE+9Ej
ROM:A08025A6 00 2C                       CMP     R4, #0
ROM:A08025A8 04 DD                       BLE     loc_A08025B4
ROM:A08025A8
ROM:A08025AA 22 1C                       ADD     R2, R4, #0
ROM:A08025AC 30 1C                       ADD     R0, R6, #0
ROM:A08025AE 05 99                       LDR     R1, [SP,#0x30+var_1C]
ROM:A08025B0 0E F5 B2 F9                 BL      sub_A0510918
ROM:A08025B0
ROM:A08025B4
ROM:A08025B4             loc_A08025B4                            ; CODE XREF: sub_A08024FE+AAj
ROM:A08025B4 00 98                       LDR     R0, [SP,#0x30+var_30]
ROM:A08025B6 00 28                       CMP     R0, #0
ROM:A08025B8 03 D0                       BEQ     loc_A08025C2
ROM:A08025B8
ROM:A08025BA 2E 21                       MOV     R1, #0x2E
ROM:A08025BC 30 1C                       ADD     R0, R6, #0
ROM:A08025BE 0E F5 F5 F9                 BL      sub_A05109AC
ROM:A08025BE
ROM:A08025C2
ROM:A08025C2             loc_A08025C2                            ; CODE XREF: sub_A08024FE+BAj
ROM:A08025C2 07 B0                       ADD     SP, SP, #0x1C
ROM:A08025C4 F0 BD                       POP     {R4-R7,PC}
ROM:A08025C4
ROM:A08025C4             ; End of function sub_A08024FE
ROM:A08025C4
ROM:A08025C6             ; ---------------------------------------------------------------------------
ROM:A08025C6 70 B5                       PUSH    {R4-R6,LR}
ROM:A08025C8 9C B0                       SUB     SP, SP, #0x70
ROM:A08025CA 04 1C                       ADD     R4, R0, #0
ROM:A08025CC 06 A8                       ADD     R0, SP, #0x18
ROM:A08025CE 21 22                       MOV     R2, #0x21
ROM:A08025D0 0B A9                       ADD     R1, SP, #0x2C
ROM:A08025D2 0E F5 AC F8                 BL      sub_A051072E
ROM:A08025D2
ROM:A08025D6 05 1C                       ADD     R5, R0, #0
ROM:A08025D8 20 1C                       ADD     R0, R4, #0
ROM:A08025DA 00 F0 C7 F9                 BL      sub_A080296C
ROM:A08025DA
ROM:A08025DE 00 28                       CMP     R0, #0
ROM:A08025E0 18 D1                       BNE     loc_A0802614
ROM:A08025E0
ROM:A08025E2 21 1C                       ADD     R1, R4, #0
ROM:A08025E4 50 31                       ADD     R1, #0x50
ROM:A08025E6 20 6C                       LDR     R0, [R4,#0x40]
ROM:A08025E8 FF F7 9A FC                 BL      sub_A0801F20
ROM:A08025E8
ROM:A08025EC 00 20                       MOV     R0, #0
ROM:A08025EE 1E F0 3A E8                 BLX     sub_A0820664
ROM:A08025EE
ROM:A08025F2 1E F0 3E E8                 BLX     sub_A0820670
ROM:A08025F2
ROM:A08025F6 06 1C                       ADD     R6, R0, #0
ROM:A08025F8 20 6D                       LDR     R0, [R4,#0x50]
ROM:A08025FA 04 21                       MOV     R1, #4
ROM:A08025FC 18 F0 1E E9                 BLX     sub_A081A83C
ROM:A08025FC
ROM:A0802600 33 1C                       ADD     R3, R6, #0
ROM:A0802602 A1 6D                       LDR     R1, [R4,#0x58]
ROM:A0802604 62 6D                       LDR     R2, [R4,#0x54]
ROM:A0802606 28 1C                       ADD     R0, R5, #0
ROM:A0802608 FF F7 79 FF                 BL      sub_A08024FE
ROM:A0802608
ROM:A080260C 29 1C                       ADD     R1, R5, #0
ROM:A080260E 20 6D                       LDR     R0, [R4,#0x50]
ROM:A0802610 1D F0 A0 EE                 BLX     sub_A0820354
ROM:A0802610
ROM:A0802614
ROM:A0802614             loc_A0802614                            ; CODE XREF: ROM:A08025E0j
ROM:A0802614 00 21                       MOV     R1, #0
ROM:A0802616 20 6D                       LDR     R0, [R4,#0x50]
ROM:A0802618 18 F0 16 E9                 BLX     sub_A081A848
ROM:A0802618
ROM:A080261C 20 6D                       LDR     R0, [R4,#0x50]
ROM:A080261E 1C F0 48 E8                 BLX     sub_A081E6B0
ROM:A080261E
ROM:A0802622 1E F0 2C E8                 BLX     sub_A082067C
ROM:A0802622
ROM:A0802626 28 28                       CMP     R0, #0x28
ROM:A0802628 17 D2                       BCS     loc_A080265A
ROM:A0802628
ROM:A080262A 20 6D                       LDR     R0, [R4,#0x50]
ROM:A080262C 18 F0 E2 E8                 BLX     sub_A081A7F4
ROM:A080262C
ROM:A0802630 14 28                       CMP     R0, #0x14
ROM:A0802632 12 D9                       BLS     loc_A080265A
ROM:A0802632
ROM:A0802634 14 22                       MOV     R2, #0x14
ROM:A0802636 69 46                       MOV     R1, SP
ROM:A0802638 20 6D                       LDR     R0, [R4,#0x50]
ROM:A080263A 07 E0                       B       loc_A080264C
ROM:A080263A
ROM:A080263A             ; ---------------------------------------------------------------------------
ROM:A080263C 00 1C 8D A0 off_A080263C    DCD off_A08D1C00        ; DATA XREF: sub_A0802216+46r
ROM:A080263C                                                     ; ROM:A08022E6r
ROM:A080263C                                                     ; ROM:A0802356r
ROM:A080263C                                                     ; ROM:A0802368r
ROM:A080263C                                                     ; ROM:A080237Ar
ROM:A080263C                                                     ; ROM:A08023C6r ...
ROM:A0802640 A0 6C 00 00 dword_A0802640  DCD 0x6CA0              ; DATA XREF: ROM:A080227Cr
ROM:A0802640                                                     ; ROM:A0802302r
ROM:A0802640                                                     ; ROM:A0802316r
ROM:A0802644 10 EC 00 00 dword_A0802644  DCD 0xEC10              ; DATA XREF: ROM:A080236Ar
ROM:A0802644                                                     ; ROM:A080237Cr
ROM:A0802648 DC 17 00 00 dword_A0802648  DCD 0x17DC              ; DATA XREF: ROM:A0802484r
ROM:A080264C             ; ---------------------------------------------------------------------------
ROM:A080264C
ROM:A080264C             loc_A080264C                            ; CODE XREF: ROM:A080263Aj
ROM:A080264C 18 F0 3E E9                 BLX     sub_A081A8CC
ROM:A080264C
ROM:A0802650 14 22                       MOV     R2, #0x14
ROM:A0802652 69 46                       MOV     R1, SP
ROM:A0802654 20 6D                       LDR     R0, [R4,#0x50]
ROM:A0802656 18 F0 DA E8                 BLX     sub_A081A80C
ROM:A0802656
ROM:A080265A
ROM:A080265A             loc_A080265A                            ; CODE XREF: ROM:A0802628j
ROM:A080265A                                                     ; ROM:A0802632j
ROM:A080265A E2 6C                       LDR     R2, [R4,#0x4C]
ROM:A080265C 00 92                       STR     R2, [SP]
ROM:A080265E 23 6D                       LDR     R3, [R4,#0x50]
ROM:A0802660 00 22                       MOV     R2, #0
ROM:A0802662 01 20                       MOV     R0, #1
ROM:A0802664 19 78                       LDRB    R1, [R3]
ROM:A0802666 DB F7 DD FB                 BL      sub_A07DDE24
ROM:A0802666
ROM:A080266A E0 62                       STR     R0, [R4,#0x2C]
ROM:A080266C 1C B0                       ADD     SP, SP, #0x70
ROM:A080266E 70 BD                       POP     {R4-R6,PC}
ROM:A080266E
ROM:A0802670             ; ---------------------------------------------------------------------------
ROM:A0802670 F8 B5                       PUSH    {R3-R7,LR}
ROM:A0802672 04 1C                       ADD     R4, R0, #0
ROM:A0802674 48 68                       LDR     R0, [R1,#4]
ROM:A0802676 19 23 9B 02                 MOVL    R3, 0x6400
ROM:A080267A 01 27                       MOV     R7, #1
ROM:A080267C 0E 1C                       ADD     R6, R1, #0
ROM:A080267E 98 42                       CMP     R0, R3
ROM:A0802680 4A D1                       BNE     loc_A0802718
ROM:A0802680
ROM:A0802682 E0 6A                       LDR     R0, [R4,#0x2C]
ROM:A0802684 F1 68                       LDR     R1, [R6,#0xC]
ROM:A0802686 88 42                       CMP     R0, R1
ROM:A0802688 46 D1                       BNE     loc_A0802718
ROM:A0802688
ROM:A080268A 00 20                       MOV     R0, #0
ROM:A080268C 25 1C                       ADD     R5, R4, #0
ROM:A080268E 40 35                       ADD     R5, #0x40
ROM:A0802690 E0 62                       STR     R0, [R4,#0x2C]
ROM:A0802692 E8 88                       LDRH    R0, [R5,#6]
ROM:A0802694 00 27                       MOV     R7, #0
ROM:A0802696 01 30                       ADD     R0, #1
ROM:A0802698 01 04                       LSL     R1, R0, #0x10
ROM:A080269A 09 0C                       LSR     R1, R1, #0x10
ROM:A080269C E9 80                       STRH    R1, [R5,#6]
ROM:A080269E 68 79                       LDRB    R0, [R5,#5]
ROM:A08026A0 01 28                       CMP     R0, #1
ROM:A08026A2 0A D0                       BEQ     loc_A08026BA
ROM:A08026A2
ROM:A08026A4 03 28                       CMP     R0, #3
ROM:A08026A6 37 D1                       BNE     loc_A0802718
ROM:A08026A6
ROM:A08026A8 20 1C                       ADD     R0, R4, #0
ROM:A08026AA 00 F0 5F F9                 BL      sub_A080296C
ROM:A08026AA
ROM:A08026AE 01 28                       CMP     R0, #1
ROM:A08026B0 22 D1                       BNE     loc_A08026F8
ROM:A08026B0
ROM:A08026B2 20 1C                       ADD     R0, R4, #0
ROM:A08026B4 FF F7 76 FD                 BL      sub_A08021A4
ROM:A08026B4
ROM:A08026B8 2E E0                       B       loc_A0802718
ROM:A08026B8
ROM:A08026BA             ; ---------------------------------------------------------------------------
ROM:A08026BA
ROM:A08026BA             loc_A08026BA                            ; CODE XREF: ROM:A08026A2j
ROM:A08026BA 28 89                       LDRH    R0, [R5,#8]
ROM:A08026BC 81 42                       CMP     R1, R0
ROM:A08026BE 0C D1                       BNE     loc_A08026DA
ROM:A08026BE
ROM:A08026C0 9C 20                       MOV     R0, #0x9C
ROM:A08026C2 A0 61                       STR     R0, [R4,#0x18]
ROM:A08026C4 64 20                       MOV     R0, #0x64
ROM:A08026C6 00 5B                       LDRH    R0, [R0,R4]
ROM:A08026C8 E1 6C                       LDR     R1, [R4,#0x4C]
ROM:A08026CA 40 31                       ADD     R1, #0x40
ROM:A08026CC 88 81                       STRH    R0, [R1,#0xC]
ROM:A08026CE AD 49                       LDR     R1, =0x1E74
ROM:A08026D0 01 20                       MOV     R0, #1
ROM:A08026D2 17 F0 60 E9                 BLX     sub_A0819994
ROM:A08026D2
ROM:A08026D6 A0 63                       STR     R0, [R4,#0x38]
ROM:A08026D8 1B E0                       B       loc_A0802712
ROM:A08026D8
ROM:A08026DA             ; ---------------------------------------------------------------------------
ROM:A08026DA
ROM:A08026DA             loc_A08026DA                            ; CODE XREF: ROM:A08026BEj
ROM:A08026DA 20 69                       LDR     R0, [R4,#0x10]
ROM:A08026DC 01 04                       LSL     R1, R0, #0x10
ROM:A08026DE 09 0C                       LSR     R1, R1, #0x10
ROM:A08026E0 A1 87                       STRH    R1, [R4,#0x3C]
ROM:A08026E2 00 20                       MOV     R0, #0
ROM:A08026E4 20 61                       STR     R0, [R4,#0x10]
ROM:A08026E6 A8 48                       LDR     R0, =off_A08D1C00
ROM:A08026E8 02 68                       LDR     R2, [R0]
ROM:A08026EA 00 2A                       CMP     R2, #0
ROM:A08026EC 14 D0                       BEQ     loc_A0802718
ROM:A08026EC
ROM:A08026EE 00 22                       MOV     R2, #0
ROM:A08026F0 03 68                       LDR     R3, [R0]
ROM:A08026F2 20 1C                       ADD     R0, R4, #0
ROM:A08026F4 98 47                       BLX     R3
ROM:A08026F6 0F E0                       B       loc_A0802718
ROM:A08026F6
ROM:A08026F8             ; ---------------------------------------------------------------------------
ROM:A08026F8
ROM:A08026F8             loc_A08026F8                            ; CODE XREF: ROM:A08026B0j
ROM:A08026F8 30 69                       LDR     R0, [R6,#0x10]
ROM:A08026FA 80 28                       CMP     R0, #0x80
ROM:A08026FC 1C D1                       BNE     loc_A0802738
ROM:A08026FC
ROM:A08026FE E8 88                       LDRH    R0, [R5,#6]
ROM:A0802700 29 89                       LDRH    R1, [R5,#8]
ROM:A0802702 88 42                       CMP     R0, R1
ROM:A0802704 09 D1                       BNE     loc_A080271A
ROM:A0802704
ROM:A0802706 01 29                       CMP     R1, #1
ROM:A0802708 01 D1                       BNE     loc_A080270E
ROM:A0802708
ROM:A080270A 80 20                       MOV     R0, #0x80
ROM:A080270C 00 E0                       B       loc_A0802710
ROM:A080270C
ROM:A080270E             ; ---------------------------------------------------------------------------
ROM:A080270E
ROM:A080270E             loc_A080270E                            ; CODE XREF: ROM:A0802708j
ROM:A080270E 9C 20                       MOV     R0, #0x9C
ROM:A080270E
ROM:A0802710
ROM:A0802710             loc_A0802710                            ; CODE XREF: ROM:A080270Cj
ROM:A0802710 A0 61                       STR     R0, [R4,#0x18]
ROM:A0802710
ROM:A0802712
ROM:A0802712             loc_A0802712                            ; CODE XREF: ROM:A08026D8j
ROM:A0802712 02 20                       MOV     R0, #2
ROM:A0802714 C0 43                       MVN     R0, R0
ROM:A0802716 20 61                       STR     R0, [R4,#0x10]
ROM:A0802716
ROM:A0802718
ROM:A0802718             loc_A0802718                            ; CODE XREF: ROM:A0802680j
ROM:A0802718                                                     ; ROM:A0802688j
ROM:A0802718                                                     ; ROM:A08026A6j
ROM:A0802718                                                     ; ROM:A08026B8j
ROM:A0802718                                                     ; ROM:A08026ECj
ROM:A0802718                                                     ; ROM:A08026F6j
ROM:A0802718 1C E0                       B       loc_A0802754
ROM:A0802718
ROM:A080271A             ; ---------------------------------------------------------------------------
ROM:A080271A
ROM:A080271A             loc_A080271A                            ; CODE XREF: ROM:A0802704j
ROM:A080271A 20 69                       LDR     R0, [R4,#0x10]
ROM:A080271C 01 04                       LSL     R1, R0, #0x10
ROM:A080271E 09 0C                       LSR     R1, R1, #0x10
ROM:A0802720 A1 87                       STRH    R1, [R4,#0x3C]
ROM:A0802722 00 20                       MOV     R0, #0
ROM:A0802724 20 61                       STR     R0, [R4,#0x10]
ROM:A0802726 98 48                       LDR     R0, =off_A08D1C00
ROM:A0802728 02 68                       LDR     R2, [R0]
ROM:A080272A 00 2A                       CMP     R2, #0
ROM:A080272C 12 D0                       BEQ     loc_A0802754
ROM:A080272C
ROM:A080272E 00 22                       MOV     R2, #0
ROM:A0802730 03 68                       LDR     R3, [R0]
ROM:A0802732 20 1C                       ADD     R0, R4, #0
ROM:A0802734 98 47                       BLX     R3
ROM:A0802736 0D E0                       B       loc_A0802754
ROM:A0802736
ROM:A0802738             ; ---------------------------------------------------------------------------
ROM:A0802738
ROM:A0802738             loc_A0802738                            ; CODE XREF: ROM:A08026FCj
ROM:A0802738 20 69                       LDR     R0, [R4,#0x10]
ROM:A080273A 01 04                       LSL     R1, R0, #0x10
ROM:A080273C 09 0C                       LSR     R1, R1, #0x10
ROM:A080273E A1 87                       STRH    R1, [R4,#0x3C]
ROM:A0802740 04 20                       MOV     R0, #4
ROM:A0802742 20 61                       STR     R0, [R4,#0x10]
ROM:A0802744 90 48                       LDR     R0, =off_A08D1C00
ROM:A0802746 02 69                       LDR     R2, [R0,#0x10]
ROM:A0802748 00 2A                       CMP     R2, #0
ROM:A080274A 03 D0                       BEQ     loc_A0802754
ROM:A080274A
ROM:A080274C 04 22                       MOV     R2, #4
ROM:A080274E 03 69                       LDR     R3, [R0,#0x10]
ROM:A0802750 20 1C                       ADD     R0, R4, #0
ROM:A0802752 98 47                       BLX     R3
ROM:A0802752
ROM:A0802754
ROM:A0802754             loc_A0802754                            ; CODE XREF: ROM:loc_A0802718j
ROM:A0802754                                                     ; ROM:A080272Cj
ROM:A0802754                                                     ; ROM:A0802736j
ROM:A0802754                                                     ; ROM:A080274Aj
ROM:A0802754 38 1C                       ADD     R0, R7, #0
ROM:A0802756 F8 BD                       POP     {R3-R7,PC}
ROM:A0802756
ROM:A0802758             ; ---------------------------------------------------------------------------
ROM:A0802758 BC B5                       PUSH    {R2-R5,R7,LR}
ROM:A080275A 04 1C                       ADD     R4, R0, #0
ROM:A080275C 00 6C                       LDR     R0, [R0,#0x40]
ROM:A080275E A8 21                       MOV     R1, #0xA8
ROM:A0802760 1D F0 5E E9                 BLX     sub_A081FA20
ROM:A0802760
ROM:A0802764 89 4D                       LDR     R5, =0x6C87
ROM:A0802766 00 28                       CMP     R0, #0
ROM:A0802768 09 D0                       BEQ     loc_A080277E
ROM:A0802768
ROM:A080276A 00 22                       MOV     R2, #0
ROM:A080276C 01 92                       STR     R2, [SP,#4]
ROM:A080276E 01 21                       MOV     R1, #1
ROM:A0802770 00 91                       STR     R1, [SP]
ROM:A0802772 A8 22                       MOV     R2, #0xA8
ROM:A0802774 01 23                       MOV     R3, #1
ROM:A0802776 00 21                       MOV     R1, #0
ROM:A0802778 20 6C                       LDR     R0, [R4,#0x40]
ROM:A080277A 1D F0 86 EF                 BLX     sub_A0820688
ROM:A080277A
ROM:A080277E
ROM:A080277E             loc_A080277E                            ; CODE XREF: ROM:A0802768j
ROM:A080277E 00 21                       MOV     R1, #0
ROM:A0802780 20 6C                       LDR     R0, [R4,#0x40]
ROM:A0802782 18 F0 4C ED                 BLX     sub_A081B21C
ROM:A0802782
ROM:A0802786 29 1C                       ADD     R1, R5, #0
ROM:A0802788 20 6C                       LDR     R0, [R4,#0x40]
ROM:A080278A 18 F0 00 ED                 BLX     sub_A081B18C
ROM:A080278A
ROM:A080278E BC BD                       POP     {R2-R5,R7,PC}
ROM:A080278E
ROM:A0802790             ; ---------------------------------------------------------------------------
ROM:A0802790 70 B5                       PUSH    {R4-R6,LR}
ROM:A0802792 04 1C                       ADD     R4, R0, #0
ROM:A0802794 7D 4B                       LDR     R3, =0x6C87
ROM:A0802796 48 68                       LDR     R0, [R1,#4]
ROM:A0802798 01 25                       MOV     R5, #1
ROM:A080279A 19 33                       ADD     R3, #0x19
ROM:A080279C 98 42                       CMP     R0, R3
ROM:A080279E 29 D1                       BNE     loc_A08027F4
ROM:A080279E
ROM:A08027A0 C9 68                       LDR     R1, [R1,#0xC]
ROM:A08027A2 20 6C                       LDR     R0, [R4,#0x40]
ROM:A08027A4 81 42                       CMP     R1, R0
ROM:A08027A6 25 D1                       BNE     loc_A08027F4
ROM:A08027A6
ROM:A08027A8 D0 30                       ADD     R0, #0xD0
ROM:A08027AA 00 7B                       LDRB    R0, [R0,#0xC]
ROM:A08027AC 00 25                       MOV     R5, #0
ROM:A08027AE EE 1E                       SUB     R6, R5, #3
ROM:A08027B0 00 28                       CMP     R0, #0
ROM:A08027B2 1C D1                       BNE     loc_A08027EE
ROM:A08027B2
ROM:A08027B4 20 1C                       ADD     R0, R4, #0
ROM:A08027B6 40 30                       ADD     R0, #0x40
ROM:A08027B8 C1 88                       LDRH    R1, [R0,#6]
ROM:A08027BA 00 89                       LDRH    R0, [R0,#8]
ROM:A08027BC 81 42                       CMP     R1, R0
ROM:A08027BE 07 D1                       BNE     loc_A08027D0
ROM:A08027BE
ROM:A08027C0 9C 20                       MOV     R0, #0x9C
ROM:A08027C2 A0 61                       STR     R0, [R4,#0x18]
ROM:A08027C4 01 20                       MOV     R0, #1
ROM:A08027C6 72 49                       LDR     R1, =0x10FCF
ROM:A08027C8 17 F0 E4 E8                 BLX     sub_A0819994
ROM:A08027C8
ROM:A08027CC A0 63                       STR     R0, [R4,#0x38]
ROM:A08027CE 10 E0                       B       loc_A08027F2
ROM:A08027CE
ROM:A08027D0             ; ---------------------------------------------------------------------------
ROM:A08027D0
ROM:A08027D0             loc_A08027D0                            ; CODE XREF: ROM:A08027BEj
ROM:A08027D0 20 69                       LDR     R0, [R4,#0x10]
ROM:A08027D2 01 04                       LSL     R1, R0, #0x10
ROM:A08027D4 09 0C                       LSR     R1, R1, #0x10
ROM:A08027D6 A1 87                       STRH    R1, [R4,#0x3C]
ROM:A08027D8 00 20                       MOV     R0, #0
ROM:A08027DA 20 61                       STR     R0, [R4,#0x10]
ROM:A08027DC 6A 48                       LDR     R0, =off_A08D1C00
ROM:A08027DE 02 68                       LDR     R2, [R0]
ROM:A08027E0 00 2A                       CMP     R2, #0
ROM:A08027E2 07 D0                       BEQ     loc_A08027F4
ROM:A08027E2
ROM:A08027E4 00 22                       MOV     R2, #0
ROM:A08027E6 03 68                       LDR     R3, [R0]
ROM:A08027E8 20 1C                       ADD     R0, R4, #0
ROM:A08027EA 98 47                       BLX     R3
ROM:A08027EC 02 E0                       B       loc_A08027F4
ROM:A08027EC
ROM:A08027EE             ; ---------------------------------------------------------------------------
ROM:A08027EE
ROM:A08027EE             loc_A08027EE                            ; CODE XREF: ROM:A08027B2j
ROM:A08027EE 87 20                       MOV     R0, #0x87
ROM:A08027F0 A0 61                       STR     R0, [R4,#0x18]
ROM:A08027F0
ROM:A08027F2
ROM:A08027F2             loc_A08027F2                            ; CODE XREF: ROM:A08027CEj
ROM:A08027F2 26 61                       STR     R6, [R4,#0x10]
ROM:A08027F2
ROM:A08027F4
ROM:A08027F4             loc_A08027F4                            ; CODE XREF: ROM:A080279Ej
ROM:A08027F4                                                     ; ROM:A08027A6j
ROM:A08027F4                                                     ; ROM:A08027E2j
ROM:A08027F4                                                     ; ROM:A08027ECj
ROM:A08027F4 28 1C                       ADD     R0, R5, #0
ROM:A08027F6 70 BD                       POP     {R4-R6,PC}
ROM:A08027F6
ROM:A08027F8             ; ---------------------------------------------------------------------------
ROM:A08027F8 10 B5                       PUSH    {R4,LR}
ROM:A08027FA 04 1C                       ADD     R4, R0, #0
ROM:A08027FC 00 6C                       LDR     R0, [R0,#0x40]
ROM:A08027FE 00 21                       MOV     R1, #0
ROM:A0802800 1D F0 D8 EC                 BLX     sub_A08201B4
ROM:A0802800
ROM:A0802804 21 6C                       LDR     R1, [R4,#0x40]
ROM:A0802806 00 20                       MOV     R0, #0
ROM:A0802808 48 65                       STR     R0, [R1,#0x54]
ROM:A080280A 60 49                       LDR     R1, =0x6C87
ROM:A080280C 20 6C                       LDR     R0, [R4,#0x40]
ROM:A080280E 01 31                       ADD     R1, #1
ROM:A0802810 18 F0 BC EC                 BLX     sub_A081B18C
ROM:A0802810
ROM:A0802814 01 20                       MOV     R0, #1
ROM:A0802816 17 F0 DC E8                 BLX     sub_A08199D0
ROM:A0802816
ROM:A080281A A0 63                       STR     R0, [R4,#0x38]
ROM:A080281C 10 BD                       POP     {R4,PC}
ROM:A080281C
ROM:A080281E             ; ---------------------------------------------------------------------------
ROM:A080281E B0 B5                       PUSH    {R4,R5,R7,LR}
ROM:A0802820 CB 68                       LDR     R3, [R1,#0xC]
ROM:A0802822 04 1C                       ADD     R4, R0, #0
ROM:A0802824 22 6C                       LDR     R2, [R4,#0x40]
ROM:A0802826 01 20                       MOV     R0, #1
ROM:A0802828 93 42                       CMP     R3, R2
ROM:A080282A 47 D1                       BNE     loc_A08028BC
ROM:A080282A
ROM:A080282C 57 4B                       LDR     R3, =0x6C87
ROM:A080282E 4D 68                       LDR     R5, [R1,#4]
ROM:A0802830 19 33                       ADD     R3, #0x19
ROM:A0802832 9D 42                       CMP     R5, R3
ROM:A0802834 42 D1                       BNE     loc_A08028BC
ROM:A0802834
ROM:A0802836 89 68                       LDR     R1, [R1,#8]
ROM:A0802838 00 29                       CMP     R1, #0
ROM:A080283A 3F D1                       BNE     loc_A08028BC
ROM:A080283A
ROM:A080283C DC 20                       MOV     R0, #0xDC
ROM:A080283E 80 5C                       LDRB    R0, [R0,R2]
ROM:A0802840 00 28                       CMP     R0, #0
ROM:A0802842 17 D0                       BEQ     loc_A0802874
ROM:A0802842
ROM:A0802844 00 25                       MOV     R5, #0
ROM:A0802846 06 28                       CMP     R0, #6
ROM:A0802848 A0 6B                       LDR     R0, [R4,#0x38]
ROM:A080284A 2B D1                       BNE     loc_A08028A4
ROM:A080284A
ROM:A080284C 00 28                       CMP     R0, #0
ROM:A080284E 03 D0                       BEQ     loc_A0802858
ROM:A080284E
ROM:A0802850 03 21                       MOV     R1, #3
ROM:A0802852 17 F0 8E E8                 BLX     sub_A0819970
ROM:A0802852
ROM:A0802856 A5 63                       STR     R5, [R4,#0x38]
ROM:A0802856
ROM:A0802858
ROM:A0802858             loc_A0802858                            ; CODE XREF: ROM:A080284Ej
ROM:A0802858 20 69                       LDR     R0, [R4,#0x10]
ROM:A080285A 01 04                       LSL     R1, R0, #0x10
ROM:A080285C 09 0C                       LSR     R1, R1, #0x10
ROM:A080285E A1 87                       STRH    R1, [R4,#0x3C]
ROM:A0802860 49 48                       LDR     R0, =off_A08D1C00
ROM:A0802862 25 61                       STR     R5, [R4,#0x10]
ROM:A0802864 02 68                       LDR     R2, [R0]
ROM:A0802866 00 2A                       CMP     R2, #0
ROM:A0802868 27 D0                       BEQ     loc_A08028BA
ROM:A0802868
ROM:A080286A 00 22                       MOV     R2, #0
ROM:A080286C 03 68                       LDR     R3, [R0]
ROM:A080286E 20 1C                       ADD     R0, R4, #0
ROM:A0802870 98 47                       BLX     R3
ROM:A0802872 22 E0                       B       loc_A08028BA
ROM:A0802872
ROM:A0802874             ; ---------------------------------------------------------------------------
ROM:A0802874
ROM:A0802874             loc_A0802874                            ; CODE XREF: ROM:A0802842j
ROM:A0802874 10 1C                       ADD     R0, R2, #0
ROM:A0802876 17 F0 2E E9                 BLX     sub_A0819AD4
ROM:A0802876
ROM:A080287A 05 1C                       ADD     R5, R0, #0
ROM:A080287C 29 1C                       ADD     R1, R5, #0
ROM:A080287E 20 6C                       LDR     R0, [R4,#0x40]
ROM:A0802880 1D F0 9E EC                 BLX     sub_A08201C0
ROM:A0802880
ROM:A0802884 00 28                       CMP     R0, #0
ROM:A0802886 20 6C                       LDR     R0, [R4,#0x40]
ROM:A0802888 03 D0                       BEQ     loc_A0802892
ROM:A0802888
ROM:A080288A 29 1C                       ADD     R1, R5, #0
ROM:A080288C 1D F0 9E EC                 BLX     sub_A08201CC
ROM:A080288C
ROM:A0802890 02 E0                       B       loc_A0802898
ROM:A0802890
ROM:A0802892             ; ---------------------------------------------------------------------------
ROM:A0802892
ROM:A0802892             loc_A0802892                            ; CODE XREF: ROM:A0802888j
ROM:A0802892 29 1C                       ADD     R1, R5, #0
ROM:A0802894 1C F0 76 EB                 BLX     sub_A081EF84
ROM:A0802894
ROM:A0802898
ROM:A0802898             loc_A0802898                            ; CODE XREF: ROM:A0802890j
ROM:A0802898 3C 49                       LDR     R1, =0x6C87
ROM:A080289A 20 6C                       LDR     R0, [R4,#0x40]
ROM:A080289C 02 31                       ADD     R1, #2
ROM:A080289E 18 F0 76 EC                 BLX     sub_A081B18C
ROM:A080289E
ROM:A08028A2 0A E0                       B       loc_A08028BA
ROM:A08028A2
ROM:A08028A4             ; ---------------------------------------------------------------------------
ROM:A08028A4
ROM:A08028A4             loc_A08028A4                            ; CODE XREF: ROM:A080284Aj
ROM:A08028A4 00 28                       CMP     R0, #0
ROM:A08028A6 03 D0                       BEQ     loc_A08028B0
ROM:A08028A6
ROM:A08028A8 03 21                       MOV     R1, #3
ROM:A08028AA 17 F0 62 E8                 BLX     sub_A0819970
ROM:A08028AA
ROM:A08028AE A5 63                       STR     R5, [R4,#0x38]
ROM:A08028AE
ROM:A08028B0
ROM:A08028B0             loc_A08028B0                            ; CODE XREF: ROM:A08028A6j
ROM:A08028B0 87 20                       MOV     R0, #0x87
ROM:A08028B2 A0 61                       STR     R0, [R4,#0x18]
ROM:A08028B4 02 20                       MOV     R0, #2
ROM:A08028B6 C0 43                       MVN     R0, R0
ROM:A08028B8 20 61                       STR     R0, [R4,#0x10]
ROM:A08028B8
ROM:A08028BA
ROM:A08028BA             loc_A08028BA                            ; CODE XREF: ROM:A0802868j
ROM:A08028BA                                                     ; ROM:A0802872j
ROM:A08028BA                                                     ; ROM:A08028A2j
ROM:A08028BA 00 20                       MOV     R0, #0
ROM:A08028BA
ROM:A08028BC
ROM:A08028BC             loc_A08028BC                            ; CODE XREF: ROM:A080282Aj
ROM:A08028BC                                                     ; ROM:A0802834j
ROM:A08028BC                                                     ; ROM:A080283Aj
ROM:A08028BC B0 BD                       POP     {R4,R5,R7,PC}
ROM:A08028BC
ROM:A08028BE             ; ---------------------------------------------------------------------------
ROM:A08028BE 70 47                       BX      LR
ROM:A08028BE
ROM:A08028C0             ; ---------------------------------------------------------------------------
ROM:A08028C0 10 B5                       PUSH    {R4,LR}
ROM:A08028C2 4C 68                       LDR     R4, [R1,#4]
ROM:A08028C4 33 4B                       LDR     R3, =0x640E
ROM:A08028C6 01 22                       MOV     R2, #1
ROM:A08028C8 9C 42                       CMP     R4, R3
ROM:A08028CA 0A D1                       BNE     loc_A08028E2
ROM:A08028CA
ROM:A08028CC C9 68                       LDR     R1, [R1,#0xC]
ROM:A08028CE 83 6B                       LDR     R3, [R0,#0x38]
ROM:A08028D0 99 42                       CMP     R1, R3
ROM:A08028D2 06 D1                       BNE     loc_A08028E2
ROM:A08028D2
ROM:A08028D4 00 21                       MOV     R1, #0
ROM:A08028D6 81 63                       STR     R1, [R0,#0x38]
ROM:A08028D8 9C 21                       MOV     R1, #0x9C
ROM:A08028DA 81 61                       STR     R1, [R0,#0x18]
ROM:A08028DC 00 22                       MOV     R2, #0
ROM:A08028DE D1 1E                       SUB     R1, R2, #3
ROM:A08028E0 01 61                       STR     R1, [R0,#0x10]
ROM:A08028E0
ROM:A08028E2
ROM:A08028E2             loc_A08028E2                            ; CODE XREF: ROM:A08028CAj
ROM:A08028E2                                                     ; ROM:A08028D2j
ROM:A08028E2 10 1C                       ADD     R0, R2, #0
ROM:A08028E4 10 BD                       POP     {R4,PC}
ROM:A08028E4
ROM:A08028E6             ; ---------------------------------------------------------------------------
ROM:A08028E6 B0 B5                       PUSH    {R4,R5,R7,LR}
ROM:A08028E8 04 1C                       ADD     R4, R0, #0
ROM:A08028EA 40 30                       ADD     R0, #0x40
ROM:A08028EC 00 79                       LDRB    R0, [R0,#4]
ROM:A08028EE 02 28                       CMP     R0, #2
ROM:A08028F0 03 D1                       BNE     loc_A08028FA
ROM:A08028F0
ROM:A08028F2 00 21                       MOV     R1, #0
ROM:A08028F4 20 6C                       LDR     R0, [R4,#0x40]
ROM:A08028F6 1D F0 80 EE                 BLX     sub_A08205F8
ROM:A08028F6
ROM:A08028FA
ROM:A08028FA             loc_A08028FA                            ; CODE XREF: ROM:A08028F0j
ROM:A08028FA 20 6C                       LDR     R0, [R4,#0x40]
ROM:A08028FC 00 25                       MOV     R5, #0
ROM:A08028FE 00 28                       CMP     R0, #0
ROM:A0802900 02 D0                       BEQ     loc_A0802908
ROM:A0802900
ROM:A0802902 18 F0 32 EC                 BLX     sub_A081B168
ROM:A0802902
ROM:A0802906 25 64                       STR     R5, [R4,#0x40]
ROM:A0802906
ROM:A0802908
ROM:A0802908             loc_A0802908                            ; CODE XREF: ROM:A0802900j
ROM:A0802908 20 6B                       LDR     R0, [R4,#0x30]
ROM:A080290A 00 28                       CMP     R0, #0
ROM:A080290C 03 D0                       BEQ     loc_A0802916
ROM:A080290C
ROM:A080290E 03 21                       MOV     R1, #3
ROM:A0802910 17 F0 2E E8                 BLX     sub_A0819970
ROM:A0802910
ROM:A0802914 25 63                       STR     R5, [R4,#0x30]
ROM:A0802914
ROM:A0802916
ROM:A0802916             loc_A0802916                            ; CODE XREF: ROM:A080290Cj
ROM:A0802916 E0 6A                       LDR     R0, [R4,#0x2C]
ROM:A0802918 00 28                       CMP     R0, #0
ROM:A080291A 03 D0                       BEQ     loc_A0802924
ROM:A080291A
ROM:A080291C 03 21                       MOV     R1, #3
ROM:A080291E 17 F0 28 E8                 BLX     sub_A0819970
ROM:A080291E
ROM:A0802922 E5 62                       STR     R5, [R4,#0x2C]
ROM:A0802922
ROM:A0802924
ROM:A0802924             loc_A0802924                            ; CODE XREF: ROM:A080291Aj
ROM:A0802924 A0 6B                       LDR     R0, [R4,#0x38]
ROM:A0802926 00 28                       CMP     R0, #0
ROM:A0802928 03 D0                       BEQ     loc_A0802932
ROM:A0802928
ROM:A080292A 03 21                       MOV     R1, #3
ROM:A080292C 17 F0 20 E8                 BLX     sub_A0819970
ROM:A080292C
ROM:A0802930 A5 63                       STR     R5, [R4,#0x38]
ROM:A0802930
ROM:A0802932
ROM:A0802932             loc_A0802932                            ; CODE XREF: ROM:A0802928j
ROM:A0802932 B0 BD                       POP     {R4,R5,R7,PC}
ROM:A0802932
ROM:A0802934             ; ---------------------------------------------------------------------------
ROM:A0802934 B0 B5                       PUSH    {R4,R5,R7,LR}   ; DATA XREF: ROM:off_A08D1BBCo
ROM:A0802936 0D 1C                       ADD     R5, R1, #0
ROM:A0802938 04 1C                       ADD     R4, R0, #0
ROM:A080293A 00 69                       LDR     R0, [R0,#0x10]
ROM:A080293C 12 49                       LDR     R1, =off_A08D1C00
ROM:A080293E 80 00                       LSL     R0, R0, #2
ROM:A0802940 1C 39                       SUB     R1, #0x1C
ROM:A0802942 0A 58                       LDR     R2, [R1,R0]
ROM:A0802944 29 1C                       ADD     R1, R5, #0
ROM:A0802946 20 1C                       ADD     R0, R4, #0
ROM:A0802948 90 47                       BLX     R2
ROM:A080294A 01 28                       CMP     R0, #1
ROM:A080294C 0D D1                       BNE     loc_A080296A
ROM:A080294C
ROM:A080294E 11 4B                       LDR     R3, =0x640E
ROM:A0802950 69 68                       LDR     R1, [R5,#4]
ROM:A0802952 0D 3B                       SUB     R3, #0xD
ROM:A0802954 99 42                       CMP     R1, R3
ROM:A0802956 03 D0                       BEQ     loc_A0802960
ROM:A0802956
ROM:A0802958 0C 4B                       LDR     R3, =0x6C87
ROM:A080295A 78 3B                       SUB     R3, #0x78
ROM:A080295C 99 42                       CMP     R1, R3
ROM:A080295E 04 D1                       BNE     loc_A080296A
ROM:A080295E
ROM:A0802960
ROM:A0802960             loc_A0802960                            ; CODE XREF: ROM:A0802956j
ROM:A0802960 80 21                       MOV     R1, #0x80
ROM:A0802962 A1 61                       STR     R1, [R4,#0x18]
ROM:A0802964 02 21                       MOV     R1, #2
ROM:A0802966 C9 43                       MVN     R1, R1
ROM:A0802968 21 61                       STR     R1, [R4,#0x10]
ROM:A0802968
ROM:A080296A
ROM:A080296A             loc_A080296A                            ; CODE XREF: ROM:A080294Cj
ROM:A080296A                                                     ; ROM:A080295Ej
ROM:A080296A B0 BD                       POP     {R4,R5,R7,PC}
ROM:A080296A
ROM:A080296C
ROM:A080296C             ; *************** S U B R O U T I N E ***************************************
ROM:A080296C
ROM:A080296C
ROM:A080296C             sub_A080296C                            ; CODE XREF: ROM:A08022A2p
ROM:A080296C                                                     ; ROM:A080238Ep
ROM:A080296C                                                     ; ROM:A08023E8p
ROM:A080296C                                                     ; ROM:A08025DAp
ROM:A080296C                                                     ; ROM:A08026AAp
ROM:A080296C 80 B5                       PUSH    {R7,LR}
ROM:A080296E 00 6C                       LDR     R0, [R0,#0x40]
ROM:A0802970 1D F0 6C EE                 BLX     sub_A082064C
ROM:A0802970
ROM:A0802974 00 68                       LDR     R0, [R0]
ROM:A0802976 80 0E                       LSR     R0, R0, #0x1A
ROM:A0802978 28 28                       CMP     R0, #0x28
ROM:A080297A 01 D1                       BNE     loc_A0802980
ROM:A080297A
ROM:A080297C 00 20                       MOV     R0, #0
ROM:A080297E 80 BD                       POP     {R7,PC}
ROM:A080297E
ROM:A0802980             ; ---------------------------------------------------------------------------
ROM:A0802980
ROM:A0802980             loc_A0802980                            ; CODE XREF: sub_A080296C+Ej
ROM:A0802980 01 20                       MOV     R0, #1
ROM:A0802982 80 BD                       POP     {R7,PC}
ROM:A0802982
ROM:A0802982             ; End of function sub_A080296C
ROM:A0802982
ROM:A0802982             ; ---------------------------------------------------------------------------
ROM:A0802984 74 1E 00 00 dword_A0802984  DCD 0x1E74              ; DATA XREF: ROM:A08026CEr
ROM:A0802988 00 1C 8D A0 off_A0802988    DCD off_A08D1C00        ; DATA XREF: ROM:A08026E6r
ROM:A0802988                                                     ; ROM:A0802726r
ROM:A0802988                                                     ; ROM:A0802744r
ROM:A0802988                                                     ; ROM:A08027DCr
ROM:A0802988                                                     ; ROM:A0802860r
ROM:A0802988                                                     ; ROM:A080293Cr
ROM:A080298C 87 6C 00 00 dword_A080298C  DCD 0x6C87              ; DATA XREF: ROM:A0802764r
ROM:A080298C                                                     ; ROM:A0802794r
ROM:A080298C                                                     ; ROM:A080280Ar
ROM:A080298C                                                     ; ROM:A080282Cr
ROM:A080298C                                                     ; ROM:loc_A0802898r
ROM:A080298C                                                     ; ROM:A0802958r
ROM:A0802990 CF 0F 01 00 dword_A0802990  DCD 0x10FCF             ; DATA XREF: ROM:A08027C6r
ROM:A0802994 0E 64 00 00 dword_A0802994  DCD 0x640E              ; DATA XREF: ROM:A08028C4r
ROM:A0802994                                                     ; ROM:A080294Er
ROM:A0802998             ; ---------------------------------------------------------------------------
ROM:A0802998 F0 B5                       PUSH    {R4-R7,LR}
ROM:A080299A 04 1C                       ADD     R4, R0, #0
ROM:A080299C 0D 1C                       ADD     R5, R1, #0
ROM:A080299E 16 1C                       ADD     R6, R2, #0
ROM:A08029A0 95 B0                       SUB     SP, SP, #0x54
ROM:A08029A2 68 46                       MOV     R0, SP
ROM:A08029A4 54 21                       MOV     R1, #0x54
ROM:A08029A6 16 F0 AE EB                 BLX     sub_A0819104
ROM:A08029A6
ROM:A08029AA 02 20                       MOV     R0, #2
ROM:A08029AC C0 43                       MVN     R0, R0
ROM:A08029AE 00 AB                       ADD     R3, SP, #0
ROM:A08029B0 98 85                       STRH    R0, [R3,#0x2C]
ROM:A08029B2 0C A8                       ADD     R0, SP, #0x30
ROM:A08029B4 44 71                       STRB    R4, [R0,#5]
ROM:A08029B6 40 21                       MOV     R1, #0x40
ROM:A08029B8 0E 95                       STR     R5, [SP,#0x38]
ROM:A08029BA 01 71                       STRB    R1, [R0,#4]
ROM:A08029BC 14 96                       STR     R6, [SP,#0x50]
ROM:A08029BE 69 46                       MOV     R1, SP
ROM:A08029C0 E9 48                       LDR     R0, =off_A08D1C40
ROM:A08029C2 00 22                       MOV     R2, #0
ROM:A08029C4 17 F0 10 E8                 BLX     sub_A08199E8
ROM:A08029C4
ROM:A08029C8 15 B0                       ADD     SP, SP, #0x54
ROM:A08029CA F0 BD                       POP     {R4-R7,PC}
ROM:A08029CA
