//////////////////////////////////////////////////////////////////////////////
//                                                                           /
// IAR ARM ANSI C/C++ Compiler V4.42A/W32 EVALUATION   13/Aug/2008  18:45:18 /
// Copyright 1999-2005 IAR Systems. All rights reserved.                     /
//                                                                           /
//    Cpu mode        =  interwork                                           /
//    Endian          =  little                                              /
//    Stack alignment =  4                                                   /
//    Source file     =  G:\Arm\SieELF\cbn_SRC\MP3Player\Main.c              /
//    Command line    =  G:\Arm\SieELF\cbn_SRC\MP3Player\Main.c -lC          /
//                       G:\Arm\SieELF\cbn_SRC\MP3Player\Release\List\ -lA   /
//                       G:\Arm\SieELF\cbn_SRC\MP3Player\Release\List\ -o    /
//                       G:\Arm\SieELF\cbn_SRC\MP3Player\Release\Obj\ -s9    /
//                       --no_unroll --cpu_mode arm --endian little --cpu    /
//                       ARM926EJ-S --stack_align 4 --interwork -e           /
//                       --char_is_signed --fpu None -I                      /
//                       D:\ewarm_442\arm\INC\ --inline_threshold=2          /
//    List file       =  G:\Arm\SieELF\cbn_SRC\MP3Player\Release\List\Main.s /
//                       79                                                  /
//                                                                           /
//                                                                           /
//////////////////////////////////////////////////////////////////////////////

        NAME Main

        RTMODEL "StackAlign4", "USED"
        RTMODEL "__cpu_mode", "__pcs__interwork"
        RTMODEL "__data_model", "absolute"
        RTMODEL "__endian", "little"
        RTMODEL "__rt_version", "6"

        RSEG CSTACK:DATA:NOROOT(2)

        EXTERN ??div32_a

        PUBWEAK `?*?DATA_ID`
        MULTWEAK ??AboutOnKey??rT
        MULTWEAK ??AddMenuItem??rT
        MULTWEAK ??AudioInit??rT
        MULTWEAK ??AudioStart??rT
        MULTWEAK ??AudioStop??rT
        MULTWEAK ??AudioTerminate??rT
        MULTWEAK ??BuffPos??rT
        MULTWEAK ??ClearMenu??rT
        MULTWEAK ??ControlKeys??rT
??DataTable0 EQU 0
??DataTable1 EQU 0
??DataTable10 EQU 0
??DataTable11 EQU 0
??DataTable12 EQU 0
??DataTable13 EQU 0
??DataTable14 EQU 0
??DataTable15 EQU 0
??DataTable16 EQU 0
??DataTable17 EQU 0
??DataTable18 EQU 0
??DataTable19 EQU 0
??DataTable2 EQU 0
??DataTable21 EQU 0
??DataTable22 EQU 0
??DataTable24 EQU 0
??DataTable25 EQU 0
??DataTable27 EQU 0
??DataTable28 EQU 0
??DataTable30 EQU 0
??DataTable31 EQU 0
??DataTable32 EQU 0
??DataTable33 EQU 0
??DataTable34 EQU 0
??DataTable36 EQU 0
??DataTable37 EQU 0
??DataTable38 EQU 0
??DataTable39 EQU 0
??DataTable4 EQU 0
??DataTable41 EQU 0
??DataTable44 EQU 0
??DataTable45 EQU 0
??DataTable47 EQU 0
??DataTable48 EQU 0
??DataTable49 EQU 0
??DataTable5 EQU 0
??DataTable6 EQU 0
??DataTable7 EQU 0
??DataTable9 EQU 0
        MULTWEAK ??DrawMenu??rT
        MULTWEAK ??ElfKiller??rT
        MULTWEAK ??EnumFolder??rT
        MULTWEAK ??ExtractFileName??rT
        MULTWEAK ??FilesMenuOnKey??rT
        MULTWEAK ??FillBuffer1??rT
        MULTWEAK ??FillBuffer2??rT
        MULTWEAK ??FillBuffer??rT
        MULTWEAK ??FreeMp3??rT
        MULTWEAK ??GetBuffEnd??rT
        MULTWEAK ??GetBuffPos??rT
        MULTWEAK ??GetSound??rT
        MULTWEAK ??ImaCodeBlock??rT
        MULTWEAK ??IsFile??rT
        MULTWEAK ??IsMP3??rT
        MULTWEAK ??LoadParams??rT
        MULTWEAK ??MP3Decode??rT
        MULTWEAK ??MP3FindSyncWord??rT
        MULTWEAK ??MP3FreeDecoder??rT
        MULTWEAK ??MP3GetLastFrameInfo??rT
        MULTWEAK ??MP3GetNextFrameInfo??rT
        MULTWEAK ??MP3InitDecoder??rT
        MULTWEAK ??MainMenuOnKey??rT
        MULTWEAK ??MenuFree??rT
        MULTWEAK ??MenuInit??rT
        MULTWEAK ??MenuOnKey??rT
        MULTWEAK ??MenuTerminate??rT
        MULTWEAK ??Mp3Init??rT
        MULTWEAK ??OnKey??rT
        MULTWEAK ??OnRedraw??rT
        MULTWEAK ??PB??rT
        MULTWEAK ??PlayCurrent??rT
        MULTWEAK ??PlaylistOnKey??rT
        MULTWEAK ??ReadMp3File??rT
        MULTWEAK ??RipKeys??rT
        MULTWEAK ??RipToFile??rT
        MULTWEAK ??SaveParams??rT
        MULTWEAK ??SetLoop??rT
        MULTWEAK ??ShowAbout??rT
        MULTWEAK ??ShowFilesMenu??rT
        MULTWEAK ??ShowMainMenu??rT
        MULTWEAK ??ShowPlaylist??rT
        MULTWEAK ??UpdateCSMname??rT
        MULTWEAK ??UpdateShowName??rT
        MULTWEAK ??ZeroCounter??rT
        MULTWEAK ??kill_data??rA
        MULTWEAK ??main??rT
        MULTWEAK ??maincsm_onclose??rT
        MULTWEAK ??maincsm_oncreate??rT
        MULTWEAK ??maincsm_onmessage??rT
        MULTWEAK ??memcpy??rA
        MULTWEAK ??memset??rA
        MULTWEAK ??method7??rT
        MULTWEAK ??method8??rT
        MULTWEAK ??method9??rT
        MULTWEAK ??onClose??rT
        MULTWEAK ??onCreate??rT
        MULTWEAK ??onFocus??rT
        MULTWEAK ??onUnfocus??rT
        MULTWEAK ??onstart??rT
        MULTWEAK ??rA??div32_a
        MULTWEAK ??randint??rT
        MULTWEAK ??xmp3_AllocateBuffers??rA
        MULTWEAK ??xmp3_CheckPadBit??rA
        MULTWEAK ??xmp3_DecodeHuffman??rA
        MULTWEAK ??xmp3_Dequantize??rA
        MULTWEAK ??xmp3_FreeBuffers??rA
        MULTWEAK ??xmp3_IMDCT??rA
        MULTWEAK ??xmp3_Subband??rA
        MULTWEAK ??xmp3_UnpackFrameHeader??rA
        MULTWEAK ??xmp3_UnpackScaleFactors??rA
        MULTWEAK ??xmp3_UnpackSideInfo??rA
        PUBWEAK ?init?tab?DATA_I
        PUBWEAK ?init?tab?DATA_Z
        PUBLIC AboutOnKey
        FUNCTION AboutOnKey,0603H
        PUBLIC AddMenuItem
        FUNCTION AddMenuItem,0203H
        LOCFRAME CSTACK, 12, STACK
        PUBLIC AudioInit
        FUNCTION AudioInit,0201H
        LOCFRAME CSTACK, 12, STACK
        PUBLIC AudioStart
        FUNCTION AudioStart,0201H
        LOCFRAME CSTACK, 16, STACK
        PUBLIC AudioStop
        FUNCTION AudioStop,0201H
        LOCFRAME CSTACK, 20, STACK
        PUBLIC AudioTerminate
        FUNCTION AudioTerminate,0201H
        LOCFRAME CSTACK, 16, STACK
        PUBLIC BUFFERSIZE
        PUBLIC BuffPos
        FUNCTION BuffPos,0201H
        PUBLIC ButtonsText
        PUBLIC Canvas
        PUBLIC ClearMenu
        FUNCTION ClearMenu,0201H
        PUBLIC ControlKeys
        FUNCTION ControlKeys,0203H
        LOCFRAME CSTACK, 24, STACK
        PUBLIC DrawMenu
        FUNCTION DrawMenu,0201H
        LOCFRAME CSTACK, 76, STACK
        PUBLIC ElfKiller
        FUNCTION ElfKiller,0603H
        LOCFRAME CSTACK, 4, STACK
        PUBLIC EnumFolder
        FUNCTION EnumFolder,0203H
        LOCFRAME CSTACK, 28, STACK
        PUBLIC ExtractFileName
        FUNCTION ExtractFileName,0203H
        PUBLIC FilesMenuOnKey
        FUNCTION FilesMenuOnKey,0603H
        LOCFRAME CSTACK, 20, STACK
        PUBLIC FillBuffer
        FUNCTION FillBuffer,0201H
        LOCFRAME CSTACK, 20, STACK
        PUBLIC FillBuffer1
        FUNCTION FillBuffer1,0201H
        LOCFRAME CSTACK, 16, STACK
        PUBLIC FillBuffer2
        FUNCTION FillBuffer2,0201H
        LOCFRAME CSTACK, 16, STACK
        PUBLIC FreeMp3
        FUNCTION FreeMp3,0201H
        LOCFRAME CSTACK, 8, STACK
        PUBLIC GetBuffEnd
        FUNCTION GetBuffEnd,0201H
        PUBLIC GetBuffPos
        FUNCTION GetBuffPos,0201H
        PUBLIC GetSound
        FUNCTION GetSound,0201H
        LOCFRAME CSTACK, 32, STACK
        PUBLIC ImaCodeBlock
        FUNCTION ImaCodeBlock,0203H
        LOCFRAME CSTACK, 40, STACK
        PUBLIC IsFile
        FUNCTION IsFile,0203H
        PUBLIC IsMP3
        FUNCTION IsMP3,0203H
        PUBLIC ItemTypes
        PUBLIC LoadParams
        FUNCTION LoadParams,0201H
        LOCFRAME CSTACK, 20, STACK
        PUBLIC MAINCSM
        PUBLIC MAINCSM_ID
        PUBLIC MAINGUI_ID
        PUBLIC MP3Buf
        PUBLIC MP3Bufpos
        FUNCTION MP3ClearBadFrame,0203H
        PUBLIC MP3DEC
        PUBLIC MP3Decode
        FUNCTION MP3Decode,0203H
        LOCFRAME CSTACK, 56, STACK
        PUBLIC MP3FindSyncWord
        FUNCTION MP3FindSyncWord,0203H
        PUBLIC MP3FreeDecoder
        FUNCTION MP3FreeDecoder,0203H
        LOCFRAME CSTACK, 4, STACK
        PUBLIC MP3GetLastFrameInfo
        FUNCTION MP3GetLastFrameInfo,0203H
        LOCFRAME CSTACK, 12, STACK
        PUBLIC MP3GetNextFrameInfo
        FUNCTION MP3GetNextFrameInfo,0203H
        LOCFRAME CSTACK, 12, STACK
        PUBLIC MP3InitDecoder
        FUNCTION MP3InitDecoder,0203H
        LOCFRAME CSTACK, 4, STACK
        PUBLIC MainMenuOnKey
        FUNCTION MainMenuOnKey,0603H
        LOCFRAME CSTACK, 12, STACK
        PUBLIC MenuActive
        PUBLIC MenuFree
        FUNCTION MenuFree,0201H
        LOCFRAME CSTACK, 4, STACK
        PUBLIC MenuInit
        FUNCTION MenuInit,0201H
        LOCFRAME CSTACK, 4, STACK
        PUBLIC MenuItems
        PUBLIC MenuOnKey
        FUNCTION MenuOnKey,0203H
        LOCFRAME CSTACK, 4, STACK
        PUBLIC MenuOnKeySub
        PUBLIC MenuTerminate
        FUNCTION MenuTerminate,0201H
        LOCFRAME CSTACK, 4, STACK
        PUBLIC Mp3Init
        FUNCTION Mp3Init,0201H
        LOCFRAME CSTACK, 28, STACK
        PUBLIC NumOfItems
        PUBLIC OnKey
        FUNCTION OnKey,0603H
        LOCFRAME CSTACK, 8, STACK
        PUBLIC OnRedraw
        FUNCTION OnRedraw,0603H
        LOCFRAME CSTACK, 68, STACK
        PUBLIC PB
        FUNCTION PB,0601H
        LOCFRAME CSTACK, 36, STACK
        PUBLIC Paused
        PUBLIC PlayCurrent
        FUNCTION PlayCurrent,0201H
        LOCFRAME CSTACK, 4, STACK
        PUBLIC PlayMp3
        PUBLIC PlayTime
        PUBLIC Playing
        PUBLIC PlaylistOnKey
        FUNCTION PlaylistOnKey,0603H
        LOCFRAME CSTACK, 16, STACK
        PUBLIC ReadMp3File
        FUNCTION ReadMp3File,0201H
        LOCFRAME CSTACK, 12, STACK
        PUBLIC RipKeys
        FUNCTION RipKeys,0203H
        LOCFRAME CSTACK, 4, STACK
        PUBLIC RipLen
        PUBLIC RipToFile
        FUNCTION RipToFile,0601H
        LOCFRAME CSTACK, 40, STACK
        PUBLIC Ripping
        PUBLIC SaveParams
        FUNCTION SaveParams,0201H
        LOCFRAME CSTACK, 20, STACK
        PUBLIC Selected
        PUBLIC SetLoop
        FUNCTION SetLoop,0203H
        PUBLIC ShowAbout
        FUNCTION ShowAbout,0201H
        LOCFRAME CSTACK, 12, STACK
        PUBLIC ShowCursor
        PUBLIC ShowFilesMenu
        FUNCTION ShowFilesMenu,0201H
        LOCFRAME CSTACK, 8, STACK
        PUBLIC ShowMainMenu
        FUNCTION ShowMainMenu,0201H
        LOCFRAME CSTACK, 12, STACK
        PUBLIC ShowPlaylist
        FUNCTION ShowPlaylist,0201H
        LOCFRAME CSTACK, 12, STACK
        PUBLIC SoftVol
        PUBLIC UpdateCSMname
        FUNCTION UpdateCSMname,0203H
        LOCFRAME CSTACK, 8, STACK
        PUBLIC UpdateShowName
        FUNCTION UpdateShowName,0201H
        LOCFRAME CSTACK, 8, STACK
        PUBLIC Volume
        PUBLIC WB
        PUBLIC WavHdr
        PUBLIC WaveParams
        PUBLIC Wavebuf
        PUBLIC ZeroCounter
        FUNCTION ZeroCounter,0201H
        PUBLIC buffer
        PUBLIC bytesLeft
        PUBLIC channels
        PUBLIC curfilerand
        PUBLIC curpath
        PUBLIC currbuf
        PUBLIC currentfile
        PUBLIC endoffile
        PUBLIC err
        PUBLIC filename
        PUBLIC files
        PUBLIC framebuf
        PUBLIC framepos
        PUBLIC framesize
        PUBLIC fromplaylist
        PUBLIC gui_methods
        PUBLIC ima1
        PUBLIC ima_step
        PUBLIC loop
        PUBLIC main
        FUNCTION main,0a03H
        LOCFRAME CSTACK, 56, STACK
        PUBLIC maincsm_name_body
        PUBLIC maincsm_onclose
        FUNCTION maincsm_onclose,0603H
        LOCFRAME CSTACK, 4, STACK
        PUBLIC maincsm_oncreate
        FUNCTION maincsm_oncreate,0603H
        LOCFRAME CSTACK, 12, STACK
        PUBLIC maincsm_onmessage
        FUNCTION maincsm_onmessage,0603H
        PUBLIC method7
        FUNCTION method7,0203H
        LOCFRAME CSTACK, 12, STACK
        PUBLIC method8
        FUNCTION method8,0603H
        PUBLIC method9
        FUNCTION method9,0603H
        PUBLIC minus11
        PUBLIC mp3FrameInfo
        PUBLIC mp3handle
        PUBLIC newfile
        PUBLIC numfiles
        PUBLIC offcount
        PUBLIC offset
        PUBLIC onClose
        FUNCTION onClose,0603H
        LOCFRAME CSTACK, 12, STACK
        PUBLIC onCreate
        FUNCTION onCreate,0603H
        PUBLIC onFocus
        FUNCTION onFocus,0603H
        PUBLIC onUnfocus
        FUNCTION onUnfocus,0603H
        PUBLIC onstart
        FUNCTION onstart,0203H
        LOCFRAME CSTACK, 16, STACK
        PUBLIC randint
        FUNCTION randint,0203H
        LOCFRAME CSTACK, 8, STACK
        PUBLIC randomplay
        PUBLIC randseed
        PUBLIC samplepos
        PUBLIC samplerate
        PUBLIC samplesize
        PUBLIC showfilename
        PUBLIC timer
        PUBLIC wave
        
        CFI Names cfiNames0
        CFI StackFrame CFA R13 HUGEDATA
        CFI Resource R0:32, R1:32, R2:32, R3:32, R4:32, R5:32, R6:32, R7:32
        CFI Resource R8:32, R9:32, R10:32, R11:32, R12:32, CPSR:32, R13:32
        CFI Resource R14:32, SPSR:32
        CFI VirtualResource ?RET:32
        CFI EndNames cfiNames0
        
        CFI Common cfiCommon0 Using cfiNames0
        CFI CodeAlign 2
        CFI DataAlign 4
        CFI ReturnAddress ?RET CODE
        CFI CFA R13+0
        CFI R0 Undefined
        CFI R1 Undefined
        CFI R2 Undefined
        CFI R3 Undefined
        CFI R4 SameValue
        CFI R5 SameValue
        CFI R6 SameValue
        CFI R7 SameValue
        CFI R8 SameValue
        CFI R9 SameValue
        CFI R10 SameValue
        CFI R11 SameValue
        CFI R12 Undefined
        CFI CPSR SameValue
        CFI R14 Undefined
        CFI SPSR SameValue
        CFI ?RET R14
        CFI EndCommon cfiCommon0
        
        
        CFI Common cfiCommon1 Using cfiNames0
        CFI CodeAlign 4
        CFI DataAlign 4
        CFI ReturnAddress ?RET CODE
        CFI CFA R13+0
        CFI R0 Undefined
        CFI R1 Undefined
        CFI R2 Undefined
        CFI R3 Undefined
        CFI R4 SameValue
        CFI R5 SameValue
        CFI R6 SameValue
        CFI R7 SameValue
        CFI R8 SameValue
        CFI R9 SameValue
        CFI R10 SameValue
        CFI R11 SameValue
        CFI R12 Undefined
        CFI CPSR SameValue
        CFI R14 Undefined
        CFI SPSR SameValue
        CFI ?RET R14
        CFI EndCommon cfiCommon1
        
kill_data           SYMBOL "kill_data"
memcpy              SYMBOL "memcpy"
memset              SYMBOL "memset"
xmp3_AllocateBuffers SYMBOL "xmp3_AllocateBuffers"
xmp3_CheckPadBit    SYMBOL "xmp3_CheckPadBit"
xmp3_DecodeHuffman  SYMBOL "xmp3_DecodeHuffman"
xmp3_Dequantize     SYMBOL "xmp3_Dequantize"
xmp3_FreeBuffers    SYMBOL "xmp3_FreeBuffers"
xmp3_IMDCT          SYMBOL "xmp3_IMDCT"
xmp3_Subband        SYMBOL "xmp3_Subband"
xmp3_UnpackFrameHeader SYMBOL "xmp3_UnpackFrameHeader"
xmp3_UnpackScaleFactors SYMBOL "xmp3_UnpackScaleFactors"
xmp3_UnpackSideInfo SYMBOL "xmp3_UnpackSideInfo"
AboutOnKey          SYMBOL "AboutOnKey"
??AboutOnKey??rT    SYMBOL "??rT", AboutOnKey
AddMenuItem         SYMBOL "AddMenuItem"
??AddMenuItem??rT   SYMBOL "??rT", AddMenuItem
AudioInit           SYMBOL "AudioInit"
??AudioInit??rT     SYMBOL "??rT", AudioInit
AudioStart          SYMBOL "AudioStart"
??AudioStart??rT    SYMBOL "??rT", AudioStart
AudioStop           SYMBOL "AudioStop"
??AudioStop??rT     SYMBOL "??rT", AudioStop
AudioTerminate      SYMBOL "AudioTerminate"
??AudioTerminate??rT SYMBOL "??rT", AudioTerminate
BuffPos             SYMBOL "BuffPos"
??BuffPos??rT       SYMBOL "??rT", BuffPos
ClearMenu           SYMBOL "ClearMenu"
??ClearMenu??rT     SYMBOL "??rT", ClearMenu
ControlKeys         SYMBOL "ControlKeys"
??ControlKeys??rT   SYMBOL "??rT", ControlKeys
DrawMenu            SYMBOL "DrawMenu"
??DrawMenu??rT      SYMBOL "??rT", DrawMenu
ElfKiller           SYMBOL "ElfKiller"
??ElfKiller??rT     SYMBOL "??rT", ElfKiller
EnumFolder          SYMBOL "EnumFolder"
??EnumFolder??rT    SYMBOL "??rT", EnumFolder
ExtractFileName     SYMBOL "ExtractFileName"
??ExtractFileName??rT SYMBOL "??rT", ExtractFileName
FilesMenuOnKey      SYMBOL "FilesMenuOnKey"
??FilesMenuOnKey??rT SYMBOL "??rT", FilesMenuOnKey
FillBuffer1         SYMBOL "FillBuffer1"
??FillBuffer1??rT   SYMBOL "??rT", FillBuffer1
FillBuffer2         SYMBOL "FillBuffer2"
??FillBuffer2??rT   SYMBOL "??rT", FillBuffer2
FillBuffer          SYMBOL "FillBuffer"
??FillBuffer??rT    SYMBOL "??rT", FillBuffer
FreeMp3             SYMBOL "FreeMp3"
??FreeMp3??rT       SYMBOL "??rT", FreeMp3
GetBuffEnd          SYMBOL "GetBuffEnd"
??GetBuffEnd??rT    SYMBOL "??rT", GetBuffEnd
GetBuffPos          SYMBOL "GetBuffPos"
??GetBuffPos??rT    SYMBOL "??rT", GetBuffPos
GetSound            SYMBOL "GetSound"
??GetSound??rT      SYMBOL "??rT", GetSound
ImaCodeBlock        SYMBOL "ImaCodeBlock"
??ImaCodeBlock??rT  SYMBOL "??rT", ImaCodeBlock
IsFile              SYMBOL "IsFile"
??IsFile??rT        SYMBOL "??rT", IsFile
IsMP3               SYMBOL "IsMP3"
??IsMP3??rT         SYMBOL "??rT", IsMP3
LoadParams          SYMBOL "LoadParams"
??LoadParams??rT    SYMBOL "??rT", LoadParams
MP3Decode           SYMBOL "MP3Decode"
??MP3Decode??rT     SYMBOL "??rT", MP3Decode
MP3FindSyncWord     SYMBOL "MP3FindSyncWord"
??MP3FindSyncWord??rT SYMBOL "??rT", MP3FindSyncWord
MP3FreeDecoder      SYMBOL "MP3FreeDecoder"
??MP3FreeDecoder??rT SYMBOL "??rT", MP3FreeDecoder
MP3GetLastFrameInfo SYMBOL "MP3GetLastFrameInfo"
??MP3GetLastFrameInfo??rT SYMBOL "??rT", MP3GetLastFrameInfo
MP3GetNextFrameInfo SYMBOL "MP3GetNextFrameInfo"
??MP3GetNextFrameInfo??rT SYMBOL "??rT", MP3GetNextFrameInfo
MP3InitDecoder      SYMBOL "MP3InitDecoder"
??MP3InitDecoder??rT SYMBOL "??rT", MP3InitDecoder
MainMenuOnKey       SYMBOL "MainMenuOnKey"
??MainMenuOnKey??rT SYMBOL "??rT", MainMenuOnKey
MenuFree            SYMBOL "MenuFree"
??MenuFree??rT      SYMBOL "??rT", MenuFree
MenuInit            SYMBOL "MenuInit"
??MenuInit??rT      SYMBOL "??rT", MenuInit
MenuOnKey           SYMBOL "MenuOnKey"
??MenuOnKey??rT     SYMBOL "??rT", MenuOnKey
MenuTerminate       SYMBOL "MenuTerminate"
??MenuTerminate??rT SYMBOL "??rT", MenuTerminate
Mp3Init             SYMBOL "Mp3Init"
??Mp3Init??rT       SYMBOL "??rT", Mp3Init
OnKey               SYMBOL "OnKey"
??OnKey??rT         SYMBOL "??rT", OnKey
OnRedraw            SYMBOL "OnRedraw"
??OnRedraw??rT      SYMBOL "??rT", OnRedraw
PB                  SYMBOL "PB"
??PB??rT            SYMBOL "??rT", PB
PlayCurrent         SYMBOL "PlayCurrent"
??PlayCurrent??rT   SYMBOL "??rT", PlayCurrent
PlaylistOnKey       SYMBOL "PlaylistOnKey"
??PlaylistOnKey??rT SYMBOL "??rT", PlaylistOnKey
ReadMp3File         SYMBOL "ReadMp3File"
??ReadMp3File??rT   SYMBOL "??rT", ReadMp3File
RipKeys             SYMBOL "RipKeys"
??RipKeys??rT       SYMBOL "??rT", RipKeys
RipToFile           SYMBOL "RipToFile"
??RipToFile??rT     SYMBOL "??rT", RipToFile
SaveParams          SYMBOL "SaveParams"
??SaveParams??rT    SYMBOL "??rT", SaveParams
SetLoop             SYMBOL "SetLoop"
??SetLoop??rT       SYMBOL "??rT", SetLoop
ShowAbout           SYMBOL "ShowAbout"
??ShowAbout??rT     SYMBOL "??rT", ShowAbout
ShowFilesMenu       SYMBOL "ShowFilesMenu"
??ShowFilesMenu??rT SYMBOL "??rT", ShowFilesMenu
ShowMainMenu        SYMBOL "ShowMainMenu"
??ShowMainMenu??rT  SYMBOL "??rT", ShowMainMenu
ShowPlaylist        SYMBOL "ShowPlaylist"
??ShowPlaylist??rT  SYMBOL "??rT", ShowPlaylist
UpdateCSMname       SYMBOL "UpdateCSMname"
??UpdateCSMname??rT SYMBOL "??rT", UpdateCSMname
UpdateShowName      SYMBOL "UpdateShowName"
??UpdateShowName??rT SYMBOL "??rT", UpdateShowName
ZeroCounter         SYMBOL "ZeroCounter"
??ZeroCounter??rT   SYMBOL "??rT", ZeroCounter
??kill_data??rA     SYMBOL "??rA", kill_data
main                SYMBOL "main"
??main??rT          SYMBOL "??rT", main
maincsm_onclose     SYMBOL "maincsm_onclose"
??maincsm_onclose??rT SYMBOL "??rT", maincsm_onclose
maincsm_oncreate    SYMBOL "maincsm_oncreate"
??maincsm_oncreate??rT SYMBOL "??rT", maincsm_oncreate
maincsm_onmessage   SYMBOL "maincsm_onmessage"
??maincsm_onmessage??rT SYMBOL "??rT", maincsm_onmessage
??memcpy??rA        SYMBOL "??rA", memcpy
??memset??rA        SYMBOL "??rA", memset
method7             SYMBOL "method7"
??method7??rT       SYMBOL "??rT", method7
method8             SYMBOL "method8"
??method8??rT       SYMBOL "??rT", method8
method9             SYMBOL "method9"
??method9??rT       SYMBOL "??rT", method9
onClose             SYMBOL "onClose"
??onClose??rT       SYMBOL "??rT", onClose
onCreate            SYMBOL "onCreate"
??onCreate??rT      SYMBOL "??rT", onCreate
onFocus             SYMBOL "onFocus"
??onFocus??rT       SYMBOL "??rT", onFocus
onUnfocus           SYMBOL "onUnfocus"
??onUnfocus??rT     SYMBOL "??rT", onUnfocus
onstart             SYMBOL "onstart"
??onstart??rT       SYMBOL "??rT", onstart
randint             SYMBOL "randint"
??randint??rT       SYMBOL "??rT", randint
??xmp3_AllocateBuffers??rA SYMBOL "??rA", xmp3_AllocateBuffers
??xmp3_CheckPadBit??rA SYMBOL "??rA", xmp3_CheckPadBit
??xmp3_DecodeHuffman??rA SYMBOL "??rA", xmp3_DecodeHuffman
??xmp3_Dequantize??rA SYMBOL "??rA", xmp3_Dequantize
??xmp3_FreeBuffers??rA SYMBOL "??rA", xmp3_FreeBuffers
??xmp3_IMDCT??rA    SYMBOL "??rA", xmp3_IMDCT
??xmp3_Subband??rA  SYMBOL "??rA", xmp3_Subband
??xmp3_UnpackFrameHeader??rA SYMBOL "??rA", xmp3_UnpackFrameHeader
??xmp3_UnpackScaleFactors??rA SYMBOL "??rA", xmp3_UnpackScaleFactors
??xmp3_UnpackSideInfo??rA SYMBOL "??rA", xmp3_UnpackSideInfo

        EXTERN ELF_BEGIN
        EXTERN kill_data
        FUNCTION kill_data,0602H
        EXTERN memcpy
        FUNCTION memcpy,0202H
        EXTERN memset
        FUNCTION memset,0202H
        EXTERN xmp3_AllocateBuffers
        FUNCTION xmp3_AllocateBuffers,0202H
        EXTERN xmp3_CheckPadBit
        FUNCTION xmp3_CheckPadBit,0202H
        EXTERN xmp3_DecodeHuffman
        FUNCTION xmp3_DecodeHuffman,0202H
        EXTERN xmp3_Dequantize
        FUNCTION xmp3_Dequantize,0202H
        EXTERN xmp3_FreeBuffers
        FUNCTION xmp3_FreeBuffers,0202H
        EXTERN xmp3_IMDCT
        FUNCTION xmp3_IMDCT,0202H
        EXTERN xmp3_Subband
        FUNCTION xmp3_Subband,0202H
        EXTERN xmp3_UnpackFrameHeader
        FUNCTION xmp3_UnpackFrameHeader,0202H
        EXTERN xmp3_UnpackScaleFactors
        FUNCTION xmp3_UnpackScaleFactors,0202H
        EXTERN xmp3_UnpackSideInfo
        FUNCTION xmp3_UnpackSideInfo,0202H
        EXTERN xmp3_samplesPerFrameTab

// G:\Arm\SieELF\cbn_SRC\MP3Player\Main.c
//    1 #include "..\swilib.h"
//    2 //
//    3 void PlayCurrent();
//    4 char *filename;
//    5 char *files,*showfilename;
//    6 char fromplaylist;
//    7 short currentfile,curfilerand,newfile;
//    8 unsigned char numfiles,loop;

        RSEG DATA_Z:DATA:SORT:NOROOT(2)
//    9 unsigned long randseed;
randseed:
        DS8 4

        RSEG CODE:CODE:NOROOT(2)
        CFI Block cfiBlock0 Using cfiCommon0
        CFI NoFunction
        THUMB
??randint??rT:
        BX       PC
        Nop      
        CFI EndBlock cfiBlock0
        REQUIRE randint
//   10 
//   11 

        RSEG CODE:CODE:NOROOT(2)
        CFI Block cfiBlock1 Using cfiCommon1
        CFI Function randint
        ARM
//   12 unsigned long randint( long max )
//   13 {
//   14   randseed = randseed * 0x08088405;
//   15   randseed++;
randint:
        LDR      R1,??randint_0   ;; randseed
        LDR      R3,??randint_0+0x4  ;; 0x8088405
        PUSH     {R4}
        CFI R4 Frame(CFA, -4)
        CFI CFA R13+4
        LDR      R2,[R1, #+0]
        MUL      R2,R3,R2
//   16   return ((long long)randseed * max ) >> 32;
        ASR      R3,R0,#+31
        ADD      R4,R2,#+1
        STR      R4,[R1, #+0]
        MOV      R2,R0
        UMULL    R0,R1,R4,R2
        MLA      R1,R4,R3,R1
        POP      {R4}
        CFI R4 SameValue
        CFI CFA R13+0
        MOV      R0,R1
        BX       LR               ;; return
        DATA
??randint_0:
        DC32     randseed
        DC32     0x8088405
        CFI EndBlock cfiBlock1
//   17 }

        RSEG CODE:CODE:NOROOT(2)
        CFI Block cfiBlock2 Using cfiCommon0
        CFI NoFunction
        THUMB
??MP3InitDecoder??rT:
        BX       PC
        Nop      
        CFI EndBlock cfiBlock2
        REQUIRE MP3InitDecoder
//   18 
//   19 
//   20 #include "Siemens_MP3.c"

        RSEG CODE:CODE:NOROOT(2)
        CFI Block cfiBlock3 Using cfiCommon1
        CFI Function MP3InitDecoder
        ARM
// __??Code32?? __code __interwork __atpcs void * MP3InitDecoder(void)
MP3InitDecoder:
        _BF      xmp3_AllocateBuffers,??xmp3_AllocateBuffers??rA  ;; tailcall
        CFI EndBlock cfiBlock3

        RSEG CODE:CODE:NOROOT(2)
        CFI Block cfiBlock4 Using cfiCommon0
        CFI NoFunction
        THUMB
??MP3FreeDecoder??rT:
        BX       PC
        Nop      
        CFI EndBlock cfiBlock4
        REQUIRE MP3FreeDecoder

        RSEG CODE:CODE:NOROOT(2)
        CFI Block cfiBlock5 Using cfiCommon1
        CFI Function MP3FreeDecoder
        ARM
// __??Code32?? __code __interwork __atpcs void MP3FreeDecoder(void *)
MP3FreeDecoder:
        PUSH     {LR}
        CFI ?RET Frame(CFA, -4)
        CFI CFA R13+4
        CMP      R0,#+0
        POPEQ    {PC}
        _BLF     xmp3_FreeBuffers,??xmp3_FreeBuffers??rA
        POP      {PC}             ;; return
        CFI EndBlock cfiBlock5

        RSEG CODE:CODE:NOROOT(2)
        CFI Block cfiBlock6 Using cfiCommon0
        CFI NoFunction
        THUMB
??MP3FindSyncWord??rT:
        BX       PC
        Nop      
        CFI EndBlock cfiBlock6
        REQUIRE MP3FindSyncWord

        RSEG CODE:CODE:NOROOT(2)
        CFI Block cfiBlock7 Using cfiCommon1
        CFI Function MP3FindSyncWord
        ARM
// __??Code32?? __code __interwork __atpcs int MP3FindSyncWord(unsigned char *, int)
MP3FindSyncWord:
        MOV      R2,#+0
        SUB      R1,R1,#+1
        B        ??MP3FindSyncWord_0
??MP3FindSyncWord_1:
        ADD      R2,R2,#+1
??MP3FindSyncWord_0:
        CMP      R2,R1
        BGE      ??MP3FindSyncWord_2
        LDRB     R3,[R2, +R0]
        CMP      R3,#+255
        BNE      ??MP3FindSyncWord_1
        ADD      R3,R2,R0
        LDRB     R3,[R3, #+1]
        AND      R3,R3,#0xE0
        CMP      R3,#+224
        BNE      ??MP3FindSyncWord_1
        MOV      R0,R2
        BX       LR
??MP3FindSyncWord_2:
        MVN      R0,#+0
        BX       LR               ;; return
        CFI EndBlock cfiBlock7

        RSEG CODE:CODE:NOROOT(2)
        CFI Block cfiBlock8 Using cfiCommon0
        CFI NoFunction
        THUMB
??MP3GetLastFrameInfo??rT:
        BX       PC
        Nop      
        CFI EndBlock cfiBlock8
        REQUIRE MP3GetLastFrameInfo

        RSEG CODE:CODE:NOROOT(2)
        CFI Block cfiBlock9 Using cfiCommon1
        CFI Function MP3GetLastFrameInfo
        ARM
// __??Code32?? __code __interwork __atpcs void MP3GetLastFrameInfo(void *, MP3FrameInfo *)
MP3GetLastFrameInfo:
        PUSH     {R4-R6}
        CFI R6 Frame(CFA, -4)
        CFI R5 Frame(CFA, -8)
        CFI R4 Frame(CFA, -12)
        CFI CFA R13+12
        CMP      R0,#+0
        BEQ      ??MP3GetLastFrameInfo_0
        LDR      R2,[R0, #+2000]
        CMP      R2,#+3
        BEQ      ??MP3GetLastFrameInfo_1
        MOV      R0,#+0
??MP3GetLastFrameInfo_0:
        STR      R0,[R1, #+0]
        STR      R0,[R1, #+4]
        STR      R0,[R1, #+8]
        STR      R0,[R1, #+12]
        STR      R0,[R1, #+16]
        STR      R0,[R1, #+20]
        MOV      R0,#+0
        B        ??MP3GetLastFrameInfo_2
??MP3GetLastFrameInfo_1:
        LDR      R2,[R0, #+1976]
        LDR      R6,??MP3GetLastFrameInfo_3  ;; xmp3_samplesPerFrameTab
        STR      R2,[R1, #+0]
        LDR      R2,[R0, #+1980]
        MOV      R5,#+6
        STR      R2,[R1, #+4]
        LDR      R2,[R0, #+1984]
        STR      R2,[R1, #+8]
        MOV      R2,#+16
        STR      R2,[R1, #+12]
        LDR      R3,[R0, #+1980]
        LDR      R12,[R0, #+2000]
        MOV      R2,#+212
        ORR      R2,R2,#0x700
        LDRSB    R4,[R2, +R0]
        MLA      R4,R5,R4,R6
        ADD      R4,R4,R12, LSL #+1
        LDRSH    R4,[R4, #-2]
        MUL      R3,R4,R3
        STR      R3,[R1, #+16]
        LDR      R3,[R0, #+2000]
        STR      R3,[R1, #+20]
        LDRSB    R0,[R2, +R0]
??MP3GetLastFrameInfo_2:
        STR      R0,[R1, #+24]
        POP      {R4-R6}
        CFI R4 SameValue
        CFI R5 SameValue
        CFI R6 SameValue
        CFI CFA R13+0
        BX       LR               ;; return
        DATA
??MP3GetLastFrameInfo_3:
        DC32     xmp3_samplesPerFrameTab
        CFI EndBlock cfiBlock9

        RSEG CODE:CODE:NOROOT(2)
        CFI Block cfiBlock10 Using cfiCommon0
        CFI NoFunction
        THUMB
??MP3GetNextFrameInfo??rT:
        BX       PC
        Nop      
        CFI EndBlock cfiBlock10
        REQUIRE MP3GetNextFrameInfo

        RSEG CODE:CODE:NOROOT(2)
        CFI Block cfiBlock11 Using cfiCommon1
        CFI Function MP3GetNextFrameInfo
        ARM
// __??Code32?? __code __interwork __atpcs int MP3GetNextFrameInfo(void *, MP3FrameInfo *, unsigned char *)
MP3GetNextFrameInfo:
        PUSH     {R4,R5,LR}
        CFI ?RET Frame(CFA, -4)
        CFI R5 Frame(CFA, -8)
        CFI R4 Frame(CFA, -12)
        CFI CFA R13+12
        MOV      R4,R0
        CMP      R4,#+0
        MOV      R5,R1
        MOV      R1,R2
        MVNEQ    R0,#+4
        POPEQ    {R4,R5,PC}
        _BLF     xmp3_UnpackFrameHeader,??xmp3_UnpackFrameHeader??rA
        CMN      R0,#+1
        BEQ      ??MP3GetNextFrameInfo_0
        LDR      R0,[R4, #+2000]
        CMP      R0,#+3
        BEQ      ??MP3GetNextFrameInfo_1
??MP3GetNextFrameInfo_0:
        MVN      R0,#+5
        POP      {R4,R5,PC}
??MP3GetNextFrameInfo_1:
        MOV      R1,R5
        MOV      R0,R4
        BL       MP3GetLastFrameInfo
        MOV      R0,#+0
        POP      {R4,R5,PC}       ;; return
        CFI EndBlock cfiBlock11

        RSEG CODE:CODE:NOROOT(2)
        CFI Block cfiBlock12 Using cfiCommon0
        CFI NoFunction
        THUMB
??MP3ClearBadFrame??rT:
        BX       PC
        Nop      
        CFI EndBlock cfiBlock12
        REQUIRE MP3ClearBadFrame

        RSEG CODE:CODE:NOROOT(2)
        CFI Block cfiBlock13 Using cfiCommon1
        CFI Function MP3ClearBadFrame
        ARM
// static __??Code32?? __code __interwork __atpcs void MP3ClearBadFrame(struct _MP3DecInfo *, short *)
MP3ClearBadFrame:
        CMP      R0,#+0
        BXEQ     LR
        MOV      R2,#+0
        B        ??MP3ClearBadFrame_0
??MP3ClearBadFrame_1:
        ADD      R3,R1,R2, LSL #+1
        MOV      R12,#+0
        STRH     R12,[R3, #+0]
        ADD      R2,R2,#+1
??MP3ClearBadFrame_0:
        LDR      R3,[R0, #+1988]
        LDR      R12,[R0, #+1992]
        MUL      R3,R12,R3
        LDR      R12,[R0, #+1980]
        MUL      R3,R12,R3
        CMP      R2,R3
        BLT      ??MP3ClearBadFrame_1
        BX       LR               ;; return
        CFI EndBlock cfiBlock13

        RSEG CODE:CODE:NOROOT(2)
        CFI Block cfiBlock14 Using cfiCommon0
        CFI NoFunction
        THUMB
??MP3Decode??rT:
        BX       PC
        Nop      
        CFI EndBlock cfiBlock14
        REQUIRE MP3Decode

        RSEG CODE:CODE:NOROOT(2)
        CFI Block cfiBlock15 Using cfiCommon1
        CFI Function MP3Decode
        ARM
// __??Code32?? __code __interwork __atpcs int MP3Decode(void *, unsigned char **, int *, short *, int)
MP3Decode:
        PUSH     {R4-R11,LR}
        CFI ?RET Frame(CFA, -4)
        CFI R11 Frame(CFA, -8)
        CFI R10 Frame(CFA, -12)
        CFI R9 Frame(CFA, -16)
        CFI R8 Frame(CFA, -20)
        CFI R7 Frame(CFA, -24)
        CFI R6 Frame(CFA, -28)
        CFI R5 Frame(CFA, -32)
        CFI R4 Frame(CFA, -36)
        CFI CFA R13+36
        SUB      SP,SP,#+12
        CFI CFA R13+48
        MOV      R4,R0
        MOV      R5,R1
        MOV      R6,R2
        MOV      R7,R3
        CMP      R4,#+0
        MVNEQ    R0,#+4
        POPEQ    {R1-R11,PC}
        LDR      R1,[R5, #+0]
        _BLF     xmp3_UnpackFrameHeader,??xmp3_UnpackFrameHeader??rA
        STR      R0,[SP, #+4]
        CMP      R0,#+0
        BMI      ??MP3Decode_0
        LDR      R1,[R5, #+0]
        ADD      R1,R0,R1
        STR      R1,[R5, #+0]
        MOV      R0,R4
        _BLF     xmp3_UnpackSideInfo,??xmp3_UnpackSideInfo??rA
        MOVS     R8,R0
        BPL      ??MP3Decode_1
        MOV      R1,R7
        MOV      R0,R4
        BL       MP3ClearBadFrame
        MVN      R0,#+6
        POP      {R1-R11,PC}
??MP3Decode_1:
        LDR      R0,[R5, #+0]
        ADD      R0,R8,R0
        STR      R0,[R5, #+0]
        LDR      R1,[R6, #+0]
        LDR      R2,[SP, #+4]
        SUB      R1,R1,R2
        SUB      R1,R1,R8
        STR      R1,[R6, #+0]
        LDR      R1,[R4, #+1976]
        CMP      R1,#+0
        BEQ      ??MP3Decode_2
        LDR      R1,[R4, #+1968]
        CMP      R1,#+0
        BEQ      ??MP3Decode_3
??MP3Decode_2:
        LDR      R1,[R4, #+1968]
        CMP      R1,#+0
        BNE      ??MP3Decode_4
        MOV      R1,#+1
        STR      R1,[R4, #+1968]
        LDR      R2,[SP, #+4]
        LDR      R9,[R6, #+0]
        MOV      R1,R8
        RSB      R1,R1,#+0
        RSB      R2,R2,#+0
        ADD      R2,R2,R0
        ADD      R10,R1,R2
        STR      R0,[SP, #+8]
        MOV      R11,R0
        B        ??MP3Decode_5
??MP3Decode_6:
        ADD      R11,R1,#+3
        SUB      R0,R9,R0
        SUB      R9,R0,#+3
??MP3Decode_5:
        MOV      R1,R9
        MOV      R0,R11
        BL       MP3FindSyncWord
        ADD      R1,R0,R11
        CMP      R0,#+0
        MVNMI    R0,#+0
        BMI      ??MP3Decode_7
        LDRB     R2,[R1, #+0]
        LDRB     R3,[R10, #+0]
        CMP      R2,R3
        BNE      ??MP3Decode_6
        LDRB     R2,[R1, #+1]
        LDRB     R3,[R10, #+1]
        CMP      R2,R3
        BNE      ??MP3Decode_6
        LDRB     R2,[R1, #+2]
        LDRB     R3,[R10, #+2]
        AND      R2,R2,#0xFC
        AND      R3,R3,#0xFC
        CMP      R2,R3
        BNE      ??MP3Decode_6
        LDRB     R0,[R10, #+2]
        TST      R0,#0x2
        LDR      R0,[SP, #+8]
        SUBNE    R1,R1,#+1
        SUB      R0,R1,R0
??MP3Decode_7:
        STR      R0,[R4, #+1972]
        CMP      R0,#+0
        BPL      ??MP3Decode_8
        MOV      R1,R7
        MOV      R0,R4
        BL       MP3ClearBadFrame
        MVN      R0,#+2
        POP      {R1-R11,PC}
??MP3Decode_8:
        LDR      R1,[SP, #+4]
        LDR      R2,[R4, #+1992]
        ADD      R0,R1,R0
        LDR      R1,[R4, #+1984]
        ADD      R0,R8,R0
        MUL      R0,R1,R0
        LDR      R1,[R4, #+1988]
        LSL      R0,R0,#+3
        MUL      R1,R2,R1
        _BLF     ??div32_a,??rA??div32_a
        STR      R1,[R4, #+1976]
??MP3Decode_4:
        LDR      R8,[R4, #+1972]
        MOV      R0,R4
        _BLF     xmp3_CheckPadBit,??xmp3_CheckPadBit??rA
        ADD      R0,R0,R8
        STR      R0,[R4, #+1996]
??MP3Decode_3:
        LDR      R2,[SP, #+48]
        LDR      R1,[R5, #+0]
        LDR      R0,[R6, #+0]
        CMP      R2,#+0
        BEQ      ??MP3Decode_9
        STR      R0,[R4, #+1996]
        LDR      R0,[R4, #+2008]
        CMP      R0,#+0
        BNE      ??MP3Decode_10
        LDR      R0,[R4, #+1996]
        CMP      R0,#+1
        BGE      ??MP3Decode_11
??MP3Decode_10:
        MOV      R1,R7
        MOV      R0,R4
        BL       MP3ClearBadFrame
??MP3Decode_0:
        MVN      R0,#+5
        POP      {R1-R11,PC}
??MP3Decode_11:
        STR      R0,[R4, #+2012]
        MOV      R8,R1
??MP3Decode_12:
        ADD      R0,R0,R1
        STR      R0,[R5, #+0]
        LDR      R0,[R6, #+0]
        LDR      R1,[R4, #+1996]
        SUB      R0,R0,R1
        STR      R0,[R6, #+0]
        MOV      R1,#+0
        STR      R1,[SP, #+0]
        LDR      R0,[R4, #+2012]
        MOV      R6,#+0
        LSL      R5,R0,#+3
        B        ??MP3Decode_13
??MP3Decode_9:
        LDR      R2,[R4, #+1996]
        CMP      R0,R2
        BGE      ??MP3Decode_14
        MOV      R1,R7
        MOV      R0,R4
        BL       MP3ClearBadFrame
        MVN      R0,#+0
        POP      {R1-R11,PC}
??MP3Decode_14:
        LDR      R0,[R4, #+2012]
        LDR      R2,[R4, #+2008]
        CMP      R0,R2
        BLT      ??MP3Decode_15
        LDR      R1,[R4, #+2012]
        MOV      R0,R2
        RSB      R0,R0,#+0
        ADD      R1,R1,R4
        ADD      R0,R0,R1
        ADD      R1,R0,#+28
        ADD      R0,R4,#+28
        _BLF     memcpy,??memcpy??rA
        LDR      R0,[R4, #+2008]
        LDR      R2,[R4, #+1996]
        LDR      R1,[R5, #+0]
        ADD      R0,R0,R4
        ADD      R0,R0,#+28
        _BLF     memcpy,??memcpy??rA
        LDR      R0,[R4, #+2008]
        LDR      R1,[R4, #+1996]
        ADD      R8,R4,#+28
        ADD      R0,R1,R0
        STR      R0,[R4, #+2012]
        MOV      R0,R1
        LDR      R1,[R5, #+0]
        B        ??MP3Decode_12
??MP3Decode_15:
        LDR      R2,[R4, #+1996]
        ADD      R0,R0,R4
        ADD      R0,R0,#+28
        _BLF     memcpy,??memcpy??rA
        LDR      R0,[R4, #+2012]
        LDR      R1,[R4, #+1996]
        ADD      R0,R1,R0
        STR      R0,[R4, #+2012]
        MOV      R0,R1
        LDR      R1,[R5, #+0]
        ADD      R0,R0,R1
        STR      R0,[R5, #+0]
        LDR      R0,[R6, #+0]
        LDR      R1,[R4, #+1996]
        SUB      R0,R0,R1
        STR      R0,[R6, #+0]
        MOV      R1,R7
        MOV      R0,R4
        BL       MP3ClearBadFrame
        MVN      R0,#+1
        POP      {R1-R11,PC}
??MP3Decode_16:
        ADD      R6,R6,#+1
??MP3Decode_13:
        LDR      R0,[R4, #+1988]
        CMP      R6,R0
        BGE      ??MP3Decode_17
        MOV      R9,#+0
        B        ??MP3Decode_18
??MP3Decode_19:
        LDR      R1,[SP, #+0]
        ADD      R8,R0,R8
        SUB      R0,R5,R0, LSL #+3
        ADD      R0,R10,R0
        SUB      R5,R0,R1
        ADD      R9,R9,#+1
??MP3Decode_18:
        LDR      R0,[R4, #+1980]
        CMP      R9,R0
        BGE      ??MP3Decode_20
        LDR      R10,[SP, #+0]
        MOV      R0,R9
        PUSH     {R0}
        CFI CFA R13+52
        MOV      R3,R5
        MOV      R1,R8
        MOV      R0,R6
        PUSH     {R0}
        CFI CFA R13+56
        ADD      R2,SP,#+8
        MOV      R0,R4
        _BLF     xmp3_UnpackScaleFactors,??xmp3_UnpackScaleFactors??rA
        LDR      R2,[SP, #+8]
        RSB      R1,R10,R0, LSL #+3
        ADD      R1,R2,R1
        ADD      R2,R4,R6, LSL #+3
        ADD      R2,R2,R9, LSL #+2
        LDR      R2,[R2, #+2016]
        ADD      R8,R0,R8
        SUB      R3,R2,R1
        SUB      R5,R5,R1
        CMP      R0,#+0
        ADD      SP,SP,#+8
        CFI CFA R13+48
        BMI      ??MP3Decode_21
        CMP      R5,R3
        BGE      ??MP3Decode_22
??MP3Decode_21:
        MOV      R1,R7
        MOV      R0,R4
        BL       MP3ClearBadFrame
        MVN      R0,#+7
        POP      {R1-R11,PC}
??MP3Decode_22:
        LDR      R10,[SP, #+0]
        MOV      R0,R9
        PUSH     {R0}
        CFI CFA R13+52
        MOV      R1,R8
        MOV      R0,R6
        PUSH     {R0}
        CFI CFA R13+56
        ADD      R2,SP,#+8
        MOV      R0,R4
        _BLF     xmp3_DecodeHuffman,??xmp3_DecodeHuffman??rA
        CMP      R0,#+0
        ADD      SP,SP,#+8
        CFI CFA R13+48
        BPL      ??MP3Decode_19
        MOV      R1,R7
        MOV      R0,R4
        BL       MP3ClearBadFrame
        MVN      R0,#+8
        POP      {R1-R11,PC}
??MP3Decode_20:
        MOV      R1,R6
        MOV      R0,R4
        _BLF     xmp3_Dequantize,??xmp3_Dequantize??rA
        CMP      R0,#+0
        BPL      ??MP3Decode_23
        MOV      R1,R7
        MOV      R0,R4
        BL       MP3ClearBadFrame
        MVN      R0,#+9
        POP      {R1-R11,PC}
??MP3Decode_23:
        MOV      R9,#+0
        B        ??MP3Decode_24
??MP3Decode_25:
        ADD      R9,R9,#+1
??MP3Decode_24:
        LDR      R0,[R4, #+1980]
        CMP      R9,R0
        BGE      ??MP3Decode_26
        MOV      R2,R9
        MOV      R1,R6
        MOV      R0,R4
        _BLF     xmp3_IMDCT,??xmp3_IMDCT??rA
        CMP      R0,#+0
        BPL      ??MP3Decode_25
        MOV      R1,R7
        MOV      R0,R4
        BL       MP3ClearBadFrame
        MVN      R0,#+10
        POP      {R1-R11,PC}
??MP3Decode_26:
        LDR      R0,[R4, #+1992]
        MUL      R1,R0,R6
        LDR      R0,[R4, #+1980]
        MUL      R1,R0,R1
        MOV      R0,R4
        ADD      R1,R7,R1, LSL #+1
        _BLF     xmp3_Subband,??xmp3_Subband??rA
        CMP      R0,#+0
        BPL      ??MP3Decode_16
        MOV      R1,R7
        MOV      R0,R4
        BL       MP3ClearBadFrame
        MVN      R0,#+11
        POP      {R1-R11,PC}
??MP3Decode_17:
        MOV      R0,#+0
        POP      {R1-R11,PC}      ;; return
        CFI EndBlock cfiBlock15

        RSEG CODE:CODE:NOROOT(2)
        CFI Block cfiBlock16 Using cfiCommon0
        CFI NoFunction
        THUMB
??ReadMp3File??rT:
        BX       PC
        Nop      
        CFI EndBlock cfiBlock16
        REQUIRE ReadMp3File

        RSEG DATA_Z:DATA:SORT:NOROOT(2)
// int __data framesize
framesize:
        DS8 4

        RSEG CODE:CODE:NOROOT(2)
        CFI Block cfiBlock17 Using cfiCommon1
        CFI Function ReadMp3File
        ARM
// __??Code32?? __code __interwork __atpcs void ReadMp3File()
ReadMp3File:
        PUSH     {R4,R5,LR}
        CFI ?RET Frame(CFA, -4)
        CFI R5 Frame(CFA, -8)
        CFI R4 Frame(CFA, -12)
        CFI CFA R13+12
        LDR      R4,??DataTable23  ;; currentfile
        MOV      R5,#+656
        LDRSB    R0,[R5, +R4]
        CMP      R0,#+1
        POPEQ    {R4,R5,PC}
        LDR      R2,[R4, #+64]
        LDR      R1,[R4, #+52]
        LDR      R0,[R4, #+48]
        _BLF     memcpy,??memcpy??rA
        LDR      R0,[R4, #+64]
        MOV      R1,#+148
        ORR      R1,R1,#0x700
        SUB      R2,R1,R0
        LDR      R1,[R4, #+48]
        ADD      R3,R4,#+72
        ADD      R1,R0,R1
        LDR      R0,[R4, #+60]
        SWI      +11
        CMP      R0,#+0
        MOVEQ    R1,#+1
        STRBEQ   R1,[R5, +R4]
        LDR      R1,[R4, #+64]
        ADD      R0,R0,R1
        STR      R0,[R4, #+64]
        LDR      R0,[R4, #+48]
        STR      R0,[R4, #+52]
        POP      {R4,R5,PC}       ;; return
        CFI EndBlock cfiBlock17

        RSEG CODE:CODE:NOROOT(2)
        CFI Block cfiBlock18 Using cfiCommon0
        CFI NoFunction
        THUMB
??FreeMp3??rT:
        BX       PC
        Nop      
        CFI EndBlock cfiBlock18
        REQUIRE FreeMp3

        RSEG CODE:CODE:NOROOT(2)
        CFI Block cfiBlock19 Using cfiCommon1
        CFI Function FreeMp3
        ARM
// __??Code32?? __code __interwork __atpcs void FreeMp3()
FreeMp3:
        PUSH     {R4,LR}
        CFI ?RET Frame(CFA, -4)
        CFI R4 Frame(CFA, -8)
        CFI CFA R13+8
        LDR      R4,??DataTable23  ;; currentfile
        ADD      R1,R4,#+72
        LDR      R0,[R4, #+60]
        SWI      +13
        LDR      R0,[R4, #+48]
        CMP      R0,#+0
        BEQ      ??FreeMp3_0
        SWI      +21
??FreeMp3_0:
        LDR      R0,[R4, #+76]
        CMP      R0,#+0
        BEQ      ??FreeMp3_1
        SWI      +21
??FreeMp3_1:
        LDR      R0,[R4, #+80]
        CMP      R0,#+0
        POPEQ    {R4,PC}
        SWI      +21
        POP      {R4,PC}          ;; return
        CFI EndBlock cfiBlock19

        RSEG CODE:CODE:NOROOT(2)
        CFI Block cfiBlock20 Using cfiCommon0
        CFI NoFunction
        THUMB
??GetSound??rT:
        BX       PC
        Nop      
        CFI EndBlock cfiBlock20
        REQUIRE GetSound

        RSEG CODE:CODE:NOROOT(2)
        CFI Block cfiBlock21 Using cfiCommon1
        CFI Function GetSound
        ARM
// __??Code32?? __code __interwork __atpcs signed short GetSound()
GetSound:
        PUSH     {R4-R9,LR}
        CFI ?RET Frame(CFA, -4)
        CFI R9 Frame(CFA, -8)
        CFI R8 Frame(CFA, -12)
        CFI R7 Frame(CFA, -16)
        CFI R6 Frame(CFA, -20)
        CFI R5 Frame(CFA, -24)
        CFI R4 Frame(CFA, -28)
        CFI CFA R13+28
        LDR      R5,??DataTable23  ;; currentfile
        MOV      R4,#+143
        ORR      R4,R4,#0x200
        LDRSB    R0,[R4, +R5]
        CMP      R0,#+0
        POPEQ    {R4-R9,PC}
        LDR      R0,[R5, #+96]
        LDR      R2,??DataTable3  ;; 0x10624dd3
        LDR      R1,[R5, #+84]
        LSL      R0,R0,#+16
        UMULL    R3,R6,R2,R0
        LSR      R6,R6,#+10
        ADD      R1,R6,R1
        STR      R1,[R5, #+84]
        CMP      R1,R0
        BCC      ??GetSound_0
        SUB      R0,R1,R0
        STR      R0,[R5, #+84]
        MOV      R6,#+0
        MOV      R7,#+0
        B        ??GetSound_1
??GetSound_2:
        ADD      R1,R0,R8
        STR      R1,[R5, #+52]
        SUB      R0,R9,R0
        STR      R0,[R5, #+64]
        MOV      R0,#+0
        PUSH     {R0}
        CFI CFA R13+32
        LDR      R3,[R5, #+80]
        LDR      R0,[R5, #+56]
        ADD      R2,R5,#+64
        ADD      R1,R5,#+52
        BL       MP3Decode
        STR      R0,[R5, #+72]
        LDR      R0,[R5, #+64]
        MOV      R1,#+40
        ORR      R1,R1,#0xF00
        CMP      R0,R1
        ADD      SP,SP,#+4
        CFI CFA R13+28
        BGE      ??GetSound_3
        BL       ReadMp3File
??GetSound_3:
        STR      R7,[R5, #+88]
??GetSound_1:
        LDR      R0,[R5, #+96]
        CMP      R6,R0
        BCS      ??GetSound_0
        LDR      R1,[R5, #+88]
        LDR      R2,[R5, #+80]
        LDR      R0,[R5, #+76]
        ADD      R1,R2,R1, LSL #+1
        LDRSH    R1,[R1, #+0]
        ADD      R0,R0,R6, LSL #+1
        ADD      R6,R6,#+1
        STRH     R1,[R0, #+0]
        LDR      R0,[R5, #+88]
        ADD      R1,R4,#+2
        LDRSB    R1,[R1, +R5]
        ADD      R0,R1,R0
        LDR      R1,[R5, #+92]
        STR      R0,[R5, #+88]
        CMP      R0,R1
        BCC      ??GetSound_1
        LDR      R8,[R5, #+52]
        LDR      R9,[R5, #+64]
        MOV      R0,R8
        MOV      R1,R9
        BL       MP3FindSyncWord
        STR      R0,[R5, #+68]
        CMP      R0,#+0
        BPL      ??GetSound_2
        STRB     R7,[R4, +R5]
        MOV      R0,#+0
        POP      {R4-R9,PC}
??GetSound_0:
        LDR      R0,[R5, #+84]
        LDR      R1,[R5, #+76]
        LSR      R0,R0,#+16
        ADD      R0,R1,R0, LSL #+1
        LDRSH    R0,[R0, #+0]
        POP      {R4-R9,PC}       ;; return
        CFI EndBlock cfiBlock21

        RSEG CODE:CODE:NOROOT(2)
        DATA
??DataTable3:
        DC32     0x10624dd3

        RSEG CODE:CODE:NOROOT(2)
        CFI Block cfiBlock22 Using cfiCommon0
        CFI NoFunction
        THUMB
??Mp3Init??rT:
        BX       PC
        Nop      
        CFI EndBlock cfiBlock22
        REQUIRE Mp3Init

        RSEG CODE:CODE:NOROOT(2)
        CFI Block cfiBlock23 Using cfiCommon1
        CFI Function Mp3Init
        ARM
// __??Code32?? __code __interwork __atpcs void Mp3Init()
Mp3Init:
        PUSH     {R4-R8,LR}
        CFI ?RET Frame(CFA, -4)
        CFI R8 Frame(CFA, -8)
        CFI R7 Frame(CFA, -12)
        CFI R6 Frame(CFA, -16)
        CFI R5 Frame(CFA, -20)
        CFI R4 Frame(CFA, -24)
        CFI CFA R13+24
        LDR      R5,??DataTable23  ;; currentfile
        MOV      R4,#+0
        STR      R4,[R5, #+48]
        STR      R4,[R5, #+76]
        STR      R4,[R5, #+80]
        MOV      R7,#+148
        ORR      R7,R7,#0x700
        MOV      R0,R7
        SWI      +20
        STR      R0,[R5, #+48]
        LDR      R0,[R5, #+36]
        ADD      R3,R5,#+72
        MOV      R2,#+128
        MOV      R1,#+32768
        SWI      +10
        STR      R0,[R5, #+60]
        MOV      R6,#+143
        ORR      R6,R6,#0x200
        CMN      R0,#+1
        STRBEQ   R4,[R6, +R5]
        POPEQ    {R4-R8,PC}
        LDR      R1,[R5, #+48]
        ADD      R3,R5,#+72
        MOV      R2,R7
        SWI      +11
        STR      R0,[R5, #+64]
        _BLF     xmp3_AllocateBuffers,??xmp3_AllocateBuffers??rA
        LDR      R7,[R5, #+48]
        LDR      R8,[R5, #+64]
        STR      R0,[R5, #+56]
        STR      R7,[R5, #+52]
        MOV      R1,R8
        MOV      R0,R7
        BL       MP3FindSyncWord
        STR      R0,[R5, #+68]
        ADD      R1,R0,R7
        STR      R1,[R5, #+52]
        SUB      R0,R8,R0
        STR      R0,[R5, #+64]
        MOV      R0,#+16384
        SWI      +20
        STR      R0,[R5, #+80]
        MOV      R0,#+0
        PUSH     {R0}
        CFI CFA R13+28
        LDR      R3,[R5, #+80]
        LDR      R0,[R5, #+56]
        ADD      R2,R5,#+64
        ADD      R1,R5,#+52
        BL       MP3Decode
        STR      R0,[R5, #+72]
        LDR      R0,[R5, #+80]
        SWI      +21
        LDR      R0,[R5, #+56]
        ADD      R1,R5,#+8
        BL       MP3GetLastFrameInfo
        LDR      R0,[R5, #+24]
        LSL      R0,R0,#+1
        SWI      +20
        STR      R0,[R5, #+80]
        LDR      R0,[R5, #+16]
        LSL      R0,R0,#+1
        SWI      +20
        STR      R0,[R5, #+76]
        LDR      R0,[R5, #+16]
        MOV      R1,R4
        LSL      R2,R0,#+1
        LDR      R0,[R5, #+76]
        _BLF     memset,??memset??rA
        LDR      R0,[R5, #+24]
        STR      R4,[R5, #+88]
        STR      R0,[R5, #+92]
        LDR      R0,[R5, #+16]
        STRB     R4,[R5, #+656]
        STR      R0,[R5, #+96]
        LDR      R0,[R5, #+12]
        STR      R4,[R5, #+64]
        STRB     R0,[R5, #+657]
        LDR      R0,[R5, #+96]
        ADD      R1,R5,#+72
        LSL      R0,R0,#+16
        STR      R0,[R5, #+84]
        MOV      R0,#+1
        STRB     R0,[R6, +R5]
        LDR      R0,[R5, #+48]
        STR      R0,[R5, #+52]
        LDR      R0,[R5, #+60]
        SWI      +13
        LDR      R0,[R5, #+36]
        ADD      R3,R5,#+72
        MOV      R2,R4
        MOV      R1,#+32768
        SWI      +10
        STR      R0,[R5, #+60]
        BL       ReadMp3File
        ADD      SP,SP,#+4
        CFI CFA R13+24
        POP      {R4-R8,PC}       ;; return
        CFI EndBlock cfiBlock23

        RSEG CODE:CODE:NOROOT(2)
        CFI Block cfiBlock24 Using cfiCommon0
        CFI NoFunction
        THUMB
??ImaCodeBlock??rT:
        BX       PC
        Nop      
        CFI EndBlock cfiBlock24
        REQUIRE ImaCodeBlock
//   21 #include "AudioHook.c"

        RSEG CODE:CODE:NOROOT(2)
        CFI Block cfiBlock25 Using cfiCommon1
        CFI Function ImaCodeBlock
        ARM
// __??Code32?? __code __interwork __atpcs void ImaCodeBlock(signed short *, unsigned char *)
ImaCodeBlock:
        PUSH     {R0,R4-R11}
        CFI R11 Frame(CFA, -4)
        CFI R10 Frame(CFA, -8)
        CFI R9 Frame(CFA, -12)
        CFI R8 Frame(CFA, -16)
        CFI R7 Frame(CFA, -20)
        CFI R6 Frame(CFA, -24)
        CFI R5 Frame(CFA, -28)
        CFI R4 Frame(CFA, -32)
        CFI CFA R13+36
        LDRSH    R0,[R0, #+0]
        MOV      R5,#+1
        MOV      R3,#+4
        STRH     R0,[R1, #+0]
        LDR      R0,??ImaCodeBlock_0  ;; ima_step
        LDRSH    R2,[R0, #+0]
        STRB     R2,[R1, #+2]
        MOV      R2,#+0
        STRB     R2,[R1, #+3]
        LDR      R4,[SP, #+0]
        LDRSH    R12,[R4, #+0]
??ImaCodeBlock_1:
        LDR      R4,[SP, #+0]
        MOV      R6,#+0
        ADD      R4,R4,R5, LSL #+1
        LDRSH    R4,[R4, #+0]
        SUB      R7,R4,R12
        LDRSH    R4,[R0, #+0]
        MOV      R7,R7, LSL #+16
        MOV      R7,R7, ASR #+16
        ADD      R8,R0,R4, LSL #+2
        LDR      R8,[R8, #+68]
        CMP      R7,#+0
        MOV      R8,R8, LSL #+16
        MOV      R8,R8, ASR #+16
        ASR      R9,R8,#+3
        BPL      ??ImaCodeBlock_2
        MOV      R6,#+8
        RSB      R7,R7,#+0
        MOV      R7,R7, LSL #+16
        MOV      R7,R7, ASR #+16
??ImaCodeBlock_2:
        MOV      R10,#+4
??ImaCodeBlock_3:
        CMP      R7,R8
        BLT      ??ImaCodeBlock_4
        ORR      R6,R10,R6
        MOV      R6,R6, LSL #+16
        MOV      R6,R6, ASR #+16
        SUB      R7,R7,R8
        MOV      R7,R7, LSL #+16
        MOV      R7,R7, ASR #+16
        ADD      R9,R8,R9
??ImaCodeBlock_4:
        LSL      R8,R8,#+15
        ASR      R8,R8,#+16
        LSL      R10,R10,#+15
        ASRS     R10,R10,#+16
        BNE      ??ImaCodeBlock_3
        ADD      R7,R0,R6, LSL #+2
        LDR      R7,[R7, #+4]
        TST      R6,#0x8
        SUBNE    R12,R12,R9
        ADDEQ    R12,R9,R12
        MOV      R12,R12, LSL #+16
        MOV      R12,R12, ASR #+16
        CMN      R12,#+32768
        MVNEQ    R12,#+254
        BICEQ    R12,R12,#0x7F00
        ADD      R7,R7,R4
        STRH     R7,[R0, #+0]
        MOV      R4,#+88
        MOV      R7,R7, LSL #+16
        MOVS     R7,R7, ASR #+16
        STRHMI   R2,[R0, #+0]
        BMI      ??ImaCodeBlock_5
        CMP      R7,#+89
        STRHGE   R4,[R0, #+0]
??ImaCodeBlock_5:
        STRB     R6,[R3, +R1]
        LDR      R6,[SP, #+0]
        LDRSH    R7,[R0, #+0]
        ADD      R5,R5,#+1
        MOV      R5,R5, LSL #+16
        MOV      R5,R5, ASR #+16
        ADD      R6,R6,R5, LSL #+1
        LDRSH    R6,[R6, #+0]
        ADD      R9,R0,R7, LSL #+2
        LDR      R9,[R9, #+68]
        SUB      R8,R6,R12
        MOV      R8,R8, LSL #+16
        MOV      R8,R8, ASR #+16
        MOV      R6,#+0
        MOV      R9,R9, LSL #+16
        MOV      R9,R9, ASR #+16
        ASR      R10,R9,#+3
        CMP      R8,#+0
        BPL      ??ImaCodeBlock_6
        MOV      R6,#+8
        RSB      R8,R8,#+0
        MOV      R8,R8, LSL #+16
        MOV      R8,R8, ASR #+16
??ImaCodeBlock_6:
        MOV      R11,#+4
??ImaCodeBlock_7:
        CMP      R8,R9
        BLT      ??ImaCodeBlock_8
        ORR      R6,R11,R6
        MOV      R6,R6, LSL #+16
        MOV      R6,R6, ASR #+16
        SUB      R8,R8,R9
        MOV      R8,R8, LSL #+16
        MOV      R8,R8, ASR #+16
        ADD      R10,R9,R10
??ImaCodeBlock_8:
        LSL      R9,R9,#+15
        ASR      R9,R9,#+16
        LSL      R11,R11,#+15
        ASRS     R11,R11,#+16
        BNE      ??ImaCodeBlock_7
        ADD      R8,R0,R6, LSL #+2
        LDR      R8,[R8, #+4]
        TST      R6,#0x8
        SUBNE    R12,R12,R10
        ADDEQ    R12,R10,R12
        MOV      R12,R12, LSL #+16
        MOV      R12,R12, ASR #+16
        ADD      R7,R8,R7
        STRH     R7,[R0, #+0]
        MOV      R7,R7, LSL #+16
        MOVS     R7,R7, ASR #+16
        STRHMI   R2,[R0, #+0]
        BMI      ??ImaCodeBlock_9
        CMP      R7,#+89
        STRHGE   R4,[R0, #+0]
??ImaCodeBlock_9:
        LDRB     R4,[R3, +R1]
        ADD      R5,R5,#+1
        MOV      R5,R5, LSL #+16
        ADD      R4,R4,R6, LSL #+4
        STRB     R4,[R3, +R1]
        MOV      R5,R5, ASR #+16
        ADD      R3,R3,#+1
        CMP      R3,#+256
        BLT      ??ImaCodeBlock_1
        POP      {R0,R4-R11}
        CFI R4 SameValue
        CFI R5 SameValue
        CFI R6 SameValue
        CFI R7 SameValue
        CFI R8 SameValue
        CFI R9 SameValue
        CFI R10 SameValue
        CFI R11 SameValue
        CFI CFA R13+0
        BX       LR
        DATA
??ImaCodeBlock_0:
        DC32     ima_step
        CFI EndBlock cfiBlock25

        RSEG CODE:CODE:NOROOT(2)
        CFI Block cfiBlock26 Using cfiCommon0
        CFI NoFunction
        THUMB
??SetLoop??rT:
        BX       PC
        Nop      
        CFI EndBlock cfiBlock26
        REQUIRE SetLoop

        RSEG CODE:CODE:NOROOT(2)
        CFI Block cfiBlock27 Using cfiCommon1
        CFI Function SetLoop
        ARM
// __??Code32?? __code __interwork __atpcs void SetLoop(unsigned char)
SetLoop:
        LDR      R1,??DataTable8  ;; currentfile + 104
        LDR      R1,[R1, #+0]
        STR      R0,[R1, #-112]
        BX       LR               ;; return
        CFI EndBlock cfiBlock27

        RSEG CODE:CODE:NOROOT(2)
        CFI Block cfiBlock28 Using cfiCommon0
        CFI NoFunction
        THUMB
??ZeroCounter??rT:
        BX       PC
        Nop      
        CFI EndBlock cfiBlock28
        REQUIRE ZeroCounter

        RSEG CODE:CODE:NOROOT(2)
        CFI Block cfiBlock29 Using cfiCommon1
        CFI Function ZeroCounter
        ARM
// __??Code32?? __code __interwork __atpcs void ZeroCounter()
ZeroCounter:
        LDR      R0,??DataTable8  ;; currentfile + 104
        MOV      R1,#+0
        LDR      R0,[R0, #+0]
        STR      R1,[R0, #+44]
        BX       LR               ;; return
        CFI EndBlock cfiBlock29

        RSEG CODE:CODE:NOROOT(2)
        CFI Block cfiBlock30 Using cfiCommon0
        CFI NoFunction
        THUMB
??GetBuffEnd??rT:
        BX       PC
        Nop      
        CFI EndBlock cfiBlock30
        REQUIRE GetBuffEnd

        RSEG CODE:CODE:NOROOT(2)
        CFI Block cfiBlock31 Using cfiCommon1
        CFI Function GetBuffEnd
        ARM
// __??Code32?? __code __interwork __atpcs long GetBuffEnd()
GetBuffEnd:
        LDR      R0,??DataTable8  ;; currentfile + 104
        LDR      R0,[R0, #+0]
        LDR      R0,[R0, #+32]
        BX       LR               ;; return
        CFI EndBlock cfiBlock31

        RSEG CODE:CODE:NOROOT(2)
        CFI Block cfiBlock32 Using cfiCommon0
        CFI NoFunction
        THUMB
??GetBuffPos??rT:
        BX       PC
        Nop      
        CFI EndBlock cfiBlock32
        REQUIRE GetBuffPos

        RSEG CODE:CODE:NOROOT(2)
        CFI Block cfiBlock33 Using cfiCommon1
        CFI Function GetBuffPos
        ARM
// __??Code32?? __code __interwork __atpcs long GetBuffPos()
GetBuffPos:
        LDR      R0,??DataTable8  ;; currentfile + 104
        LDR      R0,[R0, #+0]
        LDR      R0,[R0, #+28]
        BX       LR               ;; return
        CFI EndBlock cfiBlock33

        RSEG CODE:CODE:NOROOT(2)
        DATA
??DataTable8:
        DC32     currentfile + 104

        RSEG CODE:CODE:NOROOT(2)
        CFI Block cfiBlock34 Using cfiCommon0
        CFI NoFunction
        THUMB
??RipToFile??rT:
        BX       PC
        Nop      
        CFI EndBlock cfiBlock34
        REQUIRE RipToFile

        RSEG CODE:CODE:NOROOT(2)
        CFI Block cfiBlock35 Using cfiCommon1
        CFI Function RipToFile
        ARM
// __??Code32?? __code __interwork __atpcs void RipToFile()
RipToFile:
        PUSH     {R4-R11,LR}
        CFI ?RET Frame(CFA, -4)
        CFI R11 Frame(CFA, -8)
        CFI R10 Frame(CFA, -12)
        CFI R9 Frame(CFA, -16)
        CFI R8 Frame(CFA, -20)
        CFI R7 Frame(CFA, -24)
        CFI R6 Frame(CFA, -28)
        CFI R5 Frame(CFA, -32)
        CFI R4 Frame(CFA, -36)
        CFI CFA R13+36
        LDR      R6,??DataTable23  ;; currentfile
        MOV      R4,#+147
        ORR      R4,R4,#0x200
        BIC      R5,R4,#0x1
        LDRSB    R0,[R5, +R6]
        SUB      R11,R4,#+153
        STRB     R0,[R4, +R6]
        MOV      R0,#+8192
        SWI      +20
        MOV      R7,R0
        MOV      R0,#+256
        SWI      +20
        LDR      R1,??RipToFile_0  ;; `?<Constant "%s.wav">`
        LDR      R2,[R6, #+36]
        MOV      R9,R0
        SWI      +22
        ADD      R3,R6,#+72
        MOV      R2,#+384
        MOV      R1,#+10
        ORR      R1,R1,#0x8100
        MOV      R0,R9
        SWI      +10
        MOV      R8,R0
        MOV      R0,R9
        SWI      +21
        BL       Mp3Init
        ADD      R3,R6,#+72
        MOV      R2,#+60
        ADD      R1,R6,#+672
        MOV      R0,R8
        SWI      +12
        LDRSB    R0,[R5, +R6]
        MOV      R9,#+0
        CMP      R0,#+1
        BLT      ??RipToFile_1
??RipToFile_2:
        STR      R9,[R6, #+116]
??RipToFile_3:
        MOV      R10,#+0
??RipToFile_4:
        BL       GetSound
        MOV      R1,R0
        LDR      R0,[R6, #+112]
        ADD      R2,R0,R10, LSL #+1
        STRH     R1,[R2, #+0]
        ADD      R10,R10,#+1
        CMP      R10,R11
        BLT      ??RipToFile_4
        LDR      R1,[R6, #+116]
        ADD      R1,R1,R7
        BL       ImaCodeBlock
        LDR      R0,[R6, #+116]
        ADD      R0,R0,#+256
        STR      R0,[R6, #+116]
        CMP      R0,#+8192
        BCC      ??RipToFile_3
        ADD      R3,R6,#+72
        MOV      R2,#+8192
        MOV      R1,R7
        MOV      R0,R8
        SWI      +12
        SWI      +370
        LDRSB    R0,[R5, +R6]
        SUB      R0,R0,#+1
        STRB     R0,[R5, +R6]
        MOV      R0,R0, LSL #+24
        MOV      R0,R0, ASR #+24
        CMP      R0,#+1
        BGE      ??RipToFile_2
??RipToFile_1:
        MOV      R0,#+60
        SWI      +20
        MOV      R10,R0
        MOV      R2,#+60
        ADD      R1,R6,#+672
        _BLF     memcpy,??memcpy??rA
        LDRSB    R0,[R4, +R6]
        ADD      R3,R6,#+72
        MOV      R2,#+0
        LSL      R0,R0,#+13
        STR      R0,[R10, #+36]
        STR      R0,[R10, #+56]
        ADD      R0,R6,#+72
        PUSH     {R0}
        CFI CFA R13+40
        MOV      R1,R2
        MOV      R0,R8
        SWI      +15
        ADD      R3,R6,#+72
        MOV      R2,#+60
        MOV      R1,R10
        MOV      R0,R8
        SWI      +12
        MOV      R0,R10
        SWI      +21
        ADD      R1,R6,#+72
        MOV      R0,R8
        SWI      +13
        MOV      R0,R7
        SWI      +21
        STRB     R9,[R4, +R6]
        STRB     R9,[R5, +R6]
        SWI      +370
        POP      {R0,R4-R11,PC}   ;; return
        DATA
??RipToFile_0:
        DC32     `?<Constant "%s.wav">`
        CFI EndBlock cfiBlock35

        RSEG CODE:CODE:NOROOT(2)
        CFI Block cfiBlock36 Using cfiCommon0
        CFI NoFunction
        THUMB
??FillBuffer??rT:
        BX       PC
        Nop      
        CFI EndBlock cfiBlock36
        REQUIRE FillBuffer

        RSEG CODE:CODE:NOROOT(2)
        CFI Block cfiBlock37 Using cfiCommon1
        CFI Function FillBuffer
        ARM
// __??Code32?? __code __interwork __atpcs void FillBuffer()
FillBuffer:
        PUSH     {R4-R7,LR}
        CFI ?RET Frame(CFA, -4)
        CFI R7 Frame(CFA, -8)
        CFI R6 Frame(CFA, -12)
        CFI R5 Frame(CFA, -16)
        CFI R4 Frame(CFA, -20)
        CFI CFA R13+20
        LDR      R4,??DataTable23  ;; currentfile
        MOV      R0,#+60
        STR      R0,[R4, #+116]
        ORR      R5,R0,#0x2000
        MOV      R7,#+250
        ORR      R7,R7,#0x100
??FillBuffer_0:
        MOV      R6,#+0
??FillBuffer_1:
        BL       GetSound
        LDR      R2,[R4, #+112]
        ADD      R1,R7,#+160
        LDRSB    R1,[R1, +R4]
        ADD      R3,R2,R6, LSL #+1
        ADD      R6,R6,#+1
        _BLF     ??div32_a,??rA??div32_a
        STRH     R1,[R3, #+0]
        CMP      R6,R7
        BLT      ??FillBuffer_1
        ADD      R0,R4,#+664
        LDRSB    R0,[R0, #+0]
        CMP      R0,#+0
        POPEQ    {R4-R7,PC}
        LDR      R0,[R4, #+116]
        LDR      R1,[R4, #+108]
        ADD      R1,R0,R1
        MOV      R0,R2
        BL       ImaCodeBlock
        LDR      R0,[R4, #+116]
        ADD      R0,R0,#+256
        STR      R0,[R4, #+116]
        CMP      R0,R5
        BCC      ??FillBuffer_0
        POP      {R4-R7,PC}       ;; return
        CFI EndBlock cfiBlock37

        RSEG CODE:CODE:NOROOT(2)
        CFI Block cfiBlock38 Using cfiCommon0
        CFI NoFunction
        THUMB
??FillBuffer1??rT:
        BX       PC
        Nop      
        CFI EndBlock cfiBlock38
        REQUIRE FillBuffer1

        RSEG CODE:CODE:NOROOT(2)
        CFI Block cfiBlock39 Using cfiCommon1
        CFI Function FillBuffer1
        ARM
// __??Code32?? __code __interwork __atpcs void FillBuffer1()
FillBuffer1:
        PUSH     {R4-R6,LR}
        CFI ?RET Frame(CFA, -4)
        CFI R6 Frame(CFA, -8)
        CFI R5 Frame(CFA, -12)
        CFI R4 Frame(CFA, -16)
        CFI CFA R13+16
        LDR      R4,??DataTable23  ;; currentfile
        MOV      R0,#+0
        LDR      R1,[R4, #+104]
        MOV      R6,#+250
        STR      R0,[R1, #+44]
        STR      R0,[R4, #+116]
        ORR      R6,R6,#0x100
??FillBuffer1_0:
        ADD      R0,R6,#+159
        LDRSB    R0,[R0, +R4]
        CMP      R0,#+0
        BEQ      ??FillBuffer1_1
        LDR      R0,[R4, #+112]
        MOV      R2,#+1012
        MOV      R1,#+0
        _BLF     memset,??memset??rA
        B        ??FillBuffer1_2
??FillBuffer1_1:
        MOV      R5,#+0
??FillBuffer1_3:
        BL       GetSound
        LDR      R1,[R4, #+112]
        ADD      R2,R1,R5, LSL #+1
        ADD      R1,R6,#+160
        LDRSB    R1,[R1, +R4]
        ADD      R5,R5,#+1
        _BLF     ??div32_a,??rA??div32_a
        STRH     R1,[R2, #+0]
        CMP      R5,R6
        BLT      ??FillBuffer1_3
        LDR      R0,[R4, #+120]
        ADD      R0,R6,R0
        STR      R0,[R4, #+120]
??FillBuffer1_2:
        ADD      R0,R4,#+664
        LDRSB    R0,[R0, #+0]
        CMP      R0,#+0
        POPEQ    {R4-R6,PC}
        LDR      R0,[R4, #+116]
        LDR      R1,[R4, #+100]
        ADD      R1,R0,R1
        LDR      R0,[R4, #+112]
        BL       ImaCodeBlock
        LDR      R0,[R4, #+116]
        ADD      R0,R0,#+256
        STR      R0,[R4, #+116]
        CMP      R0,#+8192
        BCC      ??FillBuffer1_0
        POP      {R4-R6,PC}       ;; return
        CFI EndBlock cfiBlock39

        RSEG CODE:CODE:NOROOT(2)
        CFI Block cfiBlock40 Using cfiCommon0
        CFI NoFunction
        THUMB
??FillBuffer2??rT:
        BX       PC
        Nop      
        CFI EndBlock cfiBlock40
        REQUIRE FillBuffer2

        RSEG CODE:CODE:NOROOT(2)
        CFI Block cfiBlock41 Using cfiCommon1
        CFI Function FillBuffer2
        ARM
// __??Code32?? __code __interwork __atpcs void FillBuffer2()
FillBuffer2:
        PUSH     {R4-R6,LR}
        CFI ?RET Frame(CFA, -4)
        CFI R6 Frame(CFA, -8)
        CFI R5 Frame(CFA, -12)
        CFI R4 Frame(CFA, -16)
        CFI CFA R13+16
        LDR      R4,??DataTable23  ;; currentfile
        MOV      R0,#+8192
        STR      R0,[R4, #+116]
        MOV      R6,#+250
        ORR      R6,R6,#0x100
??FillBuffer2_0:
        ADD      R0,R6,#+159
        LDRSB    R0,[R0, +R4]
        CMP      R0,#+0
        BEQ      ??FillBuffer2_1
        LDR      R0,[R4, #+112]
        MOV      R2,#+1012
        MOV      R1,#+0
        _BLF     memset,??memset??rA
        B        ??FillBuffer2_2
??FillBuffer2_1:
        MOV      R5,#+0
??FillBuffer2_3:
        BL       GetSound
        LDR      R1,[R4, #+112]
        ADD      R2,R1,R5, LSL #+1
        ADD      R1,R6,#+160
        LDRSB    R1,[R1, +R4]
        ADD      R5,R5,#+1
        _BLF     ??div32_a,??rA??div32_a
        STRH     R1,[R2, #+0]
        CMP      R5,R6
        BLT      ??FillBuffer2_3
        LDR      R0,[R4, #+120]
        ADD      R0,R6,R0
        STR      R0,[R4, #+120]
??FillBuffer2_2:
        ADD      R0,R4,#+664
        LDRSB    R0,[R0, #+0]
        CMP      R0,#+0
        POPEQ    {R4-R6,PC}
        LDR      R0,[R4, #+116]
        LDR      R1,[R4, #+100]
        ADD      R1,R0,R1
        LDR      R0,[R4, #+112]
        BL       ImaCodeBlock
        LDR      R0,[R4, #+116]
        ADD      R0,R0,#+256
        STR      R0,[R4, #+116]
        CMP      R0,#+16384
        BCC      ??FillBuffer2_0
        POP      {R4-R6,PC}       ;; return
        CFI EndBlock cfiBlock41

        RSEG CODE:CODE:NOROOT(2)
        CFI Block cfiBlock42 Using cfiCommon0
        CFI NoFunction
        THUMB
??AudioInit??rT:
        BX       PC
        Nop      
        CFI EndBlock cfiBlock42
        REQUIRE AudioInit

        RSEG CODE:CODE:NOROOT(2)
        CFI Block cfiBlock43 Using cfiCommon1
        CFI Function AudioInit
        ARM
// __??Code32?? __code __interwork __atpcs void AudioInit()
AudioInit:
        LDR      R0,??AudioInit_0  ;; 0xffffffffa0fd426c
        PUSH     {R4,R5,LR}
        CFI ?RET Frame(CFA, -4)
        CFI R5 Frame(CFA, -8)
        CFI R4 Frame(CFA, -12)
        CFI CFA R13+12
        LDR      R0,[R0, #+0]
        LDR      R4,??DataTable23  ;; currentfile
        MOV      R5,#+0
        STR      R0,[R4, #+104]
        STRH     R5,[R4, #+4]
        MOV      R0,#+60
        ORR      R0,R0,#0x4000
        SWI      +20
        STR      R0,[R4, #+108]
        MOV      R0,#+246
        ORR      R0,R0,#0x300
        SWI      +20
        STR      R0,[R4, #+112]
        LDR      R0,[R4, #+108]
        MOV      R2,#+60
        ADD      R1,R4,#+672
        _BLF     memcpy,??memcpy??rA
        STRB     R5,[R4, #+659]
        STRB     R5,[R4, #+658]
        POP      {R4,R5,PC}       ;; return
        DATA
??AudioInit_0:
        DC32     0xffffffffa0fd426c
        CFI EndBlock cfiBlock43

        RSEG CODE:CODE:NOROOT(2)
        CFI Block cfiBlock44 Using cfiCommon0
        CFI NoFunction
        THUMB
??AudioStart??rT:
        BX       PC
        Nop      
        CFI EndBlock cfiBlock44
        REQUIRE AudioStart

        RSEG CODE:CODE:NOROOT(2)
        CFI Block cfiBlock45 Using cfiCommon1
        CFI Function AudioStart
        ARM
// __??Code32?? __code __interwork __atpcs void AudioStart()
AudioStart:
        PUSH     {R4,LR}
        CFI ?RET Frame(CFA, -4)
        CFI R4 Frame(CFA, -8)
        CFI CFA R13+8
        LDR      R4,??DataTable23  ;; currentfile
        MOV      R0,#+0
        STRH     R0,[R4, #+4]
        STRB     R0,[R4, #+662]
        MOV      R1,#+1
        STRB     R1,[R4, #+664]
        STR      R0,[R4, #+120]
        STRB     R0,[R4, #+665]
        MOV      R0,#+2
        STRB     R0,[R4, #+661]
        BL       FillBuffer
        LDR      R0,[R4, #+104]
        MOV      R1,#+128
        STR      R1,[R0, #-112]
        MOV      R0,#+0
        PUSH     {R0}
        CFI CFA R13+12
        PUSH     {R0}
        CFI CFA R13+16
        LDR      R1,[R4, #+108]
        MOV      R3,#+255
        ORR      R3,R3,#0xFF00
        MOV      R2,#+60
        ORR      R2,R2,#0x4000
        MOV      R0,#+17
        SWI      +153
        LDR      R2,??DataTable20  ;; PB
        MOV      R1,#+8
        ADD      R0,R4,#+732
        SWI      +77
        POP      {R0,R1,R4,PC}    ;; return
        CFI EndBlock cfiBlock45

        RSEG CODE:CODE:NOROOT(2)
        CFI Block cfiBlock46 Using cfiCommon0
        CFI NoFunction
        THUMB
??AudioStop??rT:
        BX       PC
        Nop      
        CFI EndBlock cfiBlock46
        REQUIRE AudioStop

        RSEG CODE:CODE:NOROOT(2)
        CFI Block cfiBlock47 Using cfiCommon1
        CFI Function AudioStop
        ARM
// __??Code32?? __code __interwork __atpcs void AudioStop()
AudioStop:
        PUSH     {R4,R5,LR}
        CFI ?RET Frame(CFA, -4)
        CFI R5 Frame(CFA, -8)
        CFI R4 Frame(CFA, -12)
        CFI CFA R13+12
        LDR      R5,??DataTable23  ;; currentfile
        MOV      R4,#+0
        STRB     R4,[R5, #+664]
        BL       FreeMp3
        LDR      R0,[R5, #+104]
        MOV      R3,#+255
        STR      R4,[R0, #-112]
        MOV      R0,#+0
        PUSH     {R0}
        CFI CFA R13+16
        PUSH     {R0}
        CFI CFA R13+20
        LDR      R1,[R5, #+108]
        ORR      R3,R3,#0xFF00
        MOV      R2,#+316
        MOV      R0,#+17
        SWI      +153
        STR      R4,[R5, #+120]
        SWI      +370
        POP      {R0,R1,R4,R5,PC}  ;; return
        CFI EndBlock cfiBlock47

        RSEG CODE:CODE:NOROOT(2)
        CFI Block cfiBlock48 Using cfiCommon0
        CFI NoFunction
        THUMB
??AudioTerminate??rT:
        BX       PC
        Nop      
        CFI EndBlock cfiBlock48
        REQUIRE AudioTerminate

        RSEG CODE:CODE:NOROOT(2)
        CFI Block cfiBlock49 Using cfiCommon1
        CFI Function AudioTerminate
        ARM
// __??Code32?? __code __interwork __atpcs void AudioTerminate()
AudioTerminate:
        PUSH     {R4,LR}
        CFI ?RET Frame(CFA, -4)
        CFI R4 Frame(CFA, -8)
        CFI CFA R13+8
        LDR      R4,??DataTable23  ;; currentfile
        MOV      R0,#+0
        PUSH     {R0}
        CFI CFA R13+12
        PUSH     {R0}
        CFI CFA R13+16
        LDR      R1,[R4, #+108]
        MOV      R3,#+255
        ORR      R3,R3,#0xFF00
        MOV      R2,#+316
        MOV      R0,#+17
        SWI      +153
        LDR      R0,[R4, #+108]
        SWI      +21
        LDR      R0,[R4, #+112]
        SWI      +21
        POP      {R0,R1,R4,PC}    ;; return
        CFI EndBlock cfiBlock49

        RSEG CODE:CODE:NOROOT(2)
        CFI Block cfiBlock50 Using cfiCommon0
        CFI NoFunction
        THUMB
??BuffPos??rT:
        BX       PC
        Nop      
        CFI EndBlock cfiBlock50
        REQUIRE BuffPos

        RSEG CODE:CODE:NOROOT(2)
        CFI Block cfiBlock51 Using cfiCommon1
        CFI Function BuffPos
        ARM
// __??Code32?? __code __interwork __atpcs long BuffPos()
BuffPos:
        LDR      R0,??DataTable23  ;; currentfile
        LDR      R1,[R0, #+104]
        LDR      R0,[R0, #+100]
        LDR      R1,[R1, #+28]
        SUB      R0,R1,R0
        BX       LR               ;; return
        CFI EndBlock cfiBlock51

        RSEG CODE:CODE:NOROOT(2)
        CFI Block cfiBlock52 Using cfiCommon0
        CFI NoFunction
        THUMB
??PB??rT:
        BX       PC
        Nop      
        CFI EndBlock cfiBlock52
        REQUIRE PB

        RSEG CODE:CODE:NOROOT(2)
        CFI Block cfiBlock53 Using cfiCommon1
        CFI Function PB
        ARM
// __??Code32?? __code __interwork __atpcs void PB()
PB:
        PUSH     {R4-R11,LR}
        CFI ?RET Frame(CFA, -4)
        CFI R11 Frame(CFA, -8)
        CFI R10 Frame(CFA, -12)
        CFI R9 Frame(CFA, -16)
        CFI R8 Frame(CFA, -20)
        CFI R7 Frame(CFA, -24)
        CFI R6 Frame(CFA, -28)
        CFI R5 Frame(CFA, -32)
        CFI R4 Frame(CFA, -36)
        CFI CFA R13+36
        LDR      R4,??DataTable29  ;; currentfile
        ADD      R0,R4,#+664
        LDRSB    R0,[R0, #+0]
        CMP      R0,#+0
        BNE      ??PB_0
        BL       AudioStop
        POP      {R4-R11,PC}
??PB_0:
        LDRSH    R0,[R4, #+4]
        MOV      R5,#+0
        CMP      R0,#+0
        BEQ      ??PB_1
        BL       FreeMp3
        STR      R5,[R4, #+120]
        BL       Mp3Init
        STRH     R5,[R4, #+4]
??PB_1:
        MOV      R6,#+1
        ORR      R7,R6,#0x294
        LDRSB    R0,[R7, +R4]
        CMP      R0,#+2
        BNE      ??PB_2
        LDR      R0,[R4, #+104]
        STRB     R6,[R7, +R4]
        LDR      R0,[R0, #+32]
        SUB      R0,R0,#+16384
        STR      R0,[R4, #+100]
        LDRB     R0,[R4, #+660]
        SWI      +154
??PB_2:
        BL       BuffPos
        MOV      R8,R0
        LDRSB    R0,[R7, +R4]
        ADD      R9,R7,#+1
        SUB      R10,R7,#+6
        CMP      R0,#+0
        BNE      ??PB_3
        ORR      R0,R6,#0x2000
        CMP      R8,R0
        BLT      ??PB_4
        BL       FillBuffer1
        MOV      R0,#+0
        BL       randint
        LDRSB    R0,[R10, +R4]
        STRB     R6,[R7, +R4]
        CMP      R0,#+0
        LDRSBEQ  R0,[R9, +R4]
        ADDEQ    R0,R0,#+1
        STRBEQ   R0,[R9, +R4]
        SWI      +370
??PB_3:
        LDRSB    R0,[R7, +R4]
        CMP      R0,#+1
        BNE      ??PB_4
        CMP      R8,#+8192
        BGE      ??PB_4
        BL       FillBuffer2
        LDRSB    R0,[R10, +R4]
        STRB     R5,[R7, +R4]
        CMP      R0,#+0
        LDRSBEQ  R0,[R9, +R4]
        ADDEQ    R0,R0,#+1
        STRBEQ   R0,[R9, +R4]
        SWI      +370
??PB_4:
        LDRSB    R0,[R9, +R4]
        LDR      R8,??DataTable20  ;; PB
        MOV      R7,#+732
        CMP      R0,#+3
        BLT      ??PB_5
        STRB     R5,[R9, +R4]
        LDRB     R9,[R4, #+654]
        ADD      R0,R4,#+652
        LDRSB    R0,[R0, #+0]
        CMP      R9,#+1
        CMPEQ    R0,#+0
        BEQ      ??PB_6
        LDRB     R10,[R4, #+653]
        CMP      R10,#+0
        CMPNE    R0,#+0
        BEQ      ??PB_7
        LDRSH    R11,[R4, #+0]
        SUB      R0,R7,#+69
        LDRSB    R0,[R0, +R4]
        CMP      R0,#+0
        ADDEQ    R0,R11,#+1
        BEQ      ??PB_8
        STRH     R11,[R4, #+2]
        B        ??PB_9
??PB_10:
        MOV      R0,R10
        BL       randint
        STRH     R0,[R4, #+2]
??PB_9:
        LDRSH    R0,[R4, #+2]
        CMP      R0,R11
        BEQ      ??PB_10
??PB_8:
        STRH     R0,[R4, #+0]
        LDRSH    R0,[R4, #+0]
        CMP      R0,R10
        BLT      ??PB_11
        STRH     R5,[R4, #+0]
        CMP      R9,#+0
        BNE      ??PB_11
        STRB     R5,[R4, #+664]
        MOV      R2,R8
        MOV      R1,#+8
        ADD      R0,R7,R4
        SWI      +77
??PB_11:
        LDRSH    R0,[R4, #+0]
        LDR      R1,[R4, #+40]
        MOV      R2,#+256
        ADD      R1,R1,R0, LSL #+8
        LDR      R0,[R4, #+36]
        _BLF     memcpy,??memcpy??rA
        BL       UpdateShowName
??PB_6:
        STRH     R6,[R4, #+4]
??PB_5:
        MOV      R2,R8
        MOV      R1,#+8
        ADD      R0,R7,R4
        SWI      +77
        POP      {R4-R11,PC}
??PB_7:
        STRB     R5,[R4, #+664]
        MOV      R2,R8
        MOV      R1,#+8
        ADD      R0,R7,R4
        SWI      +77
        B        ??PB_5
        CFI EndBlock cfiBlock53

        RSEG CODE:CODE:NOROOT(2)
        DATA
??DataTable20:
        DC32     PB

        RSEG CODE:CODE:NOROOT(2)
        CFI Block cfiBlock54 Using cfiCommon0
        CFI NoFunction
        THUMB
??AddMenuItem??rT:
        BX       PC
        Nop      
        CFI EndBlock cfiBlock54
        REQUIRE AddMenuItem
//   22 #include "siemens.c"

        RSEG CODE:CODE:NOROOT(2)
        CFI Block cfiBlock55 Using cfiCommon1
        CFI Function AddMenuItem
        ARM
// __??Code32?? __code __interwork __atpcs void AddMenuItem(char *, unsigned int)
AddMenuItem:
        PUSH     {R4,R5,LR}
        CFI ?RET Frame(CFA, -4)
        CFI R5 Frame(CFA, -8)
        CFI R4 Frame(CFA, -12)
        CFI CFA R13+12
        LDR      R5,??DataTable23  ;; currentfile
        MOV      R2,R0
        LDRB     R0,[R5, #+667]
        LDR      R3,[R5, #+124]
        MOV      R4,R1
        ADR      R1,??AddMenuItem_0  ;; "%s"
        ADD      R0,R3,R0, LSL #+8
        SWI      +22
        LDRB     R0,[R5, #+667]
        ADD      R1,R5,R0, LSL #+2
        STR      R4,[R1, #+132]
        ADD      R0,R0,#+1
        STRB     R0,[R5, #+667]
        POP      {R4,R5,PC}       ;; return
        DATA
??AddMenuItem_0:
        DC8      "%s",+0
        CFI EndBlock cfiBlock55

        RSEG CODE:CODE:NOROOT(2)
        CFI Block cfiBlock56 Using cfiCommon0
        CFI NoFunction
        THUMB
??DrawMenu??rT:
        BX       PC
        Nop      
        CFI EndBlock cfiBlock56
        REQUIRE DrawMenu

        RSEG CODE:CODE:NOROOT(2)
        CFI Block cfiBlock57 Using cfiCommon1
        CFI Function DrawMenu
        ARM
// __??Code32?? __code __interwork __atpcs void DrawMenu()
DrawMenu:
        PUSH     {R4-R11,LR}
        CFI ?RET Frame(CFA, -4)
        CFI R11 Frame(CFA, -8)
        CFI R10 Frame(CFA, -12)
        CFI R9 Frame(CFA, -16)
        CFI R8 Frame(CFA, -20)
        CFI R7 Frame(CFA, -24)
        CFI R6 Frame(CFA, -28)
        CFI R5 Frame(CFA, -32)
        CFI R4 Frame(CFA, -36)
        CFI CFA R13+36
        LDR      R4,??DataTable23  ;; currentfile
        LDRB     R0,[R4, #+667]
        CMP      R0,#+0
        POPEQ    {R4-R11,PC}
        MOV      R0,#+256
        SWI      +293
        MOV      R5,R0
        LDRB     R0,[R4, #+667]
        MOV      R6,#+0
        MOV      R7,#+157
        ORR      R7,R7,#0x200
        CMP      R0,#+8
        BCC      ??DrawMenu_0
        LDRSB    R0,[R7, +R4]
        SUBS     R8,R0,#+3
        BPL      ??DrawMenu_1
??DrawMenu_0:
        MOV      R8,#+0
??DrawMenu_1:
        LDRB     R0,[R4, #+667]
        CMP      R8,R0
        BGE      ??DrawMenu_2
        SUB      R0,R7,#+11
        LDRSB    R2,[R0, +R4]
        LDR      R0,[R4, #+124]
        ADD      R9,R6,#+8
        ADD      R1,R0,R8, LSL #+8
        MOV      R0,R5
        SWI      +292
        LDRSB    R0,[R7, +R4]
        ADD      R10,R6,#+21
        CMP      R8,R0
        BNE      ??DrawMenu_3
        ADD      R0,R7,#+1
        LDRSB    R0,[R0, +R4]
        CMP      R0,#+0
        BEQ      ??DrawMenu_3
        MOV      R0,#+0
        SWI      +302
        MOV      R11,R0
        MOV      R0,#+0
        SWI      +302
        PUSH     {R11}
        CFI CFA R13+40
        PUSH     {R0}
        CFI CFA R13+44
        MOV      R3,R10
        MOV      R2,#+127
        ADD      R1,R6,#+7
        MOV      R0,#+0
        PUSH     {R0}
        CFI CFA R13+48
        PUSH     {R0}
        CFI CFA R13+52
        PUSH     {R0}
        CFI CFA R13+56
        MOV      R0,#+2
        SWI      +336
        MOV      R0,#+23
        SWI      +302
        MOV      R11,R0
        MOV      R0,#+20
        SWI      +302
        PUSH     {R11}
        CFI CFA R13+60
        PUSH     {R0}
        CFI CFA R13+64
        MOV      R3,#+130
        MOV      R2,R9
        MOV      R1,#+3
        MOV      R0,#+1
        PUSH     {R0}
        CFI CFA R13+68
        MOV      R0,#+3
        PUSH     {R0}
        CFI CFA R13+72
        PUSH     {R10}
        CFI CFA R13+76
        MOV      R0,R5
        SWI      +332
        ADD      SP,SP,#+40
        CFI CFA R13+36
        B        ??DrawMenu_4
??DrawMenu_3:
        MOV      R0,#+23
        SWI      +302
        MOV      R11,R0
        MOV      R0,#+0
        SWI      +302
        PUSH     {R11}
        CFI CFA R13+40
        PUSH     {R0}
        CFI CFA R13+44
        MOV      R3,#+130
        MOV      R2,R9
        MOV      R1,#+3
        MOV      R0,#+1
        PUSH     {R0}
        CFI CFA R13+48
        MOV      R0,#+3
        PUSH     {R0}
        CFI CFA R13+52
        PUSH     {R10}
        CFI CFA R13+56
        MOV      R0,R5
        SWI      +332
        ADD      SP,SP,#+20
        CFI CFA R13+36
??DrawMenu_4:
        ADD      R8,R8,#+1
        ADD      R6,R6,#+14
        CMP      R6,#+85
        BLT      ??DrawMenu_1
??DrawMenu_2:
        LDR      R1,[R4, #+128]
        MOV      R0,R5
        SWI      +292
        MOV      R0,#+23
        SWI      +302
        MOV      R4,R0
        MOV      R0,#+20
        SWI      +302
        PUSH     {R4}
        CFI CFA R13+40
        PUSH     {R0}
        CFI CFA R13+44
        MOV      R3,#+125
        MOV      R2,#+107
        MOV      R1,#+4
        MOV      R0,#+1
        PUSH     {R0}
        CFI CFA R13+48
        PUSH     {R0}
        CFI CFA R13+52
        MOV      R0,#+130
        PUSH     {R0}
        CFI CFA R13+56
        MOV      R0,R5
        SWI      +332
        MOV      R0,R5
        SWI      +297
        ADD      SP,SP,#+20
        CFI CFA R13+36
        POP      {R4-R11,PC}      ;; return
        CFI EndBlock cfiBlock57

        RSEG CODE:CODE:NOROOT(2)
        CFI Block cfiBlock58 Using cfiCommon0
        CFI NoFunction
        THUMB
??ClearMenu??rT:
        BX       PC
        Nop      
        CFI EndBlock cfiBlock58
        REQUIRE ClearMenu

        RSEG CODE:CODE:NOROOT(2)
        CFI Block cfiBlock59 Using cfiCommon1
        CFI Function ClearMenu
        ARM
// __??Code32?? __code __interwork __atpcs void ClearMenu()
ClearMenu:
        LDR      R1,??DataTable23  ;; currentfile
        MOV      R0,#+0
        STRB     R0,[R1, #+667]
        STRB     R0,[R1, #+669]
        STRB     R0,[R1, #+668]
        MOV      R0,#+1
        STRB     R0,[R1, #+670]
        BX       LR               ;; return
        CFI EndBlock cfiBlock59

        RSEG CODE:CODE:NOROOT(2)
        DATA
??DataTable23:
        DC32     currentfile

        RSEG CODE:CODE:NOROOT(2)
        CFI Block cfiBlock60 Using cfiCommon0
        CFI NoFunction
        THUMB
??MenuInit??rT:
        BX       PC
        Nop      
        CFI EndBlock cfiBlock60
        REQUIRE MenuInit

        RSEG CODE:CODE:NOROOT(2)
        CFI Block cfiBlock61 Using cfiCommon1
        CFI Function MenuInit
        ARM
// __??Code32?? __code __interwork __atpcs void MenuInit()
MenuInit:
        PUSH     {LR}
        CFI ?RET Frame(CFA, -4)
        CFI CFA R13+4
        BL       ClearMenu
        MOV      R0,#+32768
        SWI      +20
        LDR      R1,??DataTable26  ;; currentfile + 124
        STR      R0,[R1, #+0]
        POP      {PC}             ;; return
        CFI EndBlock cfiBlock61

        RSEG CODE:CODE:NOROOT(2)
        CFI Block cfiBlock62 Using cfiCommon0
        CFI NoFunction
        THUMB
??MenuFree??rT:
        BX       PC
        Nop      
        CFI EndBlock cfiBlock62
        REQUIRE MenuFree

        RSEG CODE:CODE:NOROOT(2)
        CFI Block cfiBlock63 Using cfiCommon1
        CFI Function MenuFree
        ARM
// __??Code32?? __code __interwork __atpcs void MenuFree()
MenuFree:
        LDR      R0,??DataTable26  ;; currentfile + 124
        PUSH     {LR}
        CFI ?RET Frame(CFA, -4)
        CFI CFA R13+4
        LDR      R0,[R0, #+0]
        SWI      +21
        POP      {PC}             ;; return
        CFI EndBlock cfiBlock63

        RSEG CODE:CODE:NOROOT(2)
        CFI Block cfiBlock64 Using cfiCommon0
        CFI NoFunction
        THUMB
??MenuTerminate??rT:
        BX       PC
        Nop      
        CFI EndBlock cfiBlock64
        REQUIRE MenuTerminate

        RSEG CODE:CODE:NOROOT(2)
        CFI Block cfiBlock65 Using cfiCommon1
        CFI Function MenuTerminate
        ARM
// __??Code32?? __code __interwork __atpcs void MenuTerminate()
MenuTerminate:
        LDR      R0,??DataTable26  ;; currentfile + 124
        PUSH     {LR}
        CFI ?RET Frame(CFA, -4)
        CFI CFA R13+4
        LDR      R0,[R0, #+0]
        SWI      +21
        POP      {PC}             ;; return
        CFI EndBlock cfiBlock65

        RSEG CODE:CODE:NOROOT(2)
        DATA
??DataTable26:
        DC32     currentfile + 124

        RSEG CODE:CODE:NOROOT(2)
        CFI Block cfiBlock66 Using cfiCommon0
        CFI NoFunction
        THUMB
??MenuOnKey??rT:
        BX       PC
        Nop      
        CFI EndBlock cfiBlock66
        REQUIRE MenuOnKey

        RSEG CODE:CODE:NOROOT(2)
        CFI Block cfiBlock67 Using cfiCommon1
        CFI Function MenuOnKey
        ARM
// __??Code32?? __code __interwork __atpcs int MenuOnKey(unsigned char)
MenuOnKey:
        LDR      R2,??DataTable42  ;; currentfile
        PUSH     {LR}
        CFI ?RET Frame(CFA, -4)
        CFI CFA R13+4
        LDRB     R12,[R2, #+667]
        MOV      R1,#+157
        ORR      R1,R1,#0x200
        LDRSB    R3,[R1, +R2]
        SUBS     LR,R0,#+59
        BEQ      ??MenuOnKey_0
        SUBS     LR,LR,#+1
        BNE      ??MenuOnKey_1
        ADD      R3,R3,#+1
        MOV      LR,R3, LSL #+24
        CMP      R12,LR, ASR #+24
        BGT      ??MenuOnKey_1
        MOV      R3,#+0
        B        ??MenuOnKey_1
??MenuOnKey_0:
        SUB      R3,R3,#+1
        MOV      R3,R3, LSL #+24
        MOVS     R3,R3, ASR #+24
        SUBMI    R3,R12,#+1
??MenuOnKey_1:
        STRB     R3,[R1, +R2]
        LDR      R1,[R2, #+644]
        POP      {LR}             ;; Pop
        CFI ?RET R14
        CFI CFA R13+0
        MOV      PC,R1            ;; tailcall
        CFI EndBlock cfiBlock67

        RSEG CODE:CODE:NOROOT(2)
        CFI Block cfiBlock68 Using cfiCommon0
        CFI NoFunction
        THUMB
??AboutOnKey??rT:
        BX       PC
        Nop      
        CFI EndBlock cfiBlock68
        REQUIRE AboutOnKey

        RSEG CODE:CODE:NOROOT(2)
        CFI Block cfiBlock69 Using cfiCommon1
        CFI Function AboutOnKey
        ARM
// __??Code32?? __code __interwork __atpcs int AboutOnKey(unsigned char)
AboutOnKey:
        SUBS     R0,R0,#+4
        SUBSNE   R0,R0,#+8
        LDREQ    R0,??AboutOnKey_0  ;; currentfile + 668
        MOVEQ    R1,#+0
        STRBEQ   R1,[R0, #+0]
        MOV      R0,#+0
        BX       LR               ;; return
        DATA
??AboutOnKey_0:
        DC32     currentfile + 668
        CFI EndBlock cfiBlock69

        RSEG CODE:CODE:NOROOT(2)
        CFI Block cfiBlock70 Using cfiCommon0
        CFI NoFunction
        THUMB
??ShowAbout??rT:
        BX       PC
        Nop      
        CFI EndBlock cfiBlock70
        REQUIRE ShowAbout

        RSEG CODE:CODE:NOROOT(2)
        CFI Block cfiBlock71 Using cfiCommon1
        CFI Function ShowAbout
        ARM
// __??Code32?? __code __interwork __atpcs void ShowAbout()
ShowAbout:
        PUSH     {R4,R5,LR}
        CFI ?RET Frame(CFA, -4)
        CFI R5 Frame(CFA, -8)
        CFI R4 Frame(CFA, -12)
        CFI CFA R13+12
        LDR      R4,??DataTable42  ;; currentfile
        LDR      R5,??ShowAbout_0  ;; `?<Constant "                    OK">`
        BL       ClearMenu
        MOV      R0,#+0
        STRB     R0,[R4, #+670]
        LDR      R0,??ShowAbout_0+0x4  ;; AboutOnKey
        MOV      R1,#+0
        STR      R0,[R4, #+644]
        ADD      R0,R5,#+64
        BL       AddMenuItem
        MOV      R1,#+0
        ADD      R0,R5,#+44
        BL       AddMenuItem
        MOV      R1,#+0
        ADD      R0,R5,#+24
        BL       AddMenuItem
        MOV      R0,#+1
        STRB     R0,[R4, #+668]
        STR      R5,[R4, #+128]
        POP      {R4,R5,PC}       ;; return
        DATA
??ShowAbout_0:
        DC32     `?<Constant "                    OK">`
        DC32     AboutOnKey
        CFI EndBlock cfiBlock71

        RSEG CODE:CODE:NOROOT(2)
        CFI Block cfiBlock72 Using cfiCommon0
        CFI NoFunction
        THUMB
??PlaylistOnKey??rT:
        BX       PC
        Nop      
        CFI EndBlock cfiBlock72
        REQUIRE PlaylistOnKey

        RSEG CODE:CODE:NOROOT(2)
        CFI Block cfiBlock73 Using cfiCommon1
        CFI Function PlaylistOnKey
        ARM
// __??Code32?? __code __interwork __atpcs int PlaylistOnKey(unsigned char)
PlaylistOnKey:
        PUSH     {R4-R6,LR}
        CFI ?RET Frame(CFA, -4)
        CFI R6 Frame(CFA, -8)
        CFI R5 Frame(CFA, -12)
        CFI R4 Frame(CFA, -16)
        CFI CFA R13+16
        LDR      R4,??DataTable29  ;; currentfile
        MOV      R5,#+157
        ORR      R5,R5,#0x200
        LDRSB    R2,[R5, +R4]
        MOV      R1,R0
        LDR      R0,[R4, #+40]
        SUBS     R1,R1,#+1
        ADD      R0,R0,R2, LSL #+8
        BEQ      ??PlaylistOnKey_0
        SUBS     R1,R1,#+3
        BEQ      ??PlaylistOnKey_1
        SUBS     R1,R1,#+8
        BEQ      ??PlaylistOnKey_2
        SUBS     R1,R1,#+14
        BEQ      ??PlaylistOnKey_1
        B        ??PlaylistOnKey_3
??PlaylistOnKey_0:
        MOV      R1,#+32768
        SUB      R2,R1,R2, LSL #+8
        ADD      R1,R0,#+256
        _BLF     memcpy,??memcpy??rA
        LDRB     R0,[R4, #+653]
        LDRSB    R6,[R5, +R4]
        SUB      R0,R0,#+1
        STRB     R0,[R4, #+653]
        BL       ShowPlaylist
        LDRB     R2,[R4, #+667]
        STRB     R6,[R5, +R4]
        CMP      R6,R2
        BLT      ??PlaylistOnKey_4
        SUB      R0,R6,#+1
        STRB     R0,[R5, +R4]
??PlaylistOnKey_3:
        MOV      R0,#+0
        POP      {R4-R6,PC}
??PlaylistOnKey_2:
        BL       ShowMainMenu
        B        ??PlaylistOnKey_3
??PlaylistOnKey_1:
        MOV      R1,#+0
        STRB     R1,[R4, #+668]
        MOV      R2,#+256
        MOV      R1,R0
        LDR      R0,[R4, #+36]
        _BLF     memcpy,??memcpy??rA
        BL       UpdateShowName
        LDRSB    R0,[R5, +R4]
        ADD      R1,R4,#+664
        LDRSB    R1,[R1, #+0]
        STRH     R0,[R4, #+0]
        MOV      R0,#+1
        STRB     R0,[R4, #+652]
        CMP      R1,#+0
        BNE      ??PlaylistOnKey_5
        BL       Mp3Init
        BL       AudioStart
        B        ??PlaylistOnKey_3
??PlaylistOnKey_5:
        STRH     R0,[R4, #+4]
??PlaylistOnKey_4:
        MOV      R0,#+0
        POP      {R4-R6,PC}       ;; return
        CFI EndBlock cfiBlock73

        RSEG CODE:CODE:NOROOT(2)
        DATA
??DataTable29:
        DC32     currentfile

        RSEG CODE:CODE:NOROOT(2)
        CFI Block cfiBlock74 Using cfiCommon0
        CFI NoFunction
        THUMB
??ShowPlaylist??rT:
        BX       PC
        Nop      
        CFI EndBlock cfiBlock74
        REQUIRE ShowPlaylist

        RSEG CODE:CODE:NOROOT(2)
        CFI Block cfiBlock75 Using cfiCommon1
        CFI Function ShowPlaylist
        ARM
// __??Code32?? __code __interwork __atpcs void ShowPlaylist()
ShowPlaylist:
        PUSH     {R4,R5,LR}
        CFI ?RET Frame(CFA, -4)
        CFI R5 Frame(CFA, -8)
        CFI R4 Frame(CFA, -12)
        CFI CFA R13+12
        LDR      R4,??DataTable42  ;; currentfile
        BL       ClearMenu
        LDRB     R0,[R4, #+653]
        CMP      R0,#+0
        POPEQ    {R4,R5,PC}
        LDR      R0,??ShowPlaylist_0  ;; PlaylistOnKey
        MOV      R5,#+0
        STR      R0,[R4, #+644]
        B        ??ShowPlaylist_1
??ShowPlaylist_2:
        MOV      R1,#+0
        ADD      R0,R0,#+1
        BL       AddMenuItem
        ADD      R5,R5,#+1
??ShowPlaylist_1:
        LDRB     R0,[R4, #+653]
        CMP      R5,R0
        BGE      ??ShowPlaylist_3
        LDR      R1,[R4, #+40]
        MOV      R3,#+0
        ADD      R0,R1,R5, LSL #+8
        LDRSB    R0,[R0, #+0]
        LSL      R2,R5,#+8
        CMP      R0,#+1
        BGE      ??ShowPlaylist_4
        B        ??ShowPlaylist_5
??ShowPlaylist_6:
        ADD      R3,R3,#+1
??ShowPlaylist_4:
        ADD      R0,R3,R2
        LDRSB    R0,[R0, +R1]
        CMP      R0,#+1
        BGE      ??ShowPlaylist_6
??ShowPlaylist_5:
        ADD      R0,R3,R2
        ADD      R0,R0,R1
        LDRSB    R12,[R0, #+0]
        CMP      R12,#+92
        BEQ      ??ShowPlaylist_2
        SUB      R3,R3,#+1
        B        ??ShowPlaylist_5
??ShowPlaylist_3:
        LDR      R0,??ShowPlaylist_0+0x4  ;; `?<Constant "Delete        Play">`
        STR      R0,[R4, #+128]
        MOV      R0,#+1
        STRB     R0,[R4, #+668]
        POP      {R4,R5,PC}       ;; return
        DATA
??ShowPlaylist_0:
        DC32     PlaylistOnKey
        DC32     `?<Constant "Delete        Play">`
        CFI EndBlock cfiBlock75

        RSEG CODE:CODE:NOROOT(2)
        CFI Block cfiBlock76 Using cfiCommon0
        CFI NoFunction
        THUMB
??ShowFilesMenu??rT:
        BX       PC
        Nop      
        CFI EndBlock cfiBlock76
        REQUIRE ShowFilesMenu

        RSEG DATA_I:DATA:SORT:NOROOT(2)
currentfile:
        DS8 2
        REQUIRE `?<Initializer for currentfile>`
curfilerand:
        DS8 2
        REQUIRE `?<Initializer for curfilerand>`
newfile:
        DS8 2
        REQUIRE `?<Initializer for newfile>`
        DS8 2
// MP3FrameInfo __data mp3FrameInfo
mp3FrameInfo:
        DS8 28
        REQUIRE `?<Initializer for mp3FrameInfo>`
filename:
        DS8 4
        REQUIRE `?<Initializer for filename>`
files:
        DS8 4
        REQUIRE `?<Initializer for files>`
showfilename:
        DS8 4
        REQUIRE `?<Initializer for showfilename>`
// char *__data MP3Buf
MP3Buf:
        DS8 4
        REQUIRE `?<Initializer for MP3Buf>`
// char *__data MP3Bufpos
MP3Bufpos:
        DS8 4
        REQUIRE `?<Initializer for MP3Bufpos>`
// void * __data MP3DEC
MP3DEC:
        DS8 4
        REQUIRE `?<Initializer for MP3DEC>`
// int __data mp3handle
mp3handle:
        DS8 4
        REQUIRE `?<Initializer for mp3handle>`
// int __data bytesLeft
bytesLeft:
        DS8 4
        REQUIRE `?<Initializer for bytesLeft>`
// int __data offset
offset:
        DS8 4
        REQUIRE `?<Initializer for offset>`
// unsigned int __data err
err:
        DS8 4
        REQUIRE `?<Initializer for err>`
// signed short *__data Wavebuf
Wavebuf:
        DS8 4
        REQUIRE `?<Initializer for Wavebuf>`
// signed short *__data framebuf
framebuf:
        DS8 4
        REQUIRE `?<Initializer for framebuf>`
// unsigned long __data samplepos
samplepos:
        DS8 4
        REQUIRE `?<Initializer for samplepos>`
// unsigned long __data framepos
framepos:
        DS8 4
        REQUIRE `?<Initializer for framepos>`
// unsigned long __data samplesize
samplesize:
        DS8 4
        REQUIRE `?<Initializer for samplesize>`
// unsigned long __data samplerate
samplerate:
        DS8 4
        REQUIRE `?<Initializer for samplerate>`
// char *__data buffer
buffer:
        DS8 4
        REQUIRE `?<Initializer for buffer>`
// long *__data WaveParams
WaveParams:
        DS8 4
        REQUIRE `?<Initializer for WaveParams>`
// unsigned char *__data ima1
ima1:
        DS8 4
        REQUIRE `?<Initializer for ima1>`
// signed short *__data wave
wave:
        DS8 4
        REQUIRE `?<Initializer for wave>`
// unsigned long __data WB
WB:
        DS8 4
        REQUIRE `?<Initializer for WB>`
// unsigned long __data PlayTime
PlayTime:
        DS8 4
        REQUIRE `?<Initializer for PlayTime>`
// unsigned char *__data MenuItems
MenuItems:
        DS8 4
        REQUIRE `?<Initializer for MenuItems>`
// unsigned char *__data ButtonsText
ButtonsText:
        DS8 4
        REQUIRE `?<Initializer for ButtonsText>`
// unsigned int __data ItemTypes[128]
ItemTypes:
        DS8 512
        REQUIRE `?<Initializer for ItemTypes>`
// int (*__data MenuOnKeySub)(unsigned char)
MenuOnKeySub:
        DS8 4
        REQUIRE `?<Initializer for MenuOnKeySub>`
// char *__data curpath
curpath:
        DS8 4
        REQUIRE `?<Initializer for curpath>`
fromplaylist:
        DS8 1
        REQUIRE `?<Initializer for fromplaylist>`
numfiles:
        DS8 1
        REQUIRE `?<Initializer for numfiles>`
loop:
        DS8 1
        REQUIRE `?<Initializer for loop>`
// char __data PlayMp3
PlayMp3:
        DS8 1
        REQUIRE `?<Initializer for PlayMp3>`
// char __data endoffile
endoffile:
        DS8 1
        REQUIRE `?<Initializer for endoffile>`
// char __data channels
channels:
        DS8 1
        REQUIRE `?<Initializer for channels>`
// char __data RipLen
RipLen:
        DS8 1
        REQUIRE `?<Initializer for RipLen>`
// char __data Ripping
Ripping:
        DS8 1
        REQUIRE `?<Initializer for Ripping>`
// unsigned char __data Volume
Volume:
        DS8 1
        REQUIRE `?<Initializer for Volume>`
// char __data currbuf
currbuf:
        DS8 1
        REQUIRE `?<Initializer for currbuf>`
// char __data offcount
offcount:
        DS8 1
        REQUIRE `?<Initializer for offcount>`
// char __data randomplay
randomplay:
        DS8 1
        REQUIRE `?<Initializer for randomplay>`
// char __data Playing
Playing:
        DS8 1
        REQUIRE `?<Initializer for Playing>`
// char __data Paused
Paused:
        DS8 1
        REQUIRE `?<Initializer for Paused>`
// char __data SoftVol
SoftVol:
        DS8 1
        REQUIRE `?<Initializer for SoftVol>`
// unsigned char __data NumOfItems
NumOfItems:
        DS8 1
        REQUIRE `?<Initializer for NumOfItems>`
// unsigned char __data MenuActive
MenuActive:
        DS8 1
        REQUIRE `?<Initializer for MenuActive>`
// signed char __data Selected
Selected:
        DS8 1
        REQUIRE `?<Initializer for Selected>`
// signed char __data ShowCursor
ShowCursor:
        DS8 1
        REQUIRE `?<Initializer for ShowCursor>`
        DS8 1
// unsigned char __data WavHdr[60]
WavHdr:
        DS8 60
        REQUIRE `?<Initializer for WavHdr>`
// GBSTMR __data timer
timer:
        DS8 16
        REQUIRE `?<Initializer for timer>`

        RSEG DATA_I:DATA:SORT:NOROOT(2)
// short __data ima_step
ima_step:
        DS8 2
        REQUIRE `?<Initializer for ima_step>`
        DS8 2
        DS8 64
        REQUIRE `?<Initializer for ima_index_adjust>`
        DS8 356
        REQUIRE `?<Initializer for ima_step_size>`

        RSEG CODE:CODE:NOROOT(2)
        CFI Block cfiBlock77 Using cfiCommon1
        CFI Function ShowFilesMenu
        ARM
// __??Code32?? __code __interwork __atpcs void ShowFilesMenu()
ShowFilesMenu:
        PUSH     {R4,LR}
        CFI ?RET Frame(CFA, -4)
        CFI R4 Frame(CFA, -8)
        CFI CFA R13+8
        LDR      R4,??DataTable42  ;; currentfile
        BL       ClearMenu
        LDR      R0,[R4, #+648]
        MOV      R2,#+256
        MOV      R1,#+0
        _BLF     memset,??memset??rA
        LDR      R0,??ShowFilesMenu_0+0xC  ;; FilesMenuOnKey
        MOV      R1,#+0
        STR      R0,[R4, #+644]
        ADR      R0,??ShowFilesMenu_0  ;; "0:"
        BL       AddMenuItem
        MOV      R1,#+0
        ADR      R0,??ShowFilesMenu_0+0x4  ;; "1:"
        BL       AddMenuItem
        MOV      R1,#+0
        ADR      R0,??ShowFilesMenu_0+0x8  ;; "2:"
        BL       AddMenuItem
        LDR      R0,??ShowFilesMenu_0+0x10  ;; `?<Constant "%s%s%s">` + 8
        STR      R0,[R4, #+128]
        MOV      R0,#+1
        STRB     R0,[R4, #+668]
        POP      {R4,PC}          ;; return
        DATA
??ShowFilesMenu_0:
        DC8      "0:",+0
        DC8      "1:",+0
        DC8      "2:",+0
        DC32     FilesMenuOnKey
        DC32     `?<Constant "%s%s%s">` + 8
        CFI EndBlock cfiBlock77

        RSEG CODE:CODE:NOROOT(2)
        CFI Block cfiBlock78 Using cfiCommon0
        CFI NoFunction
        THUMB
??IsFile??rT:
        BX       PC
        Nop      
        CFI EndBlock cfiBlock78
        REQUIRE IsFile

        RSEG CODE:CODE:NOROOT(2)
        CFI Block cfiBlock79 Using cfiCommon1
        CFI Function IsFile
        ARM
// __??Code32?? __code __interwork __atpcs int IsFile(char *)
IsFile:
        MOV      R1,#+0
??IsFile_0:
        LDRSB    R2,[R1, +R0]
        CMP      R2,#+0
        BEQ      ??IsFile_1
        CMP      R2,#+46
        MOVEQ    R0,#+1
        BXEQ     LR
        ADD      R1,R1,#+1
        CMP      R1,#+200
        BLT      ??IsFile_0
??IsFile_1:
        MOV      R0,#+0
        BX       LR               ;; return
        CFI EndBlock cfiBlock79

        RSEG CODE:CODE:NOROOT(2)
        CFI Block cfiBlock80 Using cfiCommon0
        CFI NoFunction
        THUMB
??IsMP3??rT:
        BX       PC
        Nop      
        CFI EndBlock cfiBlock80
        REQUIRE IsMP3

        RSEG CODE:CODE:NOROOT(2)
        CFI Block cfiBlock81 Using cfiCommon1
        CFI Function IsMP3
        ARM
// __??Code32?? __code __interwork __atpcs int IsMP3(char *)
IsMP3:
        LDRSB    R2,[R0, #+0]
        MOV      R1,#+0
        CMP      R2,#+0
        BNE      ??IsMP3_0
        B        ??IsMP3_1
??IsMP3_2:
        ADD      R1,R1,#+1
??IsMP3_0:
        LDRSB    R2,[R1, +R0]
        CMP      R2,#+0
        BNE      ??IsMP3_2
??IsMP3_1:
        SUB      R1,R1,#+1
        LDRSB    R2,[R1, +R0]
        CMP      R2,#+51
        BEQ      ??IsMP3_3
??IsMP3_4:
        MOV      R0,#+0
        BX       LR
??IsMP3_3:
        SUB      R1,R1,#+1
        LDRSB    R2,[R1, +R0]
        CMP      R2,#+112
        CMPNE    R2,#+80
        BNE      ??IsMP3_4
        SUB      R1,R1,#+1
        LDRSB    R2,[R1, +R0]
        CMP      R2,#+109
        CMPNE    R2,#+77
        BNE      ??IsMP3_4
        MOV      R0,#+1
        BX       LR               ;; return
        CFI EndBlock cfiBlock81

        RSEG CODE:CODE:NOROOT(2)
        CFI Block cfiBlock82 Using cfiCommon0
        CFI NoFunction
        THUMB
??EnumFolder??rT:
        BX       PC
        Nop      
        CFI EndBlock cfiBlock82
        REQUIRE EnumFolder

        RSEG CODE:CODE:NOROOT(2)
        CFI Block cfiBlock83 Using cfiCommon1
        CFI Function EnumFolder
        ARM
// __??Code32?? __code __interwork __atpcs void EnumFolder(char *)
EnumFolder:
        PUSH     {R4-R8,LR}
        CFI ?RET Frame(CFA, -4)
        CFI R8 Frame(CFA, -8)
        CFI R7 Frame(CFA, -12)
        CFI R6 Frame(CFA, -16)
        CFI R5 Frame(CFA, -20)
        CFI R4 Frame(CFA, -24)
        CFI CFA R13+24
        LDR      R7,??DataTable42  ;; currentfile
        MOV      R4,R0
        MOV      R0,#+256
        SWI      +20
        MOV      R5,R0
        MOV      R0,#+440
        SWI      +20
        MOV      R6,R0
        MOV      R2,#+440
        MOV      R1,#+0
        _BLF     memset,??memset??rA
        LDRSB    R0,[R4, #+0]
        CMP      R0,#+46
        BNE      ??EnumFolder_0
        LDR      R1,[R7, #+648]
        MOV      R0,#+0
        STR      R0,[R7, #+72]
        LDRSB    R2,[R1, #+0]
        CMP      R2,#+1
        BGE      ??EnumFolder_1
        B        ??EnumFolder_2
??EnumFolder_3:
        ADD      R2,R2,#+1
        STR      R2,[R7, #+72]
??EnumFolder_1:
        LDR      R2,[R7, #+72]
        LDRSB    R3,[R2, +R1]
        CMP      R3,#+1
        BGE      ??EnumFolder_3
??EnumFolder_2:
        LDR      R2,[R7, #+72]
        ADD      R3,R2,R1
        LDRSB    R3,[R3, #-2]
        CMP      R3,#+58
        BNE      ??EnumFolder_4
        BL       ShowFilesMenu
        POP      {R4-R8,PC}
??EnumFolder_4:
        SUB      R2,R2,#+2
        STR      R2,[R7, #+72]
        LDRSB    R2,[R2, +R1]
        CMP      R2,#+92
        BEQ      ??EnumFolder_5
??EnumFolder_6:
        LDR      R2,[R7, #+72]
        SUB      R2,R2,#+1
        STR      R2,[R7, #+72]
        LDRSB    R2,[R2, +R1]
        CMP      R2,#+92
        BNE      ??EnumFolder_6
??EnumFolder_5:
        LDR      R2,[R7, #+72]
        STRB     R0,[R2, +R1]
        STRB     R0,[R4, #+0]
??EnumFolder_0:
        LDR      R8,??DataTable35  ;; `?<Constant "%s%s%s">`
        ADR      R0,??EnumFolder_7  ;; "\\"
        PUSH     {R0}
        CFI CFA R13+28
        LDR      R2,[R7, #+648]
        MOV      R3,R4
        MOV      R1,R8
        MOV      R0,R5
        SWI      +22
        LDR      R0,[R7, #+648]
        MOV      R2,#+256
        MOV      R1,R5
        _BLF     memcpy,??memcpy??rA
        LDR      R2,[R7, #+648]
        ADR      R3,??EnumFolder_7+0x4  ;; "*.*"
        ADD      R1,R8,#+76
        MOV      R0,R5
        SWI      +22
        BL       ClearMenu
        MOV      R1,#+0
        ADR      R0,??EnumFolder_7+0x8  ;; ".."
        BL       AddMenuItem
        ADD      R2,R7,#+72
        MOV      R1,R5
        MOV      R0,R6
        SWI      +107
        CMP      R0,#+1
        ADD      SP,SP,#+4
        CFI CFA R13+24
        BNE      ??EnumFolder_8
??EnumFolder_9:
        ADD      R0,R6,#+169
        BL       IsFile
        MOV      R1,R0
        ADD      R0,R6,#+169
        BL       AddMenuItem
        ADD      R1,R7,#+72
        MOV      R0,R6
        SWI      +108
        CMP      R0,#+1
        BEQ      ??EnumFolder_9
??EnumFolder_8:
        ADD      R1,R7,#+72
        MOV      R0,R6
        SWI      +109
        MOV      R0,R5
        SWI      +21
        MOV      R0,R6
        SWI      +21
        MOV      R0,#+1
        STRB     R0,[R7, #+668]
        POP      {R4-R8,PC}       ;; return
        DATA
??EnumFolder_7:
        DC8      "\\",+0,+0
        DC8      "*.*"
        DC8      "..",+0
        CFI EndBlock cfiBlock83

        RSEG CODE:CODE:NOROOT(2)
        CFI Block cfiBlock84 Using cfiCommon0
        CFI NoFunction
        THUMB
??FilesMenuOnKey??rT:
        BX       PC
        Nop      
        CFI EndBlock cfiBlock84
        REQUIRE FilesMenuOnKey

        RSEG CODE:CODE:NOROOT(2)
        CFI Block cfiBlock85 Using cfiCommon1
        CFI Function FilesMenuOnKey
        ARM
// __??Code32?? __code __interwork __atpcs int FilesMenuOnKey(unsigned char)
FilesMenuOnKey:
        PUSH     {R4-R7,LR}
        CFI ?RET Frame(CFA, -4)
        CFI R7 Frame(CFA, -8)
        CFI R6 Frame(CFA, -12)
        CFI R5 Frame(CFA, -16)
        CFI R4 Frame(CFA, -20)
        CFI CFA R13+20
        LDR      R4,??DataTable42  ;; currentfile
        LDR      R5,??DataTable35  ;; `?<Constant "%s%s%s">`
        LDR      R1,[R4, #+124]
        MOV      R6,#+157
        ORR      R6,R6,#0x200
        SUBS     R0,R0,#+1
        BEQ      ??FilesMenuOnKey_0
        SUBS     R0,R0,#+3
        BEQ      ??FilesMenuOnKey_1
        SUBS     R0,R0,#+8
        BEQ      ??FilesMenuOnKey_2
        SUBS     R0,R0,#+14
        BEQ      ??FilesMenuOnKey_1
        B        ??FilesMenuOnKey_3
??FilesMenuOnKey_2:
        BL       ShowMainMenu
        MOV      R0,#+0
        POP      {R4-R7,PC}
??FilesMenuOnKey_1:
        LDRSB    R0,[R6, +R4]
        ADD      R7,R1,R0, LSL #+8
        ADD      R0,R4,R0, LSL #+2
        LDR      R0,[R0, #+132]
        CMP      R0,#+0
        MOV      R0,R7
        BEQ      ??FilesMenuOnKey_4
        BL       IsMP3
        CMP      R0,#+0
        BEQ      ??FilesMenuOnKey_3
        LDRB     R0,[R4, #+653]
        LDR      R2,[R4, #+648]
        ADD      R1,R5,#+76
        LDR      R5,[R4, #+40]
        MOV      R3,R7
        ADD      R0,R5,R0, LSL #+8
        SWI      +22
        LDRB     R0,[R4, #+653]
        ADD      R0,R0,#+1
        STRB     R0,[R4, #+653]
        B        ??FilesMenuOnKey_5
??FilesMenuOnKey_0:
        MOV      R0,R1
??FilesMenuOnKey_4:
        BL       EnumFolder
??FilesMenuOnKey_3:
        LDRSB    R1,[R6, +R4]
        ADD      R0,R5,#+68
        STR      R0,[R4, #+128]
        LDR      R0,[R4, #+124]
        ADD      R0,R0,R1, LSL #+8
        LDRB     R2,[R0, #+1]
        ADD      R1,R4,R1, LSL #+2
        CMP      R2,#+58
        ADDEQ    R2,R5,#+8
        STREQ    R2,[R4, #+128]
        LDR      R1,[R1, #+132]
        CMP      R1,#+0
        ADDEQ    R0,R5,#+48
        BEQ      ??FilesMenuOnKey_6
        BL       IsMP3
        CMP      R0,#+0
        POPEQ    {R4-R7,PC}
        ADD      R0,R5,#+28
??FilesMenuOnKey_6:
        STR      R0,[R4, #+128]
??FilesMenuOnKey_5:
        MOV      R0,#+0
        POP      {R4-R7,PC}       ;; return
        CFI EndBlock cfiBlock85

        RSEG CODE:CODE:NOROOT(2)
        DATA
??DataTable35:
        DC32     `?<Constant "%s%s%s">`

        RSEG CODE:CODE:NOROOT(2)
        CFI Block cfiBlock86 Using cfiCommon0
        CFI NoFunction
        THUMB
??MainMenuOnKey??rT:
        BX       PC
        Nop      
        CFI EndBlock cfiBlock86
        REQUIRE MainMenuOnKey

        RSEG CODE:CODE:NOROOT(2)
        CFI Block cfiBlock87 Using cfiCommon1
        CFI Function MainMenuOnKey
        ARM
// __??Code32?? __code __interwork __atpcs int MainMenuOnKey(unsigned char)
MainMenuOnKey:
        PUSH     {R4,R5,LR}
        CFI ?RET Frame(CFA, -4)
        CFI R5 Frame(CFA, -8)
        CFI R4 Frame(CFA, -12)
        CFI CFA R13+12
        MOV      R1,#+0
        LDR      R4,??DataTable42  ;; currentfile
        SUBS     R0,R0,#+1
        BEQ      ??MainMenuOnKey_1
        SUBS     R0,R0,#+3
        BEQ      ??MainMenuOnKey_2
        SUBS     R0,R0,#+8
        BEQ      ??MainMenuOnKey_1
        SUBS     R0,R0,#+14
        BEQ      ??MainMenuOnKey_2
        B        ??MainMenuOnKey_3
??MainMenuOnKey_1:
        STRB     R1,[R4, #+668]
??MainMenuOnKey_3:
        MOV      R0,#+0
        POP      {R4,R5,PC}
??MainMenuOnKey_2:
        MOV      R5,#+157
        ORR      R5,R5,#0x200
        LDRSB    R0,[R5, +R4]
        STRB     R1,[R4, #+668]
        CMP      R0,#+6
        BHI      ??MainMenuOnKey_4
        ADR      R2,??MainMenuOnKey_0
        LDRSB    R2,[R2, R0]
        ADD      PC,PC,R2, LSL #+2
        DATA
??MainMenuOnKey_0:
        DC8      +1,+3,+5,+9
        DC8      +15,+26,+33,+0
        ARM
??MainMenuOnKey_5:
        BL       ShowPlaylist
        B        ??MainMenuOnKey_3
??MainMenuOnKey_6:
        BL       ShowFilesMenu
        B        ??MainMenuOnKey_3
??MainMenuOnKey_7:
        STRB     R1,[R4, #+664]
        MOV      R0,#+30
        STRB     R0,[R4, #+658]
        B        ??MainMenuOnKey_3
??MainMenuOnKey_8:
        LDRB     R0,[R4, #+654]
        EOR      R0,R0,#0x1
        STRB     R0,[R4, #+654]
        BL       ShowMainMenu
        MOV      R0,#+3
        B        ??MainMenuOnKey_9
??MainMenuOnKey_10:
        SUB      R0,R5,#+3
        LDRSB    R1,[R0, +R4]
        CMP      R1,#+16
        MOVNE    R1,#+16
        MOVEQ    R1,#+1
        STRB     R1,[R0, +R4]
        BL       ShowMainMenu
        MOV      R0,#+4
??MainMenuOnKey_9:
        STRB     R0,[R5, +R4]
??MainMenuOnKey_4:
        MOV      R0,#+0
        POP      {R4,R5,PC}
??MainMenuOnKey_11:
        SUB      R0,R5,#+6
        LDRSB    R1,[R0, +R4]
        EOR      R1,R1,#0x1
        STRB     R1,[R0, +R4]
        BL       ShowMainMenu
        MOV      R0,#+5
        B        ??MainMenuOnKey_9
??MainMenuOnKey_12:
        BL       ShowAbout
??MainMenuOnKey_13:
        B        ??MainMenuOnKey_3
        CFI EndBlock cfiBlock87

        RSEG CODE:CODE:NOROOT(2)
        CFI Block cfiBlock88 Using cfiCommon0
        CFI NoFunction
        THUMB
??ShowMainMenu??rT:
        BX       PC
        Nop      
        CFI EndBlock cfiBlock88
        REQUIRE ShowMainMenu

        RSEG CODE:CODE:NOROOT(2)
        CFI Block cfiBlock89 Using cfiCommon1
        CFI Function ShowMainMenu
        ARM
// __??Code32?? __code __interwork __atpcs void ShowMainMenu()
ShowMainMenu:
        PUSH     {R4,R5,LR}
        CFI ?RET Frame(CFA, -4)
        CFI R5 Frame(CFA, -8)
        CFI R4 Frame(CFA, -12)
        CFI CFA R13+12
        LDR      R4,??DataTable42  ;; currentfile
        LDR      R5,??ShowMainMenu_0  ;; `?<Constant "Aloud mode">`
        BL       ClearMenu
        LDR      R0,??ShowMainMenu_0+0x4  ;; MainMenuOnKey
        MOV      R1,#+0
        STR      R0,[R4, #+644]
        ADD      R0,R5,#+136
        BL       AddMenuItem
        MOV      R1,#+0
        ADD      R0,R5,#+112
        BL       AddMenuItem
        MOV      R1,#+0
        ADD      R0,R5,#+100
        BL       AddMenuItem
        LDRB     R0,[R4, #+654]
        MOV      R1,#+0
        CMP      R0,#+0
        ADDNE    R0,R5,#+88
        ADDEQ    R0,R5,#+76
        BL       AddMenuItem
        MOV      R0,#+154
        ORR      R0,R0,#0x200
        LDRSB    R0,[R0, +R4]
        MOV      R1,#+0
        CMP      R0,#+1
        ADDEQ    R0,R5,#+64
        MOVNE    R0,R5
        BL       AddMenuItem
        MOV      R0,#+151
        ORR      R0,R0,#0x200
        LDRSB    R0,[R0, +R4]
        MOV      R1,#+0
        CMP      R0,#+0
        ADDNE    R0,R5,#+12
        ADDEQ    R0,R5,#+52
        BL       AddMenuItem
        MOV      R1,#+0
        ADD      R0,R5,#+44
        BL       AddMenuItem
        ADD      R0,R5,#+24
        STR      R0,[R4, #+128]
        MOV      R0,#+1
        STRB     R0,[R4, #+668]
        POP      {R4,R5,PC}       ;; return
        DATA
??ShowMainMenu_0:
        DC32     `?<Constant "Aloud mode">`
        DC32     MainMenuOnKey
        CFI EndBlock cfiBlock89

        RSEG CODE:CODE:NOROOT(2)
        CFI Block cfiBlock90 Using cfiCommon0
        CFI NoFunction
        THUMB
??UpdateShowName??rT:
        BX       PC
        Nop      
        CFI EndBlock cfiBlock90
        REQUIRE UpdateShowName

        RSEG DATA_Z:DATA:SORT:NOROOT(2)
// unsigned short __data maincsm_name_body[140]
maincsm_name_body:
        DS8 280

        RSEG DATA_Z:DATA:SORT:NOROOT(2)
// unsigned int __data MAINCSM_ID
MAINCSM_ID:
        DS8 4

        RSEG DATA_Z:DATA:SORT:NOROOT(2)
// unsigned int __data MAINGUI_ID
MAINGUI_ID:
        DS8 4

        RSEG CODE:CODE:NOROOT(2)
        CFI Block cfiBlock91 Using cfiCommon1
        CFI Function UpdateShowName
        ARM
// __??Code32?? __code __interwork __atpcs void UpdateShowName()
UpdateShowName:
        PUSH     {R4,LR}
        CFI ?RET Frame(CFA, -4)
        CFI R4 Frame(CFA, -8)
        CFI CFA R13+8
        LDR      R4,??DataTable42  ;; currentfile
        LDR      R0,[R4, #+36]
        BL       ExtractFileName
        MOV      R2,#+64
        MOV      R1,R0
        LDR      R0,[R4, #+44]
        POP      {R4,LR}          ;; Pop
        CFI R4 SameValue
        CFI ?RET R14
        CFI CFA R13+0
        _BF      memcpy,??memcpy??rA  ;; tailcall
        CFI EndBlock cfiBlock91

        RSEG CODE:CODE:NOROOT(2)
        CFI Block cfiBlock92 Using cfiCommon0
        CFI NoFunction
        THUMB
??OnRedraw??rT:
        BX       PC
        Nop      
        CFI EndBlock cfiBlock92
        REQUIRE OnRedraw

        RSEG CODE:CODE:NOROOT(2)
        CFI Block cfiBlock93 Using cfiCommon1
        CFI Function OnRedraw
        ARM
// __??Code32?? __code __interwork __atpcs void OnRedraw(MAIN_GUI *)
OnRedraw:
        PUSH     {R4-R9,LR}
        CFI ?RET Frame(CFA, -4)
        CFI R9 Frame(CFA, -8)
        CFI R8 Frame(CFA, -12)
        CFI R7 Frame(CFA, -16)
        CFI R6 Frame(CFA, -20)
        CFI R5 Frame(CFA, -24)
        CFI R4 Frame(CFA, -28)
        CFI CFA R13+28
        MOV      R0,#+20
        SWI      +302
        MOV      R4,R0
        MOV      R0,#+0
        SWI      +302
        PUSH     {R4}
        CFI CFA R13+32
        PUSH     {R0}
        CFI CFA R13+36
        MOV      R3,#+129
        MOV      R2,#+129
        MOV      R0,#+0
        PUSH     {R0}
        CFI CFA R13+40
        PUSH     {R0}
        CFI CFA R13+44
        PUSH     {R0}
        CFI CFA R13+48
        MOV      R1,R0
        SWI      +336
        MOV      R0,#+0
        SWI      +302
        MOV      R4,R0
        MOV      R0,#+0
        SWI      +302
        PUSH     {R4}
        CFI CFA R13+52
        LDR      R4,??DataTable42  ;; currentfile
        PUSH     {R0}
        CFI CFA R13+56
        MOV      R3,#+130
        MOV      R2,R3
        MOV      R1,#+106
        MOV      R0,#+0
        PUSH     {R0}
        CFI CFA R13+60
        PUSH     {R0}
        CFI CFA R13+64
        PUSH     {R0}
        CFI CFA R13+68
        SWI      +336
        ADD      SP,SP,#+40
        CFI CFA R13+28
        LDRB     R0,[R4, #+668]
        CMP      R0,#+0
        BEQ      ??OnRedraw_0
        BL       DrawMenu
        POP      {R4-R9,PC}
??OnRedraw_0:
        MOV      R0,#+256
        SWI      +293
        MOV      R5,R0
        LDR      R6,??OnRedraw_1  ;; `?<Constant "Cancel         Rip">`
        MOV      R7,#+146
        ORR      R7,R7,#0x200
        ORR      R8,R7,#0x1
        LDRSB    R0,[R8, +R4]
        CMP      R0,#+1
        BLT      ??OnRedraw_2
        MOV      R0,#+20
        SWI      +302
        MOV      R9,R0
        MOV      R0,#+4
        SWI      +302
        PUSH     {R9}
        CFI CFA R13+32
        PUSH     {R0}
        CFI CFA R13+36
        MOV      R3,#+82
        MOV      R2,#+120
        MOV      R1,#+59
        MOV      R0,#+0
        PUSH     {R0}
        CFI CFA R13+40
        PUSH     {R0}
        CFI CFA R13+44
        PUSH     {R0}
        CFI CFA R13+48
        MOV      R0,#+8
        SWI      +336
        MOV      R0,#+4
        SWI      +302
        MOV      R9,R0
        MOV      R0,#+4
        SWI      +302
        LDRSB    R1,[R8, +R4]
        PUSH     {R9}
        CFI CFA R13+52
        PUSH     {R0}
        CFI CFA R13+56
        MOV      R3,#+82
        MOV      R2,#+112
        MOV      R0,#+0
        PUSH     {R0}
        CFI CFA R13+60
        PUSH     {R0}
        CFI CFA R13+64
        PUSH     {R0}
        CFI CFA R13+68
        LDRSB    R0,[R7, +R4]
        SUB      R0,R1,R0
        MUL      R0,R2,R0
        _BLF     ??div32_a,??rA??div32_a
        ADD      R2,R1,#+8
        MOV      R1,#+59
        MOV      R0,#+8
        SWI      +336
        ADD      SP,SP,#+40
        CFI CFA R13+28
        LDRSB    R1,[R8, +R4]
        LDRSB    R0,[R7, +R4]
        MOV      R2,#+100
        SUB      R0,R1,R0
        MUL      R0,R2,R0
        _BLF     ??div32_a,??rA??div32_a
        MOV      R2,R1
        ADD      R1,R6,#+104
        MOV      R0,R5
        SWI      +292
        MOV      R0,#+23
        SWI      +302
        MOV      R9,R0
        MOV      R0,#+2
        SWI      +302
        PUSH     {R9}
        CFI CFA R13+32
        PUSH     {R0}
        CFI CFA R13+36
        MOV      R3,#+130
        MOV      R2,#+60
        MOV      R1,#+0
        MOV      R0,#+2
        PUSH     {R0}
        CFI CFA R13+40
        MOV      R0,#+1
        PUSH     {R0}
        CFI CFA R13+44
        MOV      R0,#+130
        PUSH     {R0}
        CFI CFA R13+48
        MOV      R0,R5
        SWI      +332
        LDRSB    R1,[R8, +R4]
        LDRSB    R0,[R7, +R4]
        MOV      R2,#+100
        SUB      R0,R1,R0
        MUL      R0,R2,R0
        _BLF     ??div32_a,??rA??div32_a
        MOV      R2,R1
        ADD      R1,R6,#+96
        MOV      R0,R5
        SWI      +292
        MOV      R0,#+23
        SWI      +302
        MOV      R4,R0
        MOV      R0,#+20
        SWI      +302
        PUSH     {R4}
        CFI CFA R13+52
        PUSH     {R0}
        CFI CFA R13+56
        MOV      R2,#+107
        MOV      R1,#+82
        MOV      R0,#+2
        PUSH     {R0}
        CFI CFA R13+60
        MOV      R0,#+1
        PUSH     {R0}
        CFI CFA R13+64
        MOV      R0,#+130
        PUSH     {R0}
        CFI CFA R13+68
        MOV      R3,R0
        MOV      R0,R5
        SWI      +332
        ADD      SP,SP,#+40
        CFI CFA R13+28
        B        ??OnRedraw_3
??OnRedraw_2:
        LDRSB    R2,[R7, +R4]
        CMP      R2,#+0
        BNE      ??OnRedraw_4
        LDR      R0,[R4, #+120]
        LDR      R1,??OnRedraw_1+0x4  ;; 0x45e7b273
        UMULL    R3,R2,R1,R0
        LDR      R1,??DataTable40  ;; 0x10624dd3
        LSR      R2,R2,#+18
        UMULL    R3,R7,R1,R0
        MOV      R0,#+60
        MUL      R1,R0,R2
        LSR      R7,R7,#+10
        SUB      R3,R7,R1
        ADD      R1,R6,#+88
        MOV      R0,R5
        SWI      +292
        MOV      R0,#+23
        SWI      +302
        MOV      R7,R0
        MOV      R0,#+0
        SWI      +302
        PUSH     {R7}
        CFI CFA R13+32
        PUSH     {R0}
        CFI CFA R13+36
        MOV      R3,#+130
        MOV      R2,#+82
        MOV      R1,#+0
        MOV      R0,#+2
        PUSH     {R0}
        CFI CFA R13+40
        MOV      R0,#+1
        PUSH     {R0}
        CFI CFA R13+44
        MOV      R0,#+102
        PUSH     {R0}
        CFI CFA R13+48
        MOV      R0,R5
        SWI      +332
        ADD      R0,R4,#+664
        LDRSB    R0,[R0, #+0]
        ADD      SP,SP,#+20
        CFI CFA R13+28
        CMP      R0,#+1
        BNE      ??OnRedraw_5
        ADD      R0,R8,#+6
        LDRSB    R0,[R0, +R4]
        MOV      R1,#+112
        CMP      R0,#+0
        MOVNE    R2,#+284
        SUBEQ    R2,R8,#+376
        MOV      R0,#+60
        SWI      +35
        ADD      R1,R6,#+68
        B        ??OnRedraw_6
??OnRedraw_5:
        ADD      R1,R6,#+48
??OnRedraw_6:
        MOV      R0,R5
        SWI      +292
        MOV      R0,#+23
        SWI      +302
        MOV      R7,R0
        MOV      R0,#+20
        SWI      +302
        PUSH     {R7}
        CFI CFA R13+32
        PUSH     {R0}
        CFI CFA R13+36
        MOV      R3,#+125
        MOV      R2,#+107
        MOV      R1,#+4
        MOV      R0,#+1
        PUSH     {R0}
        CFI CFA R13+40
        PUSH     {R0}
        CFI CFA R13+44
        MOV      R0,#+130
        PUSH     {R0}
        CFI CFA R13+48
        MOV      R0,R5
        SWI      +332
        LDR      R1,[R4, #+44]
        MOV      R0,R5
        SWI      +292
        MOV      R0,#+23
        SWI      +302
        MOV      R7,R0
        MOV      R0,#+0
        SWI      +302
        PUSH     {R7}
        CFI CFA R13+52
        PUSH     {R0}
        CFI CFA R13+56
        MOV      R3,#+127
        MOV      R2,#+6
        MOV      R1,#+3
        MOV      R0,#+2
        PUSH     {R0}
        CFI CFA R13+60
        MOV      R0,#+3
        PUSH     {R0}
        CFI CFA R13+64
        MOV      R0,#+48
        PUSH     {R0}
        CFI CFA R13+68
        MOV      R0,R5
        SWI      +332
        ADD      SP,SP,#+40
        CFI CFA R13+28
        LDRB     R2,[R4, #+660]
        ADD      R1,R6,#+36
        MOV      R0,R5
        SWI      +292
        MOV      R0,#+23
        SWI      +302
        MOV      R4,R0
        MOV      R0,#+0
        SWI      +302
        PUSH     {R4}
        CFI CFA R13+32
        PUSH     {R0}
        CFI CFA R13+36
        MOV      R3,#+127
        MOV      R2,#+48
        MOV      R1,#+3
        MOV      R0,#+2
        PUSH     {R0}
        CFI CFA R13+40
        MOV      R0,#+3
        PUSH     {R0}
        CFI CFA R13+44
        MOV      R0,#+82
        PUSH     {R0}
        CFI CFA R13+48
        MOV      R0,R5
        SWI      +332
        ADD      SP,SP,#+20
        CFI CFA R13+28
??OnRedraw_3:
        MOV      R0,R5
        SWI      +297
        POP      {R4-R9,PC}
??OnRedraw_4:
        ADD      R1,R6,#+20
        MOV      R0,R5
        SWI      +292
        MOV      R0,#+23
        SWI      +302
        MOV      R8,R0
        MOV      R0,#+0
        SWI      +302
        PUSH     {R8}
        CFI CFA R13+32
        PUSH     {R0}
        CFI CFA R13+36
        MOV      R3,#+130
        MOV      R2,#+60
        MOV      R1,#+0
        MOV      R0,#+2
        PUSH     {R0}
        CFI CFA R13+40
        MOV      R0,#+1
        PUSH     {R0}
        CFI CFA R13+44
        MOV      R0,#+130
        PUSH     {R0}
        CFI CFA R13+48
        MOV      R0,R5
        SWI      +332
        LDRSB    R2,[R7, +R4]
        MOV      R1,R6
        MOV      R0,R5
        SWI      +292
        MOV      R0,#+23
        SWI      +302
        MOV      R4,R0
        MOV      R0,#+20
        SWI      +302
        PUSH     {R4}
        CFI CFA R13+52
        PUSH     {R0}
        CFI CFA R13+56
        MOV      R3,#+125
        MOV      R2,#+107
        MOV      R1,#+4
        MOV      R0,#+1
        PUSH     {R0}
        CFI CFA R13+60
        PUSH     {R0}
        CFI CFA R13+64
        MOV      R0,#+130
        PUSH     {R0}
        CFI CFA R13+68
        MOV      R0,R5
        SWI      +332
        ADD      SP,SP,#+40
        CFI CFA R13+28
        MOV      R0,R5
        SWI      +297
        POP      {R4-R9,PC}       ;; return
        DATA
??OnRedraw_1:
        DC32     `?<Constant "Cancel         Rip">`
        DC32     0x45e7b273
        CFI EndBlock cfiBlock93

        RSEG CODE:CODE:NOROOT(2)
        DATA
??DataTable40:
        DC32     0x10624dd3

        RSEG CODE:CODE:NOROOT(2)
        CFI Block cfiBlock94 Using cfiCommon0
        CFI NoFunction
        THUMB
??onCreate??rT:
        BX       PC
        Nop      
        CFI EndBlock cfiBlock94
        REQUIRE onCreate

        RSEG CODE:CODE:NOROOT(2)
        CFI Block cfiBlock95 Using cfiCommon1
        CFI Function onCreate
        ARM
// __??Code32?? __code __interwork __atpcs void onCreate(MAIN_GUI *, void *(*)(int))
onCreate:
        MOV      R1,#+1
        STRB     R1,[R0, #+12]
        BX       LR               ;; return
        CFI EndBlock cfiBlock95

        RSEG CODE:CODE:NOROOT(2)
        CFI Block cfiBlock96 Using cfiCommon0
        CFI NoFunction
        THUMB
??onClose??rT:
        BX       PC
        Nop      
        CFI EndBlock cfiBlock96
        REQUIRE onClose

        RSEG CODE:CODE:NOROOT(2)
        CFI Block cfiBlock97 Using cfiCommon1
        CFI Function onClose
        ARM
// __??Code32?? __code __interwork __atpcs void onClose(MAIN_GUI *, void (*)(void *))
onClose:
        PUSH     {R4,R5,LR}
        CFI ?RET Frame(CFA, -4)
        CFI R5 Frame(CFA, -8)
        CFI R4 Frame(CFA, -12)
        CFI CFA R13+12
        LDR      R5,??DataTable42  ;; currentfile
        MOV      R4,R0
        BL       SaveParams
        LDR      R0,[R5, #+44]
        SWI      +21
        LDR      R0,[R5, #+40]
        SWI      +21
        LDR      R0,[R5, #+124]
        SWI      +21
        LDR      R0,[R5, #+36]
        SWI      +21
        LDR      R0,[R5, #+648]
        SWI      +21
        BL       AudioTerminate
        LDR      R1,[R5, #+104]
        MOV      R0,#+0
        STR      R0,[R1, #-112]
        STRB     R0,[R4, #+12]
        POP      {R4,R5,PC}       ;; return
        CFI EndBlock cfiBlock97

        RSEG CODE:CODE:NOROOT(2)
        CFI Block cfiBlock98 Using cfiCommon0
        CFI NoFunction
        THUMB
??onFocus??rT:
        BX       PC
        Nop      
        CFI EndBlock cfiBlock98
        REQUIRE onFocus

        RSEG CODE:CODE:NOROOT(2)
        CFI Block cfiBlock99 Using cfiCommon1
        CFI Function onFocus
        ARM
// __??Code32?? __code __interwork __atpcs void onFocus(MAIN_GUI *, void *(*)(int), void (*)(void *))
onFocus:
        MOV      R1,#+2
        STRB     R1,[R0, #+12]
        BX       LR               ;; return
        CFI EndBlock cfiBlock99

        RSEG CODE:CODE:NOROOT(2)
        CFI Block cfiBlock100 Using cfiCommon0
        CFI NoFunction
        THUMB
??onUnfocus??rT:
        BX       PC
        Nop      
        CFI EndBlock cfiBlock100
        REQUIRE onUnfocus

        RSEG CODE:CODE:NOROOT(2)
        CFI Block cfiBlock101 Using cfiCommon1
        CFI Function onUnfocus
        ARM
// __??Code32?? __code __interwork __atpcs void onUnfocus(MAIN_GUI *, void (*)(void *))
onUnfocus:
        LDRSB    R1,[R0, #+12]
        CMP      R1,#+2
        MOVEQ    R1,#+1
        STRBEQ   R1,[R0, #+12]
        BX       LR               ;; return
        CFI EndBlock cfiBlock101

        RSEG CODE:CODE:NOROOT(2)
        CFI Block cfiBlock102 Using cfiCommon0
        CFI NoFunction
        THUMB
??RipKeys??rT:
        BX       PC
        Nop      
        CFI EndBlock cfiBlock102
        REQUIRE RipKeys

        RSEG CODE:CODE:NOROOT(2)
        CFI Block cfiBlock103 Using cfiCommon1
        CFI Function RipKeys
        ARM
// __??Code32?? __code __interwork __atpcs int RipKeys(unsigned char)
RipKeys:
        LDR      R2,??DataTable42  ;; currentfile
        PUSH     {LR}
        CFI ?RET Frame(CFA, -4)
        CFI CFA R13+4
        MOV      R1,#+146
        ORR      R1,R1,#0x200
        LDRSB    R3,[R1, +R2]
        SUBS     R0,R0,#+1
        BEQ      ??RipKeys_0
        SUBS     R0,R0,#+3
        BEQ      ??RipKeys_1
        SUBS     R0,R0,#+8
        BEQ      ??RipKeys_0
        SUBS     R0,R0,#+49
        BEQ      ??RipKeys_2
        SUBS     R0,R0,#+1
        BEQ      ??RipKeys_3
        B        ??RipKeys_4
??RipKeys_0:
        MOV      R0,#+0
        B        ??RipKeys_5
??RipKeys_1:
        LDR      R0,??RipKeys_6   ;; RipToFile
        MOV      R1,#+1
        SWI      +369
??RipKeys_4:
        MOV      R0,#+0
        POP      {PC}
??RipKeys_3:
        ADD      R0,R3,#+1
        B        ??RipKeys_5
??RipKeys_2:
        CMP      R3,#+6
        BLT      ??RipKeys_7
        SUB      R0,R3,#+1
??RipKeys_5:
        STRB     R0,[R1, +R2]
??RipKeys_7:
        MOV      R0,#+0
        POP      {PC}             ;; return
        DATA
??RipKeys_6:
        DC32     RipToFile
        CFI EndBlock cfiBlock103

        RSEG CODE:CODE:NOROOT(2)
        DATA
??DataTable42:
        DC32     currentfile

        RSEG CODE:CODE:NOROOT(2)
        CFI Block cfiBlock104 Using cfiCommon0
        CFI NoFunction
        THUMB
??ControlKeys??rT:
        BX       PC
        Nop      
        CFI EndBlock cfiBlock104
        REQUIRE ControlKeys

        RSEG CODE:CODE:NOROOT(2)
        CFI Block cfiBlock105 Using cfiCommon1
        CFI Function ControlKeys
        ARM
// __??Code32?? __code __interwork __atpcs int ControlKeys(unsigned char)
ControlKeys:
        PUSH     {R4,R6-R8,LR}
        CFI ?RET Frame(CFA, -4)
        CFI R8 Frame(CFA, -8)
        CFI R7 Frame(CFA, -12)
        CFI R6 Frame(CFA, -16)
        CFI R4 Frame(CFA, -20)
        CFI CFA R13+20
        LDR      R4,??DataTable43  ;; currentfile
        MOV      R1,#+151
        LDRB     R8,[R4, #+653]
        LDRB     R3,[R4, #+660]
        LDRSH    R6,[R4, #+0]
        ORR      R1,R1,#0x200
        LDRSB    R1,[R1, +R4]
        ADD      R2,R4,#+652
        LDRSB    R2,[R2, #+0]
        MOV      R7,#+0
        MOV      R12,#+664
        SUB      R0,R0,#+1
        CMP      R0,#+61
        BHI      ??ControlKeys_1
        ADR      LR,??ControlKeys_0
        LDRB     LR,[LR, R0]
        ADD      PC,PC,LR, LSL #+2
        DATA
??ControlKeys_0:
        DC8      +77,+91,+91,+90
        DC8      +91,+91,+91,+91
        DC8      +91,+91,+91,+74
        DC8      +91,+91,+91,+91
        DC8      +91,+91,+91,+91
        DC8      +91,+91,+91,+91
        DC8      +91,+85,+91,+91
        DC8      +91,+91,+91,+91
        DC8      +91,+91,+91,+91
        DC8      +91,+91,+91,+91
        DC8      +91,+91,+91,+91
        DC8      +91,+91,+91,+91
        DC8      +91,+91,+91,+91
        DC8      +91,+91,+91,+91
        DC8      +91,+91,+62,+70
        DC8      +42,+15,+0,+0
        ARM
??ControlKeys_2:
        CMP      R2,#+0
        BEQ      ??ControlKeys_1
        CMP      R1,#+0
        ADDEQ    R0,R6,#+1
        BEQ      ??ControlKeys_3
        STRH     R6,[R4, #+2]
        B        ??ControlKeys_4
??ControlKeys_5:
        MOV      R0,R8
        BL       randint
        STRH     R0,[R4, #+2]
??ControlKeys_4:
        LDRSH    R0,[R4, #+2]
        CMP      R0,R6
        BEQ      ??ControlKeys_5
??ControlKeys_3:
        STRH     R0,[R4, #+0]
        LDRSH    R0,[R4, #+0]
        CMP      R0,R8
        STRHGE   R7,[R4, #+0]
??ControlKeys_6:
        LDRSH    R0,[R4, #+0]
        LDR      R1,[R4, #+40]
        MOV      R2,#+256
        ADD      R1,R1,R0, LSL #+8
        LDR      R0,[R4, #+36]
        _BLF     memcpy,??memcpy??rA
        BL       UpdateShowName
        MOV      R0,#+1
        STRH     R0,[R4, #+4]
        B        ??ControlKeys_7
??ControlKeys_8:
        CMP      R2,#+0
        BEQ      ??ControlKeys_1
        CMP      R1,#+0
        SUBEQ    R0,R6,#+1
        BEQ      ??ControlKeys_9
        STRH     R6,[R4, #+2]
        B        ??ControlKeys_10
??ControlKeys_11:
        MOV      R0,R8
        BL       randint
        STRH     R0,[R4, #+2]
??ControlKeys_10:
        LDRSH    R0,[R4, #+2]
        CMP      R0,R6
        BEQ      ??ControlKeys_11
??ControlKeys_9:
        STRH     R0,[R4, #+0]
        LDRSH    R0,[R4, #+0]
        CMP      R0,#+0
        BPL      ??ControlKeys_6
        SUB      R0,R8,#+1
        STRH     R0,[R4, #+0]
        B        ??ControlKeys_6
??ControlKeys_12:
        CMP      R3,#+4
        BCS      ??ControlKeys_1
        ADD      R0,R3,#+1
??ControlKeys_13:
        STRB     R0,[R4, #+660]
        AND      R0,R0,#0xFF
        SWI      +154
??ControlKeys_7:
        MOV      R0,#+0
        POP      {R4,R6-R8,PC}
??ControlKeys_14:
        CMP      R3,#+0
        BEQ      ??ControlKeys_1
        SUB      R0,R3,#+1
        B        ??ControlKeys_13
??ControlKeys_15:
        STRB     R7,[R12, +R4]
        MOV      R0,#+1
        POP      {R4,R6-R8,PC}
??ControlKeys_16:
        LDRSB    R0,[R12, +R4]
        CMP      R0,#+0
        BNE      ??ControlKeys_17
        BL       Mp3Init
        BL       AudioStart
        B        ??ControlKeys_7
??ControlKeys_17:
        STRB     R7,[R12, +R4]
        B        ??ControlKeys_7
??ControlKeys_18:
        ORR      R0,R12,#0x1
        LDRSB    R1,[R0, +R4]
        EOR      R1,R1,#0x1
        STRB     R1,[R0, +R4]
        B        ??ControlKeys_7
??ControlKeys_19:
        BL       ShowMainMenu
??ControlKeys_1:
        MOV      R0,#+0
        POP      {R4,R6-R8,PC}
        CFI EndBlock cfiBlock105

        RSEG CODE:CODE:NOROOT(2)
        DATA
??DataTable43:
        DC32     currentfile

        RSEG CODE:CODE:NOROOT(2)
        CFI Block cfiBlock106 Using cfiCommon0
        CFI NoFunction
        THUMB
??OnKey??rT:
        BX       PC
        Nop      
        CFI EndBlock cfiBlock106
        REQUIRE OnKey

        RSEG CODE:CODE:NOROOT(2)
        CFI Block cfiBlock107 Using cfiCommon1
        CFI Function OnKey
        ARM
// __??Code32?? __code __interwork __atpcs int OnKey(MAIN_GUI *, GUI_MSG *)
OnKey:
        PUSH     {R4,LR}
        CFI ?RET Frame(CFA, -4)
        CFI R4 Frame(CFA, -8)
        CFI CFA R13+8
        LDR      R0,[R1, #+4]
        MOV      R2,#+147
        LDRSH    R1,[R0, #+2]
        MOV      R4,#+0
        ORR      R2,R2,#0x100
        CMP      R1,R2
        ADDNE    R2,R2,#+2
        CMPNE    R1,R2
        BNE      ??OnKey_0
        LDR      R1,??DataTable51  ;; currentfile
        LDRB     R2,[R1, #+668]
        CMP      R2,#+0
        BEQ      ??OnKey_1
        LDR      R0,[R0, #+4]
        AND      R0,R0,#0xFF
        BL       MenuOnKey
        MOV      R4,R0
        SWI      +370
        B        ??OnKey_2
??OnKey_1:
        MOV      R2,#+146
        ORR      R2,R2,#0x200
        LDRSB    R3,[R2, +R1]
        ORR      R4,R2,#0x1
        LDRSB    R12,[R4, +R1]
        CMP      R12,#+1
        BLT      ??OnKey_3
        LDR      R0,[R0, #+4]
        CMP      R0,#+4
        BNE      ??OnKey_4
        SUB      R0,R12,R3
        STRB     R0,[R4, +R1]
        MOV      R0,#+0
        STRB     R0,[R2, +R1]
??OnKey_4:
        MOV      R0,#+0
        POP      {R4,PC}
??OnKey_3:
        LDR      R0,[R0, #+4]
        CMP      R3,#+0
        AND      R0,R0,#0xFF
        BNE      ??OnKey_5
        BL       ControlKeys
        B        ??OnKey_6
??OnKey_5:
        BL       RipKeys
??OnKey_6:
        MOV      R4,R0
??OnKey_2:
        SWI      +370
??OnKey_0:
        MOV      R0,R4
        POP      {R4,PC}          ;; return
        CFI EndBlock cfiBlock107

        RSEG CODE:CODE:NOROOT(2)
        CFI Block cfiBlock108 Using cfiCommon0
        CFI NoFunction
        THUMB
??method7??rT:
        BX       PC
        Nop      
        CFI EndBlock cfiBlock108
        REQUIRE method7

        RSEG CODE:CODE:NOROOT(2)
        CFI Block cfiBlock109 Using cfiCommon1
        CFI Function method7
        ARM
// __??Code32?? __code __interwork __atpcs void method7(MAIN_GUI *, void (*)(void *))
method7:
        PUSH     {R4,R5,LR}
        CFI ?RET Frame(CFA, -4)
        CFI R5 Frame(CFA, -8)
        CFI R4 Frame(CFA, -12)
        CFI CFA R13+12
        MOV      R4,R0
        MOV      R5,R1
        _BLF     kill_data,??kill_data??rA
        MOV      R0,R4
        BLX      R5
        POP      {R4,R5,PC}       ;; return
        CFI EndBlock cfiBlock109

        RSEG CODE:CODE:NOROOT(2)
        CFI Block cfiBlock110 Using cfiCommon0
        CFI NoFunction
        THUMB
??method8??rT:
        BX       PC
        Nop      
        CFI EndBlock cfiBlock110
        REQUIRE method8

        RSEG CODE:CODE:NOROOT(2)
        CFI Block cfiBlock111 Using cfiCommon1
        CFI Function method8
        ARM
// __??Code32?? __code __interwork __atpcs int method8(void)
method8:
        MOV      R0,#+0
        BX       LR               ;; return
        CFI EndBlock cfiBlock111

        RSEG CODE:CODE:NOROOT(2)
        CFI Block cfiBlock112 Using cfiCommon0
        CFI NoFunction
        THUMB
??method9??rT:
        BX       PC
        Nop      
        CFI EndBlock cfiBlock112
        REQUIRE method9

        RSEG CODE:CODE:NOROOT(2)
        CFI Block cfiBlock113 Using cfiCommon1
        CFI Function method9
        ARM
// __??Code32?? __code __interwork __atpcs int method9(void)
method9:
        MOV      R0,#+0
        BX       LR               ;; return
        CFI EndBlock cfiBlock113

        RSEG CODE:CODE:NOROOT(2)
        CFI Block cfiBlock114 Using cfiCommon0
        CFI NoFunction
        THUMB
??maincsm_oncreate??rT:
        BX       PC
        Nop      
        CFI EndBlock cfiBlock114
        REQUIRE maincsm_oncreate

        RSEG CODE:CODE:NOROOT(2)
        CFI Block cfiBlock115 Using cfiCommon1
        CFI Function maincsm_oncreate
        ARM
// __??Code32?? __code __interwork __atpcs void maincsm_oncreate(struct <unnamed> *)
maincsm_oncreate:
        PUSH     {R4,R5,LR}
        CFI ?RET Frame(CFA, -4)
        CFI R5 Frame(CFA, -8)
        CFI R4 Frame(CFA, -12)
        CFI CFA R13+12
        MOV      R4,R0
        MOV      R0,#+60
        SWI      +20
        MOV      R5,R0
        MOV      R2,#+60
        MOV      R1,#+0
        _BLF     memset,??memset??rA
        LDR      R0,??maincsm_oncreate_0  ;; gui_methods
        ADD      R1,R0,#+44
        STR      R1,[R5, #+0]
        MOV      R1,#+2
        STR      R1,[R5, #+44]
        STR      R0,[R5, #+4]
        SWI      +32789
        STR      R0,[R5, #+28]
        MOV      R0,#+0
        STR      R0,[R4, #+16]
        STR      R0,[R4, #+20]
        MOV      R0,R5
        SWI      +311
        STR      R0,[R4, #+40]
        LDR      R0,??maincsm_oncreate_0+0x4  ;; MAINGUI_ID
        LDR      R1,[R4, #+40]
        STR      R1,[R0, #+0]
        POP      {R4,R5,PC}       ;; return
        DATA
??maincsm_oncreate_0:
        DC32     gui_methods
        DC32     MAINGUI_ID
        CFI EndBlock cfiBlock115

        RSEG CODE:CODE:NOROOT(2)
        CFI Block cfiBlock116 Using cfiCommon0
        CFI NoFunction
        THUMB
??ElfKiller??rT:
        BX       PC
        Nop      
        CFI EndBlock cfiBlock116
        REQUIRE ElfKiller

        RSEG CODE:CODE:NOROOT(2)
        CFI Block cfiBlock117 Using cfiCommon1
        CFI Function ElfKiller
        ARM
// __??Code32?? __code __interwork __atpcs void ElfKiller(void)
ElfKiller:
        PUSH     {LR}
        CFI ?RET Frame(CFA, -4)
        CFI CFA R13+4
        SWI      +32789
        MOV      R1,R0
        LDR      R0,??ElfKiller_0  ;; ELF_BEGIN
        POP      {LR}             ;; Pop
        CFI ?RET R14
        CFI CFA R13+0
        _BF      kill_data,??kill_data??rA  ;; tailcall
        DATA
??ElfKiller_0:
        DC32     ELF_BEGIN
        CFI EndBlock cfiBlock117

        RSEG CODE:CODE:NOROOT(2)
        CFI Block cfiBlock118 Using cfiCommon0
        CFI NoFunction
        THUMB
??maincsm_onclose??rT:
        BX       PC
        Nop      
        CFI EndBlock cfiBlock118
        REQUIRE maincsm_onclose

        RSEG CODE:CODE:NOROOT(2)
        CFI Block cfiBlock119 Using cfiCommon1
        CFI Function maincsm_onclose
        ARM
// __??Code32?? __code __interwork __atpcs void maincsm_onclose(struct <unnamed> *)
maincsm_onclose:
        LDR      R0,??DataTable46  ;; ElfKiller
        PUSH     {LR}
        CFI ?RET Frame(CFA, -4)
        CFI CFA R13+4
        SWI      +369
        POP      {PC}             ;; return
        CFI EndBlock cfiBlock119

        RSEG CODE:CODE:NOROOT(2)
        CFI Block cfiBlock120 Using cfiCommon0
        CFI NoFunction
        THUMB
??maincsm_onmessage??rT:
        BX       PC
        Nop      
        CFI EndBlock cfiBlock120
        REQUIRE maincsm_onmessage

        RSEG CODE:CODE:NOROOT(2)
        CFI Block cfiBlock121 Using cfiCommon1
        CFI Function maincsm_onmessage
        ARM
// __??Code32?? __code __interwork __atpcs int maincsm_onmessage(struct <unnamed> *, GBS_MSG *)
maincsm_onmessage:
        LDRSH    R2,[R1, #+2]
        CMP      R2,#+152
        BNE      ??maincsm_onmessage_0
        LDR      R1,[R1, #+8]
        LDR      R2,[R0, #+40]
        CMP      R1,R2
        MVNEQ    R1,#+2
        STREQ    R1,[R0, #+16]
??maincsm_onmessage_0:
        MOV      R0,#+1
        BX       LR               ;; return
        CFI EndBlock cfiBlock121

        RSEG CODE:CODE:NOROOT(2)
        CFI Block cfiBlock122 Using cfiCommon0
        CFI NoFunction
        THUMB
??UpdateCSMname??rT:
        BX       PC
        Nop      
        CFI EndBlock cfiBlock122
        REQUIRE UpdateCSMname

        RSEG DATA_C:CONST:SORT:NOROOT(0)
        DATA
        DC8 "\\"

        RSEG DATA_C:CONST:SORT:NOROOT(2)
`?<Constant "%s%s%s">`:
        DATA
        DC8 "%s%s%s"
        DC8 0
        DC8 "0:\\           Open"
        DC8 0
        DC8 "Back           Add"
        DC8 0
        DC8 "Back         Open"
        DC8 0, 0
        DC8 "Back"
        DC8 0, 0, 0
        DC8 "%s%s"
        DC8 0, 0, 0

        RSEG DATA_C:CONST:SORT:NOROOT(0)
        DATA
        DC8 "2:"

        RSEG DATA_C:CONST:SORT:NOROOT(0)
        DATA
        DC8 "1:"

        RSEG DATA_C:CONST:SORT:NOROOT(0)
        DATA
        DC8 "0:"

        RSEG DATA_C:CONST:SORT:NOROOT(2)
`?<Constant "Aloud mode">`:
        DATA
        DC8 "Aloud mode"
        DC8 0
        DC8 "Random On"
        DC8 0, 0
        DC8 "Cancel     Select"
        DC8 0, 0
        DC8 "About"
        DC8 0, 0
        DC8 "Random Off"
        DC8 0
        DC8 "Silent mode"
        DC8 "Repeat Off"
        DC8 0
        DC8 "Repeat On"
        DC8 0, 0
        DC8 "Rip to wave"
        DC8 "Add files to playlist"
        DC8 0, 0
        DC8 "Playlist"
        DC8 0, 0, 0

        RSEG DATA_C:CONST:SORT:NOROOT(2)
`?<Constant "                    OK">`:
        DATA
        DC8 "                    OK"
        DC8 0
        DC8 "rusman2005@mail.ru"
        DC8 0
        DC8 "          ILYA_ZX"
        DC8 0, 0
        DC8 "  MP3 Player elf 1.0"
        DC8 0, 0, 0

        RSEG DATA_C:CONST:SORT:NOROOT(0)
        DATA
        DC8 "%s"

        RSEG DATA_C:CONST:SORT:NOROOT(2)
`?<Constant "0:\\\\Zbin\\\\MP3Player.dat">`:
        DATA
        DC8 "0:\\Zbin\\MP3Player.dat"
        DC8 0, 0

        RSEG DATA_C:CONST:SORT:NOROOT(2)
`?<Constant "MP3 Player">`:
        DATA
        DC8 "MP3 Player"
        DC8 0
// struct <unnamed> const __data MAINCSM
MAINCSM:
        DC32 maincsm_onmessage, maincsm_oncreate, maincsm_onclose, 44, 1
        DC32 minus11, maincsm_name_body, 55AACCCCH, 3333AA55H, 0, 139

        RSEG DATA_C:CONST:SORT:NOROOT(2)
`?<Constant "Cancel         Rip">`:
        DATA
        DC8 "Cancel         Rip"
        DC8 0
        DC8 "Rip <%d> sec"
        DC8 0, 0, 0
        DC8 "Volume %d"
        DC8 0, 0
        DC8 "Play         Menu"
        DC8 0, 0
        DC8 "Stop         Menu"
        DC8 0, 0
        DC8 "%d:%d"
        DC8 0, 0
        DC8 "Stop"
        DC8 0, 0, 0
        DC8 "Rip %d %"
        DC8 0, 0, 0

        RSEG DATA_C:CONST:SORT:NOROOT(2)
`?<Constant "Delete        Play">`:
        DATA
        DC8 "Delete        Play"
        DC8 0

        RSEG DATA_C:CONST:SORT:NOROOT(0)
        DATA
        DC8 ".."

        RSEG DATA_C:CONST:SORT:NOROOT(2)
        DATA
        DC8 "*.*"

        RSEG DATA_C:CONST:SORT:NOROOT(2)
`?<Constant "%s.wav">`:
        DATA
        DC8 "%s.wav"
        DC8 0

        RSEG DATA_C:CONST:SORT:NOROOT(2)
// int const __data BUFFERSIZE
BUFFERSIZE:
        DATA
        DC32 16384

        RSEG DATA_C:CONST:SORT:NOROOT(2)
// int const __data minus11
minus11:
        DATA
        DC32 -11

        RSEG DATA_C:CONST:SORT:NOROOT(2)
// void const *const __data gui_methods[11]
gui_methods:
        DATA
        DC32 OnRedraw, onCreate, onClose, onFocus, onUnfocus, OnKey, 0H
        DC32 kill_data, method8, method9, 0H
// RECT const __data Canvas
Canvas:
        DC16 0, 0, 129, 129

        RSEG CODE:CODE:NOROOT(2)
        CFI Block cfiBlock123 Using cfiCommon1
        CFI Function UpdateCSMname
        ARM
// __??Code32?? __code __interwork __atpcs void UpdateCSMname(void)
UpdateCSMname:
        PUSH     {R4,LR}
        CFI ?RET Frame(CFA, -4)
        CFI R4 Frame(CFA, -8)
        CFI CFA R13+8
        MOV      R0,#+256
        SWI      +293
        MOV      R4,R0
        LDR      R0,??UpdateCSMname_0  ;; `?<Constant "MP3 Player">`
        MOV      R1,R0
        ADD      R0,R0,#+36
        SWI      +292
        MOV      R0,R4
        SWI      +297
        POP      {R4,PC}          ;; return
        DATA
??UpdateCSMname_0:
        DC32     `?<Constant "MP3 Player">`
        CFI EndBlock cfiBlock123

        RSEG CODE:CODE:NOROOT(2)
        CFI Block cfiBlock124 Using cfiCommon0
        CFI NoFunction
        THUMB
??main??rT:
        BX       PC
        Nop      
        CFI EndBlock cfiBlock124
        REQUIRE main

        RSEG CODE:CODE:NOROOT(2)
        CFI Block cfiBlock125 Using cfiCommon1
        CFI Function main
        ARM
// __??Code32?? __code __interwork __atpcs int main(char *, char *)
main:
        PUSH     {R4,R5,LR}
        CFI ?RET Frame(CFA, -4)
        CFI R5 Frame(CFA, -8)
        CFI R4 Frame(CFA, -12)
        CFI CFA R13+12
        SUB      SP,SP,#+44
        CFI CFA R13+56
        MOV      R4,R0
        MOVS     R5,R1
        BEQ      ??main_0
        LDR      R0,??main_1      ;; `?<Constant "MP3 Player">` + 12
        MOV      R2,#+0
        MOV      R1,SP
        SWI      +263
        LDR      R1,??main_1+0x4  ;; MAINCSM_ID
        STR      R0,[R1, #+0]
        MOV      R1,R5
        MOV      R0,R4
        BL       onstart
        MOV      R0,#+0
        ADD      SP,SP,#+44
        CFI CFA R13+12
        POP      {R4,R5,PC}
        CFI CFA R13+56
??main_0:
        LDR      R0,??DataTable46  ;; ElfKiller
        SWI      +369
        MOV      R0,#+0
        ADD      SP,SP,#+44
        CFI CFA R13+12
        POP      {R4,R5,PC}       ;; return
        DATA
??main_1:
        DC32     `?<Constant "MP3 Player">` + 12
        DC32     MAINCSM_ID
        CFI EndBlock cfiBlock125

        RSEG CODE:CODE:NOROOT(2)
        DATA
??DataTable46:
        DC32     ElfKiller

        RSEG CODE:CODE:NOROOT(2)
        CFI Block cfiBlock126 Using cfiCommon0
        CFI NoFunction
        THUMB
??LoadParams??rT:
        BX       PC
        Nop      
        CFI EndBlock cfiBlock126
        REQUIRE LoadParams
//   23 

        RSEG CODE:CODE:NOROOT(2)
        CFI Block cfiBlock127 Using cfiCommon1
        CFI Function LoadParams
        ARM
//   24 void LoadParams()
//   25 {
//   26   int plhandle, i;
//   27   unsigned short n;
//   28   plhandle = fopen( "0:\\Zbin\\MP3Player.dat", A_ReadOnly + A_BIN, 0, & err );
LoadParams:
        LDR      R0,??DataTable50  ;; `?<Constant "0:\\\\Zbin\\\\MP3Player.dat">`
        PUSH     {R4-R6,LR}
        CFI ?RET Frame(CFA, -4)
        CFI R6 Frame(CFA, -8)
        CFI R5 Frame(CFA, -12)
        CFI R4 Frame(CFA, -16)
        CFI CFA R13+16
        LDR      R4,??DataTable51  ;; currentfile
        SUB      SP,SP,#+4
        CFI CFA R13+20
        ADD      R3,R4,#+72
        MOV      R2,#+0
        MOV      R1,#+32768
        SWI      +10
        MOV      R5,R0
//   29   if ( plhandle == -1 )
        CMN      R5,#+1
//   30   {
//   31     fclose( plhandle, & err );
        ADDEQ    R1,R4,#+72
        MVNEQ    R0,#+0
        BEQ      ??LoadParams_0
//   32     return;
//   33   }
//   34   fread( plhandle, & numfiles, 1, & err );
        ADD      R3,R4,#+72
        MOV      R2,#+1
        ORR      R0,R2,#0x28C
        ADD      R1,R0,R4
        MOV      R0,R5
        SWI      +11
//   35   
//   36   i = 0;
        LDRB     R0,[R4, #+653]
        MOV      R6,#+0
        CMP      R0,#+0
        BNE      ??LoadParams_1
        B        ??LoadParams_2
//   37   while ( i < numfiles )
//   38   {
//   39     fread( plhandle, & n, 2, & err );
??LoadParams_3:
        ADD      R3,R4,#+72
        MOV      R2,#+2
        MOV      R1,SP
        MOV      R0,R5
        SWI      +11
//   40     fread( plhandle, & files[i * 256], n, & err );
        LDR      R0,[R4, #+40]
        LDRH     R2,[SP, #+0]
        ADD      R3,R4,#+72
        ADD      R1,R0,R6, LSL #+8
        MOV      R0,R5
        SWI      +11
//   41     i++;
        ADD      R6,R6,#+1
//   42   }
??LoadParams_1:
        LDRB     R0,[R4, #+653]
        CMP      R6,R0
        BLT      ??LoadParams_3
//   43   fread( plhandle,&loop, 1, & err );
??LoadParams_2:
        ADD      R3,R4,#+72
        MOV      R2,#+1
        MOV      R0,#+142
        ORR      R0,R0,#0x200
        ADD      R1,R0,R4
        MOV      R0,R5
        SWI      +11
//   44   fread( plhandle,&SoftVol, 1, & err );
        ADD      R3,R4,#+72
        MOV      R2,#+1
        MOV      R0,#+154
        ORR      R0,R0,#0x200
        ADD      R1,R0,R4
        MOV      R0,R5
        SWI      +11
//   45   fread( plhandle,&randomplay, 1, & err );
        ADD      R3,R4,#+72
        MOV      R2,#+1
        MOV      R0,#+151
        ORR      R0,R0,#0x200
        ADD      R1,R0,R4
        MOV      R0,R5
        SWI      +11
//   46   fread( plhandle,&Volume, 1, & err );
        ADD      R3,R4,#+72
        MOV      R2,#+1
        ADD      R1,R4,#+660
        MOV      R0,R5
        SWI      +11
//   47   fclose( plhandle, & err );
        ADD      R1,R4,#+72
        MOV      R0,R5
??LoadParams_0:
        SWI      +13
//   48 }
        POP      {R0,R4-R6,PC}    ;; return
        CFI EndBlock cfiBlock127

        RSEG CODE:CODE:NOROOT(2)
        CFI Block cfiBlock128 Using cfiCommon0
        CFI NoFunction
        THUMB
??SaveParams??rT:
        BX       PC
        Nop      
        CFI EndBlock cfiBlock128
        REQUIRE SaveParams
//   49 
//   50 

        RSEG CODE:CODE:NOROOT(2)
        CFI Block cfiBlock129 Using cfiCommon1
        CFI Function SaveParams
        ARM
//   51 void SaveParams()
//   52 {
SaveParams:
        PUSH     {R4-R6,LR}
        CFI ?RET Frame(CFA, -4)
        CFI R6 Frame(CFA, -8)
        CFI R5 Frame(CFA, -12)
        CFI R4 Frame(CFA, -16)
        CFI CFA R13+16
//   53   int plhandle, i;
//   54   unsigned short n;
//   55   unlink("0:\\Zbin\\MP3Player.dat",&err);
        LDR      R4,??DataTable51  ;; currentfile
        LDR      R5,??DataTable50  ;; `?<Constant "0:\\\\Zbin\\\\MP3Player.dat">`
        SUB      SP,SP,#+4
        CFI CFA R13+20
        ADD      R1,R4,#+72
        MOV      R0,R5
        SWI      +363
//   56   plhandle = fopen( "0:\\Zbin\\MP3Player.dat", A_ReadWrite + A_BIN + A_Append + A_Create, P_READ + P_WRITE, & err );
        ADD      R3,R4,#+72
        MOV      R2,#+384
        MOV      R1,#+10
        ORR      R1,R1,#0x8100
        MOV      R0,R5
        SWI      +10
        MOV      R5,R0
//   57 
//   58   fwrite( plhandle, & numfiles, 1, & err );
        ADD      R3,R4,#+72
        MOV      R2,#+1
        ORR      R0,R2,#0x28C
        ADD      R1,R0,R4
        MOV      R0,R5
        SWI      +12
//   59 
//   60   i = 0;
        LDRB     R0,[R4, #+653]
        MOV      R6,#+0
        CMP      R0,#+0
        BNE      ??SaveParams_0
//   61   while ( i < numfiles )
//   62   {
//   63 
//   64     n = 0;
//   65     while ( files[i * 256 + n] != 0 ) n++;
//   66     n++;
//   67     fwrite( plhandle, & n, 2, & err );
//   68     fwrite( plhandle, & files[i * 256], n, & err );
//   69     i++;
//   70   }
//   71   fwrite( plhandle,&loop, 1, & err );
??SaveParams_1:
        ADD      R3,R4,#+72
        MOV      R2,#+1
        MOV      R0,#+142
        ORR      R0,R0,#0x200
        ADD      R1,R0,R4
        MOV      R0,R5
        SWI      +12
//   72   fwrite( plhandle,&SoftVol, 1, & err );
        ADD      R3,R4,#+72
        MOV      R2,#+1
        MOV      R0,#+154
        ORR      R0,R0,#0x200
        ADD      R1,R0,R4
        MOV      R0,R5
        SWI      +12
//   73   fwrite( plhandle,&randomplay, 1, & err );
        ADD      R3,R4,#+72
        MOV      R2,#+1
        MOV      R0,#+151
        ORR      R0,R0,#0x200
        ADD      R1,R0,R4
        MOV      R0,R5
        SWI      +12
//   74   fwrite( plhandle,&Volume, 1, & err );
        ADD      R3,R4,#+72
        MOV      R2,#+1
        ADD      R1,R4,#+660
        MOV      R0,R5
        SWI      +12
//   75   fclose( plhandle, & err );
        ADD      R1,R4,#+72
        MOV      R0,R5
        SWI      +13
//   76 }
        POP      {R0,R4-R6,PC}    ;; return
??SaveParams_2:
        LDRH     R3,[SP, #+0]
        ADD      R3,R3,#+1
        STRH     R3,[SP, #+0]
??SaveParams_3:
        LDRH     R2,[SP, #+0]
        ADD      R2,R2,R1
        LDRSB    R2,[R2, +R0]
        CMP      R2,#+0
        BNE      ??SaveParams_2
??SaveParams_4:
        LDRH     R1,[SP, #+0]
        ADD      R3,R4,#+72
        MOV      R2,#+2
        ADD      R1,R1,#+1
        STRH     R1,[SP, #+0]
        MOV      R1,SP
        MOV      R0,R5
        SWI      +12
        LDR      R0,[R4, #+40]
        LDRH     R2,[SP, #+0]
        ADD      R3,R4,#+72
        ADD      R1,R0,R6, LSL #+8
        MOV      R0,R5
        SWI      +12
        ADD      R6,R6,#+1
??SaveParams_0:
        LDRB     R0,[R4, #+653]
        CMP      R6,R0
        BGE      ??SaveParams_1
        MOV      R1,#+0
        STRH     R1,[SP, #+0]
        LDR      R0,[R4, #+40]
        ADD      R1,R0,R6, LSL #+8
        LDRSB    R1,[R1, #+0]
        CMP      R1,#+0
        BEQ      ??SaveParams_4
        LSL      R1,R6,#+8
        B        ??SaveParams_3
        CFI EndBlock cfiBlock129

        RSEG CODE:CODE:NOROOT(2)
        DATA
??DataTable50:
        DC32     `?<Constant "0:\\\\Zbin\\\\MP3Player.dat">`

        RSEG CODE:CODE:NOROOT(2)
        CFI Block cfiBlock130 Using cfiCommon0
        CFI NoFunction
        THUMB
??PlayCurrent??rT:
        BX       PC
        Nop      
        CFI EndBlock cfiBlock130
        REQUIRE PlayCurrent
//   77 

        RSEG CODE:CODE:NOROOT(2)
        CFI Block cfiBlock131 Using cfiCommon1
        CFI Function PlayCurrent
        ARM
//   78 void PlayCurrent()
//   79 {
PlayCurrent:
        PUSH     {LR}
        CFI ?RET Frame(CFA, -4)
        CFI CFA R13+4
//   80   Mp3Init();
        BL       Mp3Init
//   81   AudioStart();
        POP      {LR}             ;; Pop
        CFI ?RET R14
        CFI CFA R13+0
        B        AudioStart       ;; tailcall
        CFI EndBlock cfiBlock131
//   82 }

        RSEG CODE:CODE:NOROOT(2)
        CFI Block cfiBlock132 Using cfiCommon0
        CFI NoFunction
        THUMB
??ExtractFileName??rT:
        BX       PC
        Nop      
        CFI EndBlock cfiBlock132
        REQUIRE ExtractFileName
//   83 

        RSEG CODE:CODE:NOROOT(2)
        CFI Block cfiBlock133 Using cfiCommon1
        CFI Function ExtractFileName
        ARM
//   84 char *ExtractFileName(char *ptr){
//   85  int i;
//   86 i=0;
ExtractFileName:
        LDRSB    R2,[R0, #+0]
        MOV      R1,#+0
        CMP      R2,#+0
        BNE      ??ExtractFileName_0
        B        ??ExtractFileName_1
//   87 while(ptr[i]!=0){i++;}  
??ExtractFileName_2:
        ADD      R1,R1,#+1
??ExtractFileName_0:
        LDRSB    R2,[R1, +R0]
        CMP      R2,#+0
        BNE      ??ExtractFileName_2
//   88 while(ptr[i]!=0x5C){i--;}
??ExtractFileName_1:
        LDRSB    R2,[R1, +R0]
        CMP      R2,#+92
        SUBNE    R1,R1,#+1
        BNE      ??ExtractFileName_1
//   89 return(&ptr[i+1]);
        ADD      R0,R1,R0
        ADD      R0,R0,#+1
        BX       LR               ;; return
        CFI EndBlock cfiBlock133
//   90 }

        RSEG CODE:CODE:NOROOT(2)
        CFI Block cfiBlock134 Using cfiCommon0
        CFI NoFunction
        THUMB
??onstart??rT:
        BX       PC
        Nop      
        CFI EndBlock cfiBlock134
        REQUIRE onstart
//   91 
//   92 // 

        RSEG CODE:CODE:NOROOT(2)
        CFI Block cfiBlock135 Using cfiCommon1
        CFI Function onstart
        ARM
//   93 int onstart( char * exename, char * fname )
//   94 { //  .  0  1  .
onstart:
        PUSH     {R4-R6,LR}
        CFI ?RET Frame(CFA, -4)
        CFI R6 Frame(CFA, -8)
        CFI R5 Frame(CFA, -12)
        CFI R4 Frame(CFA, -16)
        CFI CFA R13+16
//   95   MenuInit();
//   96   showfilename=malloc(64);
        LDR      R5,??DataTable51  ;; currentfile
        MOV      R4,R1
//   97   files=malloc(256*256);
//   98   zeromem(files,(256*128));
//   99   numfiles=0;
        MOV      R6,#+0
        BL       MenuInit
        MOV      R0,#+64
        SWI      +20
        STR      R0,[R5, #+44]
        MOV      R0,#+65536
        SWI      +20
        STR      R0,[R5, #+40]
        MOV      R2,#+32768
        MOV      R1,#+0
        _BLF     memset,??memset??rA
        STRB     R6,[R5, #+653]
//  100   filename=malloc(256);
        MOV      R0,#+256
        SWI      +20
        STR      R0,[R5, #+36]
//  101   memcpy(files,fname,128);
        LDR      R0,[R5, #+40]
        MOV      R2,#+128
        MOV      R1,R4
        _BLF     memcpy,??memcpy??rA
//  102   memcpy(filename,files,128);
        LDR      R0,[R5, #+36]
        LDR      R1,[R5, #+40]
        MOV      R2,#+128
        _BLF     memcpy,??memcpy??rA
//  103   AudioInit();  
        BL       AudioInit
//  104   curpath=malloc(256);
        MOV      R0,#+256
        SWI      +20
        STR      R0,[R5, #+648]
//  105   fromplaylist=0;
        STRB     R6,[R5, #+652]
//  106   SoftVol = 1;
        MOV      R0,#+1
        STRB     R0,[R5, #+666]
//  107   loop=0;
        STRB     R6,[R5, #+654]
//  108   randomplay=0;
        STRB     R6,[R5, #+663]
//  109   LoadParams();
        BL       LoadParams
//  110   UpdateShowName();
        BL       UpdateShowName
//  111   PlayCurrent();
        BL       Mp3Init
        BL       AudioStart
//  112   return 0;
        MOV      R0,#+0
        POP      {R4-R6,PC}       ;; return
        CFI EndBlock cfiBlock135
//  113 }

        RSEG CODE:CODE:NOROOT(2)
        DATA
??DataTable51:
        DC32     currentfile

        RSEG CODE:CODE:NOROOT(2)
        CFI Block cfiBlock136 Using cfiCommon1
        CFI NoFunction
        ARM
??xmp3_AllocateBuffers??rA:
        LDR      R12,??Subroutine68_0  ;; xmp3_AllocateBuffers
        BX       R12
        DATA
??Subroutine68_0:
        DC32     xmp3_AllocateBuffers
        CFI EndBlock cfiBlock136

        RSEG CODE:CODE:NOROOT(2)
        CFI Block cfiBlock137 Using cfiCommon1
        CFI NoFunction
        ARM
??xmp3_FreeBuffers??rA:
        LDR      R12,??Subroutine69_0  ;; xmp3_FreeBuffers
        BX       R12
        DATA
??Subroutine69_0:
        DC32     xmp3_FreeBuffers
        CFI EndBlock cfiBlock137

        RSEG CODE:CODE:NOROOT(2)
        CFI Block cfiBlock138 Using cfiCommon1
        CFI NoFunction
        ARM
??xmp3_UnpackFrameHeader??rA:
        LDR      R12,??Subroutine70_0  ;; xmp3_UnpackFrameHeader
        BX       R12
        DATA
??Subroutine70_0:
        DC32     xmp3_UnpackFrameHeader
        CFI EndBlock cfiBlock138

        RSEG CODE:CODE:NOROOT(2)
        CFI Block cfiBlock139 Using cfiCommon1
        CFI NoFunction
        ARM
??xmp3_UnpackSideInfo??rA:
        LDR      R12,??Subroutine71_0  ;; xmp3_UnpackSideInfo
        BX       R12
        DATA
??Subroutine71_0:
        DC32     xmp3_UnpackSideInfo
        CFI EndBlock cfiBlock139

        RSEG CODE:CODE:NOROOT(2)
        CFI Block cfiBlock140 Using cfiCommon1
        CFI NoFunction
        ARM
??rA??div32_a:
        LDR      R12,??Subroutine72_0  ;; ??div32_a
        MOV      PC,R12
        DATA
??Subroutine72_0:
        DC32     ??div32_a
        CFI EndBlock cfiBlock140

        RSEG CODE:CODE:NOROOT(2)
        CFI Block cfiBlock141 Using cfiCommon1
        CFI NoFunction
        ARM
??xmp3_CheckPadBit??rA:
        LDR      R12,??Subroutine73_0  ;; xmp3_CheckPadBit
        BX       R12
        DATA
??Subroutine73_0:
        DC32     xmp3_CheckPadBit
        CFI EndBlock cfiBlock141

        RSEG CODE:CODE:NOROOT(2)
        CFI Block cfiBlock142 Using cfiCommon1
        CFI NoFunction
        ARM
??memcpy??rA:
        LDR      R12,??Subroutine74_0  ;; memcpy
        BX       R12
        DATA
??Subroutine74_0:
        DC32     memcpy
        CFI EndBlock cfiBlock142

        RSEG CODE:CODE:NOROOT(2)
        CFI Block cfiBlock143 Using cfiCommon1
        CFI NoFunction
        ARM
??xmp3_UnpackScaleFactors??rA:
        LDR      R12,??Subroutine75_0  ;; xmp3_UnpackScaleFactors
        BX       R12
        DATA
??Subroutine75_0:
        DC32     xmp3_UnpackScaleFactors
        CFI EndBlock cfiBlock143

        RSEG CODE:CODE:NOROOT(2)
        CFI Block cfiBlock144 Using cfiCommon1
        CFI NoFunction
        ARM
??xmp3_DecodeHuffman??rA:
        LDR      R12,??Subroutine76_0  ;; xmp3_DecodeHuffman
        BX       R12
        DATA
??Subroutine76_0:
        DC32     xmp3_DecodeHuffman
        CFI EndBlock cfiBlock144

        RSEG CODE:CODE:NOROOT(2)
        CFI Block cfiBlock145 Using cfiCommon1
        CFI NoFunction
        ARM
??xmp3_Dequantize??rA:
        LDR      R12,??Subroutine77_0  ;; xmp3_Dequantize
        BX       R12
        DATA
??Subroutine77_0:
        DC32     xmp3_Dequantize
        CFI EndBlock cfiBlock145

        RSEG CODE:CODE:NOROOT(2)
        CFI Block cfiBlock146 Using cfiCommon1
        CFI NoFunction
        ARM
??xmp3_IMDCT??rA:
        LDR      R12,??Subroutine78_0  ;; xmp3_IMDCT
        BX       R12
        DATA
??Subroutine78_0:
        DC32     xmp3_IMDCT
        CFI EndBlock cfiBlock146

        RSEG CODE:CODE:NOROOT(2)
        CFI Block cfiBlock147 Using cfiCommon1
        CFI NoFunction
        ARM
??xmp3_Subband??rA:
        LDR      R12,??Subroutine79_0  ;; xmp3_Subband
        BX       R12
        DATA
??Subroutine79_0:
        DC32     xmp3_Subband
        CFI EndBlock cfiBlock147

        RSEG CODE:CODE:NOROOT(2)
        CFI Block cfiBlock148 Using cfiCommon1
        CFI NoFunction
        ARM
??memset??rA:
        LDR      R12,??Subroutine80_0  ;; memset
        BX       R12
        DATA
??Subroutine80_0:
        DC32     memset
        CFI EndBlock cfiBlock148

        RSEG CODE:CODE:NOROOT(2)
        CFI Block cfiBlock149 Using cfiCommon1
        CFI NoFunction
        ARM
??kill_data??rA:
        LDR      R12,??Subroutine81_0  ;; kill_data
        BX       R12
        DATA
??Subroutine81_0:
        DC32     kill_data
        CFI EndBlock cfiBlock149

        RSEG DATA_ID:CONST:SORT:NOROOT(2)
`?<Initializer for currentfile>`:
        DATA
        DC8 0, 0
`?<Initializer for curfilerand>`:
        DC8 0, 0
`?<Initializer for newfile>`:
        DC8 0, 0
        DC8 0, 0
`?<Initializer for mp3FrameInfo>`:
        DC8 0, 0, 0, 0, 0, 0, 0, 0, 0, 0, 0, 0, 0, 0, 0, 0
        DC8 0, 0, 0, 0, 0, 0, 0, 0, 0, 0, 0, 0
`?<Initializer for filename>`:
        DC8 0, 0, 0, 0
`?<Initializer for files>`:
        DC8 0, 0, 0, 0
`?<Initializer for showfilename>`:
        DC8 0, 0, 0, 0
`?<Initializer for MP3Buf>`:
        DC8 0, 0, 0, 0
`?<Initializer for MP3Bufpos>`:
        DC8 0, 0, 0, 0
`?<Initializer for MP3DEC>`:
        DC8 0, 0, 0, 0
`?<Initializer for mp3handle>`:
        DC8 0, 0, 0, 0
`?<Initializer for bytesLeft>`:
        DC8 0, 0, 0, 0
`?<Initializer for offset>`:
        DC8 0, 0, 0, 0
`?<Initializer for err>`:
        DC8 0, 0, 0, 0
`?<Initializer for Wavebuf>`:
        DC8 0, 0, 0, 0
`?<Initializer for framebuf>`:
        DC8 0, 0, 0, 0
`?<Initializer for samplepos>`:
        DC8 0, 0, 0, 0
`?<Initializer for framepos>`:
        DC8 0, 0, 0, 0
`?<Initializer for samplesize>`:
        DC8 0, 0, 0, 0
`?<Initializer for samplerate>`:
        DC8 0, 0, 0, 0
`?<Initializer for buffer>`:
        DC8 0, 0, 0, 0
`?<Initializer for WaveParams>`:
        DC8 0, 0, 0, 0
`?<Initializer for ima1>`:
        DC8 0, 0, 0, 0
`?<Initializer for wave>`:
        DC8 0, 0, 0, 0
`?<Initializer for WB>`:
        DC8 0, 0, 0, 0
`?<Initializer for PlayTime>`:
        DC8 0, 0, 0, 0
`?<Initializer for MenuItems>`:
        DC8 0, 0, 0, 0
`?<Initializer for ButtonsText>`:
        DC8 0, 0, 0, 0
`?<Initializer for ItemTypes>`:
        DC8 0, 0, 0, 0, 0, 0, 0, 0, 0, 0, 0, 0, 0, 0, 0, 0
        DC8 0, 0, 0, 0, 0, 0, 0, 0, 0, 0, 0, 0, 0, 0, 0, 0
        DC8 0, 0, 0, 0, 0, 0, 0, 0, 0, 0, 0, 0, 0, 0, 0, 0
        DC8 0, 0, 0, 0, 0, 0, 0, 0, 0, 0, 0, 0, 0, 0, 0, 0
        DC8 0, 0, 0, 0, 0, 0, 0, 0, 0, 0, 0, 0, 0, 0, 0, 0
        DC8 0, 0, 0, 0, 0, 0, 0, 0, 0, 0, 0, 0, 0, 0, 0, 0
        DC8 0, 0, 0, 0, 0, 0, 0, 0, 0, 0, 0, 0, 0, 0, 0, 0
        DC8 0, 0, 0, 0, 0, 0, 0, 0, 0, 0, 0, 0, 0, 0, 0, 0
        DC8 0, 0, 0, 0, 0, 0, 0, 0, 0, 0, 0, 0, 0, 0, 0, 0
        DC8 0, 0, 0, 0, 0, 0, 0, 0, 0, 0, 0, 0, 0, 0, 0, 0
        DC8 0, 0, 0, 0, 0, 0, 0, 0, 0, 0, 0, 0, 0, 0, 0, 0
        DC8 0, 0, 0, 0, 0, 0, 0, 0, 0, 0, 0, 0, 0, 0, 0, 0
        DC8 0, 0, 0, 0, 0, 0, 0, 0, 0, 0, 0, 0, 0, 0, 0, 0
        DC8 0, 0, 0, 0, 0, 0, 0, 0, 0, 0, 0, 0, 0, 0, 0, 0
        DC8 0, 0, 0, 0, 0, 0, 0, 0, 0, 0, 0, 0, 0, 0, 0, 0
        DC8 0, 0, 0, 0, 0, 0, 0, 0, 0, 0, 0, 0, 0, 0, 0, 0
        DC8 0, 0, 0, 0, 0, 0, 0, 0, 0, 0, 0, 0, 0, 0, 0, 0
        DC8 0, 0, 0, 0, 0, 0, 0, 0, 0, 0, 0, 0, 0, 0, 0, 0
        DC8 0, 0, 0, 0, 0, 0, 0, 0, 0, 0, 0, 0, 0, 0, 0, 0
        DC8 0, 0, 0, 0, 0, 0, 0, 0, 0, 0, 0, 0, 0, 0, 0, 0
        DC8 0, 0, 0, 0, 0, 0, 0, 0, 0, 0, 0, 0, 0, 0, 0, 0
        DC8 0, 0, 0, 0, 0, 0, 0, 0, 0, 0, 0, 0, 0, 0, 0, 0
        DC8 0, 0, 0, 0, 0, 0, 0, 0, 0, 0, 0, 0, 0, 0, 0, 0
        DC8 0, 0, 0, 0, 0, 0, 0, 0, 0, 0, 0, 0, 0, 0, 0, 0
        DC8 0, 0, 0, 0, 0, 0, 0, 0, 0, 0, 0, 0, 0, 0, 0, 0
        DC8 0, 0, 0, 0, 0, 0, 0, 0, 0, 0, 0, 0, 0, 0, 0, 0
        DC8 0, 0, 0, 0, 0, 0, 0, 0, 0, 0, 0, 0, 0, 0, 0, 0
        DC8 0, 0, 0, 0, 0, 0, 0, 0, 0, 0, 0, 0, 0, 0, 0, 0
        DC8 0, 0, 0, 0, 0, 0, 0, 0, 0, 0, 0, 0, 0, 0, 0, 0
        DC8 0, 0, 0, 0, 0, 0, 0, 0, 0, 0, 0, 0, 0, 0, 0, 0
        DC8 0, 0, 0, 0, 0, 0, 0, 0, 0, 0, 0, 0, 0, 0, 0, 0
        DC8 0, 0, 0, 0, 0, 0, 0, 0, 0, 0, 0, 0, 0, 0, 0, 0
`?<Initializer for MenuOnKeySub>`:
        DC8 0, 0, 0, 0
`?<Initializer for curpath>`:
        DC8 0, 0, 0, 0
`?<Initializer for fromplaylist>`:
        DC8 0
`?<Initializer for numfiles>`:
        DC8 0
`?<Initializer for loop>`:
        DC8 0
`?<Initializer for PlayMp3>`:
        DC8 0
`?<Initializer for endoffile>`:
        DC8 0
`?<Initializer for channels>`:
        DC8 0
`?<Initializer for RipLen>`:
        DC8 0
`?<Initializer for Ripping>`:
        DC8 0
`?<Initializer for Volume>`:
        DC8 2
`?<Initializer for currbuf>`:
        DC8 0
`?<Initializer for offcount>`:
        DC8 0
`?<Initializer for randomplay>`:
        DC8 0
`?<Initializer for Playing>`:
        DC8 0
`?<Initializer for Paused>`:
        DC8 0
`?<Initializer for SoftVol>`:
        DC8 0
`?<Initializer for NumOfItems>`:
        DC8 0
`?<Initializer for MenuActive>`:
        DC8 0
`?<Initializer for Selected>`:
        DC8 0
`?<Initializer for ShowCursor>`:
        DC8 0
        DC8 0
`?<Initializer for WavHdr>`:
        DC8 82, 73, 70, 70, 52, 77, 75, 0, 87, 65, 86, 69, 102, 109, 116, 32
        DC8 20, 0, 0, 0, 17, 0, 1, 0, 128, 62, 0, 0, 174, 31, 0, 0, 0, 1, 4, 0
        DC8 2, 0, 249, 1, 102, 97, 99, 116, 4, 0, 0, 0, 0, 137, 148, 0, 100, 97
        DC8 116, 97, 0, 77, 75, 0
`?<Initializer for timer>`:
        DC8 0, 0, 0, 0, 0, 0, 0, 0, 0, 0, 0, 0, 0, 0, 0, 0

        RSEG DATA_ID:CONST:SORT:NOROOT(2)
`?<Initializer for ima_step>`:
        DATA
        DC8 0, 0
        DC8 0, 0
`?<Initializer for ima_index_adjust>`:
        DC32 -1, -1, -1, -1, 2, 4, 6, 8, -1, -1, -1, -1, 2, 4, 6, 8
`?<Initializer for ima_step_size>`:
        DC32 7, 8, 9, 10, 11, 12, 13, 14, 16, 17, 19, 21, 23, 25, 28, 31, 34
        DC32 37, 41, 45, 50, 55, 60, 66, 73, 80, 88, 97, 107, 118, 130, 143
        DC32 157, 173, 190, 209, 230, 253, 279, 307, 337, 371, 408, 449, 494
        DC32 544, 598, 658, 724, 796, 876, 963, 1060, 1166, 1282, 1411, 1552
        DC32 1707, 1878, 2066, 2272, 2499, 2749, 3024, 3327, 3660, 4026, 4428
        DC32 4871, 5358, 5894, 6484, 7132, 7845, 8630, 9493, 10442, 11487
        DC32 12635, 13899, 15289, 16818, 18500, 20350, 22385, 24623, 27086
        DC32 29794, 32767

        RSEG INITTAB:CODE:ROOT(2)
        DATA
?init?tab?DATA_Z:
        DCD      sfe(DATA_Z) - sfb(DATA_Z), sfb(DATA_Z), sfb(DATA_Z)

        RSEG DATA_ID:CONST:SORT:NOROOT(2)
`?*?DATA_ID`:

        RSEG INITTAB:CODE:ROOT(2)
        DATA
?init?tab?DATA_I:
        DCD      sfe(DATA_I) - sfb(DATA_I), sfb(DATA_I), sfb(DATA_ID)

        END
// 
// 11 412 bytes in segment CODE
//    625 bytes in segment DATA_C
//  1 172 bytes in segment DATA_I
//  1 172 bytes in segment DATA_ID
//    296 bytes in segment DATA_Z
//     24 bytes in segment INITTAB
// 
// 10 972 bytes of CODE  memory (+ 464 bytes shared)
//  1 797 bytes of CONST memory
//  1 468 bytes of DATA  memory
//
//Errors: none
//Warnings: 22
