##############################################################################
#                                                                            #
# IAR ARM ANSI C/C++ Compiler V4.42A/W32 EVALUATION    02/Dec/2011  21:06:58 #
# Copyright 1999-2005 IAR Systems. All rights reserved.                      #
#                                                                            #
#    Cpu mode        =  interwork                                            #
#    Endian          =  little                                               #
#    Stack alignment =  4                                                    #
#    Source file     =  D:\SVN\SieELF\SieELF\MultiSimPatch\MultiSimElf\mainm #
#                       enu.c                                                #
#    Command line    =  D:\SVN\SieELF\SieELF\MultiSimPatch\MultiSimElf\mainm #
#                       enu.c -D NEWSGOLD -lC D:\SVN\SieELF\SieELF\MultiSimP #
#                       atch\tmp\ -lA D:\SVN\SieELF\SieELF\MultiSimPatch\tmp #
#                       \ -o D:\SVN\SieELF\SieELF\MultiSimPatch\tmp\ -s9     #
#                       --no_unroll --cpu_mode arm --endian little --cpu     #
#                       ARM926EJ-S --stack_align 4 --interwork -e --fpu      #
#                       None -I "D:\Program Files\IAR\Embedded Workbench     #
#                       4.0 Evaluation\ARM\INC\" --inline_threshold=2        #
#    List file       =  D:\SVN\SieELF\SieELF\MultiSimPatch\tmp\mainmenu.lst  #
#    Object file     =  D:\SVN\SieELF\SieELF\MultiSimPatch\tmp\mainmenu.r79  #
#                                                                            #
#                                                                            #
##############################################################################

D:\SVN\SieELF\SieELF\MultiSimPatch\MultiSimElf\mainmenu.c
      1          #include "..\..\inc\swilib.h"
      2          #include "..\..\inc\cfg_items.h"
      3          //#include "pnglist.h"
      4          #include "language.h"
      5          #include "mainmenu.h"
      6          
      7          
      8          //==============================================================================
      9          // ELKA Compatibility
     10          
     11          #pragma inline
     12          static void patch_header(const HEADER_DESC* head)
     13          {
     14            ((HEADER_DESC*)head)->rc.x=0;
     15            ((HEADER_DESC*)head)->rc.y=YDISP;
     16            ((HEADER_DESC*)head)->rc.x2=ScreenW()-1;
     17            ((HEADER_DESC*)head)->rc.y2=HeaderH()-1+YDISP;
     18          }
     19          /*
     20          #pragma inline
     21          static void patch_input(const INPUTDIA_DESC* inp)
     22          {
     23            ((INPUTDIA_DESC*)inp)->rc.x=0;
     24            ((INPUTDIA_DESC*)inp)->rc.y=HeaderH()+1+YDISP;
     25            ((INPUTDIA_DESC*)inp)->rc.x2=ScreenW()-1;
     26            ((INPUTDIA_DESC*)inp)->rc.y2=ScreenH()-SoftkeyH()-1;
     27          }
     28          */
     29          //==============================================================================
     30          int MainMenu_ID;
     31          //extern char buf5401[0x30*20];
     32          extern BLOCK5401 block5401[MAX_SIM_CNT];
     33          #define __SVN_REVISION__  1007
     34          int S_ICONS[3];
     35            int simnum=0;
     36              int simcnt=0;

   \                                 In segment DATA_C, align 4, align-sorted
     37          static const SOFTKEY_DESC menu_sk[] =
   \                     menu_sk:
   \   00000000   18000000           DC16 24, 0
   \   00000004   ........           DC32 `?<Constant "\\321\\241\\324\\361">`
   \   00000008   01000000           DC16 1, 0
   \   0000000C   ........           DC32 `?<Constant "\\271\\330\\261\\325">`
   \   00000010   3D000000           DC16 61, 0
   \   00000014   FBC0FF7F           DC32 2147467515
     38          {
     39            {0x0018, 0x0000, (int)LG_SELECT},
     40            {0x0001, 0x0000, (int)LG_CLOSE},
     41            {0x003D, 0x0000, (int)LGP_DOIT_PIC}
     42          };

   \                                 In segment DATA_C, align 4, align-sorted
     43          const SOFTKEYSTAB menu_skt =
   \                     menu_skt:
   \   00000000   ........0000       DC32 menu_sk, 0
   \              0000        
     44          {
     45            menu_sk, 0
     46          };
     47          
     48          extern IPC_REQ gipc2;
     49          extern void ChangeSim( int num);
     50          
     51          

   \                                 In segment CODE, align 4, keep-with-next
     52          static void Settings(void)
     53          {
     54            ShowSetMenu();
   \                     Settings:
   \   00000000   ........           _BF      ShowSetMenu,??ShowSetMenu??rA  ;; tailcall
     55          }
     56          

   \                                 In segment CODE, align 4, keep-with-next
     57          static void AboutDlg(){
     58              ShowMSG(2, (int)LG_COPYRIGHT);
   \                     AboutDlg:
   \   00000000   0C109FE5           LDR      R1,??AboutDlg_0  ;; `?<Constant "MultisimElf v0.9b\\n(C)...">`
   \   00000004   00402DE9           PUSH     {LR}
   \   00000008   0200A0E3           MOV      R0,#+2
   \   0000000C   480100EF           SWI      +328
     59          }
   \   00000010   0080BDE8           POP      {PC}             ;; return
   \                     ??AboutDlg_0:
   \   00000014   ........           DC32     `?<Constant "MultisimElf v0.9b\\n(C)...">`
     60          
     61          static const HEADER_DESC menuhdr={0,0,0,0,NULL,(int)LG_MENU,LGP_NULL};
     62          
     63          static const int mmenusoftkeys[]={0,1,2};
     64          
     65          static const char * const menutexts[]=
     66          {
     67            LG_MNUABOUT,
     68            LG_MNUEDCFG,
     69          
     70            LG_MNUVIRTSIM,
     71            LG_MNUVIRTSIM,
     72            LG_MNUVIRTSIM,
     73            LG_MNUVIRTSIM,
     74            LG_MNUVIRTSIM,
     75            LG_MNUVIRTSIM,
     76            LG_MNUVIRTSIM,
     77            LG_MNUVIRTSIM,
     78            LG_MNUVIRTSIM,
     79            LG_MNUVIRTSIM,
     80            LG_MNUVIRTSIM,
     81            LG_MNUVIRTSIM,
     82            LG_MNUVIRTSIM,
     83            LG_MNUVIRTSIM,
     84            LG_MNUVIRTSIM,
     85            LG_MNUVIRTSIM,
     86            LG_MNUVIRTSIM,
     87            LG_MNUVIRTSIM,
     88            LG_MNUVIRTSIM,
     89            LG_MNUVIRTSIM,
     90          
     91          
     92          };
     93          
     94          static const void *menuprocs[]=
     95          {
     96            (void *)AboutDlg,
     97            (void *)Settings,
     98          
     99          };
    100          /*
    101          ghook_cmd:
    102          1 - OncreateFirst
    103          2 - OnCreateAfterLLQ
    104          3 - OnClose
    105          4 - OnFocusFirst
    106          5 - OnFocusAfterLLQ
    107          6 - UnFocus
    108          7 - OnRedraw
    109          //8
    110          9 - OnRefreshFirst(OnUnfocus)
    111          10 - OnRefreshSec(OnFocus)
    112          //11
    113          12 - Edit_change_field
    114          13 - Edit_comdo_box_change
    115          14 - MenuDown
    116          15 - MenuUp
    117          //16
    118          //17
    119          //18
    120          */
    121          

   \                                 In segment CODE, align 4, keep-with-next
    122          void tmenu_ghook(void *data, int cmd)
    123          {
   \                     tmenu_ghook:
   \   00000000   30402DE9           PUSH     {R4,R5,LR}
    124          //  simcnt=9;
    125            if (cmd==9)
    126            {
    127           //   Menu_SetItemCountDyn(data,3+simcnt);
    128          //    if (simnum<3+simcnt)      SetCursorToMenuItem(data,2+simnum);
    129            }
    130            if (cmd==0x0A)
   \   00000004   0A0051E3           CMP      R1,#+10
   \   00000008   0040A0E1           MOV      R4,R0
   \   0000000C   3080BD18           POPNE    {R4,R5,PC}
    131            {
    132              DisableIDLETMR();
    133              Menu_SetItemCountDyn(data,2+simcnt);
   \   00000010   ........           LDR      R5,??DataTable2  ;; S_ICONS
   \   00000014   7F0100EF           SWI      +383
   \   00000018   1C0095E5           LDR      R0,[R5, #+28]
   \   0000001C   021080E2           ADD      R1,R0,#+2
   \   00000020   0400A0E1           MOV      R0,R4
   \   00000024   E60100EF           SWI      +486
    134              if (simnum<3+simcnt)      SetCursorToMenuItem(data,2+simnum);
   \   00000028   180095E5           LDR      R0,[R5, #+24]
   \   0000002C   1C1095E5           LDR      R1,[R5, #+28]
   \   00000030   031081E2           ADD      R1,R1,#+3
   \   00000034   010050E1           CMP      R0,R1
   \   00000038   3080BDA8           POPGE    {R4,R5,PC}
   \   0000003C   021080E2           ADD      R1,R0,#+2
   \   00000040   0400A0E1           MOV      R0,R4
   \   00000044   C40100EF           SWI      +452
    135            }
    136          }
   \   00000048   3080BDE8           POP      {R4,R5,PC}       ;; return
    137          
    138          static int icon_array[2];
    139          
    140          extern unsigned char bp[1024];
    141          

   \                                 In segment CODE, align 4, keep-with-next
    142          static void menuitemhandler(void *data, int curitem, void *unk)
    143          {
   \                     menuitemhandler:
   \   00000000   F0432DE9           PUSH     {R4-R9,LR}
   \   00000004   04D04DE2           SUB      SP,SP,#+4
   \   00000008   0040A0E1           MOV      R4,R0
   \   0000000C   0150A0E1           MOV      R5,R1
    144            WSHDR *ws;
    145            void *item=AllocMenuItem(data);
   \   00000010   970100EF           SWI      +407
   \   00000014   0060A0E1           MOV      R6,R0
    146          
    147            const char percent_t[]="%t";
   \   00000018   D0009FE5           LDR      R0,??menuitemhandler_0  ;; `?<Constant "%t">`
   \   0000001C   0D10A0E1           MOV      R1,SP
   \   00000020   0020D0E5           LDRB     R2,[R0, #0]
   \   00000024   0020C1E5           STRB     R2,[R1, #+0]
   \   00000028   0120D0E5           LDRB     R2,[R0, #+1]
   \   0000002C   0120C1E5           STRB     R2,[R1, #+1]
   \   00000030   0220D0E5           LDRB     R2,[R0, #+2]
   \   00000034   050180E0           ADD      R0,R0,R5, LSL #+2
   \   00000038   0220C1E5           STRB     R2,[R1, #+2]
   \   0000003C   047090E5           LDR      R7,[R0, #+4]
   \   00000040   0700A0E1           MOV      R0,R7
    148          //  extern const char percent_t[];
    149            ws=AllocMenuWS(data,strlen(menutexts[curitem]));
   \   00000044   1B0000EF           SWI      +27
   \   00000048   0010A0E1           MOV      R1,R0
   \   0000004C   0400A0E1           MOV      R0,R4
   \   00000050   980100EF           SWI      +408
   \   00000054   0080A0E1           MOV      R8,R0
    150            wsprintf(ws,percent_t,menutexts[curitem]);
   \   00000058   0720A0E1           MOV      R2,R7
   \   0000005C   0D10A0E1           MOV      R1,SP
   \   00000060   240100EF           SWI      +292
    151          
    152            if(curitem<2){
   \   00000064   ........           LDR      R0,??DataTable3  ;; S_ICONS
   \   00000068   020055E3           CMP      R5,#+2
   \   0000006C   040000AA           BGE      ??menuitemhandler_1
    153              SetMenuItemIconArray(data,item,S_ICONS+curitem);
   \   00000070   052180E0           ADD      R2,R0,R5, LSL #+2
   \   00000074   0610A0E1           MOV      R1,R6
   \   00000078   0400A0E1           MOV      R0,R4
   \   0000007C   990100EF           SWI      +409
   \   00000080   140000EA           B        ??menuitemhandler_2
    154            }else{
    155            if (curitem==simnum+2){
   \                     ??menuitemhandler_1:
   \   00000084   181090E5           LDR      R1,[R0, #+24]
    156            SetMenuItemIconArray(data,item,icon_array+0);
    157          //  SetCursorToMenuItem(data,curitem);
    158            }
    159            else
    160                SetMenuItemIconArray(data,item,icon_array+1);
    161            }
    162            if (curitem<2);
    163          
    164            else{
    165          
    166             ws=AllocMenuWS(data,strlen((const char*)block5401[curitem-2].SPNname));
   \   00000088   3E90E0E3           MVN      R9,#+62
   \   0000008C   021081E2           ADD      R1,R1,#+2
   \   00000090   010055E1           CMP      R5,R1
   \   00000094   0C208002           ADDEQ    R2,R0,#+12
   \   00000098   10208012           ADDNE    R2,R0,#+16
   \   0000009C   0610A0E1           MOV      R1,R6
   \   000000A0   0400A0E1           MOV      R0,R4
   \   000000A4   990100EF           SWI      +409
   \   000000A8   44109FE5           LDR      R1,??menuitemhandler_0+0x4  ;; block5401
   \   000000AC   3000A0E3           MOV      R0,#+48
   \   000000B0   901527E0           MLA      R7,R0,R5,R1
   \   000000B4   070089E0           ADD      R0,R9,R7
   \   000000B8   1B0000EF           SWI      +27
   \   000000BC   0010A0E1           MOV      R1,R0
   \   000000C0   0400A0E1           MOV      R0,R4
   \   000000C4   980100EF           SWI      +408
   \   000000C8   0080A0E1           MOV      R8,R0
    167             wsprintf(ws,percent_t,block5401[curitem-2].SPNname);
   \   000000CC   072089E0           ADD      R2,R9,R7
   \   000000D0   0D10A0E1           MOV      R1,SP
   \   000000D4   240100EF           SWI      +292
    168          //   wsprintf(ws,"%d",curitem-2);
    169          //   ws=AllocMenuWS(data,strlen("sim 924234"));
    170          //   wsprintf(ws,"sim %x %d",strlen((const char*)block5401[curitem-2].SPNname),curitem);
    171            }
    172              SetMenuItemText(data, item, ws, curitem);
   \                     ??menuitemhandler_2:
   \   000000D8   0530A0E1           MOV      R3,R5
   \   000000DC   0820A0E1           MOV      R2,R8
   \   000000E0   0610A0E1           MOV      R1,R6
   \   000000E4   0400A0E1           MOV      R0,R4
   \   000000E8   9A0100EF           SWI      +410
    173          
    174          }
   \   000000EC   F183BDE8           POP      {R0,R4-R9,PC}    ;; return
   \                     ??menuitemhandler_0:
   \   000000F0   ........           DC32     `?<Constant "%t">`
   \   000000F4   ........           DC32     block5401
    175          

   \                                 In segment CODE, align 4, keep-with-next
    176          static int tmenu_keyhook(void *data, GUI_MSG *msg)
    177          {
   \                     tmenu_keyhook:
   \   00000000   30402DE9           PUSH     {R4,R5,LR}
    178            if ((msg->keys==0x18)||(msg->keys==0x3D))
   \   00000004   ........           LDR      R5,??DataTable2  ;; S_ICONS
   \   00000008   0040A0E1           MOV      R4,R0
   \   0000000C   F200D1E1           LDRSH    R0,[R1, #+2]
   \   00000010   180050E3           CMP      R0,#+24
   \   00000014   3D005013           CMPNE    R0,#+61
   \   00000018   0D00001A           BNE      ??tmenu_keyhook_0
    179            {
    180              if (GetCurMenuItem(data)<2)
   \   0000001C   0400A0E1           MOV      R0,R4
   \   00000020   8F0100EF           SWI      +399
   \   00000024   020050E3           CMP      R0,#+2
   \   00000028   0400A0E1           MOV      R0,R4
   \   0000002C   050000AA           BGE      ??tmenu_keyhook_1
    181                ((void (*)(void))(menuprocs[GetCurMenuItem(data)]))();
   \   00000030   8F0100EF           SWI      +399
   \   00000034   000185E0           ADD      R0,R5,R0, LSL #+2
   \   00000038   200090E5           LDR      R0,[R0, #+32]
   \   0000003C   30FF2FE1           BLX      R0
   \   00000040   0000A0E3           MOV      R0,#+0
   \   00000044   3080BDE8           POP      {R4,R5,PC}
    182              else
    183                ChangeSim(GetCurMenuItem(data)-2);
   \                     ??tmenu_keyhook_1:
   \   00000048   8F0100EF           SWI      +399
   \   0000004C   020040E2           SUB      R0,R0,#+2
   \   00000050   090000EA           B        ??tmenu_keyhook_2
    184            }else{
    185          /*      char ss[256];
    186                sprintf (ss,"%X %X\n%X %X",msg->keys,msg->gbsmsg->submess,msg->gbsmsg->msg);
    187                ShowMSG(1,(int)ss);
    188              */
    189            if ((msg->gbsmsg->submess>='0')&&(msg->gbsmsg->submess<=('0'+simcnt))){
   \                     ??tmenu_keyhook_0:
   \   00000054   040091E5           LDR      R0,[R1, #+4]
   \   00000058   081090E5           LDR      R1,[R0, #+8]
   \   0000005C   300051E3           CMP      R1,#+48
   \   00000060   060000BA           BLT      ??tmenu_keyhook_3
   \   00000064   1C1095E5           LDR      R1,[R5, #+28]
   \   00000068   082090E5           LDR      R2,[R0, #+8]
   \   0000006C   301081E2           ADD      R1,R1,#+48
   \   00000070   020051E1           CMP      R1,R2
   \   00000074   010000BA           BLT      ??tmenu_keyhook_3
    190          
    191                ChangeSim(msg->gbsmsg->submess-'0');
   \   00000078   300042E2           SUB      R0,R2,#+48
   \                     ??tmenu_keyhook_2:
   \   0000007C   ........           _BLF     ChangeSim,??ChangeSim??rA
    192            }
    193            }
    194            return(0);
   \                     ??tmenu_keyhook_3:
   \   00000080   0000A0E3           MOV      R0,#+0
   \   00000084   3080BDE8           POP      {R4,R5,PC}       ;; return
    195          }

   \                                 In segment DATA_C, align 4, align-sorted
   \                     menuhdr:
   \   00000000   000000000000       DC16 0, 0, 0, 0
   \              0000        
   \   00000008   00000000....       DC32 0H, `?<Constant "\\262\\313\\265\\245">`, 2147483647
   \              ....FFFFFF7F
   \   00000014   08000000....       DC32 8, tmenu_keyhook, tmenu_ghook, 0H, mmenusoftkeys, menu_skt, 17
   \              ............
   \              00000000....
   \              ............
   \              11000000    
   \   00000030   ........0000       DC32 menuitemhandler, 0H, 0H, 11
   \              000000000000
   \              0B000000    

   \                                 In segment DATA_C, align 4, align-sorted
   \                     mmenusoftkeys:
   \   00000000   000000000100       DC32 0, 1, 2
   \              000002000000

   \                                 In segment DATA_C, align 4, align-sorted
   \                     `?<Constant "%t">`:
   \   00000000   257400             DC8 "%t"
   \   00000003   00                 DC8 0
   \   00000004   ........           DC32 `?<Constant "\\271\\330\\323\\332">`
   \   00000008   ........           DC32 `?<Constant "\\312\\364\\320\\324">`
   \   0000000C   ........           DC32 `?<Constant "\\320\\351\\304\\342SIM">`
   \   00000010   ........           DC32 `?<Constant "\\320\\351\\304\\342SIM">`
   \   00000014   ........           DC32 `?<Constant "\\320\\351\\304\\342SIM">`
   \   00000018   ........           DC32 `?<Constant "\\320\\351\\304\\342SIM">`
   \   0000001C   ........           DC32 `?<Constant "\\320\\351\\304\\342SIM">`
   \   00000020   ........           DC32 `?<Constant "\\320\\351\\304\\342SIM">`
   \   00000024   ........           DC32 `?<Constant "\\320\\351\\304\\342SIM">`
   \   00000028   ........           DC32 `?<Constant "\\320\\351\\304\\342SIM">`
   \   0000002C   ........           DC32 `?<Constant "\\320\\351\\304\\342SIM">`
   \   00000030   ........           DC32 `?<Constant "\\320\\351\\304\\342SIM">`
   \   00000034   ........           DC32 `?<Constant "\\320\\351\\304\\342SIM">`
   \   00000038   ........           DC32 `?<Constant "\\320\\351\\304\\342SIM">`
   \   0000003C   ........           DC32 `?<Constant "\\320\\351\\304\\342SIM">`
   \   00000040   ........           DC32 `?<Constant "\\320\\351\\304\\342SIM">`
   \   00000044   ........           DC32 `?<Constant "\\320\\351\\304\\342SIM">`
   \   00000048   ........           DC32 `?<Constant "\\320\\351\\304\\342SIM">`
   \   0000004C   ........           DC32 `?<Constant "\\320\\351\\304\\342SIM">`
   \   00000050   ........           DC32 `?<Constant "\\320\\351\\304\\342SIM">`
   \   00000054   ........           DC32 `?<Constant "\\320\\351\\304\\342SIM">`
   \   00000058   ........           DC32 `?<Constant "\\320\\351\\304\\342SIM">`

   \                                 In segment DATA_I, align 4, align-sorted
   \                     S_ICONS:
   \   00000000                      DS8 12
   \   0000000C                      REQUIRE `?<Initializer for S_ICONS>`
   \   0000000C                      DS8 8
   \   00000014                      REQUIRE `?<Initializer for icon_array>`
   \                     MainMenu_ID:
   \   00000014                      DS8 4
   \   00000018                      REQUIRE `?<Initializer for MainMenu_ID>`
   \                     simnum:
   \   00000018                      DS8 4
   \   0000001C                      REQUIRE `?<Initializer for simnum>`
   \                     simcnt:
   \   0000001C                      DS8 4
   \   00000020                      REQUIRE `?<Initializer for simcnt>`
   \   00000020                      DS8 8
   \   00000028                      REQUIRE `?<Initializer for menuprocs>`
    196          
    197          
    198          static const MENU_DESC tmenu=
    199          {
    200            8,tmenu_keyhook,tmenu_ghook,NULL,
    201            mmenusoftkeys,
    202            &menu_skt,
    203            0x11,//MENU_FLAG,
    204            menuitemhandler,
    205            NULL,//menuitems,
    206            NULL,//menuprocs,
    207            11
    208          };
    209          
    210          
    211            char str1[]="4:\\zbin\\img\\ext\\TXT_SMALL.png";
   \                     str1:
   \   00000028                      DS8 32
   \   00000048                      REQUIRE `?<Initializer for str1>`
    212            char str2[]="4:\\zbin\\img\\ext\\BCFG_SMALL.PNG";;
   \                     str2:
   \   00000048                      DS8 32
   \   00000068                      REQUIRE `?<Initializer for str2>`
    213            char str3[]="4:\\zbin\\img\\ext\\BCFG_SMALL.PNG";;
   \                     str3:
   \   00000068                      DS8 32
   \   00000088                      REQUIRE `?<Initializer for str3>`
    214          //Õ”∆ÕŒ Õ¿–»—Œ¬¿“‹  ¿–“»Õ » À»¡Œ —Ã≈Õ»“‹ œ”“»
    215            //char str1[]="4:\\zbin\\img\\multisim\\1.png";;
    216            //char str2[]="4:\\zbin\\img\\multisim\\2.png";
    217            //char str3[]="4:\\zbin\\img\\multisim\\3.png";

   \                                 In segment CODE, align 4, keep-with-next
    218          int ShowMainMenu()
    219          {
    220              extern const char *successed_config_filename;
    221            str1[0]=  successed_config_filename[0];
   \                     ShowMainMenu:
   \   00000000   BC009FE5           LDR      R0,??ShowMainMenu_0  ;; successed_config_filename
   \   00000004   30402DE9           PUSH     {R4,R5,LR}
   \   00000008   000090E5           LDR      R0,[R0, #+0]
   \   0000000C   ........           LDR      R4,??DataTable3  ;; S_ICONS
   \   00000010   0010D0E5           LDRB     R1,[R0, #+0]
    222            str2[0]=  successed_config_filename[0];
    223            str3[0]=  successed_config_filename[0];
    224            S_ICONS[0]=(int)str1;
    225            S_ICONS[1]=(int)str2;
    226          
    227          
    228            S_ICONS[2]=(int)str3;
    229            icon_array[0]=GetPicNByUnicodeSymbol(CBOX_CHECKED);
    230            icon_array[1]=GetPicNByUnicodeSymbol(CBOX_UNCHECKED);
    231            *((int **)(&menuhdr.icon))=&S_ICONS[2];
   \   00000014   AC509FE5           LDR      R5,??ShowMainMenu_0+0x4  ;; menuhdr
   \   00000018   2810C4E5           STRB     R1,[R4, #+40]
   \   0000001C   0010D0E5           LDRB     R1,[R0, #+0]
   \   00000020   4810C4E5           STRB     R1,[R4, #+72]
   \   00000024   0000D0E5           LDRB     R0,[R0, #+0]
   \   00000028   6800C4E5           STRB     R0,[R4, #+104]
   \   0000002C   280084E2           ADD      R0,R4,#+40
   \   00000030   000084E5           STR      R0,[R4, #+0]
   \   00000034   480084E2           ADD      R0,R4,#+72
   \   00000038   040084E5           STR      R0,[R4, #+4]
   \   0000003C   680084E2           ADD      R0,R4,#+104
   \   00000040   080084E5           STR      R0,[R4, #+8]
   \   00000044   1600A0E3           MOV      R0,#+22
   \   00000048   E10C80E3           ORR      R0,R0,#0xE100
   \   0000004C   E40100EF           SWI      +484
   \   00000050   0C0084E5           STR      R0,[R4, #+12]
   \   00000054   1700A0E3           MOV      R0,#+23
   \   00000058   E10C80E3           ORR      R0,R0,#0xE100
   \   0000005C   E40100EF           SWI      +484
   \   00000060   100084E5           STR      R0,[R4, #+16]
   \   00000064   080084E2           ADD      R0,R4,#+8
   \   00000068   080085E5           STR      R0,[R5, #+8]
    232            patch_header(&menuhdr);
   \   0000006C   0000A0E3           MOV      R0,#+0
   \   00000070   000085E5           STR      R0,[R5, #+0]
   \   00000074   888100EF           SWI      +33160
   \   00000078   010040E2           SUB      R0,R0,#+1
   \   0000007C   B400C5E1           STRH     R0,[R5, #+4]
   \   00000080   8A8100EF           SWI      +33162
   \   00000084   010040E2           SUB      R0,R0,#+1
   \   00000088   B600C5E1           STRH     R0,[R5, #+6]
    233            MainMenu_ID=CreateMenu(0,0,&tmenu,&menuhdr,0,11,0,0);
   \   0000008C   0000A0E3           MOV      R0,#+0
   \   00000090   01002DE9           PUSH     {R0}
   \   00000094   01002DE9           PUSH     {R0}
   \   00000098   0530A0E1           MOV      R3,R5
   \   0000009C   142085E2           ADD      R2,R5,#+20
   \   000000A0   0010A0E3           MOV      R1,#+0
   \   000000A4   0B00A0E3           MOV      R0,#+11
   \   000000A8   01002DE9           PUSH     {R0}
   \   000000AC   0000A0E3           MOV      R0,#+0
   \   000000B0   01002DE9           PUSH     {R0}
   \   000000B4   520100EF           SWI      +338
   \   000000B8   140084E5           STR      R0,[R4, #+20]
    234            return MainMenu_ID;
   \   000000BC   10D08DE2           ADD      SP,SP,#+16
   \   000000C0   3080BDE8           POP      {R4,R5,PC}       ;; return
   \                     ??ShowMainMenu_0:
   \   000000C4   ........           DC32     successed_config_filename
   \   000000C8   ........           DC32     menuhdr
    235          }

   \                                 In segment CODE, align 4, keep-with-next
   \                     ??DataTable2:
   \   00000000   ........           DC32     S_ICONS

   \                                 In segment CODE, align 4, keep-with-next
   \                     ??DataTable3:
   \   00000000   ........           DC32     S_ICONS

   \                                 In segment DATA_ID, align 4, align-sorted
   \                     `?<Initializer for S_ICONS>`:
   \   00000000   000000000000       DC8 0, 0, 0, 0, 0, 0, 0, 0, 0, 0, 0, 0
   \              000000000000
   \                     `?<Initializer for icon_array>`:
   \   0000000C   000000000000       DC8 0, 0, 0, 0, 0, 0, 0, 0
   \              0000        
   \                     `?<Initializer for MainMenu_ID>`:
   \   00000014   00000000           DC8 0, 0, 0, 0
   \                     `?<Initializer for simnum>`:
   \   00000018   00000000           DC32 0
   \                     `?<Initializer for simcnt>`:
   \   0000001C   00000000           DC32 0
   \                     `?<Initializer for menuprocs>`:
   \   00000020   ............       DC32 AboutDlg, Settings
   \              ....        
   \                     `?<Initializer for str1>`:
   \   00000028   343A5C7A6269       DC8 "4:\\zbin\\img\\ext\\TXT_SMALL.png"
   \              6E5C696D675C
   \              6578745C5458
   \              545F534D414C
   \              4C2E706E6700
   \   00000046   0000               DC8 0, 0
   \                     `?<Initializer for str2>`:
   \   00000048   343A5C7A6269       DC8 "4:\\zbin\\img\\ext\\BCFG_SMALL.PNG"
   \              6E5C696D675C
   \              6578745C4243
   \              46475F534D41
   \              4C4C2E504E47
   \              00          
   \   00000067   00                 DC8 0
   \                     `?<Initializer for str3>`:
   \   00000068   343A5C7A6269       DC8 "4:\\zbin\\img\\ext\\BCFG_SMALL.PNG"
   \              6E5C696D675C
   \              6578745C4243
   \              46475F534D41
   \              4C4C2E504E47
   \              00          
   \   00000087   00                 DC8 0

   \                                 In segment DATA_C, align 4, align-sorted
   \                     `?<Constant "\\321\\241\\324\\361">`:
   \   00000000   D1A1D4F100         DC8 "\321\241\324\361"
   \   00000005   000000             DC8 0, 0, 0

   \                                 In segment DATA_C, align 4, align-sorted
   \                     `?<Constant "\\271\\330\\261\\325">`:
   \   00000000   B9D8B1D500         DC8 "\271\330\261\325"
   \   00000005   000000             DC8 0, 0, 0

   \                                 In segment DATA_C, align 4, align-sorted
   \                     `?<Constant "\\262\\313\\265\\245">`:
   \   00000000   B2CBB5A500         DC8 "\262\313\265\245"
   \   00000005   000000             DC8 0, 0, 0

   \                                 In segment DATA_C, align 4, align-sorted
   \                     `?<Constant "\\271\\330\\323\\332">`:
   \   00000000   B9D8D3DA00         DC8 "\271\330\323\332"
   \   00000005   000000             DC8 0, 0, 0

   \                                 In segment DATA_C, align 4, align-sorted
   \                     `?<Constant "\\312\\364\\320\\324">`:
   \   00000000   CAF4D0D400         DC8 "\312\364\320\324"
   \   00000005   000000             DC8 0, 0, 0

   \                                 In segment DATA_C, align 4, align-sorted
   \                     `?<Constant "\\320\\351\\304\\342SIM">`:
   \   00000000   D0E9C4E25349       DC8 "\320\351\304\342SIM"
   \              4D00        

   \                                 In segment DATA_C, align 4, align-sorted
   \                     `?<Constant "MultisimElf v0.9b\\n(C)...">`:
   \   00000000   4D756C746973       DC8 4DH, 75H, 6CH, 74H, 69H, 73H, 69H, 6DH
   \              696D        
   \   00000008   456C66207630       DC8 45H, 6CH, 66H, 20H, 76H, 30H, 2EH, 39H
   \              2E39        
   \   00000010   620A28432920       DC8 62H, 0AH, 28H, 43H, 29H, 20H, 62H, 79H
   \              6279        
   \   00000018   20536861646F       DC8 20H, 53H, 68H, 61H, 64H, 6FH, 77H, 73H
   \              7773        
   \   00000020   0A53696E636C       DC8 0AH, 53H, 69H, 6EH, 63H, 6CH, 61H, 69H
   \              6169        
   \   00000028   720A28522952       DC8 72H, 0AH, 28H, 52H, 29H, 52H, 73H, 74H
   \              7374        
   \   00000030   370A4B72654E       DC8 37H, 0AH, 4BH, 72H, 65H, 4EH, 0AH, 0
   \              0A00        

   Maximum stack usage in bytes:

     Function        CSTACK
     --------        ------
     AboutDlg            4
     Settings            4
     ShowMainMenu       28
     menuitemhandler    32
     tmenu_ghook        12
     tmenu_keyhook      12


   Segment part sizes:

     Function/Label                 Bytes
     --------------                 -----
     menu_sk                          24
     menu_skt                          8
     Settings                          4
     AboutDlg                         24
     tmenu_ghook                      76
     menuitemhandler                 248
     tmenu_keyhook                   136
     menuhdr                          64
     mmenusoftkeys                    12
     ?<Constant "%t">                 92
     S_ICONS                         136
     ShowMainMenu                    204
     ??DataTable2                      4
     ??DataTable3                      4
     ?<Initializer for S_ICONS>      136
     ?<Constant "\321\241\324\361">    8
     ?<Constant "\271\330\261\325">    8
     ?<Constant "\262\313\265\245">    8
     ?<Constant "\271\330\323\332">    8
     ?<Constant "\312\364\320\324">    8
     ?<Constant "\320\351\304\342SIM">
                                       8
     ?<Constant "MultisimElf v0.9b\n(C)...">
                                      56
      Others                          60

 
 748 bytes in segment CODE
 304 bytes in segment DATA_C
 136 bytes in segment DATA_I
 136 bytes in segment DATA_ID
  12 bytes in segment INITTAB
 
 700 bytes of CODE  memory (+ 60 bytes shared)
 440 bytes of CONST memory
 136 bytes of DATA  memory

Errors: none
Warnings: none
