################################################################################
#                                                                              #
#      IAR Universal Linker V4.60I/386                                         #
#                                                                              #
#           Link time     =  10/Feb/2012  14:48:23                             #
#           Target CPU    =  ARM                                               #
#           List file     =  D:\SVN\SieELF\SieELF\ScrTool2\Release_ELKA\List\S #
#                            crTool_elka.map                                   #
#           Output file 1 =  D:\SVN\SieELF\SieELF\ScrTool2\Output\ScrTool_elka #
#                            .elf                                              #
#                            Format: elf, variant: -ynpra                      #
#           Command line  =  D:\SVN\SieELF\SieELF\ScrTool2\Release_ELKA\Obj\co #
#                            nf_loader.r79                                     #
#                            D:\SVN\SieELF\SieELF\ScrTool2\Release_ELKA\Obj\co #
#                            nfig_data.r79                                     #
#                            D:\SVN\SieELF\SieELF\ScrTool2\Release_ELKA\Obj\fu #
#                            nc.r79                                            #
#                            D:\SVN\SieELF\SieELF\ScrTool2\Release_ELKA\Obj\ma #
#                            in.r79                                            #
#                            -o                                                #
#                            D:\SVN\SieELF\SieELF\ScrTool2\Output\ScrTool_elka #
#                            .elf                                              #
#                            -Felf -l                                          #
#                            D:\SVN\SieELF\SieELF\ScrTool2\Release_ELKA\List\S #
#                            crTool_elka.map                                   #
#                            -xmsnio                                           #
#                            "-ID:\Program Files\IAR\Embedded Workbench 4.0 Ev #
#                            aluation\ARM\LIB\"                                #
#                            -f D:\SVN\SieELF\SieELF\ScrTool2\test.xcl         #
#                            (-carm -V(CODE)CODE_AREA,12                       #
#                            -V(DATA)DATA_AREA,12                              #
#                            -Z(CODE_AREA)ELFBEGIN,DATA_ID,START,CODE,DATA_C,I #
#                            NITTAB,DATA_Z,DATA_N,CONFIG_C=0-FFFFFFFF          #
#                            -Z(DATA_AREA)DATA_I=0-FFFFFFFF) -ynpra            #
#                            "D:\Program Files\IAR\Embedded Workbench 4.0 Eval #
#                            uation\ARM\LIB\dl5tpainl8n.r79"                   #
#                            -s main                                           #
#                                                                              #
#                        Copyright 1987-2007 IAR Systems. All rights reserved. #
################################################################################





                ****************************************
                *                                      *
                *           CROSS REFERENCE            *
                *                                      *
                ****************************************

       Program entry at : CODE_AREA 00003934  Relocatable, from module : main




                ****************************************
                *                                      *
                *            RUNTIME MODEL             *
                *                                      *
                ****************************************

  StackAlign4  = USED
  StackAlign8  = USED
  __cpu_mode   = __pcs__interwork
  __data_model = absolute
  __endian     = little
  __rt_version = 6



                ****************************************
                *                                      *
                *              MODULE MAP              *
                *                                      *
                ****************************************


  DEFINED ABSOLUTE ENTRIES
    *************************************************************************

  DEFINED ABSOLUTE ENTRIES
    *************************************************************************

  FILE NAME : D:\SVN\SieELF\SieELF\ScrTool2\Release_ELKA\Obj\conf_loader.r79
  PROGRAM MODULE, NAME : conf_loader

  SEGMENTS IN THE MODULE
  ======================
DATA_I
  Relative segment, address: DATA_AREA 00000000 - 00000003 (0x4 bytes), align: 2
  Segment part 4.             Intra module refs:   LoadConfigData
           ENTRY                   ADDRESS         REF BY
           =====                   =======         ======
           cfn                     00000000        Segment part 120 (main)
    -------------------------------------------------------------------------
CODE
  Segment part 6. NOT NEEDED.
    -------------------------------------------------------------------------
CODE
  Relative segment, address: CODE_AREA 000002F4 - 000003EF (0xfc bytes), align: 2
  Segment part 7.             Intra module refs:   InitConfig
           ENTRY                   ADDRESS         REF BY
           =====                   =======         ======
           LoadConfigData          000002F4 
               stack 1 = 00000000 ( 00000024 )
    -------------------------------------------------------------------------
CODE
  Segment part 8. NOT NEEDED.
    -------------------------------------------------------------------------
CODE
  Relative segment, address: CODE_AREA 000003F0 - 00000417 (0x28 bytes), align: 2
  Segment part 9.
           ENTRY                   ADDRESS         REF BY
           =====                   =======         ======
           InitConfig              000003F0        DaemonOnMessage (main)
                                                   main (main)
               stack 1 = 00000000 ( 00000008 )
    -------------------------------------------------------------------------
CSTACK
  Segment part 1. NOT NEEDED.
    -------------------------------------------------------------------------
DATA_ID
  Relative segment, address: CODE_AREA 00000000 - 00000003 (0x4 bytes), align: 2
  Segment part 5.             Intra module refs:   cfn
    -------------------------------------------------------------------------
DATA_ID
  Segment part 10. NOT NEEDED.
           ENTRY                   ADDRESS         REF BY
           =====                   =======         ======
           ?*?DATA_ID              
    -------------------------------------------------------------------------
INITTAB
  Relative segment, address: CODE_AREA 00004780 - 0000478B (0xc bytes), align: 2
  Segment part 11. ROOT.
           ENTRY                   ADDRESS         REF BY
           =====                   =======         ======
           ?init?tab?DATA_I        00004780 
    -------------------------------------------------------------------------
CONFIG_C
  Segment part 12. NOT NEEDED.
    -------------------------------------------------------------------------
DATA_C
  Relative segment, address: CODE_AREA 0000477C - 0000477C (0x1 bytes), align: 0
  Segment part 2.             Intra module refs:   Segment part 5
    -------------------------------------------------------------------------
DATA_C
  Relative segment, address: CODE_AREA 00003D04 - 00003D3B (0x38 bytes), align: 2
  Segment part 3.             Intra module refs:   InitConfig

    *************************************************************************

  FILE NAME : D:\SVN\SieELF\SieELF\ScrTool2\Release_ELKA\Obj\config_data.r79
  PROGRAM MODULE, NAME : config_data

  SEGMENTS IN THE MODULE
  ======================
CONFIG_C
  Relative segment, address: CODE_AREA 0000492C - 00004957 (0x2c bytes), align: 2
  Segment part 2. ROOT.
           ENTRY                   ADDRESS         REF BY
           =====                   =======         ======
           cfghdr0                 0000492C        LoadConfigData (conf_loader)
    -------------------------------------------------------------------------
CONFIG_C
  Relative segment, address: CODE_AREA 00004958 - 0000495B (0x4 bytes), align: 2
  Segment part 3. ROOT.
           ENTRY                   ADDRESS         REF BY
           =====                   =======         ======
           TASK_ENA                00004958        Segment part 135 (main)
                                                   Segment part 93 (main)
    -------------------------------------------------------------------------
CONFIG_C
  Relative segment, address: CODE_AREA 0000495C - 00004987 (0x2c bytes), align: 2
  Segment part 4. ROOT.
           ENTRY                   ADDRESS         REF BY
           =====                   =======         ======
           SCR11                   0000495C 
    -------------------------------------------------------------------------
CONFIG_C
  Relative segment, address: CODE_AREA 00004988 - 000049B3 (0x2c bytes), align: 2
  Segment part 5. ROOT.
           ENTRY                   ADDRESS         REF BY
           =====                   =======         ======
           SCR1_1                  00004988 
    -------------------------------------------------------------------------
CONFIG_C
  Relative segment, address: CODE_AREA 000049B4 - 000049B7 (0x4 bytes), align: 2
  Segment part 6. ROOT.
           ENTRY                   ADDRESS         REF BY
           =====                   =======         ======
           TEXT_ENA                000049B4        InitShow (main)
    -------------------------------------------------------------------------
CONFIG_C
  Relative segment, address: CODE_AREA 000049B8 - 000049E3 (0x2c bytes), align: 2
  Segment part 7. ROOT.
           ENTRY                   ADDRESS         REF BY
           =====                   =======         ======
           SCR1_3                  000049B8 
    -------------------------------------------------------------------------
CONFIG_C
  Relative segment, address: CODE_AREA 000049E4 - 00004A03 (0x20 bytes), align: 2
  Segment part 8. ROOT.
           ENTRY                   ADDRESS         REF BY
           =====                   =======         ======
           TEXT_CP                 000049E4        InitScreen (main)
    -------------------------------------------------------------------------
CONFIG_C
  Relative segment, address: CODE_AREA 00004A04 - 00004A2F (0x2c bytes), align: 2
  Segment part 9. ROOT.
           ENTRY                   ADDRESS         REF BY
           =====                   =======         ======
           SCR1_2                  00004A04 
    -------------------------------------------------------------------------
CONFIG_C
  Relative segment, address: CODE_AREA 00004A30 - 00004A33 (0x4 bytes), align: 2
  Segment part 10. ROOT.
           ENTRY                   ADDRESS         REF BY
           =====                   =======         ======
           TEXT_X                  00004A30        InitScreen (main)
    -------------------------------------------------------------------------
CONFIG_C
  Relative segment, address: CODE_AREA 00004A34 - 00004A37 (0x4 bytes), align: 2
  Segment part 11. ROOT.
           ENTRY                   ADDRESS         REF BY
           =====                   =======         ======
           TEXT_Y                  00004A34        InitScreen (main)
    -------------------------------------------------------------------------
CONFIG_C
  Relative segment, address: CODE_AREA 00004A38 - 00004A63 (0x2c bytes), align: 2
  Segment part 12. ROOT.
           ENTRY                   ADDRESS         REF BY
           =====                   =======         ======
           SCR1_4                  00004A38 
    -------------------------------------------------------------------------
CONFIG_C
  Relative segment, address: CODE_AREA 00004A64 - 00004A67 (0x4 bytes), align: 2
  Segment part 13. ROOT.
           ENTRY                   ADDRESS         REF BY
           =====                   =======         ======
           TEXT_CS                 00004A64        InitShow (main)
    -------------------------------------------------------------------------
CONFIG_C
  Relative segment, address: CODE_AREA 00004A68 - 00004A93 (0x2c bytes), align: 2
  Segment part 14. ROOT.
           ENTRY                   ADDRESS         REF BY
           =====                   =======         ======
           SCR1_5                  00004A68 
    -------------------------------------------------------------------------
CONFIG_C
  Relative segment, address: CODE_AREA 00004A94 - 00004A97 (0x4 bytes), align: 2
  Segment part 15. ROOT.
           ENTRY                   ADDRESS         REF BY
           =====                   =======         ======
           TEXT_CB                 00004A94        InitShow (main)
    -------------------------------------------------------------------------
CONFIG_C
  Relative segment, address: CODE_AREA 00004A98 - 00004AC3 (0x2c bytes), align: 2
  Segment part 16. ROOT.
           ENTRY                   ADDRESS         REF BY
           =====                   =======         ======
           SCR1_6                  00004A98 
    -------------------------------------------------------------------------
CONFIG_C
  Relative segment, address: CODE_AREA 00004AC4 - 00004AC7 (0x4 bytes), align: 2
  Segment part 17. ROOT.
           ENTRY                   ADDRESS         REF BY
           =====                   =======         ======
           TEXT_T                  00004AC4        InitShow (main)
    -------------------------------------------------------------------------
CONFIG_C
  Relative segment, address: CODE_AREA 00004AC8 - 00004AF3 (0x2c bytes), align: 2
  Segment part 18. ROOT.
           ENTRY                   ADDRESS         REF BY
           =====                   =======         ======
           SCR1_7                  00004AC8 
    -------------------------------------------------------------------------
CONFIG_C
  Relative segment, address: CODE_AREA 00004AF4 - 00004AF7 (0x4 bytes), align: 2
  Segment part 19. ROOT.
           ENTRY                   ADDRESS         REF BY
           =====                   =======         ======
           TEXT_FT                 00004AF4        InitShow (main)
    -------------------------------------------------------------------------
CONFIG_C
  Relative segment, address: CODE_AREA 00004AF8 - 00004B23 (0x2c bytes), align: 2
  Segment part 20. ROOT.
           ENTRY                   ADDRESS         REF BY
           =====                   =======         ======
           SCR10                   00004AF8 
    -------------------------------------------------------------------------
CONFIG_C
  Relative segment, address: CODE_AREA 00004B24 - 00004B4F (0x2c bytes), align: 2
  Segment part 21. ROOT.
           ENTRY                   ADDRESS         REF BY
           =====                   =======         ======
           mBAR1                   00004B24 
    -------------------------------------------------------------------------
CONFIG_C
  Relative segment, address: CODE_AREA 00004B50 - 00004B7B (0x2c bytes), align: 2
  Segment part 22. ROOT.
           ENTRY                   ADDRESS         REF BY
           =====                   =======         ======
           BAR_0                   00004B50 
    -------------------------------------------------------------------------
CONFIG_C
  Relative segment, address: CODE_AREA 00004B7C - 00004B7F (0x4 bytes), align: 2
  Segment part 23. ROOT.
           ENTRY                   ADDRESS         REF BY
           =====                   =======         ======
           DEST_ENA                00004B7C        DrawGUI (main)
    -------------------------------------------------------------------------
CONFIG_C
  Relative segment, address: CODE_AREA 00004B80 - 00004BAB (0x2c bytes), align: 2
  Segment part 24. ROOT.
           ENTRY                   ADDRESS         REF BY
           =====                   =======         ======
           SCR                     00004B80 
    -------------------------------------------------------------------------
CONFIG_C
  Relative segment, address: CODE_AREA 00004BAC - 00004BAF (0x4 bytes), align: 2
  Segment part 25. ROOT.
           ENTRY                   ADDRESS         REF BY
           =====                   =======         ======
           INFO_ENA                00004BAC        DaemonOnMessage (main)
    -------------------------------------------------------------------------
CONFIG_C
  Relative segment, address: CODE_AREA 00004BB0 - 00004C2F (0x80 bytes), align: 2
  Segment part 26. ROOT.
           ENTRY                   ADDRESS         REF BY
           =====                   =======         ======
           BOX01                   00004BB0 
    -------------------------------------------------------------------------
CONFIG_C
  Relative segment, address: CODE_AREA 00004C30 - 00004C5B (0x2c bytes), align: 2
  Segment part 27. ROOT.
           ENTRY                   ADDRESS         REF BY
           =====                   =======         ======
           BAR_3                   00004C30 
    -------------------------------------------------------------------------
CONFIG_C
  Relative segment, address: CODE_AREA 00004C5C - 00004C5F (0x4 bytes), align: 2
  Segment part 28. ROOT.
           ENTRY                   ADDRESS         REF BY
           =====                   =======         ======
           CALL_BTN                00004C5C        Segment part 115 (main)
    -------------------------------------------------------------------------
CONFIG_C
  Relative segment, address: CODE_AREA 00004C60 - 00004D3F (0xe0 bytes), align: 2
  Segment part 29. ROOT.
           ENTRY                   ADDRESS         REF BY
           =====                   =======         ======
           BOX02                   00004C60 
    -------------------------------------------------------------------------
CONFIG_C
  Relative segment, address: CODE_AREA 00004D40 - 00004D6B (0x2c bytes), align: 2
  Segment part 30. ROOT.
           ENTRY                   ADDRESS         REF BY
           =====                   =======         ======
           BAR_1                   00004D40 
    -------------------------------------------------------------------------
CONFIG_C
  Relative segment, address: CODE_AREA 00004D6C - 00004D6F (0x4 bytes), align: 2
  Segment part 31. ROOT.
           ENTRY                   ADDRESS         REF BY
           =====                   =======         ======
           REFRESH                 00004D6C        DaemonOnMessage (main)
    -------------------------------------------------------------------------
CONFIG_C
  Relative segment, address: CODE_AREA 00004D70 - 00004D9B (0x2c bytes), align: 2
  Segment part 32. ROOT.
           ENTRY                   ADDRESS         REF BY
           =====                   =======         ======
           BAR_2                   00004D70 
    -------------------------------------------------------------------------
CONFIG_C
  Relative segment, address: CODE_AREA 00004D9C - 00004D9F (0x4 bytes), align: 2
  Segment part 33. ROOT.
           ENTRY                   ADDRESS         REF BY
           =====                   =======         ======
           AUTO_CLOSE              00004D9C        DrawGUI (main)
    -------------------------------------------------------------------------
CONFIG_C
  Relative segment, address: CODE_AREA 00004DA0 - 00004DCB (0x2c bytes), align: 2
  Segment part 34. ROOT.
           ENTRY                   ADDRESS         REF BY
           =====                   =======         ======
           BAR_5                   00004DA0 
    -------------------------------------------------------------------------
CONFIG_C
  Relative segment, address: CODE_AREA 00004DCC - 00004DCF (0x4 bytes), align: 2
  Segment part 35. ROOT.
           ENTRY                   ADDRESS         REF BY
           =====                   =======         ======
           MODE_KBD                00004DCC        DaemonKeyHook (main)
    -------------------------------------------------------------------------
CONFIG_C
  Relative segment, address: CODE_AREA 00004DD0 - 00004E2F (0x60 bytes), align: 2
  Segment part 36. ROOT.
           ENTRY                   ADDRESS         REF BY
           =====                   =======         ======
           BOX03                   00004DD0 
    -------------------------------------------------------------------------
CONFIG_C
  Relative segment, address: CODE_AREA 00004E30 - 00004E5B (0x2c bytes), align: 2
  Segment part 37. ROOT.
           ENTRY                   ADDRESS         REF BY
           =====                   =======         ======
           BAR_7                   00004E30 
    -------------------------------------------------------------------------
CONFIG_C
  Relative segment, address: CODE_AREA 00004E5C - 00004E5F (0x4 bytes), align: 2
  Segment part 38. ROOT.
           ENTRY                   ADDRESS         REF BY
           =====                   =======         ======
           OFFSET                  00004E5C        DrawGUI (main)
    -------------------------------------------------------------------------
CONFIG_C
  Relative segment, address: CODE_AREA 00004E60 - 00004E8B (0x2c bytes), align: 2
  Segment part 39. ROOT.
           ENTRY                   ADDRESS         REF BY
           =====                   =======         ======
           PSize                   00004E60 
    -------------------------------------------------------------------------
CONFIG_C
  Relative segment, address: CODE_AREA 00004E8C - 00004E8F (0x4 bytes), align: 2
  Segment part 40. ROOT.
           ENTRY                   ADDRESS         REF BY
           =====                   =======         ======
           PicSize                 00004E8C        DrawGUI (main)
    -------------------------------------------------------------------------
CONFIG_C
  Relative segment, address: CODE_AREA 00004E90 - 00004EBB (0x2c bytes), align: 2
  Segment part 41. ROOT.
           ENTRY                   ADDRESS         REF BY
           =====                   =======         ======
           BAR_8                   00004E90 
    -------------------------------------------------------------------------
CONFIG_C
  Relative segment, address: CODE_AREA 00004EBC - 00004EBF (0x4 bytes), align: 2
  Segment part 42. ROOT.
           ENTRY                   ADDRESS         REF BY
           =====                   =======         ======
           ATEXT_CS                00004EBC        DrawGUI (main)
    -------------------------------------------------------------------------
CONFIG_C
  Relative segment, address: CODE_AREA 00004EC0 - 00004EEB (0x2c bytes), align: 2
  Segment part 43. ROOT.
           ENTRY                   ADDRESS         REF BY
           =====                   =======         ======
           BAR_9                   00004EC0 
    -------------------------------------------------------------------------
CONFIG_C
  Relative segment, address: CODE_AREA 00004EEC - 00004EEF (0x4 bytes), align: 2
  Segment part 44. ROOT.
           ENTRY                   ADDRESS         REF BY
           =====                   =======         ======
           ATEXT_FT                00004EEC        DrawGUI (main)
    -------------------------------------------------------------------------
CONFIG_C
  Relative segment, address: CODE_AREA 00004EF0 - 00004F1B (0x2c bytes), align: 2
  Segment part 45. ROOT.
           ENTRY                   ADDRESS         REF BY
           =====                   =======         ======
           BAR_A                   00004EF0 
    -------------------------------------------------------------------------
CONFIG_C
  Relative segment, address: CODE_AREA 00004F1C - 00004F1F (0x4 bytes), align: 2
  Segment part 46. ROOT.
           ENTRY                   ADDRESS         REF BY
           =====                   =======         ======
           PBDCol                  00004F1C        DrawGUI (main)
    -------------------------------------------------------------------------
CONFIG_C
  Relative segment, address: CODE_AREA 00004F20 - 00004F4B (0x2c bytes), align: 2
  Segment part 47. ROOT.
           ENTRY                   ADDRESS         REF BY
           =====                   =======         ======
           BAR_B                   00004F20 
    -------------------------------------------------------------------------
CONFIG_C
  Relative segment, address: CODE_AREA 00004F4C - 00004F4F (0x4 bytes), align: 2
  Segment part 48. ROOT.
           ENTRY                   ADDRESS         REF BY
           =====                   =======         ======
           PBGCol                  00004F4C        DrawGUI (main)
    -------------------------------------------------------------------------
CONFIG_C
  Relative segment, address: CODE_AREA 00004F50 - 00004F7B (0x2c bytes), align: 2
  Segment part 49. ROOT.
           ENTRY                   ADDRESS         REF BY
           =====                   =======         ======
           BAR_C                   00004F50 
    -------------------------------------------------------------------------
CONFIG_C
  Relative segment, address: CODE_AREA 00004F7C - 00004F7F (0x4 bytes), align: 2
  Segment part 50. ROOT.
           ENTRY                   ADDRESS         REF BY
           =====                   =======         ======
           BBDCol                  00004F7C        DrawGUI (main)
    -------------------------------------------------------------------------
CONFIG_C
  Relative segment, address: CODE_AREA 00004F80 - 00004FAB (0x2c bytes), align: 2
  Segment part 51. ROOT.
           ENTRY                   ADDRESS         REF BY
           =====                   =======         ======
           BAR_J                   00004F80 
    -------------------------------------------------------------------------
CONFIG_C
  Relative segment, address: CODE_AREA 00004FAC - 00004FAF (0x4 bytes), align: 2
  Segment part 52. ROOT.
           ENTRY                   ADDRESS         REF BY
           =====                   =======         ======
           SHOW_EXT                00004FAC        FindBCFGFile (main)
    -------------------------------------------------------------------------
CONFIG_C
  Relative segment, address: CODE_AREA 00004FB0 - 00004FDB (0x2c bytes), align: 2
  Segment part 53. ROOT.
           ENTRY                   ADDRESS         REF BY
           =====                   =======         ======
           mBAR0                   00004FB0 
    -------------------------------------------------------------------------
CONFIG_C
  Relative segment, address: CODE_AREA 00004FDC - 00005007 (0x2c bytes), align: 2
  Segment part 54. ROOT.
           ENTRY                   ADDRESS         REF BY
           =====                   =======         ======
           mMENU1                  00004FDC 
    -------------------------------------------------------------------------
CONFIG_C
  Relative segment, address: CODE_AREA 00005008 - 00005033 (0x2c bytes), align: 2
  Segment part 55. ROOT.
           ENTRY                   ADDRESS         REF BY
           =====                   =======         ======
           BAR_I                   00005008 
    -------------------------------------------------------------------------
CONFIG_C
  Relative segment, address: CODE_AREA 00005034 - 00005067 (0x34 bytes), align: 2
  Segment part 56. ROOT.
           ENTRY                   ADDRESS         REF BY
           =====                   =======         ======
           AITO                    00005034        InitMenu (main)
    -------------------------------------------------------------------------
CONFIG_C
  Relative segment, address: CODE_AREA 00005068 - 00005093 (0x2c bytes), align: 2
  Segment part 57. ROOT.
           ENTRY                   ADDRESS         REF BY
           =====                   =======         ======
           BAR_H                   00005068 
    -------------------------------------------------------------------------
CONFIG_C
  Relative segment, address: CODE_AREA 00005094 - 000050C7 (0x34 bytes), align: 2
  Segment part 58. ROOT.
           ENTRY                   ADDRESS         REF BY
           =====                   =======         ======
           AIRT                    00005094        InitMenu (main)
    -------------------------------------------------------------------------
CONFIG_C
  Relative segment, address: CODE_AREA 000050C8 - 000050F3 (0x2c bytes), align: 2
  Segment part 59. ROOT.
           ENTRY                   ADDRESS         REF BY
           =====                   =======         ======
           BAR_G                   000050C8 
    -------------------------------------------------------------------------
CONFIG_C
  Relative segment, address: CODE_AREA 000050F4 - 00005127 (0x34 bytes), align: 2
  Segment part 60. ROOT.
           ENTRY                   ADDRESS         REF BY
           =====                   =======         ======
           AILK                    000050F4        InitMenu (main)
    -------------------------------------------------------------------------
CONFIG_C
  Relative segment, address: CODE_AREA 00005128 - 00005153 (0x2c bytes), align: 2
  Segment part 61. ROOT.
           ENTRY                   ADDRESS         REF BY
           =====                   =======         ======
           BAR_E                   00005128 
    -------------------------------------------------------------------------
CONFIG_C
  Relative segment, address: CODE_AREA 00005154 - 00005187 (0x34 bytes), align: 2
  Segment part 62. ROOT.
           ENTRY                   ADDRESS         REF BY
           =====                   =======         ======
           AIST                    00005154        InitMenu (main)
    -------------------------------------------------------------------------
CONFIG_C
  Relative segment, address: CODE_AREA 00005188 - 000051B3 (0x2c bytes), align: 2
  Segment part 63. ROOT.
           ENTRY                   ADDRESS         REF BY
           =====                   =======         ======
           BAR_F                   00005188 
    -------------------------------------------------------------------------
CONFIG_C
  Relative segment, address: CODE_AREA 000051B4 - 000051E7 (0x34 bytes), align: 2
  Segment part 64. ROOT.
           ENTRY                   ADDRESS         REF BY
           =====                   =======         ======
           AINO                    000051B4        DrawGUI (main)
    -------------------------------------------------------------------------
CONFIG_C
  Relative segment, address: CODE_AREA 000051E8 - 00005213 (0x2c bytes), align: 2
  Segment part 65. ROOT.
           ENTRY                   ADDRESS         REF BY
           =====                   =======         ======
           mMENU0                  000051E8 
    -------------------------------------------------------------------------
CONFIG_C
  Relative segment, address: CODE_AREA 00005214 - 0000523F (0x2c bytes), align: 2
  Segment part 66. ROOT.
           ENTRY                   ADDRESS         REF BY
           =====                   =======         ======
           mAPP1                   00005214 
    -------------------------------------------------------------------------
CONFIG_C
  Relative segment, address: CODE_AREA 00005240 - 0000526B (0x2c bytes), align: 2
  Segment part 67. ROOT.
           ENTRY                   ADDRESS         REF BY
           =====                   =======         ======
           mA041                   00005240 
    -------------------------------------------------------------------------
CONFIG_C
  Relative segment, address: CODE_AREA 0000526C - 00005297 (0x2c bytes), align: 2
  Segment part 68. ROOT.
           ENTRY                   ADDRESS         REF BY
           =====                   =======         ======
           A04_4                   0000526C 
    -------------------------------------------------------------------------
CONFIG_C
  Relative segment, address: CODE_AREA 00005298 - 0000529B (0x4 bytes), align: 2
  Segment part 69. ROOT.
           ENTRY                   ADDRESS         REF BY
           =====                   =======         ======
           AT04                    00005298        InitMenu (main)
    -------------------------------------------------------------------------
CONFIG_C
  Relative segment, address: CODE_AREA 0000529C - 0000531B (0x80 bytes), align: 2
  Segment part 70. ROOT.
           ENTRY                   ADDRESS         REF BY
           =====                   =======         ======
           BOX05                   0000529C 
    -------------------------------------------------------------------------
CONFIG_C
  Relative segment, address: CODE_AREA 0000531C - 00005347 (0x2c bytes), align: 2
  Segment part 71. ROOT.
           ENTRY                   ADDRESS         REF BY
           =====                   =======         ======
           A04_1                   0000531C 
    -------------------------------------------------------------------------
CONFIG_C
  Relative segment, address: CODE_AREA 00005348 - 00005367 (0x20 bytes), align: 2
  Segment part 72. ROOT.
           ENTRY                   ADDRESS         REF BY
           =====                   =======         ======
           AN04                    00005348        InitMenu (main)
    -------------------------------------------------------------------------
CONFIG_C
  Relative segment, address: CODE_AREA 00005368 - 00005393 (0x2c bytes), align: 2
  Segment part 73. ROOT.
           ENTRY                   ADDRESS         REF BY
           =====                   =======         ======
           A04_2                   00005368 
    -------------------------------------------------------------------------
CONFIG_C
  Relative segment, address: CODE_AREA 00005394 - 000053C7 (0x34 bytes), align: 2
  Segment part 74. ROOT.
           ENTRY                   ADDRESS         REF BY
           =====                   =======         ======
           AI04                    00005394        InitMenu (main)
    -------------------------------------------------------------------------
CONFIG_C
  Relative segment, address: CODE_AREA 000053C8 - 000053F3 (0x2c bytes), align: 2
  Segment part 75. ROOT.
           ENTRY                   ADDRESS         REF BY
           =====                   =======         ======
           A04_3                   000053C8 
    -------------------------------------------------------------------------
CONFIG_C
  Relative segment, address: CODE_AREA 000053F4 - 00005427 (0x34 bytes), align: 2
  Segment part 76. ROOT.
           ENTRY                   ADDRESS         REF BY
           =====                   =======         ======
           AF04                    000053F4        InitMenu (main)
    -------------------------------------------------------------------------
CONFIG_C
  Relative segment, address: CODE_AREA 00005428 - 00005453 (0x2c bytes), align: 2
  Segment part 77. ROOT.
           ENTRY                   ADDRESS         REF BY
           =====                   =======         ======
           mA040                   00005428 
    -------------------------------------------------------------------------
CONFIG_C
  Relative segment, address: CODE_AREA 00005454 - 0000547F (0x2c bytes), align: 2
  Segment part 78. ROOT.
           ENTRY                   ADDRESS         REF BY
           =====                   =======         ======
           mA051                   00005454 
    -------------------------------------------------------------------------
CONFIG_C
  Relative segment, address: CODE_AREA 00005480 - 000054AB (0x2c bytes), align: 2
  Segment part 79. ROOT.
           ENTRY                   ADDRESS         REF BY
           =====                   =======         ======
           A05_4                   00005480 
    -------------------------------------------------------------------------
CONFIG_C
  Relative segment, address: CODE_AREA 000054AC - 000054AF (0x4 bytes), align: 2
  Segment part 80. ROOT.
           ENTRY                   ADDRESS         REF BY
           =====                   =======         ======
           AT05                    000054AC        InitMenu (main)
    -------------------------------------------------------------------------
CONFIG_C
  Relative segment, address: CODE_AREA 000054B0 - 0000552F (0x80 bytes), align: 2
  Segment part 81. ROOT.
           ENTRY                   ADDRESS         REF BY
           =====                   =======         ======
           BOX06                   000054B0 
    -------------------------------------------------------------------------
CONFIG_C
  Relative segment, address: CODE_AREA 00005530 - 0000555B (0x2c bytes), align: 2
  Segment part 82. ROOT.
           ENTRY                   ADDRESS         REF BY
           =====                   =======         ======
           A05_1                   00005530 
    -------------------------------------------------------------------------
CONFIG_C
  Relative segment, address: CODE_AREA 0000555C - 0000557B (0x20 bytes), align: 2
  Segment part 83. ROOT.
           ENTRY                   ADDRESS         REF BY
           =====                   =======         ======
           AN05                    0000555C        InitMenu (main)
    -------------------------------------------------------------------------
CONFIG_C
  Relative segment, address: CODE_AREA 0000557C - 000055A7 (0x2c bytes), align: 2
  Segment part 84. ROOT.
           ENTRY                   ADDRESS         REF BY
           =====                   =======         ======
           A05_2                   0000557C 
    -------------------------------------------------------------------------
CONFIG_C
  Relative segment, address: CODE_AREA 000055A8 - 000055DB (0x34 bytes), align: 2
  Segment part 85. ROOT.
           ENTRY                   ADDRESS         REF BY
           =====                   =======         ======
           AI05                    000055A8        InitMenu (main)
    -------------------------------------------------------------------------
CONFIG_C
  Relative segment, address: CODE_AREA 000055DC - 00005607 (0x2c bytes), align: 2
  Segment part 86. ROOT.
           ENTRY                   ADDRESS         REF BY
           =====                   =======         ======
           A05_3                   000055DC 
    -------------------------------------------------------------------------
CONFIG_C
  Relative segment, address: CODE_AREA 00005608 - 0000563B (0x34 bytes), align: 2
  Segment part 87. ROOT.
           ENTRY                   ADDRESS         REF BY
           =====                   =======         ======
           AF05                    00005608        InitMenu (main)
    -------------------------------------------------------------------------
CONFIG_C
  Relative segment, address: CODE_AREA 0000563C - 00005667 (0x2c bytes), align: 2
  Segment part 88. ROOT.
           ENTRY                   ADDRESS         REF BY
           =====                   =======         ======
           mA050                   0000563C 
    -------------------------------------------------------------------------
CONFIG_C
  Relative segment, address: CODE_AREA 00005668 - 00005693 (0x2c bytes), align: 2
  Segment part 89. ROOT.
           ENTRY                   ADDRESS         REF BY
           =====                   =======         ======
           mA061                   00005668 
    -------------------------------------------------------------------------
CONFIG_C
  Relative segment, address: CODE_AREA 00005694 - 000056BF (0x2c bytes), align: 2
  Segment part 90. ROOT.
           ENTRY                   ADDRESS         REF BY
           =====                   =======         ======
           A06_4                   00005694 
    -------------------------------------------------------------------------
CONFIG_C
  Relative segment, address: CODE_AREA 000056C0 - 000056C3 (0x4 bytes), align: 2
  Segment part 91. ROOT.
           ENTRY                   ADDRESS         REF BY
           =====                   =======         ======
           AT06                    000056C0        InitMenu (main)
    -------------------------------------------------------------------------
CONFIG_C
  Relative segment, address: CODE_AREA 000056C4 - 00005743 (0x80 bytes), align: 2
  Segment part 92. ROOT.
           ENTRY                   ADDRESS         REF BY
           =====                   =======         ======
           BOX07                   000056C4 
    -------------------------------------------------------------------------
CONFIG_C
  Relative segment, address: CODE_AREA 00005744 - 0000576F (0x2c bytes), align: 2
  Segment part 93. ROOT.
           ENTRY                   ADDRESS         REF BY
           =====                   =======         ======
           A06_1                   00005744 
    -------------------------------------------------------------------------
CONFIG_C
  Relative segment, address: CODE_AREA 00005770 - 0000578F (0x20 bytes), align: 2
  Segment part 94. ROOT.
           ENTRY                   ADDRESS         REF BY
           =====                   =======         ======
           AN06                    00005770        InitMenu (main)
    -------------------------------------------------------------------------
CONFIG_C
  Relative segment, address: CODE_AREA 00005790 - 000057BB (0x2c bytes), align: 2
  Segment part 95. ROOT.
           ENTRY                   ADDRESS         REF BY
           =====                   =======         ======
           A06_2                   00005790 
    -------------------------------------------------------------------------
CONFIG_C
  Relative segment, address: CODE_AREA 000057BC - 000057EF (0x34 bytes), align: 2
  Segment part 96. ROOT.
           ENTRY                   ADDRESS         REF BY
           =====                   =======         ======
           AI06                    000057BC        InitMenu (main)
    -------------------------------------------------------------------------
CONFIG_C
  Relative segment, address: CODE_AREA 000057F0 - 0000581B (0x2c bytes), align: 2
  Segment part 97. ROOT.
           ENTRY                   ADDRESS         REF BY
           =====                   =======         ======
           A06_3                   000057F0 
    -------------------------------------------------------------------------
CONFIG_C
  Relative segment, address: CODE_AREA 0000581C - 0000584F (0x34 bytes), align: 2
  Segment part 98. ROOT.
           ENTRY                   ADDRESS         REF BY
           =====                   =======         ======
           AF06                    0000581C        InitMenu (main)
    -------------------------------------------------------------------------
CONFIG_C
  Relative segment, address: CODE_AREA 00005850 - 0000587B (0x2c bytes), align: 2
  Segment part 99. ROOT.
           ENTRY                   ADDRESS         REF BY
           =====                   =======         ======
           mA060                   00005850 
    -------------------------------------------------------------------------
CONFIG_C
  Relative segment, address: CODE_AREA 0000587C - 000058A7 (0x2c bytes), align: 2
  Segment part 100. ROOT.
           ENTRY                   ADDRESS         REF BY
           =====                   =======         ======
           mA071                   0000587C 
    -------------------------------------------------------------------------
CONFIG_C
  Relative segment, address: CODE_AREA 000058A8 - 000058D3 (0x2c bytes), align: 2
  Segment part 101. ROOT.
           ENTRY                   ADDRESS         REF BY
           =====                   =======         ======
           A07_4                   000058A8 
    -------------------------------------------------------------------------
CONFIG_C
  Relative segment, address: CODE_AREA 000058D4 - 000058D7 (0x4 bytes), align: 2
  Segment part 102. ROOT.
           ENTRY                   ADDRESS         REF BY
           =====                   =======         ======
           AT07                    000058D4        InitMenu (main)
    -------------------------------------------------------------------------
CONFIG_C
  Relative segment, address: CODE_AREA 000058D8 - 00005957 (0x80 bytes), align: 2
  Segment part 103. ROOT.
           ENTRY                   ADDRESS         REF BY
           =====                   =======         ======
           BOX08                   000058D8 
    -------------------------------------------------------------------------
CONFIG_C
  Relative segment, address: CODE_AREA 00005958 - 00005983 (0x2c bytes), align: 2
  Segment part 104. ROOT.
           ENTRY                   ADDRESS         REF BY
           =====                   =======         ======
           A07_1                   00005958 
    -------------------------------------------------------------------------
CONFIG_C
  Relative segment, address: CODE_AREA 00005984 - 000059A3 (0x20 bytes), align: 2
  Segment part 105. ROOT.
           ENTRY                   ADDRESS         REF BY
           =====                   =======         ======
           AN07                    00005984        InitMenu (main)
    -------------------------------------------------------------------------
CONFIG_C
  Relative segment, address: CODE_AREA 000059A4 - 000059CF (0x2c bytes), align: 2
  Segment part 106. ROOT.
           ENTRY                   ADDRESS         REF BY
           =====                   =======         ======
           A07_2                   000059A4 
    -------------------------------------------------------------------------
CONFIG_C
  Relative segment, address: CODE_AREA 000059D0 - 00005A03 (0x34 bytes), align: 2
  Segment part 107. ROOT.
           ENTRY                   ADDRESS         REF BY
           =====                   =======         ======
           AI07                    000059D0        InitMenu (main)
    -------------------------------------------------------------------------
CONFIG_C
  Relative segment, address: CODE_AREA 00005A04 - 00005A2F (0x2c bytes), align: 2
  Segment part 108. ROOT.
           ENTRY                   ADDRESS         REF BY
           =====                   =======         ======
           A07_3                   00005A04 
    -------------------------------------------------------------------------
CONFIG_C
  Relative segment, address: CODE_AREA 00005A30 - 00005A63 (0x34 bytes), align: 2
  Segment part 109. ROOT.
           ENTRY                   ADDRESS         REF BY
           =====                   =======         ======
           AF07                    00005A30        InitMenu (main)
    -------------------------------------------------------------------------
CONFIG_C
  Relative segment, address: CODE_AREA 00005A64 - 00005A8F (0x2c bytes), align: 2
  Segment part 110. ROOT.
           ENTRY                   ADDRESS         REF BY
           =====                   =======         ======
           mA070                   00005A64 
    -------------------------------------------------------------------------
CONFIG_C
  Relative segment, address: CODE_AREA 00005A90 - 00005ABB (0x2c bytes), align: 2
  Segment part 111. ROOT.
           ENTRY                   ADDRESS         REF BY
           =====                   =======         ======
           mA081                   00005A90 
    -------------------------------------------------------------------------
CONFIG_C
  Relative segment, address: CODE_AREA 00005ABC - 00005AE7 (0x2c bytes), align: 2
  Segment part 112. ROOT.
           ENTRY                   ADDRESS         REF BY
           =====                   =======         ======
           A08_4                   00005ABC 
    -------------------------------------------------------------------------
CONFIG_C
  Relative segment, address: CODE_AREA 00005AE8 - 00005AEB (0x4 bytes), align: 2
  Segment part 113. ROOT.
           ENTRY                   ADDRESS         REF BY
           =====                   =======         ======
           AT08                    00005AE8        InitMenu (main)
    -------------------------------------------------------------------------
CONFIG_C
  Relative segment, address: CODE_AREA 00005AEC - 00005B6B (0x80 bytes), align: 2
  Segment part 114. ROOT.
           ENTRY                   ADDRESS         REF BY
           =====                   =======         ======
           BOXA08                  00005AEC 
    -------------------------------------------------------------------------
CONFIG_C
  Relative segment, address: CODE_AREA 00005B6C - 00005B97 (0x2c bytes), align: 2
  Segment part 115. ROOT.
           ENTRY                   ADDRESS         REF BY
           =====                   =======         ======
           A08_1                   00005B6C 
    -------------------------------------------------------------------------
CONFIG_C
  Relative segment, address: CODE_AREA 00005B98 - 00005BB7 (0x20 bytes), align: 2
  Segment part 116. ROOT.
           ENTRY                   ADDRESS         REF BY
           =====                   =======         ======
           AN08                    00005B98        InitMenu (main)
    -------------------------------------------------------------------------
CONFIG_C
  Relative segment, address: CODE_AREA 00005BB8 - 00005BE3 (0x2c bytes), align: 2
  Segment part 117. ROOT.
           ENTRY                   ADDRESS         REF BY
           =====                   =======         ======
           A08_2                   00005BB8 
    -------------------------------------------------------------------------
CONFIG_C
  Relative segment, address: CODE_AREA 00005BE4 - 00005C17 (0x34 bytes), align: 2
  Segment part 118. ROOT.
           ENTRY                   ADDRESS         REF BY
           =====                   =======         ======
           AI08                    00005BE4        InitMenu (main)
    -------------------------------------------------------------------------
CONFIG_C
  Relative segment, address: CODE_AREA 00005C18 - 00005C43 (0x2c bytes), align: 2
  Segment part 119. ROOT.
           ENTRY                   ADDRESS         REF BY
           =====                   =======         ======
           A08_3                   00005C18 
    -------------------------------------------------------------------------
CONFIG_C
  Relative segment, address: CODE_AREA 00005C44 - 00005C77 (0x34 bytes), align: 2
  Segment part 120. ROOT.
           ENTRY                   ADDRESS         REF BY
           =====                   =======         ======
           AF08                    00005C44        InitMenu (main)
    -------------------------------------------------------------------------
CONFIG_C
  Relative segment, address: CODE_AREA 00005C78 - 00005CA3 (0x2c bytes), align: 2
  Segment part 121. ROOT.
           ENTRY                   ADDRESS         REF BY
           =====                   =======         ======
           mA080                   00005C78 
    -------------------------------------------------------------------------
CONFIG_C
  Relative segment, address: CODE_AREA 00005CA4 - 00005CCF (0x2c bytes), align: 2
  Segment part 122. ROOT.
           ENTRY                   ADDRESS         REF BY
           =====                   =======         ======
           mA091                   00005CA4 
    -------------------------------------------------------------------------
CONFIG_C
  Relative segment, address: CODE_AREA 00005CD0 - 00005CFB (0x2c bytes), align: 2
  Segment part 123. ROOT.
           ENTRY                   ADDRESS         REF BY
           =====                   =======         ======
           A09_4                   00005CD0 
    -------------------------------------------------------------------------
CONFIG_C
  Relative segment, address: CODE_AREA 00005CFC - 00005CFF (0x4 bytes), align: 2
  Segment part 124. ROOT.
           ENTRY                   ADDRESS         REF BY
           =====                   =======         ======
           AT09                    00005CFC        InitMenu (main)
    -------------------------------------------------------------------------
CONFIG_C
  Relative segment, address: CODE_AREA 00005D00 - 00005D7F (0x80 bytes), align: 2
  Segment part 125. ROOT.
           ENTRY                   ADDRESS         REF BY
           =====                   =======         ======
           BOX09                   00005D00 
    -------------------------------------------------------------------------
CONFIG_C
  Relative segment, address: CODE_AREA 00005D80 - 00005DAB (0x2c bytes), align: 2
  Segment part 126. ROOT.
           ENTRY                   ADDRESS         REF BY
           =====                   =======         ======
           A09_1                   00005D80 
    -------------------------------------------------------------------------
CONFIG_C
  Relative segment, address: CODE_AREA 00005DAC - 00005DCB (0x20 bytes), align: 2
  Segment part 127. ROOT.
           ENTRY                   ADDRESS         REF BY
           =====                   =======         ======
           AN09                    00005DAC        InitMenu (main)
    -------------------------------------------------------------------------
CONFIG_C
  Relative segment, address: CODE_AREA 00005DCC - 00005DF7 (0x2c bytes), align: 2
  Segment part 128. ROOT.
           ENTRY                   ADDRESS         REF BY
           =====                   =======         ======
           A09_2                   00005DCC 
    -------------------------------------------------------------------------
CONFIG_C
  Relative segment, address: CODE_AREA 00005DF8 - 00005E2B (0x34 bytes), align: 2
  Segment part 129. ROOT.
           ENTRY                   ADDRESS         REF BY
           =====                   =======         ======
           AI09                    00005DF8        InitMenu (main)
    -------------------------------------------------------------------------
CONFIG_C
  Relative segment, address: CODE_AREA 00005E2C - 00005E57 (0x2c bytes), align: 2
  Segment part 130. ROOT.
           ENTRY                   ADDRESS         REF BY
           =====                   =======         ======
           A09_3                   00005E2C 
    -------------------------------------------------------------------------
CONFIG_C
  Relative segment, address: CODE_AREA 00005E58 - 00005E8B (0x34 bytes), align: 2
  Segment part 131. ROOT.
           ENTRY                   ADDRESS         REF BY
           =====                   =======         ======
           AF09                    00005E58        InitMenu (main)
    -------------------------------------------------------------------------
CONFIG_C
  Relative segment, address: CODE_AREA 00005E8C - 00005EB7 (0x2c bytes), align: 2
  Segment part 132. ROOT.
           ENTRY                   ADDRESS         REF BY
           =====                   =======         ======
           mA090                   00005E8C 
    -------------------------------------------------------------------------
CONFIG_C
  Relative segment, address: CODE_AREA 00005EB8 - 00005EE3 (0x2c bytes), align: 2
  Segment part 133. ROOT.
           ENTRY                   ADDRESS         REF BY
           =====                   =======         ======
           mA101                   00005EB8 
    -------------------------------------------------------------------------
CONFIG_C
  Relative segment, address: CODE_AREA 00005EE4 - 00005F0F (0x2c bytes), align: 2
  Segment part 134. ROOT.
           ENTRY                   ADDRESS         REF BY
           =====                   =======         ======
           A10_4                   00005EE4 
    -------------------------------------------------------------------------
CONFIG_C
  Relative segment, address: CODE_AREA 00005F10 - 00005F13 (0x4 bytes), align: 2
  Segment part 135. ROOT.
           ENTRY                   ADDRESS         REF BY
           =====                   =======         ======
           AT10                    00005F10        InitMenu (main)
    -------------------------------------------------------------------------
CONFIG_C
  Relative segment, address: CODE_AREA 00005F14 - 00005F93 (0x80 bytes), align: 2
  Segment part 136. ROOT.
           ENTRY                   ADDRESS         REF BY
           =====                   =======         ======
           BOX10                   00005F14 
    -------------------------------------------------------------------------
CONFIG_C
  Relative segment, address: CODE_AREA 00005F94 - 00005FBF (0x2c bytes), align: 2
  Segment part 137. ROOT.
           ENTRY                   ADDRESS         REF BY
           =====                   =======         ======
           A10_1                   00005F94 
    -------------------------------------------------------------------------
CONFIG_C
  Relative segment, address: CODE_AREA 00005FC0 - 00005FDF (0x20 bytes), align: 2
  Segment part 138. ROOT.
           ENTRY                   ADDRESS         REF BY
           =====                   =======         ======
           AN10                    00005FC0        InitMenu (main)
    -------------------------------------------------------------------------
CONFIG_C
  Relative segment, address: CODE_AREA 00005FE0 - 0000600B (0x2c bytes), align: 2
  Segment part 139. ROOT.
           ENTRY                   ADDRESS         REF BY
           =====                   =======         ======
           A10_2                   00005FE0 
    -------------------------------------------------------------------------
CONFIG_C
  Relative segment, address: CODE_AREA 0000600C - 0000603F (0x34 bytes), align: 2
  Segment part 140. ROOT.
           ENTRY                   ADDRESS         REF BY
           =====                   =======         ======
           AI10                    0000600C        InitMenu (main)
    -------------------------------------------------------------------------
CONFIG_C
  Relative segment, address: CODE_AREA 00006040 - 0000606B (0x2c bytes), align: 2
  Segment part 141. ROOT.
           ENTRY                   ADDRESS         REF BY
           =====                   =======         ======
           A10_3                   00006040 
    -------------------------------------------------------------------------
CONFIG_C
  Relative segment, address: CODE_AREA 0000606C - 0000609F (0x34 bytes), align: 2
  Segment part 142. ROOT.
           ENTRY                   ADDRESS         REF BY
           =====                   =======         ======
           AF10                    0000606C        InitMenu (main)
    -------------------------------------------------------------------------
CONFIG_C
  Relative segment, address: CODE_AREA 000060A0 - 000060CB (0x2c bytes), align: 2
  Segment part 143. ROOT.
           ENTRY                   ADDRESS         REF BY
           =====                   =======         ======
           mA100                   000060A0 
    -------------------------------------------------------------------------
CONFIG_C
  Relative segment, address: CODE_AREA 000060CC - 000060F7 (0x2c bytes), align: 2
  Segment part 144. ROOT.
           ENTRY                   ADDRESS         REF BY
           =====                   =======         ======
           mA111                   000060CC 
    -------------------------------------------------------------------------
CONFIG_C
  Relative segment, address: CODE_AREA 000060F8 - 00006123 (0x2c bytes), align: 2
  Segment part 145. ROOT.
           ENTRY                   ADDRESS         REF BY
           =====                   =======         ======
           A11_4                   000060F8 
    -------------------------------------------------------------------------
CONFIG_C
  Relative segment, address: CODE_AREA 00006124 - 00006127 (0x4 bytes), align: 2
  Segment part 146. ROOT.
           ENTRY                   ADDRESS         REF BY
           =====                   =======         ======
           AT11                    00006124        InitMenu (main)
    -------------------------------------------------------------------------
CONFIG_C
  Relative segment, address: CODE_AREA 00006128 - 000061A7 (0x80 bytes), align: 2
  Segment part 147. ROOT.
           ENTRY                   ADDRESS         REF BY
           =====                   =======         ======
           BOX11                   00006128 
    -------------------------------------------------------------------------
CONFIG_C
  Relative segment, address: CODE_AREA 000061A8 - 000061D3 (0x2c bytes), align: 2
  Segment part 148. ROOT.
           ENTRY                   ADDRESS         REF BY
           =====                   =======         ======
           A11_1                   000061A8 
    -------------------------------------------------------------------------
CONFIG_C
  Relative segment, address: CODE_AREA 000061D4 - 000061F3 (0x20 bytes), align: 2
  Segment part 149. ROOT.
           ENTRY                   ADDRESS         REF BY
           =====                   =======         ======
           AN11                    000061D4        InitMenu (main)
    -------------------------------------------------------------------------
CONFIG_C
  Relative segment, address: CODE_AREA 000061F4 - 0000621F (0x2c bytes), align: 2
  Segment part 150. ROOT.
           ENTRY                   ADDRESS         REF BY
           =====                   =======         ======
           A11_2                   000061F4 
    -------------------------------------------------------------------------
CONFIG_C
  Relative segment, address: CODE_AREA 00006220 - 00006253 (0x34 bytes), align: 2
  Segment part 151. ROOT.
           ENTRY                   ADDRESS         REF BY
           =====                   =======         ======
           AI11                    00006220        InitMenu (main)
    -------------------------------------------------------------------------
CONFIG_C
  Relative segment, address: CODE_AREA 00006254 - 0000627F (0x2c bytes), align: 2
  Segment part 152. ROOT.
           ENTRY                   ADDRESS         REF BY
           =====                   =======         ======
           A11_3                   00006254 
    -------------------------------------------------------------------------
CONFIG_C
  Relative segment, address: CODE_AREA 00006280 - 000062B3 (0x34 bytes), align: 2
  Segment part 153. ROOT.
           ENTRY                   ADDRESS         REF BY
           =====                   =======         ======
           AF11                    00006280        InitMenu (main)
    -------------------------------------------------------------------------
CONFIG_C
  Relative segment, address: CODE_AREA 000062B4 - 000062DF (0x2c bytes), align: 2
  Segment part 154. ROOT.
           ENTRY                   ADDRESS         REF BY
           =====                   =======         ======
           mA110                   000062B4 
    -------------------------------------------------------------------------
CONFIG_C
  Relative segment, address: CODE_AREA 000062E0 - 0000630B (0x2c bytes), align: 2
  Segment part 155. ROOT.
           ENTRY                   ADDRESS         REF BY
           =====                   =======         ======
           mA121                   000062E0 
    -------------------------------------------------------------------------
CONFIG_C
  Relative segment, address: CODE_AREA 0000630C - 00006337 (0x2c bytes), align: 2
  Segment part 156. ROOT.
           ENTRY                   ADDRESS         REF BY
           =====                   =======         ======
           A12_4                   0000630C 
    -------------------------------------------------------------------------
CONFIG_C
  Relative segment, address: CODE_AREA 00006338 - 0000633B (0x4 bytes), align: 2
  Segment part 157. ROOT.
           ENTRY                   ADDRESS         REF BY
           =====                   =======         ======
           AT12                    00006338        InitMenu (main)
    -------------------------------------------------------------------------
CONFIG_C
  Relative segment, address: CODE_AREA 0000633C - 000063BB (0x80 bytes), align: 2
  Segment part 158. ROOT.
           ENTRY                   ADDRESS         REF BY
           =====                   =======         ======
           BOX12                   0000633C 
    -------------------------------------------------------------------------
CONFIG_C
  Relative segment, address: CODE_AREA 000063BC - 000063E7 (0x2c bytes), align: 2
  Segment part 159. ROOT.
           ENTRY                   ADDRESS         REF BY
           =====                   =======         ======
           A12_1                   000063BC 
    -------------------------------------------------------------------------
CONFIG_C
  Relative segment, address: CODE_AREA 000063E8 - 00006407 (0x20 bytes), align: 2
  Segment part 160. ROOT.
           ENTRY                   ADDRESS         REF BY
           =====                   =======         ======
           AN12                    000063E8        InitMenu (main)
    -------------------------------------------------------------------------
CONFIG_C
  Relative segment, address: CODE_AREA 00006408 - 00006433 (0x2c bytes), align: 2
  Segment part 161. ROOT.
           ENTRY                   ADDRESS         REF BY
           =====                   =======         ======
           A12_2                   00006408 
    -------------------------------------------------------------------------
CONFIG_C
  Relative segment, address: CODE_AREA 00006434 - 00006467 (0x34 bytes), align: 2
  Segment part 162. ROOT.
           ENTRY                   ADDRESS         REF BY
           =====                   =======         ======
           AI12                    00006434        InitMenu (main)
    -------------------------------------------------------------------------
CONFIG_C
  Relative segment, address: CODE_AREA 00006468 - 00006493 (0x2c bytes), align: 2
  Segment part 163. ROOT.
           ENTRY                   ADDRESS         REF BY
           =====                   =======         ======
           A12_3                   00006468 
    -------------------------------------------------------------------------
CONFIG_C
  Relative segment, address: CODE_AREA 00006494 - 000064C7 (0x34 bytes), align: 2
  Segment part 164. ROOT.
           ENTRY                   ADDRESS         REF BY
           =====                   =======         ======
           AF12                    00006494        InitMenu (main)
    -------------------------------------------------------------------------
CONFIG_C
  Relative segment, address: CODE_AREA 000064C8 - 000064F3 (0x2c bytes), align: 2
  Segment part 165. ROOT.
           ENTRY                   ADDRESS         REF BY
           =====                   =======         ======
           mA120                   000064C8 
    -------------------------------------------------------------------------
CONFIG_C
  Relative segment, address: CODE_AREA 000064F4 - 0000651F (0x2c bytes), align: 2
  Segment part 166. ROOT.
           ENTRY                   ADDRESS         REF BY
           =====                   =======         ======
           mA131                   000064F4 
    -------------------------------------------------------------------------
CONFIG_C
  Relative segment, address: CODE_AREA 00006520 - 0000654B (0x2c bytes), align: 2
  Segment part 167. ROOT.
           ENTRY                   ADDRESS         REF BY
           =====                   =======         ======
           A13_4                   00006520 
    -------------------------------------------------------------------------
CONFIG_C
  Relative segment, address: CODE_AREA 0000654C - 0000654F (0x4 bytes), align: 2
  Segment part 168. ROOT.
           ENTRY                   ADDRESS         REF BY
           =====                   =======         ======
           AT13                    0000654C        InitMenu (main)
    -------------------------------------------------------------------------
CONFIG_C
  Relative segment, address: CODE_AREA 00006550 - 000065CF (0x80 bytes), align: 2
  Segment part 169. ROOT.
           ENTRY                   ADDRESS         REF BY
           =====                   =======         ======
           BOX13                   00006550 
    -------------------------------------------------------------------------
CONFIG_C
  Relative segment, address: CODE_AREA 000065D0 - 000065FB (0x2c bytes), align: 2
  Segment part 170. ROOT.
           ENTRY                   ADDRESS         REF BY
           =====                   =======         ======
           A13_1                   000065D0 
    -------------------------------------------------------------------------
CONFIG_C
  Relative segment, address: CODE_AREA 000065FC - 0000661B (0x20 bytes), align: 2
  Segment part 171. ROOT.
           ENTRY                   ADDRESS         REF BY
           =====                   =======         ======
           AN13                    000065FC        InitMenu (main)
    -------------------------------------------------------------------------
CONFIG_C
  Relative segment, address: CODE_AREA 0000661C - 00006647 (0x2c bytes), align: 2
  Segment part 172. ROOT.
           ENTRY                   ADDRESS         REF BY
           =====                   =======         ======
           A13_2                   0000661C 
    -------------------------------------------------------------------------
CONFIG_C
  Relative segment, address: CODE_AREA 00006648 - 0000667B (0x34 bytes), align: 2
  Segment part 173. ROOT.
           ENTRY                   ADDRESS         REF BY
           =====                   =======         ======
           AI13                    00006648        InitMenu (main)
    -------------------------------------------------------------------------
CONFIG_C
  Relative segment, address: CODE_AREA 0000667C - 000066A7 (0x2c bytes), align: 2
  Segment part 174. ROOT.
           ENTRY                   ADDRESS         REF BY
           =====                   =======         ======
           A13_3                   0000667C 
    -------------------------------------------------------------------------
CONFIG_C
  Relative segment, address: CODE_AREA 000066A8 - 000066DB (0x34 bytes), align: 2
  Segment part 175. ROOT.
           ENTRY                   ADDRESS         REF BY
           =====                   =======         ======
           AF13                    000066A8        InitMenu (main)
    -------------------------------------------------------------------------
CONFIG_C
  Relative segment, address: CODE_AREA 000066DC - 00006707 (0x2c bytes), align: 2
  Segment part 176. ROOT.
           ENTRY                   ADDRESS         REF BY
           =====                   =======         ======
           mA130                   000066DC 
    -------------------------------------------------------------------------
CONFIG_C
  Relative segment, address: CODE_AREA 00006708 - 00006733 (0x2c bytes), align: 2
  Segment part 177. ROOT.
           ENTRY                   ADDRESS         REF BY
           =====                   =======         ======
           mAPP0                   00006708 
    -------------------------------------------------------------------------
CONFIG_C
  Relative segment, address: CODE_AREA 00006734 - 0000675F (0x2c bytes), align: 2
  Segment part 178. ROOT.
           ENTRY                   ADDRESS         REF BY
           =====                   =======         ======
           SCR1                    00006734 
    -------------------------------------------------------------------------
CONFIG_C
  Relative segment, address: CODE_AREA 00006760 - 0000678B (0x2c bytes), align: 2
  Segment part 179. ROOT.
           ENTRY                   ADDRESS         REF BY
           =====                   =======         ======
           SCR21                   00006760 
    -------------------------------------------------------------------------
CONFIG_C
  Relative segment, address: CODE_AREA 0000678C - 000067B7 (0x2c bytes), align: 2
  Segment part 180. ROOT.
           ENTRY                   ADDRESS         REF BY
           =====                   =======         ======
           SCR2_1                  0000678C 
    -------------------------------------------------------------------------
CONFIG_C
  Relative segment, address: CODE_AREA 000067B8 - 000067BB (0x4 bytes), align: 2
  Segment part 181. ROOT.
           ENTRY                   ADDRESS         REF BY
           =====                   =======         ======
           TEMP_ENA                000067B8        InitShow (main)
    -------------------------------------------------------------------------
CONFIG_C
  Relative segment, address: CODE_AREA 000067BC - 000067E7 (0x2c bytes), align: 2
  Segment part 182. ROOT.
           ENTRY                   ADDRESS         REF BY
           =====                   =======         ======
           SCR2_2                  000067BC 
    -------------------------------------------------------------------------
CONFIG_C
  Relative segment, address: CODE_AREA 000067E8 - 000067EB (0x4 bytes), align: 2
  Segment part 183. ROOT.
           ENTRY                   ADDRESS         REF BY
           =====                   =======         ======
           TEMP_X                  000067E8        InitScreen (main)
    -------------------------------------------------------------------------
CONFIG_C
  Relative segment, address: CODE_AREA 000067EC - 000067EF (0x4 bytes), align: 2
  Segment part 184. ROOT.
           ENTRY                   ADDRESS         REF BY
           =====                   =======         ======
           TEMP_Y                  000067EC        InitScreen (main)
    -------------------------------------------------------------------------
CONFIG_C
  Relative segment, address: CODE_AREA 000067F0 - 0000681B (0x2c bytes), align: 2
  Segment part 185. ROOT.
           ENTRY                   ADDRESS         REF BY
           =====                   =======         ======
           SCR2_3                  000067F0 
    -------------------------------------------------------------------------
CONFIG_C
  Relative segment, address: CODE_AREA 0000681C - 0000681F (0x4 bytes), align: 2
  Segment part 186. ROOT.
           ENTRY                   ADDRESS         REF BY
           =====                   =======         ======
           TEMP_CS                 0000681C        InitShow (main)
    -------------------------------------------------------------------------
CONFIG_C
  Relative segment, address: CODE_AREA 00006820 - 0000684B (0x2c bytes), align: 2
  Segment part 187. ROOT.
           ENTRY                   ADDRESS         REF BY
           =====                   =======         ======
           SCR2_4                  00006820 
    -------------------------------------------------------------------------
CONFIG_C
  Relative segment, address: CODE_AREA 0000684C - 0000684F (0x4 bytes), align: 2
  Segment part 188. ROOT.
           ENTRY                   ADDRESS         REF BY
           =====                   =======         ======
           TEMP_CB                 0000684C        InitShow (main)
    -------------------------------------------------------------------------
CONFIG_C
  Relative segment, address: CODE_AREA 00006850 - 0000687B (0x2c bytes), align: 2
  Segment part 189. ROOT.
           ENTRY                   ADDRESS         REF BY
           =====                   =======         ======
           SCR2_5                  00006850 
    -------------------------------------------------------------------------
CONFIG_C
  Relative segment, address: CODE_AREA 0000687C - 0000687F (0x4 bytes), align: 2
  Segment part 190. ROOT.
           ENTRY                   ADDRESS         REF BY
           =====                   =======         ======
           TEMP_T                  0000687C        InitShow (main)
    -------------------------------------------------------------------------
CONFIG_C
  Relative segment, address: CODE_AREA 00006880 - 000068AB (0x2c bytes), align: 2
  Segment part 191. ROOT.
           ENTRY                   ADDRESS         REF BY
           =====                   =======         ======
           SCR2_6                  00006880 
    -------------------------------------------------------------------------
CONFIG_C
  Relative segment, address: CODE_AREA 000068AC - 000068AF (0x4 bytes), align: 2
  Segment part 192. ROOT.
           ENTRY                   ADDRESS         REF BY
           =====                   =======         ======
           TEMP_FT                 000068AC        InitShow (main)
    -------------------------------------------------------------------------
CONFIG_C
  Relative segment, address: CODE_AREA 000068B0 - 000068DB (0x2c bytes), align: 2
  Segment part 193. ROOT.
           ENTRY                   ADDRESS         REF BY
           =====                   =======         ======
           SCR20                   000068B0 
    -------------------------------------------------------------------------
CONFIG_C
  Relative segment, address: CODE_AREA 000068DC - 00006907 (0x2c bytes), align: 2
  Segment part 194. ROOT.
           ENTRY                   ADDRESS         REF BY
           =====                   =======         ======
           SCR31                   000068DC 
    -------------------------------------------------------------------------
CONFIG_C
  Relative segment, address: CODE_AREA 00006908 - 00006933 (0x2c bytes), align: 2
  Segment part 195. ROOT.
           ENTRY                   ADDRESS         REF BY
           =====                   =======         ======
           SCR3_1                  00006908 
    -------------------------------------------------------------------------
CONFIG_C
  Relative segment, address: CODE_AREA 00006934 - 00006937 (0x4 bytes), align: 2
  Segment part 196. ROOT.
           ENTRY                   ADDRESS         REF BY
           =====                   =======         ======
           VOLT_ENA                00006934        InitShow (main)
    -------------------------------------------------------------------------
CONFIG_C
  Relative segment, address: CODE_AREA 00006938 - 00006963 (0x2c bytes), align: 2
  Segment part 197. ROOT.
           ENTRY                   ADDRESS         REF BY
           =====                   =======         ======
           SCR3_2                  00006938 
    -------------------------------------------------------------------------
CONFIG_C
  Relative segment, address: CODE_AREA 00006964 - 00006967 (0x4 bytes), align: 2
  Segment part 198. ROOT.
           ENTRY                   ADDRESS         REF BY
           =====                   =======         ======
           VOLT_M                  00006964        InitScreen (main)
    -------------------------------------------------------------------------
CONFIG_C
  Relative segment, address: CODE_AREA 00006968 - 000069A7 (0x40 bytes), align: 2
  Segment part 199. ROOT.
           ENTRY                   ADDRESS         REF BY
           =====                   =======         ======
           BOX33                   00006968 
    -------------------------------------------------------------------------
CONFIG_C
  Relative segment, address: CODE_AREA 000069A8 - 000069D3 (0x2c bytes), align: 2
  Segment part 200. ROOT.
           ENTRY                   ADDRESS         REF BY
           =====                   =======         ======
           SCR3_3                  000069A8 
    -------------------------------------------------------------------------
CONFIG_C
  Relative segment, address: CODE_AREA 000069D4 - 000069D7 (0x4 bytes), align: 2
  Segment part 201. ROOT.
           ENTRY                   ADDRESS         REF BY
           =====                   =======         ======
           VOLT_X                  000069D4        InitScreen (main)
    -------------------------------------------------------------------------
CONFIG_C
  Relative segment, address: CODE_AREA 000069D8 - 000069DB (0x4 bytes), align: 2
  Segment part 202. ROOT.
           ENTRY                   ADDRESS         REF BY
           =====                   =======         ======
           VOLT_Y                  000069D8        InitScreen (main)
    -------------------------------------------------------------------------
CONFIG_C
  Relative segment, address: CODE_AREA 000069DC - 00006A07 (0x2c bytes), align: 2
  Segment part 203. ROOT.
           ENTRY                   ADDRESS         REF BY
           =====                   =======         ======
           SCR3_4                  000069DC 
    -------------------------------------------------------------------------
CONFIG_C
  Relative segment, address: CODE_AREA 00006A08 - 00006A0B (0x4 bytes), align: 2
  Segment part 204. ROOT.
           ENTRY                   ADDRESS         REF BY
           =====                   =======         ======
           VOLT_CS                 00006A08        InitShow (main)
    -------------------------------------------------------------------------
CONFIG_C
  Relative segment, address: CODE_AREA 00006A0C - 00006A37 (0x2c bytes), align: 2
  Segment part 205. ROOT.
           ENTRY                   ADDRESS         REF BY
           =====                   =======         ======
           SCR3_5                  00006A0C 
    -------------------------------------------------------------------------
CONFIG_C
  Relative segment, address: CODE_AREA 00006A38 - 00006A3B (0x4 bytes), align: 2
  Segment part 206. ROOT.
           ENTRY                   ADDRESS         REF BY
           =====                   =======         ======
           VOLT_CB                 00006A38        InitShow (main)
    -------------------------------------------------------------------------
CONFIG_C
  Relative segment, address: CODE_AREA 00006A3C - 00006A67 (0x2c bytes), align: 2
  Segment part 207. ROOT.
           ENTRY                   ADDRESS         REF BY
           =====                   =======         ======
           SCR3_6                  00006A3C 
    -------------------------------------------------------------------------
CONFIG_C
  Relative segment, address: CODE_AREA 00006A68 - 00006A6B (0x4 bytes), align: 2
  Segment part 208. ROOT.
           ENTRY                   ADDRESS         REF BY
           =====                   =======         ======
           VOLT_T                  00006A68        InitShow (main)
    -------------------------------------------------------------------------
CONFIG_C
  Relative segment, address: CODE_AREA 00006A6C - 00006A97 (0x2c bytes), align: 2
  Segment part 209. ROOT.
           ENTRY                   ADDRESS         REF BY
           =====                   =======         ======
           SCR3_7                  00006A6C 
    -------------------------------------------------------------------------
CONFIG_C
  Relative segment, address: CODE_AREA 00006A98 - 00006A9B (0x4 bytes), align: 2
  Segment part 210. ROOT.
           ENTRY                   ADDRESS         REF BY
           =====                   =======         ======
           VOLT_FT                 00006A98        InitShow (main)
    -------------------------------------------------------------------------
CONFIG_C
  Relative segment, address: CODE_AREA 00006A9C - 00006AC7 (0x2c bytes), align: 2
  Segment part 211. ROOT.
           ENTRY                   ADDRESS         REF BY
           =====                   =======         ======
           SCR30                   00006A9C 
    -------------------------------------------------------------------------
CONFIG_C
  Relative segment, address: CODE_AREA 00006AC8 - 00006AF3 (0x2c bytes), align: 2
  Segment part 212. ROOT.
           ENTRY                   ADDRESS         REF BY
           =====                   =======         ======
           SCR41                   00006AC8 
    -------------------------------------------------------------------------
CONFIG_C
  Relative segment, address: CODE_AREA 00006AF4 - 00006B1F (0x2c bytes), align: 2
  Segment part 213. ROOT.
           ENTRY                   ADDRESS         REF BY
           =====                   =======         ======
           SCR4_1                  00006AF4 
    -------------------------------------------------------------------------
CONFIG_C
  Relative segment, address: CODE_AREA 00006B20 - 00006B23 (0x4 bytes), align: 2
  Segment part 214. ROOT.
           ENTRY                   ADDRESS         REF BY
           =====                   =======         ======
           RAMT_ENA                00006B20        InitShow (main)
    -------------------------------------------------------------------------
CONFIG_C
  Relative segment, address: CODE_AREA 00006B24 - 00006B4F (0x2c bytes), align: 2
  Segment part 215. ROOT.
           ENTRY                   ADDRESS         REF BY
           =====                   =======         ======
           SCR4_2                  00006B24 
    -------------------------------------------------------------------------
CONFIG_C
  Relative segment, address: CODE_AREA 00006B50 - 00006B53 (0x4 bytes), align: 2
  Segment part 216. ROOT.
           ENTRY                   ADDRESS         REF BY
           =====                   =======         ======
           RAMT_X                  00006B50        InitScreen (main)
    -------------------------------------------------------------------------
CONFIG_C
  Relative segment, address: CODE_AREA 00006B54 - 00006B57 (0x4 bytes), align: 2
  Segment part 217. ROOT.
           ENTRY                   ADDRESS         REF BY
           =====                   =======         ======
           RAMT_Y                  00006B54        InitScreen (main)
    -------------------------------------------------------------------------
CONFIG_C
  Relative segment, address: CODE_AREA 00006B58 - 00006B83 (0x2c bytes), align: 2
  Segment part 218. ROOT.
           ENTRY                   ADDRESS         REF BY
           =====                   =======         ======
           SCR4_3                  00006B58 
    -------------------------------------------------------------------------
CONFIG_C
  Relative segment, address: CODE_AREA 00006B84 - 00006B87 (0x4 bytes), align: 2
  Segment part 219. ROOT.
           ENTRY                   ADDRESS         REF BY
           =====                   =======         ======
           RAMT_CS                 00006B84        InitShow (main)
    -------------------------------------------------------------------------
CONFIG_C
  Relative segment, address: CODE_AREA 00006B88 - 00006BB3 (0x2c bytes), align: 2
  Segment part 220. ROOT.
           ENTRY                   ADDRESS         REF BY
           =====                   =======         ======
           SCR4_4                  00006B88 
    -------------------------------------------------------------------------
CONFIG_C
  Relative segment, address: CODE_AREA 00006BB4 - 00006BB7 (0x4 bytes), align: 2
  Segment part 221. ROOT.
           ENTRY                   ADDRESS         REF BY
           =====                   =======         ======
           RAMT_CB                 00006BB4        InitShow (main)
    -------------------------------------------------------------------------
CONFIG_C
  Relative segment, address: CODE_AREA 00006BB8 - 00006BE3 (0x2c bytes), align: 2
  Segment part 222. ROOT.
           ENTRY                   ADDRESS         REF BY
           =====                   =======         ======
           SCR4_5                  00006BB8 
    -------------------------------------------------------------------------
CONFIG_C
  Relative segment, address: CODE_AREA 00006BE4 - 00006BE7 (0x4 bytes), align: 2
  Segment part 223. ROOT.
           ENTRY                   ADDRESS         REF BY
           =====                   =======         ======
           RAMT_T                  00006BE4        InitShow (main)
    -------------------------------------------------------------------------
CONFIG_C
  Relative segment, address: CODE_AREA 00006BE8 - 00006C13 (0x2c bytes), align: 2
  Segment part 224. ROOT.
           ENTRY                   ADDRESS         REF BY
           =====                   =======         ======
           SCR4_6                  00006BE8 
    -------------------------------------------------------------------------
CONFIG_C
  Relative segment, address: CODE_AREA 00006C14 - 00006C17 (0x4 bytes), align: 2
  Segment part 225. ROOT.
           ENTRY                   ADDRESS         REF BY
           =====                   =======         ======
           RAMT_FT                 00006C14        InitShow (main)
    -------------------------------------------------------------------------
CONFIG_C
  Relative segment, address: CODE_AREA 00006C18 - 00006C43 (0x2c bytes), align: 2
  Segment part 226. ROOT.
           ENTRY                   ADDRESS         REF BY
           =====                   =======         ======
           SCR40                   00006C18 
    -------------------------------------------------------------------------
CONFIG_C
  Relative segment, address: CODE_AREA 00006C44 - 00006C6F (0x2c bytes), align: 2
  Segment part 227. ROOT.
           ENTRY                   ADDRESS         REF BY
           =====                   =======         ======
           SCR51                   00006C44 
    -------------------------------------------------------------------------
CONFIG_C
  Relative segment, address: CODE_AREA 00006C70 - 00006C9B (0x2c bytes), align: 2
  Segment part 228. ROOT.
           ENTRY                   ADDRESS         REF BY
           =====                   =======         ======
           SCR5_1                  00006C70 
    -------------------------------------------------------------------------
CONFIG_C
  Relative segment, address: CODE_AREA 00006C9C - 00006C9F (0x4 bytes), align: 2
  Segment part 229. ROOT.
           ENTRY                   ADDRESS         REF BY
           =====                   =======         ======
           NETI_ENA                00006C9C        InitShow (main)
    -------------------------------------------------------------------------
CONFIG_C
  Relative segment, address: CODE_AREA 00006CA0 - 00006CCB (0x2c bytes), align: 2
  Segment part 230. ROOT.
           ENTRY                   ADDRESS         REF BY
           =====                   =======         ======
           SCR5_2                  00006CA0 
    -------------------------------------------------------------------------
CONFIG_C
  Relative segment, address: CODE_AREA 00006CCC - 00006CCF (0x4 bytes), align: 2
  Segment part 231. ROOT.
           ENTRY                   ADDRESS         REF BY
           =====                   =======         ======
           NETI_X                  00006CCC        InitScreen (main)
    -------------------------------------------------------------------------
CONFIG_C
  Relative segment, address: CODE_AREA 00006CD0 - 00006CD3 (0x4 bytes), align: 2
  Segment part 232. ROOT.
           ENTRY                   ADDRESS         REF BY
           =====                   =======         ======
           NETI_Y                  00006CD0        InitScreen (main)
    -------------------------------------------------------------------------
CONFIG_C
  Relative segment, address: CODE_AREA 00006CD4 - 00006CFF (0x2c bytes), align: 2
  Segment part 233. ROOT.
           ENTRY                   ADDRESS         REF BY
           =====                   =======         ======
           SCR5_3                  00006CD4 
    -------------------------------------------------------------------------
CONFIG_C
  Relative segment, address: CODE_AREA 00006D00 - 00006D03 (0x4 bytes), align: 2
  Segment part 234. ROOT.
           ENTRY                   ADDRESS         REF BY
           =====                   =======         ======
           NETI_CS                 00006D00        InitShow (main)
    -------------------------------------------------------------------------
CONFIG_C
  Relative segment, address: CODE_AREA 00006D04 - 00006D2F (0x2c bytes), align: 2
  Segment part 235. ROOT.
           ENTRY                   ADDRESS         REF BY
           =====                   =======         ======
           SCR5_4                  00006D04 
    -------------------------------------------------------------------------
CONFIG_C
  Relative segment, address: CODE_AREA 00006D30 - 00006D33 (0x4 bytes), align: 2
  Segment part 236. ROOT.
           ENTRY                   ADDRESS         REF BY
           =====                   =======         ======
           NETI_CB                 00006D30        InitShow (main)
    -------------------------------------------------------------------------
CONFIG_C
  Relative segment, address: CODE_AREA 00006D34 - 00006D5F (0x2c bytes), align: 2
  Segment part 237. ROOT.
           ENTRY                   ADDRESS         REF BY
           =====                   =======         ======
           SCR5_5                  00006D34 
    -------------------------------------------------------------------------
CONFIG_C
  Relative segment, address: CODE_AREA 00006D60 - 00006D63 (0x4 bytes), align: 2
  Segment part 238. ROOT.
           ENTRY                   ADDRESS         REF BY
           =====                   =======         ======
           NETI_T                  00006D60        InitShow (main)
    -------------------------------------------------------------------------
CONFIG_C
  Relative segment, address: CODE_AREA 00006D64 - 00006D8F (0x2c bytes), align: 2
  Segment part 239. ROOT.
           ENTRY                   ADDRESS         REF BY
           =====                   =======         ======
           SCR5_6                  00006D64 
    -------------------------------------------------------------------------
CONFIG_C
  Relative segment, address: CODE_AREA 00006D90 - 00006D93 (0x4 bytes), align: 2
  Segment part 240. ROOT.
           ENTRY                   ADDRESS         REF BY
           =====                   =======         ======
           NETI_FT                 00006D90        InitShow (main)
    -------------------------------------------------------------------------
CONFIG_C
  Relative segment, address: CODE_AREA 00006D94 - 00006DBF (0x2c bytes), align: 2
  Segment part 241. ROOT.
           ENTRY                   ADDRESS         REF BY
           =====                   =======         ======
           SCR50                   00006D94 
    -------------------------------------------------------------------------
CONFIG_C
  Relative segment, address: CODE_AREA 00006DC0 - 00006DEB (0x2c bytes), align: 2
  Segment part 242. ROOT.
           ENTRY                   ADDRESS         REF BY
           =====                   =======         ======
           SCR61                   00006DC0 
    -------------------------------------------------------------------------
CONFIG_C
  Relative segment, address: CODE_AREA 00006DEC - 00006E17 (0x2c bytes), align: 2
  Segment part 243. ROOT.
           ENTRY                   ADDRESS         REF BY
           =====                   =======         ======
           SCR6_1                  00006DEC 
    -------------------------------------------------------------------------
CONFIG_C
  Relative segment, address: CODE_AREA 00006E18 - 00006E1B (0x4 bytes), align: 2
  Segment part 244. ROOT.
           ENTRY                   ADDRESS         REF BY
           =====                   =======         ======
           MGPS_ENA                00006E18        InitShow (main)
    -------------------------------------------------------------------------
CONFIG_C
  Relative segment, address: CODE_AREA 00006E1C - 00006E47 (0x2c bytes), align: 2
  Segment part 245. ROOT.
           ENTRY                   ADDRESS         REF BY
           =====                   =======         ======
           SCR6_2                  00006E1C 
    -------------------------------------------------------------------------
CONFIG_C
  Relative segment, address: CODE_AREA 00006E48 - 00006E4B (0x4 bytes), align: 2
  Segment part 246. ROOT.
           ENTRY                   ADDRESS         REF BY
           =====                   =======         ======
           MGPS_X                  00006E48        InitScreen (main)
    -------------------------------------------------------------------------
CONFIG_C
  Relative segment, address: CODE_AREA 00006E4C - 00006E4F (0x4 bytes), align: 2
  Segment part 247. ROOT.
           ENTRY                   ADDRESS         REF BY
           =====                   =======         ======
           MGPS_Y                  00006E4C        InitScreen (main)
    -------------------------------------------------------------------------
CONFIG_C
  Relative segment, address: CODE_AREA 00006E50 - 00006E7B (0x2c bytes), align: 2
  Segment part 248. ROOT.
           ENTRY                   ADDRESS         REF BY
           =====                   =======         ======
           SCR6_3                  00006E50 
    -------------------------------------------------------------------------
CONFIG_C
  Relative segment, address: CODE_AREA 00006E7C - 00006E7F (0x4 bytes), align: 2
  Segment part 249. ROOT.
           ENTRY                   ADDRESS         REF BY
           =====                   =======         ======
           MGPS_CS                 00006E7C        InitShow (main)
    -------------------------------------------------------------------------
CONFIG_C
  Relative segment, address: CODE_AREA 00006E80 - 00006EAB (0x2c bytes), align: 2
  Segment part 250. ROOT.
           ENTRY                   ADDRESS         REF BY
           =====                   =======         ======
           SCR6_4                  00006E80 
    -------------------------------------------------------------------------
CONFIG_C
  Relative segment, address: CODE_AREA 00006EAC - 00006EAF (0x4 bytes), align: 2
  Segment part 251. ROOT.
           ENTRY                   ADDRESS         REF BY
           =====                   =======         ======
           MGPS_CB                 00006EAC        InitShow (main)
    -------------------------------------------------------------------------
CONFIG_C
  Relative segment, address: CODE_AREA 00006EB0 - 00006EDB (0x2c bytes), align: 2
  Segment part 252. ROOT.
           ENTRY                   ADDRESS         REF BY
           =====                   =======         ======
           SCR6_5                  00006EB0 
    -------------------------------------------------------------------------
CONFIG_C
  Relative segment, address: CODE_AREA 00006EDC - 00006EDF (0x4 bytes), align: 2
  Segment part 253. ROOT.
           ENTRY                   ADDRESS         REF BY
           =====                   =======         ======
           MGPS_T                  00006EDC        InitShow (main)
    -------------------------------------------------------------------------
CONFIG_C
  Relative segment, address: CODE_AREA 00006EE0 - 00006F0B (0x2c bytes), align: 2
  Segment part 254. ROOT.
           ENTRY                   ADDRESS         REF BY
           =====                   =======         ======
           SCR6_6                  00006EE0 
    -------------------------------------------------------------------------
CONFIG_C
  Relative segment, address: CODE_AREA 00006F0C - 00006F0F (0x4 bytes), align: 2
  Segment part 255. ROOT.
           ENTRY                   ADDRESS         REF BY
           =====                   =======         ======
           MGPS_FT                 00006F0C        InitShow (main)
    -------------------------------------------------------------------------
CONFIG_C
  Relative segment, address: CODE_AREA 00006F10 - 00006F3B (0x2c bytes), align: 2
  Segment part 256. ROOT.
           ENTRY                   ADDRESS         REF BY
           =====                   =======         ======
           SCR60                   00006F10 
    -------------------------------------------------------------------------
CONFIG_C
  Relative segment, address: CODE_AREA 00006F3C - 00006F67 (0x2c bytes), align: 2
  Segment part 257. ROOT.
           ENTRY                   ADDRESS         REF BY
           =====                   =======         ======
           SCR71                   00006F3C 
    -------------------------------------------------------------------------
CONFIG_C
  Relative segment, address: CODE_AREA 00006F68 - 00006F93 (0x2c bytes), align: 2
  Segment part 258. ROOT.
           ENTRY                   ADDRESS         REF BY
           =====                   =======         ======
           SCR7_1                  00006F68 
    -------------------------------------------------------------------------
CONFIG_C
  Relative segment, address: CODE_AREA 00006F94 - 00006F97 (0x4 bytes), align: 2
  Segment part 259. ROOT.
           ENTRY                   ADDRESS         REF BY
           =====                   =======         ======
           GPRS_ENA                00006F94        InitShow (main)
    -------------------------------------------------------------------------
CONFIG_C
  Relative segment, address: CODE_AREA 00006F98 - 00006FC3 (0x2c bytes), align: 2
  Segment part 260. ROOT.
           ENTRY                   ADDRESS         REF BY
           =====                   =======         ======
           SCR7_2                  00006F98 
    -------------------------------------------------------------------------
CONFIG_C
  Relative segment, address: CODE_AREA 00006FC4 - 00006FC7 (0x4 bytes), align: 2
  Segment part 261. ROOT.
           ENTRY                   ADDRESS         REF BY
           =====                   =======         ======
           GPRS_X                  00006FC4        InitScreen (main)
    -------------------------------------------------------------------------
CONFIG_C
  Relative segment, address: CODE_AREA 00006FC8 - 00006FCB (0x4 bytes), align: 2
  Segment part 262. ROOT.
           ENTRY                   ADDRESS         REF BY
           =====                   =======         ======
           GPRS_Y                  00006FC8        InitScreen (main)
    -------------------------------------------------------------------------
CONFIG_C
  Relative segment, address: CODE_AREA 00006FCC - 00006FF7 (0x2c bytes), align: 2
  Segment part 263. ROOT.
           ENTRY                   ADDRESS         REF BY
           =====                   =======         ======
           SCR7_3                  00006FCC 
    -------------------------------------------------------------------------
CONFIG_C
  Relative segment, address: CODE_AREA 00006FF8 - 00006FFB (0x4 bytes), align: 2
  Segment part 264. ROOT.
           ENTRY                   ADDRESS         REF BY
           =====                   =======         ======
           GPRS_CS                 00006FF8        InitShow (main)
    -------------------------------------------------------------------------
CONFIG_C
  Relative segment, address: CODE_AREA 00006FFC - 00007027 (0x2c bytes), align: 2
  Segment part 265. ROOT.
           ENTRY                   ADDRESS         REF BY
           =====                   =======         ======
           SCR7_4                  00006FFC 
    -------------------------------------------------------------------------
CONFIG_C
  Relative segment, address: CODE_AREA 00007028 - 0000702B (0x4 bytes), align: 2
  Segment part 266. ROOT.
           ENTRY                   ADDRESS         REF BY
           =====                   =======         ======
           GPRS_CB                 00007028        InitShow (main)
    -------------------------------------------------------------------------
CONFIG_C
  Relative segment, address: CODE_AREA 0000702C - 00007057 (0x2c bytes), align: 2
  Segment part 267. ROOT.
           ENTRY                   ADDRESS         REF BY
           =====                   =======         ======
           SCR7_5                  0000702C 
    -------------------------------------------------------------------------
CONFIG_C
  Relative segment, address: CODE_AREA 00007058 - 0000705B (0x4 bytes), align: 2
  Segment part 268. ROOT.
           ENTRY                   ADDRESS         REF BY
           =====                   =======         ======
           GPRS_T                  00007058        InitShow (main)
    -------------------------------------------------------------------------
CONFIG_C
  Relative segment, address: CODE_AREA 0000705C - 00007087 (0x2c bytes), align: 2
  Segment part 269. ROOT.
           ENTRY                   ADDRESS         REF BY
           =====                   =======         ======
           SCR7_6                  0000705C 
    -------------------------------------------------------------------------
CONFIG_C
  Relative segment, address: CODE_AREA 00007088 - 0000708B (0x4 bytes), align: 2
  Segment part 270. ROOT.
           ENTRY                   ADDRESS         REF BY
           =====                   =======         ======
           GPRS_FT                 00007088        InitShow (main)
    -------------------------------------------------------------------------
CONFIG_C
  Relative segment, address: CODE_AREA 0000708C - 000070B7 (0x2c bytes), align: 2
  Segment part 271. ROOT.
           ENTRY                   ADDRESS         REF BY
           =====                   =======         ======
           SCR70                   0000708C 
    -------------------------------------------------------------------------
CONFIG_C
  Relative segment, address: CODE_AREA 000070B8 - 000070E3 (0x2c bytes), align: 2
  Segment part 272. ROOT.
           ENTRY                   ADDRESS         REF BY
           =====                   =======         ======
           SCR81                   000070B8 
    -------------------------------------------------------------------------
CONFIG_C
  Relative segment, address: CODE_AREA 000070E4 - 0000710F (0x2c bytes), align: 2
  Segment part 273. ROOT.
           ENTRY                   ADDRESS         REF BY
           =====                   =======         ======
           SCR8_1                  000070E4 
    -------------------------------------------------------------------------
CONFIG_C
  Relative segment, address: CODE_AREA 00007110 - 00007113 (0x4 bytes), align: 2
  Segment part 274. ROOT.
           ENTRY                   ADDRESS         REF BY
           =====                   =======         ======
           CPUI_ENA                00007110        InitShow (main)
    -------------------------------------------------------------------------
CONFIG_C
  Relative segment, address: CODE_AREA 00007114 - 0000713F (0x2c bytes), align: 2
  Segment part 275. ROOT.
           ENTRY                   ADDRESS         REF BY
           =====                   =======         ======
           SCR8_2                  00007114 
    -------------------------------------------------------------------------
CONFIG_C
  Relative segment, address: CODE_AREA 00007140 - 00007143 (0x4 bytes), align: 2
  Segment part 276. ROOT.
           ENTRY                   ADDRESS         REF BY
           =====                   =======         ======
           CPUI_X                  00007140        InitScreen (main)
    -------------------------------------------------------------------------
CONFIG_C
  Relative segment, address: CODE_AREA 00007144 - 00007147 (0x4 bytes), align: 2
  Segment part 277. ROOT.
           ENTRY                   ADDRESS         REF BY
           =====                   =======         ======
           CPUI_Y                  00007144        InitScreen (main)
    -------------------------------------------------------------------------
CONFIG_C
  Relative segment, address: CODE_AREA 00007148 - 00007173 (0x2c bytes), align: 2
  Segment part 278. ROOT.
           ENTRY                   ADDRESS         REF BY
           =====                   =======         ======
           SCR8_3                  00007148 
    -------------------------------------------------------------------------
CONFIG_C
  Relative segment, address: CODE_AREA 00007174 - 00007177 (0x4 bytes), align: 2
  Segment part 279. ROOT.
           ENTRY                   ADDRESS         REF BY
           =====                   =======         ======
           CPUI_CS                 00007174        InitShow (main)
    -------------------------------------------------------------------------
CONFIG_C
  Relative segment, address: CODE_AREA 00007178 - 000071A3 (0x2c bytes), align: 2
  Segment part 280. ROOT.
           ENTRY                   ADDRESS         REF BY
           =====                   =======         ======
           SCR8_6                  00007178 
    -------------------------------------------------------------------------
CONFIG_C
  Relative segment, address: CODE_AREA 000071A4 - 000071A7 (0x4 bytes), align: 2
  Segment part 281. ROOT.
           ENTRY                   ADDRESS         REF BY
           =====                   =======         ======
           CPUI_CB                 000071A4        InitShow (main)
    -------------------------------------------------------------------------
CONFIG_C
  Relative segment, address: CODE_AREA 000071A8 - 000071D3 (0x2c bytes), align: 2
  Segment part 282. ROOT.
           ENTRY                   ADDRESS         REF BY
           =====                   =======         ======
           SCR8_7                  000071A8 
    -------------------------------------------------------------------------
CONFIG_C
  Relative segment, address: CODE_AREA 000071D4 - 000071D7 (0x4 bytes), align: 2
  Segment part 283. ROOT.
           ENTRY                   ADDRESS         REF BY
           =====                   =======         ======
           CPUI_T                  000071D4        InitShow (main)
    -------------------------------------------------------------------------
CONFIG_C
  Relative segment, address: CODE_AREA 000071D8 - 00007203 (0x2c bytes), align: 2
  Segment part 284. ROOT.
           ENTRY                   ADDRESS         REF BY
           =====                   =======         ======
           SCR8_4                  000071D8 
    -------------------------------------------------------------------------
CONFIG_C
  Relative segment, address: CODE_AREA 00007204 - 00007207 (0x4 bytes), align: 2
  Segment part 285. ROOT.
           ENTRY                   ADDRESS         REF BY
           =====                   =======         ======
           CPUI_FT                 00007204        InitShow (main)
    -------------------------------------------------------------------------
CONFIG_C
  Relative segment, address: CODE_AREA 00007208 - 00007233 (0x2c bytes), align: 2
  Segment part 286. ROOT.
           ENTRY                   ADDRESS         REF BY
           =====                   =======         ======
           SCR80                   00007208 
    -------------------------------------------------------------------------
CONFIG_C
  Relative segment, address: CODE_AREA 00007234 - 0000725F (0x2c bytes), align: 2
  Segment part 287. ROOT.
           ENTRY                   ADDRESS         REF BY
           =====                   =======         ======
           SCR0                    00007234 
    -------------------------------------------------------------------------
CONFIG_C
  Relative segment, address: CODE_AREA 00007260 - 0000728B (0x2c bytes), align: 2
  Segment part 288. ROOT.
           ENTRY                   ADDRESS         REF BY
           =====                   =======         ======
           NEW1                    00007260 
    -------------------------------------------------------------------------
CONFIG_C
  Relative segment, address: CODE_AREA 0000728C - 000072B7 (0x2c bytes), align: 2
  Segment part 289. ROOT.
           ENTRY                   ADDRESS         REF BY
           =====                   =======         ======
           SCRB1                   0000728C 
    -------------------------------------------------------------------------
CONFIG_C
  Relative segment, address: CODE_AREA 000072B8 - 000072E3 (0x2c bytes), align: 2
  Segment part 290. ROOT.
           ENTRY                   ADDRESS         REF BY
           =====                   =======         ======
           SCRB_1                  000072B8 
    -------------------------------------------------------------------------
CONFIG_C
  Relative segment, address: CODE_AREA 000072E4 - 000072E7 (0x4 bytes), align: 2
  Segment part 291. ROOT.
           ENTRY                   ADDRESS         REF BY
           =====                   =======         ======
           WEEK_ENA                000072E4        InitShow (main)
    -------------------------------------------------------------------------
CONFIG_C
  Relative segment, address: CODE_AREA 000072E8 - 00007313 (0x2c bytes), align: 2
  Segment part 292. ROOT.
           ENTRY                   ADDRESS         REF BY
           =====                   =======         ======
           SCRB_2                  000072E8 
    -------------------------------------------------------------------------
CONFIG_C
  Relative segment, address: CODE_AREA 00007314 - 00007317 (0x4 bytes), align: 2
  Segment part 293. ROOT.
           ENTRY                   ADDRESS         REF BY
           =====                   =======         ======
           WEEK_X                  00007314        InitScreen (main)
    -------------------------------------------------------------------------
CONFIG_C
  Relative segment, address: CODE_AREA 00007318 - 0000731B (0x4 bytes), align: 2
  Segment part 294. ROOT.
           ENTRY                   ADDRESS         REF BY
           =====                   =======         ======
           WEEK_Y                  00007318        InitScreen (main)
    -------------------------------------------------------------------------
CONFIG_C
  Relative segment, address: CODE_AREA 0000731C - 00007347 (0x2c bytes), align: 2
  Segment part 295. ROOT.
           ENTRY                   ADDRESS         REF BY
           =====                   =======         ======
           SCRB_3                  0000731C 
    -------------------------------------------------------------------------
CONFIG_C
  Relative segment, address: CODE_AREA 00007348 - 0000734B (0x4 bytes), align: 2
  Segment part 296. ROOT.
           ENTRY                   ADDRESS         REF BY
           =====                   =======         ======
           WEEK_CS                 00007348        InitShow (main)
    -------------------------------------------------------------------------
CONFIG_C
  Relative segment, address: CODE_AREA 0000734C - 00007377 (0x2c bytes), align: 2
  Segment part 297. ROOT.
           ENTRY                   ADDRESS         REF BY
           =====                   =======         ======
           SCRB_6                  0000734C 
    -------------------------------------------------------------------------
CONFIG_C
  Relative segment, address: CODE_AREA 00007378 - 0000737B (0x4 bytes), align: 2
  Segment part 298. ROOT.
           ENTRY                   ADDRESS         REF BY
           =====                   =======         ======
           WEEK_CB                 00007378        InitShow (main)
    -------------------------------------------------------------------------
CONFIG_C
  Relative segment, address: CODE_AREA 0000737C - 000073A7 (0x2c bytes), align: 2
  Segment part 299. ROOT.
           ENTRY                   ADDRESS         REF BY
           =====                   =======         ======
           SCRB_5                  0000737C 
    -------------------------------------------------------------------------
CONFIG_C
  Relative segment, address: CODE_AREA 000073A8 - 000073AB (0x4 bytes), align: 2
  Segment part 300. ROOT.
           ENTRY                   ADDRESS         REF BY
           =====                   =======         ======
           WEEK_FMT                000073A8        InitScreen (main)
    -------------------------------------------------------------------------
CONFIG_C
  Relative segment, address: CODE_AREA 000073AC - 0000746B (0xc0 bytes), align: 2
  Segment part 301. ROOT.
           ENTRY                   ADDRESS         REF BY
           =====                   =======         ======
           BOX52                   000073AC 
    -------------------------------------------------------------------------
CONFIG_C
  Relative segment, address: CODE_AREA 0000746C - 00007497 (0x2c bytes), align: 2
  Segment part 302. ROOT.
           ENTRY                   ADDRESS         REF BY
           =====                   =======         ======
           SCRB_7                  0000746C 
    -------------------------------------------------------------------------
CONFIG_C
  Relative segment, address: CODE_AREA 00007498 - 0000749B (0x4 bytes), align: 2
  Segment part 303. ROOT.
           ENTRY                   ADDRESS         REF BY
           =====                   =======         ======
           WEEK_T                  00007498        InitShow (main)
    -------------------------------------------------------------------------
CONFIG_C
  Relative segment, address: CODE_AREA 0000749C - 000074C7 (0x2c bytes), align: 2
  Segment part 304. ROOT.
           ENTRY                   ADDRESS         REF BY
           =====                   =======         ======
           SCRB_4                  0000749C 
    -------------------------------------------------------------------------
CONFIG_C
  Relative segment, address: CODE_AREA 000074C8 - 000074CB (0x4 bytes), align: 2
  Segment part 305. ROOT.
           ENTRY                   ADDRESS         REF BY
           =====                   =======         ======
           WEEK_FT                 000074C8        InitShow (main)
    -------------------------------------------------------------------------
CONFIG_C
  Relative segment, address: CODE_AREA 000074CC - 000074F7 (0x2c bytes), align: 2
  Segment part 306. ROOT.
           ENTRY                   ADDRESS         REF BY
           =====                   =======         ======
           SCRB0                   000074CC 
    -------------------------------------------------------------------------
CONFIG_C
  Relative segment, address: CODE_AREA 000074F8 - 00007523 (0x2c bytes), align: 2
  Segment part 307. ROOT.
           ENTRY                   ADDRESS         REF BY
           =====                   =======         ======
           SCRC1                   000074F8 
    -------------------------------------------------------------------------
CONFIG_C
  Relative segment, address: CODE_AREA 00007524 - 0000754F (0x2c bytes), align: 2
  Segment part 308. ROOT.
           ENTRY                   ADDRESS         REF BY
           =====                   =======         ======
           SCRC_1                  00007524 
    -------------------------------------------------------------------------
CONFIG_C
  Relative segment, address: CODE_AREA 00007550 - 00007553 (0x4 bytes), align: 2
  Segment part 309. ROOT.
           ENTRY                   ADDRESS         REF BY
           =====                   =======         ======
           TIME_ENA                00007550        InitShow (main)
    -------------------------------------------------------------------------
CONFIG_C
  Relative segment, address: CODE_AREA 00007554 - 0000757F (0x2c bytes), align: 2
  Segment part 310. ROOT.
           ENTRY                   ADDRESS         REF BY
           =====                   =======         ======
           SCRC_2                  00007554 
    -------------------------------------------------------------------------
CONFIG_C
  Relative segment, address: CODE_AREA 00007580 - 00007583 (0x4 bytes), align: 2
  Segment part 311. ROOT.
           ENTRY                   ADDRESS         REF BY
           =====                   =======         ======
           TIME_X                  00007580        InitScreen (main)
    -------------------------------------------------------------------------
CONFIG_C
  Relative segment, address: CODE_AREA 00007584 - 00007587 (0x4 bytes), align: 2
  Segment part 312. ROOT.
           ENTRY                   ADDRESS         REF BY
           =====                   =======         ======
           TIME_Y                  00007584        InitScreen (main)
    -------------------------------------------------------------------------
CONFIG_C
  Relative segment, address: CODE_AREA 00007588 - 000075B3 (0x2c bytes), align: 2
  Segment part 313. ROOT.
           ENTRY                   ADDRESS         REF BY
           =====                   =======         ======
           SCRC_3                  00007588 
    -------------------------------------------------------------------------
CONFIG_C
  Relative segment, address: CODE_AREA 000075B4 - 000075B7 (0x4 bytes), align: 2
  Segment part 314. ROOT.
           ENTRY                   ADDRESS         REF BY
           =====                   =======         ======
           TIME_CS                 000075B4        InitShow (main)
    -------------------------------------------------------------------------
CONFIG_C
  Relative segment, address: CODE_AREA 000075B8 - 000075E3 (0x2c bytes), align: 2
  Segment part 315. ROOT.
           ENTRY                   ADDRESS         REF BY
           =====                   =======         ======
           SCRC_6                  000075B8 
    -------------------------------------------------------------------------
CONFIG_C
  Relative segment, address: CODE_AREA 000075E4 - 000075E7 (0x4 bytes), align: 2
  Segment part 316. ROOT.
           ENTRY                   ADDRESS         REF BY
           =====                   =======         ======
           TIME_CB                 000075E4        InitShow (main)
    -------------------------------------------------------------------------
CONFIG_C
  Relative segment, address: CODE_AREA 000075E8 - 00007613 (0x2c bytes), align: 2
  Segment part 317. ROOT.
           ENTRY                   ADDRESS         REF BY
           =====                   =======         ======
           SCRC_5                  000075E8 
    -------------------------------------------------------------------------
CONFIG_C
  Relative segment, address: CODE_AREA 00007614 - 00007617 (0x4 bytes), align: 2
  Segment part 318. ROOT.
           ENTRY                   ADDRESS         REF BY
           =====                   =======         ======
           TIME_FMT                00007614        InitScreen (main)
    -------------------------------------------------------------------------
CONFIG_C
  Relative segment, address: CODE_AREA 00007618 - 000076D7 (0xc0 bytes), align: 2
  Segment part 319. ROOT.
           ENTRY                   ADDRESS         REF BY
           =====                   =======         ======
           BOX72                   00007618 
    -------------------------------------------------------------------------
CONFIG_C
  Relative segment, address: CODE_AREA 000076D8 - 00007703 (0x2c bytes), align: 2
  Segment part 320. ROOT.
           ENTRY                   ADDRESS         REF BY
           =====                   =======         ======
           SCRC_7                  000076D8 
    -------------------------------------------------------------------------
CONFIG_C
  Relative segment, address: CODE_AREA 00007704 - 00007707 (0x4 bytes), align: 2
  Segment part 321. ROOT.
           ENTRY                   ADDRESS         REF BY
           =====                   =======         ======
           TIME_T                  00007704        InitShow (main)
    -------------------------------------------------------------------------
CONFIG_C
  Relative segment, address: CODE_AREA 00007708 - 00007733 (0x2c bytes), align: 2
  Segment part 322. ROOT.
           ENTRY                   ADDRESS         REF BY
           =====                   =======         ======
           SCRC_4                  00007708 
    -------------------------------------------------------------------------
CONFIG_C
  Relative segment, address: CODE_AREA 00007734 - 00007737 (0x4 bytes), align: 2
  Segment part 323. ROOT.
           ENTRY                   ADDRESS         REF BY
           =====                   =======         ======
           TIME_FT                 00007734        InitShow (main)
    -------------------------------------------------------------------------
CONFIG_C
  Relative segment, address: CODE_AREA 00007738 - 00007763 (0x2c bytes), align: 2
  Segment part 324. ROOT.
           ENTRY                   ADDRESS         REF BY
           =====                   =======         ======
           SCRC0                   00007738 
    -------------------------------------------------------------------------
CONFIG_C
  Relative segment, address: CODE_AREA 00007764 - 0000778F (0x2c bytes), align: 2
  Segment part 325. ROOT.
           ENTRY                   ADDRESS         REF BY
           =====                   =======         ======
           SCRD1                   00007764 
    -------------------------------------------------------------------------
CONFIG_C
  Relative segment, address: CODE_AREA 00007790 - 000077BB (0x2c bytes), align: 2
  Segment part 326. ROOT.
           ENTRY                   ADDRESS         REF BY
           =====                   =======         ======
           SCRD_1                  00007790 
    -------------------------------------------------------------------------
CONFIG_C
  Relative segment, address: CODE_AREA 000077BC - 000077BF (0x4 bytes), align: 2
  Segment part 327. ROOT.
           ENTRY                   ADDRESS         REF BY
           =====                   =======         ======
           DATE_ENA                000077BC        InitShow (main)
    -------------------------------------------------------------------------
CONFIG_C
  Relative segment, address: CODE_AREA 000077C0 - 000077EB (0x2c bytes), align: 2
  Segment part 328. ROOT.
           ENTRY                   ADDRESS         REF BY
           =====                   =======         ======
           SCRD_2                  000077C0 
    -------------------------------------------------------------------------
CONFIG_C
  Relative segment, address: CODE_AREA 000077EC - 000077EF (0x4 bytes), align: 2
  Segment part 329. ROOT.
           ENTRY                   ADDRESS         REF BY
           =====                   =======         ======
           DATE_X                  000077EC        InitScreen (main)
    -------------------------------------------------------------------------
CONFIG_C
  Relative segment, address: CODE_AREA 000077F0 - 000077F3 (0x4 bytes), align: 2
  Segment part 330. ROOT.
           ENTRY                   ADDRESS         REF BY
           =====                   =======         ======
           DATE_Y                  000077F0        InitScreen (main)
    -------------------------------------------------------------------------
CONFIG_C
  Relative segment, address: CODE_AREA 000077F4 - 0000781F (0x2c bytes), align: 2
  Segment part 331. ROOT.
           ENTRY                   ADDRESS         REF BY
           =====                   =======         ======
           SCRD_3                  000077F4 
    -------------------------------------------------------------------------
CONFIG_C
  Relative segment, address: CODE_AREA 00007820 - 00007823 (0x4 bytes), align: 2
  Segment part 332. ROOT.
           ENTRY                   ADDRESS         REF BY
           =====                   =======         ======
           DATE_CS                 00007820        InitShow (main)
    -------------------------------------------------------------------------
CONFIG_C
  Relative segment, address: CODE_AREA 00007824 - 0000784F (0x2c bytes), align: 2
  Segment part 333. ROOT.
           ENTRY                   ADDRESS         REF BY
           =====                   =======         ======
           SCRD_6                  00007824 
    -------------------------------------------------------------------------
CONFIG_C
  Relative segment, address: CODE_AREA 00007850 - 00007853 (0x4 bytes), align: 2
  Segment part 334. ROOT.
           ENTRY                   ADDRESS         REF BY
           =====                   =======         ======
           DATE_CB                 00007850        InitShow (main)
    -------------------------------------------------------------------------
CONFIG_C
  Relative segment, address: CODE_AREA 00007854 - 0000787F (0x2c bytes), align: 2
  Segment part 335. ROOT.
           ENTRY                   ADDRESS         REF BY
           =====                   =======         ======
           SCRD_5                  00007854 
    -------------------------------------------------------------------------
CONFIG_C
  Relative segment, address: CODE_AREA 00007880 - 00007883 (0x4 bytes), align: 2
  Segment part 336. ROOT.
           ENTRY                   ADDRESS         REF BY
           =====                   =======         ======
           DATE_FMT                00007880        InitScreen (main)
    -------------------------------------------------------------------------
CONFIG_C
  Relative segment, address: CODE_AREA 00007884 - 000079C3 (0x140 bytes), align: 2
  Segment part 337. ROOT.
           ENTRY                   ADDRESS         REF BY
           =====                   =======         ======
           BOX62                   00007884 
    -------------------------------------------------------------------------
CONFIG_C
  Relative segment, address: CODE_AREA 000079C4 - 000079EF (0x2c bytes), align: 2
  Segment part 338. ROOT.
           ENTRY                   ADDRESS         REF BY
           =====                   =======         ======
           SCRD_7                  000079C4 
    -------------------------------------------------------------------------
CONFIG_C
  Relative segment, address: CODE_AREA 000079F0 - 000079F3 (0x4 bytes), align: 2
  Segment part 339. ROOT.
           ENTRY                   ADDRESS         REF BY
           =====                   =======         ======
           DATE_T                  000079F0        InitShow (main)
    -------------------------------------------------------------------------
CONFIG_C
  Relative segment, address: CODE_AREA 000079F4 - 00007A1F (0x2c bytes), align: 2
  Segment part 340. ROOT.
           ENTRY                   ADDRESS         REF BY
           =====                   =======         ======
           SCRD_4                  000079F4 
    -------------------------------------------------------------------------
CONFIG_C
  Relative segment, address: CODE_AREA 00007A20 - 00007A23 (0x4 bytes), align: 2
  Segment part 341. ROOT.
           ENTRY                   ADDRESS         REF BY
           =====                   =======         ======
           DATE_FT                 00007A20        InitShow (main)
    -------------------------------------------------------------------------
CONFIG_C
  Relative segment, address: CODE_AREA 00007A24 - 00007A4F (0x2c bytes), align: 2
  Segment part 342. ROOT.
           ENTRY                   ADDRESS         REF BY
           =====                   =======         ======
           SCRD0                   00007A24 
    -------------------------------------------------------------------------
CONFIG_C
  Relative segment, address: CODE_AREA 00007A50 - 00007A7B (0x2c bytes), align: 2
  Segment part 343. ROOT.
           ENTRY                   ADDRESS         REF BY
           =====                   =======         ======
           SCRA1                   00007A50 
    -------------------------------------------------------------------------
CONFIG_C
  Relative segment, address: CODE_AREA 00007A7C - 00007AA7 (0x2c bytes), align: 2
  Segment part 344. ROOT.
           ENTRY                   ADDRESS         REF BY
           =====                   =======         ======
           SCRA_1                  00007A7C 
    -------------------------------------------------------------------------
CONFIG_C
  Relative segment, address: CODE_AREA 00007AA8 - 00007AAB (0x4 bytes), align: 2
  Segment part 345. ROOT.
           ENTRY                   ADDRESS         REF BY
           =====                   =======         ======
           CHSY_ENA                00007AA8        InitShow (main)
    -------------------------------------------------------------------------
CONFIG_C
  Relative segment, address: CODE_AREA 00007AAC - 00007AD7 (0x2c bytes), align: 2
  Segment part 346. ROOT.
           ENTRY                   ADDRESS         REF BY
           =====                   =======         ======
           SCRA_2                  00007AAC 
    -------------------------------------------------------------------------
CONFIG_C
  Relative segment, address: CODE_AREA 00007AD8 - 00007ADB (0x4 bytes), align: 2
  Segment part 347. ROOT.
           ENTRY                   ADDRESS         REF BY
           =====                   =======         ======
           CHSY_X                  00007AD8        InitScreen (main)
    -------------------------------------------------------------------------
CONFIG_C
  Relative segment, address: CODE_AREA 00007ADC - 00007ADF (0x4 bytes), align: 2
  Segment part 348. ROOT.
           ENTRY                   ADDRESS         REF BY
           =====                   =======         ======
           CHSY_Y                  00007ADC        InitScreen (main)
    -------------------------------------------------------------------------
CONFIG_C
  Relative segment, address: CODE_AREA 00007AE0 - 00007B0B (0x2c bytes), align: 2
  Segment part 349. ROOT.
           ENTRY                   ADDRESS         REF BY
           =====                   =======         ======
           SCRA_7                  00007AE0 
    -------------------------------------------------------------------------
CONFIG_C
  Relative segment, address: CODE_AREA 00007B0C - 00007B0F (0x4 bytes), align: 2
  Segment part 350. ROOT.
           ENTRY                   ADDRESS         REF BY
           =====                   =======         ======
           CHSY_T                  00007B0C        InitShow (main)
    -------------------------------------------------------------------------
CONFIG_C
  Relative segment, address: CODE_AREA 00007B10 - 00007B3B (0x2c bytes), align: 2
  Segment part 351. ROOT.
           ENTRY                   ADDRESS         REF BY
           =====                   =======         ======
           SCRA0                   00007B10 
    -------------------------------------------------------------------------
CONFIG_C
  Relative segment, address: CODE_AREA 00007B3C - 00007B67 (0x2c bytes), align: 2
  Segment part 352. ROOT.
           ENTRY                   ADDRESS         REF BY
           =====                   =======         ======
           SCRM1                   00007B3C 
    -------------------------------------------------------------------------
CONFIG_C
  Relative segment, address: CODE_AREA 00007B68 - 00007B93 (0x2c bytes), align: 2
  Segment part 353. ROOT.
           ENTRY                   ADDRESS         REF BY
           =====                   =======         ======
           SCRM_1                  00007B68 
    -------------------------------------------------------------------------
CONFIG_C
  Relative segment, address: CODE_AREA 00007B94 - 00007B97 (0x4 bytes), align: 2
  Segment part 354. ROOT.
           ENTRY                   ADDRESS         REF BY
           =====                   =======         ======
           CHSM_ENA                00007B94        InitShow (main)
    -------------------------------------------------------------------------
CONFIG_C
  Relative segment, address: CODE_AREA 00007B98 - 00007BC3 (0x2c bytes), align: 2
  Segment part 355. ROOT.
           ENTRY                   ADDRESS         REF BY
           =====                   =======         ======
           SCRM_2                  00007B98 
    -------------------------------------------------------------------------
CONFIG_C
  Relative segment, address: CODE_AREA 00007BC4 - 00007BC7 (0x4 bytes), align: 2
  Segment part 356. ROOT.
           ENTRY                   ADDRESS         REF BY
           =====                   =======         ======
           CHSM_X                  00007BC4        InitScreen (main)
    -------------------------------------------------------------------------
CONFIG_C
  Relative segment, address: CODE_AREA 00007BC8 - 00007BCB (0x4 bytes), align: 2
  Segment part 357. ROOT.
           ENTRY                   ADDRESS         REF BY
           =====                   =======         ======
           CHSM_Y                  00007BC8        InitScreen (main)
    -------------------------------------------------------------------------
CONFIG_C
  Relative segment, address: CODE_AREA 00007BCC - 00007BF7 (0x2c bytes), align: 2
  Segment part 358. ROOT.
           ENTRY                   ADDRESS         REF BY
           =====                   =======         ======
           SCRM_7                  00007BCC 
    -------------------------------------------------------------------------
CONFIG_C
  Relative segment, address: CODE_AREA 00007BF8 - 00007BFB (0x4 bytes), align: 2
  Segment part 359. ROOT.
           ENTRY                   ADDRESS         REF BY
           =====                   =======         ======
           CHSM_T                  00007BF8        InitShow (main)
    -------------------------------------------------------------------------
CONFIG_C
  Relative segment, address: CODE_AREA 00007BFC - 00007C27 (0x2c bytes), align: 2
  Segment part 360. ROOT.
           ENTRY                   ADDRESS         REF BY
           =====                   =======         ======
           SCRM0                   00007BFC 
    -------------------------------------------------------------------------
CONFIG_C
  Relative segment, address: CODE_AREA 00007C28 - 00007C53 (0x2c bytes), align: 2
  Segment part 361. ROOT.
           ENTRY                   ADDRESS         REF BY
           =====                   =======         ======
           SCR91                   00007C28 
    -------------------------------------------------------------------------
CONFIG_C
  Relative segment, address: CODE_AREA 00007C54 - 00007C7F (0x2c bytes), align: 2
  Segment part 362. ROOT.
           ENTRY                   ADDRESS         REF BY
           =====                   =======         ======
           SCR9_1                  00007C54 
    -------------------------------------------------------------------------
CONFIG_C
  Relative segment, address: CODE_AREA 00007C80 - 00007C83 (0x4 bytes), align: 2
  Segment part 363. ROOT.
           ENTRY                   ADDRESS         REF BY
           =====                   =======         ======
           CHSD_ENA                00007C80        InitShow (main)
    -------------------------------------------------------------------------
CONFIG_C
  Relative segment, address: CODE_AREA 00007C84 - 00007CAF (0x2c bytes), align: 2
  Segment part 364. ROOT.
           ENTRY                   ADDRESS         REF BY
           =====                   =======         ======
           SCR9_2                  00007C84 
    -------------------------------------------------------------------------
CONFIG_C
  Relative segment, address: CODE_AREA 00007CB0 - 00007CB3 (0x4 bytes), align: 2
  Segment part 365. ROOT.
           ENTRY                   ADDRESS         REF BY
           =====                   =======         ======
           CHSD_X                  00007CB0        InitScreen (main)
    -------------------------------------------------------------------------
CONFIG_C
  Relative segment, address: CODE_AREA 00007CB4 - 00007CB7 (0x4 bytes), align: 2
  Segment part 366. ROOT.
           ENTRY                   ADDRESS         REF BY
           =====                   =======         ======
           CHSD_Y                  00007CB4        InitScreen (main)
    -------------------------------------------------------------------------
CONFIG_C
  Relative segment, address: CODE_AREA 00007CB8 - 00007CE3 (0x2c bytes), align: 2
  Segment part 367. ROOT.
           ENTRY                   ADDRESS         REF BY
           =====                   =======         ======
           SCR9_7                  00007CB8 
    -------------------------------------------------------------------------
CONFIG_C
  Relative segment, address: CODE_AREA 00007CE4 - 00007CE7 (0x4 bytes), align: 2
  Segment part 368. ROOT.
           ENTRY                   ADDRESS         REF BY
           =====                   =======         ======
           CHSD_T                  00007CE4        InitShow (main)
    -------------------------------------------------------------------------
CONFIG_C
  Relative segment, address: CODE_AREA 00007CE8 - 00007D13 (0x2c bytes), align: 2
  Segment part 369. ROOT.
           ENTRY                   ADDRESS         REF BY
           =====                   =======         ======
           SCR90                   00007CE8 
    -------------------------------------------------------------------------
CONFIG_C
  Relative segment, address: CODE_AREA 00007D14 - 00007D3F (0x2c bytes), align: 2
  Segment part 370. ROOT.
           ENTRY                   ADDRESS         REF BY
           =====                   =======         ======
           CHSH1                   00007D14 
    -------------------------------------------------------------------------
CONFIG_C
  Relative segment, address: CODE_AREA 00007D40 - 00007D6B (0x2c bytes), align: 2
  Segment part 371. ROOT.
           ENTRY                   ADDRESS         REF BY
           =====                   =======         ======
           CHSH_1                  00007D40 
    -------------------------------------------------------------------------
CONFIG_C
  Relative segment, address: CODE_AREA 00007D6C - 00007D6F (0x4 bytes), align: 2
  Segment part 372. ROOT.
           ENTRY                   ADDRESS         REF BY
           =====                   =======         ======
           CHSH_ENA                00007D6C        InitShow (main)
    -------------------------------------------------------------------------
CONFIG_C
  Relative segment, address: CODE_AREA 00007D70 - 00007D9B (0x2c bytes), align: 2
  Segment part 373. ROOT.
           ENTRY                   ADDRESS         REF BY
           =====                   =======         ======
           CHSH_2                  00007D70 
    -------------------------------------------------------------------------
CONFIG_C
  Relative segment, address: CODE_AREA 00007D9C - 00007D9F (0x4 bytes), align: 2
  Segment part 374. ROOT.
           ENTRY                   ADDRESS         REF BY
           =====                   =======         ======
           CHSH_X                  00007D9C        InitScreen (main)
    -------------------------------------------------------------------------
CONFIG_C
  Relative segment, address: CODE_AREA 00007DA0 - 00007DA3 (0x4 bytes), align: 2
  Segment part 375. ROOT.
           ENTRY                   ADDRESS         REF BY
           =====                   =======         ======
           CHSH_Y                  00007DA0        InitScreen (main)
    -------------------------------------------------------------------------
CONFIG_C
  Relative segment, address: CODE_AREA 00007DA4 - 00007DCF (0x2c bytes), align: 2
  Segment part 376. ROOT.
           ENTRY                   ADDRESS         REF BY
           =====                   =======         ======
           CHSH_7                  00007DA4 
    -------------------------------------------------------------------------
CONFIG_C
  Relative segment, address: CODE_AREA 00007DD0 - 00007DD3 (0x4 bytes), align: 2
  Segment part 377. ROOT.
           ENTRY                   ADDRESS         REF BY
           =====                   =======         ======
           CHSH_T                  00007DD0        InitShow (main)
    -------------------------------------------------------------------------
CONFIG_C
  Relative segment, address: CODE_AREA 00007DD4 - 00007DFF (0x2c bytes), align: 2
  Segment part 378. ROOT.
           ENTRY                   ADDRESS         REF BY
           =====                   =======         ======
           CHSH0                   00007DD4 
    -------------------------------------------------------------------------
CONFIG_C
  Relative segment, address: CODE_AREA 00007E00 - 00007E2B (0x2c bytes), align: 2
  Segment part 379. ROOT.
           ENTRY                   ADDRESS         REF BY
           =====                   =======         ======
           SCMD1                   00007E00 
    -------------------------------------------------------------------------
CONFIG_C
  Relative segment, address: CODE_AREA 00007E2C - 00007E57 (0x2c bytes), align: 2
  Segment part 380. ROOT.
           ENTRY                   ADDRESS         REF BY
           =====                   =======         ======
           SCMD_1                  00007E2C 
    -------------------------------------------------------------------------
CONFIG_C
  Relative segment, address: CODE_AREA 00007E58 - 00007E5B (0x4 bytes), align: 2
  Segment part 381. ROOT.
           ENTRY                   ADDRESS         REF BY
           =====                   =======         ======
           CHMD_ENA                00007E58        InitShow (main)
    -------------------------------------------------------------------------
CONFIG_C
  Relative segment, address: CODE_AREA 00007E5C - 00007E87 (0x2c bytes), align: 2
  Segment part 382. ROOT.
           ENTRY                   ADDRESS         REF BY
           =====                   =======         ======
           SCMD_2                  00007E5C 
    -------------------------------------------------------------------------
CONFIG_C
  Relative segment, address: CODE_AREA 00007E88 - 00007E8B (0x4 bytes), align: 2
  Segment part 383. ROOT.
           ENTRY                   ADDRESS         REF BY
           =====                   =======         ======
           CHMD_X                  00007E88        InitScreen (main)
    -------------------------------------------------------------------------
CONFIG_C
  Relative segment, address: CODE_AREA 00007E8C - 00007E8F (0x4 bytes), align: 2
  Segment part 384. ROOT.
           ENTRY                   ADDRESS         REF BY
           =====                   =======         ======
           CHMD_Y                  00007E8C        InitScreen (main)
    -------------------------------------------------------------------------
CONFIG_C
  Relative segment, address: CODE_AREA 00007E90 - 00007EBB (0x2c bytes), align: 2
  Segment part 385. ROOT.
           ENTRY                   ADDRESS         REF BY
           =====                   =======         ======
           SCMD_7                  00007E90 
    -------------------------------------------------------------------------
CONFIG_C
  Relative segment, address: CODE_AREA 00007EBC - 00007EBF (0x4 bytes), align: 2
  Segment part 386. ROOT.
           ENTRY                   ADDRESS         REF BY
           =====                   =======         ======
           CHMD_T                  00007EBC        InitShow (main)
    -------------------------------------------------------------------------
CONFIG_C
  Relative segment, address: CODE_AREA 00007EC0 - 00007EEB (0x2c bytes), align: 2
  Segment part 387. ROOT.
           ENTRY                   ADDRESS         REF BY
           =====                   =======         ======
           SCMD0                   00007EC0 
    -------------------------------------------------------------------------
CONFIG_C
  Relative segment, address: CODE_AREA 00007EEC - 00007F17 (0x2c bytes), align: 2
  Segment part 388. ROOT.
           ENTRY                   ADDRESS         REF BY
           =====                   =======         ======
           SCRA_3                  00007EEC 
    -------------------------------------------------------------------------
CONFIG_C
  Relative segment, address: CODE_AREA 00007F18 - 00007F1B (0x4 bytes), align: 2
  Segment part 389. ROOT.
           ENTRY                   ADDRESS         REF BY
           =====                   =======         ======
           CHSY_CS                 00007F18        InitShow (main)
    -------------------------------------------------------------------------
CONFIG_C
  Relative segment, address: CODE_AREA 00007F1C - 00007F47 (0x2c bytes), align: 2
  Segment part 390. ROOT.
           ENTRY                   ADDRESS         REF BY
           =====                   =======         ======
           SCRA_4                  00007F1C 
    -------------------------------------------------------------------------
CONFIG_C
  Relative segment, address: CODE_AREA 00007F48 - 00007F4B (0x4 bytes), align: 2
  Segment part 391. ROOT.
           ENTRY                   ADDRESS         REF BY
           =====                   =======         ======
           CHSY_CB                 00007F48        InitShow (main)
    -------------------------------------------------------------------------
CONFIG_C
  Relative segment, address: CODE_AREA 00007F4C - 00007F77 (0x2c bytes), align: 2
  Segment part 392. ROOT.
           ENTRY                   ADDRESS         REF BY
           =====                   =======         ======
           CHSH_5                  00007F4C 
    -------------------------------------------------------------------------
CONFIG_C
  Relative segment, address: CODE_AREA 00007F78 - 00007F7B (0x4 bytes), align: 2
  Segment part 393. ROOT.
           ENTRY                   ADDRESS         REF BY
           =====                   =======         ======
           CHSY_FT                 00007F78        InitShow (main)
    -------------------------------------------------------------------------
CONFIG_C
  Relative segment, address: CODE_AREA 00007F7C - 00007FA7 (0x2c bytes), align: 2
  Segment part 394. ROOT.
           ENTRY                   ADDRESS         REF BY
           =====                   =======         ======
           NEW0                    00007F7C 
    -------------------------------------------------------------------------
CONFIG_C
  Relative segment, address: CODE_AREA 00007FA8 - 00007FD3 (0x2c bytes), align: 2
  Segment part 395. ROOT.
           ENTRY                   ADDRESS         REF BY
           =====                   =======         ======
           BIR1                    00007FA8 
    -------------------------------------------------------------------------
CONFIG_C
  Relative segment, address: CODE_AREA 00007FD4 - 00007FFF (0x2c bytes), align: 2
  Segment part 396. ROOT.
           ENTRY                   ADDRESS         REF BY
           =====                   =======         ======
           NBIR1                   00007FD4 
    -------------------------------------------------------------------------
CONFIG_C
  Relative segment, address: CODE_AREA 00008000 - 0000802B (0x2c bytes), align: 2
  Segment part 397. ROOT.
           ENTRY                   ADDRESS         REF BY
           =====                   =======         ======
           NBIR_1                  00008000 
    -------------------------------------------------------------------------
CONFIG_C
  Relative segment, address: CODE_AREA 0000802C - 0000802F (0x4 bytes), align: 2
  Segment part 398. ROOT.
           ENTRY                   ADDRESS         REF BY
           =====                   =======         ======
           NBIR_ENA                0000802C        InitShow (main)
    -------------------------------------------------------------------------
CONFIG_C
  Relative segment, address: CODE_AREA 00008030 - 0000805B (0x2c bytes), align: 2
  Segment part 399. ROOT.
           ENTRY                   ADDRESS         REF BY
           =====                   =======         ======
           NBIR_2                  00008030 
    -------------------------------------------------------------------------
CONFIG_C
  Relative segment, address: CODE_AREA 0000805C - 0000805F (0x4 bytes), align: 2
  Segment part 400. ROOT.
           ENTRY                   ADDRESS         REF BY
           =====                   =======         ======
           NBIR_X                  0000805C        InitScreen (main)
    -------------------------------------------------------------------------
CONFIG_C
  Relative segment, address: CODE_AREA 00008060 - 00008063 (0x4 bytes), align: 2
  Segment part 401. ROOT.
           ENTRY                   ADDRESS         REF BY
           =====                   =======         ======
           NBIR_Y                  00008060        InitScreen (main)
    -------------------------------------------------------------------------
CONFIG_C
  Relative segment, address: CODE_AREA 00008064 - 0000808F (0x2c bytes), align: 2
  Segment part 402. ROOT.
           ENTRY                   ADDRESS         REF BY
           =====                   =======         ======
           NBIR_3                  00008064 
    -------------------------------------------------------------------------
CONFIG_C
  Relative segment, address: CODE_AREA 00008090 - 00008093 (0x4 bytes), align: 2
  Segment part 403. ROOT.
           ENTRY                   ADDRESS         REF BY
           =====                   =======         ======
           NBIR_CS                 00008090        InitShow (main)
    -------------------------------------------------------------------------
CONFIG_C
  Relative segment, address: CODE_AREA 00008094 - 000080BF (0x2c bytes), align: 2
  Segment part 404. ROOT.
           ENTRY                   ADDRESS         REF BY
           =====                   =======         ======
           NBIR_4                  00008094 
    -------------------------------------------------------------------------
CONFIG_C
  Relative segment, address: CODE_AREA 000080C0 - 000080C3 (0x4 bytes), align: 2
  Segment part 405. ROOT.
           ENTRY                   ADDRESS         REF BY
           =====                   =======         ======
           NBIR_CB                 000080C0        InitShow (main)
    -------------------------------------------------------------------------
CONFIG_C
  Relative segment, address: CODE_AREA 000080C4 - 000080EF (0x2c bytes), align: 2
  Segment part 406. ROOT.
           ENTRY                   ADDRESS         REF BY
           =====                   =======         ======
           NBIR_7                  000080C4 
    -------------------------------------------------------------------------
CONFIG_C
  Relative segment, address: CODE_AREA 000080F0 - 000080F3 (0x4 bytes), align: 2
  Segment part 407. ROOT.
           ENTRY                   ADDRESS         REF BY
           =====                   =======         ======
           NBIR_T                  000080F0        InitShow (main)
    -------------------------------------------------------------------------
CONFIG_C
  Relative segment, address: CODE_AREA 000080F4 - 0000811F (0x2c bytes), align: 2
  Segment part 408. ROOT.
           ENTRY                   ADDRESS         REF BY
           =====                   =======         ======
           NBIR_5                  000080F4 
    -------------------------------------------------------------------------
CONFIG_C
  Relative segment, address: CODE_AREA 00008120 - 00008123 (0x4 bytes), align: 2
  Segment part 409. ROOT.
           ENTRY                   ADDRESS         REF BY
           =====                   =======         ======
           NBIR_FT                 00008120        InitShow (main)
    -------------------------------------------------------------------------
CONFIG_C
  Relative segment, address: CODE_AREA 00008124 - 0000814F (0x2c bytes), align: 2
  Segment part 410. ROOT.
           ENTRY                   ADDRESS         REF BY
           =====                   =======         ======
           NBIR0                   00008124 
    -------------------------------------------------------------------------
CONFIG_C
  Relative segment, address: CODE_AREA 00008150 - 0000817B (0x2c bytes), align: 2
  Segment part 411. ROOT.
           ENTRY                   ADDRESS         REF BY
           =====                   =======         ======
           OBIR1                   00008150 
    -------------------------------------------------------------------------
CONFIG_C
  Relative segment, address: CODE_AREA 0000817C - 000081A7 (0x2c bytes), align: 2
  Segment part 412. ROOT.
           ENTRY                   ADDRESS         REF BY
           =====                   =======         ======
           OBIR_1                  0000817C 
    -------------------------------------------------------------------------
CONFIG_C
  Relative segment, address: CODE_AREA 000081A8 - 000081AB (0x4 bytes), align: 2
  Segment part 413. ROOT.
           ENTRY                   ADDRESS         REF BY
           =====                   =======         ======
           OBIR_ENA                000081A8        InitShow (main)
    -------------------------------------------------------------------------
CONFIG_C
  Relative segment, address: CODE_AREA 000081AC - 000081D7 (0x2c bytes), align: 2
  Segment part 414. ROOT.
           ENTRY                   ADDRESS         REF BY
           =====                   =======         ======
           OBIR_2                  000081AC 
    -------------------------------------------------------------------------
CONFIG_C
  Relative segment, address: CODE_AREA 000081D8 - 000081DB (0x4 bytes), align: 2
  Segment part 415. ROOT.
           ENTRY                   ADDRESS         REF BY
           =====                   =======         ======
           OBIR_X                  000081D8        InitScreen (main)
    -------------------------------------------------------------------------
CONFIG_C
  Relative segment, address: CODE_AREA 000081DC - 000081DF (0x4 bytes), align: 2
  Segment part 416. ROOT.
           ENTRY                   ADDRESS         REF BY
           =====                   =======         ======
           OBIR_Y                  000081DC        InitScreen (main)
    -------------------------------------------------------------------------
CONFIG_C
  Relative segment, address: CODE_AREA 000081E0 - 0000820B (0x2c bytes), align: 2
  Segment part 417. ROOT.
           ENTRY                   ADDRESS         REF BY
           =====                   =======         ======
           OBIR_3                  000081E0 
    -------------------------------------------------------------------------
CONFIG_C
  Relative segment, address: CODE_AREA 0000820C - 0000820F (0x4 bytes), align: 2
  Segment part 418. ROOT.
           ENTRY                   ADDRESS         REF BY
           =====                   =======         ======
           OBIR_CS                 0000820C        InitShow (main)
    -------------------------------------------------------------------------
CONFIG_C
  Relative segment, address: CODE_AREA 00008210 - 0000823B (0x2c bytes), align: 2
  Segment part 419. ROOT.
           ENTRY                   ADDRESS         REF BY
           =====                   =======         ======
           OBIR_4                  00008210 
    -------------------------------------------------------------------------
CONFIG_C
  Relative segment, address: CODE_AREA 0000823C - 0000823F (0x4 bytes), align: 2
  Segment part 420. ROOT.
           ENTRY                   ADDRESS         REF BY
           =====                   =======         ======
           OBIR_CB                 0000823C        InitShow (main)
    -------------------------------------------------------------------------
CONFIG_C
  Relative segment, address: CODE_AREA 00008240 - 0000826B (0x2c bytes), align: 2
  Segment part 421. ROOT.
           ENTRY                   ADDRESS         REF BY
           =====                   =======         ======
           OBIR_7                  00008240 
    -------------------------------------------------------------------------
CONFIG_C
  Relative segment, address: CODE_AREA 0000826C - 0000826F (0x4 bytes), align: 2
  Segment part 422. ROOT.
           ENTRY                   ADDRESS         REF BY
           =====                   =======         ======
           OBIR_T                  0000826C        InitShow (main)
    -------------------------------------------------------------------------
CONFIG_C
  Relative segment, address: CODE_AREA 00008270 - 0000829B (0x2c bytes), align: 2
  Segment part 423. ROOT.
           ENTRY                   ADDRESS         REF BY
           =====                   =======         ======
           OBIR_5                  00008270 
    -------------------------------------------------------------------------
CONFIG_C
  Relative segment, address: CODE_AREA 0000829C - 0000829F (0x4 bytes), align: 2
  Segment part 424. ROOT.
           ENTRY                   ADDRESS         REF BY
           =====                   =======         ======
           OBIR_FT                 0000829C        InitShow (main)
    -------------------------------------------------------------------------
CONFIG_C
  Relative segment, address: CODE_AREA 000082A0 - 000082CB (0x2c bytes), align: 2
  Segment part 425. ROOT.
           ENTRY                   ADDRESS         REF BY
           =====                   =======         ======
           mOBIR0                  000082A0 
    -------------------------------------------------------------------------
CONFIG_C
  Relative segment, address: CODE_AREA 000082CC - 000082F7 (0x2c bytes), align: 2
  Segment part 426. ROOT.
           ENTRY                   ADDRESS         REF BY
           =====                   =======         ======
           BIRFILE                 000082CC 
    -------------------------------------------------------------------------
CONFIG_C
  Relative segment, address: CODE_AREA 000082F8 - 0000832B (0x34 bytes), align: 2
  Segment part 427. ROOT.
           ENTRY                   ADDRESS         REF BY
           =====                   =======         ======
           BIRS_FILE               000082F8        Segment part 124 (main)
    -------------------------------------------------------------------------
CONFIG_C
  Relative segment, address: CODE_AREA 0000832C - 00008357 (0x2c bytes), align: 2
  Segment part 428. ROOT.
           ENTRY                   ADDRESS         REF BY
           =====                   =======         ======
           BIR0                    0000832C 
    -------------------------------------------------------------------------
CONFIG_C
  Relative segment, address: CODE_AREA 00008358 - 00008383 (0x2c bytes), align: 2
  Segment part 429. ROOT.
           ENTRY                   ADDRESS         REF BY
           =====                   =======         ======
           ALRM1                   00008358 
    -------------------------------------------------------------------------
CONFIG_C
  Relative segment, address: CODE_AREA 00008384 - 000083AF (0x2c bytes), align: 2
  Segment part 430. ROOT.
           ENTRY                   ADDRESS         REF BY
           =====                   =======         ======
           ALRM_1                  00008384 
    -------------------------------------------------------------------------
CONFIG_C
  Relative segment, address: CODE_AREA 000083B0 - 000083B3 (0x4 bytes), align: 2
  Segment part 431. ROOT.
           ENTRY                   ADDRESS         REF BY
           =====                   =======         ======
           ALRM_ENA                000083B0        Segment part 121 (main)
                                                   Segment part 73 (main)
    -------------------------------------------------------------------------
CONFIG_C
  Relative segment, address: CODE_AREA 000083B4 - 000083DF (0x2c bytes), align: 2
  Segment part 432. ROOT.
           ENTRY                   ADDRESS         REF BY
           =====                   =======         ======
           ALRM_2                  000083B4 
    -------------------------------------------------------------------------
CONFIG_C
  Relative segment, address: CODE_AREA 000083E0 - 000083E3 (0x4 bytes), align: 2
  Segment part 433. ROOT.
           ENTRY                   ADDRESS         REF BY
           =====                   =======         ======
           ALRV_ENA                000083E0        DrawGUI (main)
    -------------------------------------------------------------------------
CONFIG_C
  Relative segment, address: CODE_AREA 000083E4 - 0000840F (0x2c bytes), align: 2
  Segment part 434. ROOT.
           ENTRY                   ADDRESS         REF BY
           =====                   =======         ======
           ALRM_3                  000083E4 
    -------------------------------------------------------------------------
CONFIG_C
  Relative segment, address: CODE_AREA 00008410 - 00008413 (0x4 bytes), align: 2
  Segment part 435. ROOT.
           ENTRY                   ADDRESS         REF BY
           =====                   =======         ======
           ALIU_ENA                00008410        DrawGUI (main)
    -------------------------------------------------------------------------
CONFIG_C
  Relative segment, address: CODE_AREA 00008414 - 0000843F (0x2c bytes), align: 2
  Segment part 436. ROOT.
           ENTRY                   ADDRESS         REF BY
           =====                   =======         ======
           ALRM_4                  00008414 
    -------------------------------------------------------------------------
CONFIG_C
  Relative segment, address: CODE_AREA 00008440 - 00008443 (0x4 bytes), align: 2
  Segment part 437. ROOT.
           ENTRY                   ADDRESS         REF BY
           =====                   =======         ======
           ALRM_CBK                00008440        DrawGUI (main)
    -------------------------------------------------------------------------
CONFIG_C
  Relative segment, address: CODE_AREA 00008444 - 0000846F (0x2c bytes), align: 2
  Segment part 438. ROOT.
           ENTRY                   ADDRESS         REF BY
           =====                   =======         ======
           ALRM_5                  00008444 
    -------------------------------------------------------------------------
CONFIG_C
  Relative segment, address: CODE_AREA 00008470 - 00008473 (0x4 bytes), align: 2
  Segment part 439. ROOT.
           ENTRY                   ADDRESS         REF BY
           =====                   =======         ======
           ALRM_CTX                00008470        DrawGUI (main)
    -------------------------------------------------------------------------
CONFIG_C
  Relative segment, address: CODE_AREA 00008474 - 0000849F (0x2c bytes), align: 2
  Segment part 440. ROOT.
           ENTRY                   ADDRESS         REF BY
           =====                   =======         ======
           ALRM_6                  00008474 
    -------------------------------------------------------------------------
CONFIG_C
  Relative segment, address: CODE_AREA 000084A0 - 000084A3 (0x4 bytes), align: 2
  Segment part 441. ROOT.
           ENTRY                   ADDRESS         REF BY
           =====                   =======         ======
           ALRM_FT                 000084A0        DrawGUI (main)
    -------------------------------------------------------------------------
CONFIG_C
  Relative segment, address: CODE_AREA 000084A4 - 000084CF (0x2c bytes), align: 2
  Segment part 442. ROOT.
           ENTRY                   ADDRESS         REF BY
           =====                   =======         ======
           ALRM_7                  000084A4 
    -------------------------------------------------------------------------
CONFIG_C
  Relative segment, address: CODE_AREA 000084D0 - 000084D3 (0x4 bytes), align: 2
  Segment part 443. ROOT.
           ENTRY                   ADDRESS         REF BY
           =====                   =======         ======
           ALRM_NUM                000084D0        TaskCreate (main)
    -------------------------------------------------------------------------
CONFIG_C
  Relative segment, address: CODE_AREA 000084D4 - 000084FF (0x2c bytes), align: 2
  Segment part 444. ROOT.
           ENTRY                   ADDRESS         REF BY
           =====                   =======         ======
           ALRM_8                  000084D4 
    -------------------------------------------------------------------------
CONFIG_C
  Relative segment, address: CODE_AREA 00008500 - 00008503 (0x4 bytes), align: 2
  Segment part 445. ROOT.
           ENTRY                   ADDRESS         REF BY
           =====                   =======         ======
           ALRM_VOL                00008500        TaskCreate (main)
    -------------------------------------------------------------------------
CONFIG_C
  Relative segment, address: CODE_AREA 00008504 - 0000852F (0x2c bytes), align: 2
  Segment part 446. ROOT.
           ENTRY                   ADDRESS         REF BY
           =====                   =======         ======
           ALRM_9                  00008504 
    -------------------------------------------------------------------------
CONFIG_C
  Relative segment, address: CODE_AREA 00008530 - 00008533 (0x4 bytes), align: 2
  Segment part 447. ROOT.
           ENTRY                   ADDRESS         REF BY
           =====                   =======         ======
           ALRM_VIB                00008530        DrawGUI (main)
    -------------------------------------------------------------------------
CONFIG_C
  Relative segment, address: CODE_AREA 00008534 - 0000855F (0x2c bytes), align: 2
  Segment part 448. ROOT.
           ENTRY                   ADDRESS         REF BY
           =====                   =======         ======
           ALRM_A                  00008534 
    -------------------------------------------------------------------------
CONFIG_C
  Relative segment, address: CODE_AREA 00008560 - 00008563 (0x4 bytes), align: 2
  Segment part 449. ROOT.
           ENTRY                   ADDRESS         REF BY
           =====                   =======         ======
           ALRM_COT                00008560        DrawGUI (main)
    -------------------------------------------------------------------------
CONFIG_C
  Relative segment, address: CODE_AREA 00008564 - 0000858F (0x2c bytes), align: 2
  Segment part 450. ROOT.
           ENTRY                   ADDRESS         REF BY
           =====                   =======         ======
           RINFILE                 00008564 
    -------------------------------------------------------------------------
CONFIG_C
  Relative segment, address: CODE_AREA 00008590 - 000085C3 (0x34 bytes), align: 2
  Segment part 451. ROOT.
           ENTRY                   ADDRESS         REF BY
           =====                   =======         ======
           ALRM_FILE               00008590        TaskCreate (main)
    -------------------------------------------------------------------------
CONFIG_C
  Relative segment, address: CODE_AREA 000085C4 - 000085EF (0x2c bytes), align: 2
  Segment part 452. ROOT.
           ENTRY                   ADDRESS         REF BY
           =====                   =======         ======
           RINPIC                  000085C4 
    -------------------------------------------------------------------------
CONFIG_C
  Relative segment, address: CODE_AREA 000085F0 - 00008623 (0x34 bytes), align: 2
  Segment part 453. ROOT.
           ENTRY                   ADDRESS         REF BY
           =====                   =======         ======
           ALRM_PIC                000085F0        DrawGUI (main)
    -------------------------------------------------------------------------
CONFIG_C
  Relative segment, address: CODE_AREA 00008624 - 0000864F (0x2c bytes), align: 2
  Segment part 454. ROOT.
           ENTRY                   ADDRESS         REF BY
           =====                   =======         ======
           ALRM0                   00008624 
    -------------------------------------------------------------------------
CONFIG_C
  Relative segment, address: CODE_AREA 00008650 - 0000867B (0x2c bytes), align: 2
  Segment part 455. ROOT.
           ENTRY                   ADDRESS         REF BY
           =====                   =======         ======
           SHUT1                   00008650 
    -------------------------------------------------------------------------
CONFIG_C
  Relative segment, address: CODE_AREA 0000867C - 000086A7 (0x2c bytes), align: 2
  Segment part 456. ROOT.
           ENTRY                   ADDRESS         REF BY
           =====                   =======         ======
           SHUT_1                  0000867C 
    -------------------------------------------------------------------------
CONFIG_C
  Relative segment, address: CODE_AREA 000086A8 - 000086AB (0x4 bytes), align: 2
  Segment part 457. ROOT.
           ENTRY                   ADDRESS         REF BY
           =====                   =======         ======
           SHUT_ENA                000086A8        DaemonOnMessage (main)
    -------------------------------------------------------------------------
CONFIG_C
  Relative segment, address: CODE_AREA 000086AC - 000086D7 (0x2c bytes), align: 2
  Segment part 458. ROOT.
           ENTRY                   ADDRESS         REF BY
           =====                   =======         ======
           SHUT_2                  000086AC 
    -------------------------------------------------------------------------
CONFIG_C
  Relative segment, address: CODE_AREA 000086D8 - 000086DF (0x8 bytes), align: 2
  Segment part 459. ROOT.
           ENTRY                   ADDRESS         REF BY
           =====                   =======         ======
           SHUT_TIME               000086D8        DaemonOnMessage (main)
    -------------------------------------------------------------------------
CONFIG_C
  Relative segment, address: CODE_AREA 000086E0 - 0000870B (0x2c bytes), align: 2
  Segment part 460. ROOT.
           ENTRY                   ADDRESS         REF BY
           =====                   =======         ======
           SHUT0                   000086E0 
    -------------------------------------------------------------------------
CONFIG_C
  Relative segment, address: CODE_AREA 0000870C - 00008737 (0x2c bytes), align: 2
  Segment part 461. ROOT.
           ENTRY                   ADDRESS         REF BY
           =====                   =======         ======
           ROOT1                   0000870C 
    -------------------------------------------------------------------------
CONFIG_C
  Relative segment, address: CODE_AREA 00008738 - 00008763 (0x2c bytes), align: 2
  Segment part 462. ROOT.
           ENTRY                   ADDRESS         REF BY
           =====                   =======         ======
           ROOT_1                  00008738 
    -------------------------------------------------------------------------
CONFIG_C
  Relative segment, address: CODE_AREA 00008764 - 00008767 (0x4 bytes), align: 2
  Segment part 463. ROOT.
           ENTRY                   ADDRESS         REF BY
           =====                   =======         ======
           ROOT_ENA                00008764        DaemonOnMessage (main)
    -------------------------------------------------------------------------
CONFIG_C
  Relative segment, address: CODE_AREA 00008768 - 00008793 (0x2c bytes), align: 2
  Segment part 464. ROOT.
           ENTRY                   ADDRESS         REF BY
           =====                   =======         ======
           ROOT_2                  00008768 
    -------------------------------------------------------------------------
CONFIG_C
  Relative segment, address: CODE_AREA 00008794 - 0000879B (0x8 bytes), align: 2
  Segment part 465. ROOT.
           ENTRY                   ADDRESS         REF BY
           =====                   =======         ======
           ROOT_TIME               00008794        DaemonOnMessage (main)
    -------------------------------------------------------------------------
CONFIG_C
  Relative segment, address: CODE_AREA 0000879C - 000087C7 (0x2c bytes), align: 2
  Segment part 466. ROOT.
           ENTRY                   ADDRESS         REF BY
           =====                   =======         ======
           ROOT0                   0000879C 
    -------------------------------------------------------------------------
CSTACK
  Segment part 1. NOT NEEDED.

    *************************************************************************

  FILE NAME : D:\SVN\SieELF\SieELF\ScrTool2\Release_ELKA\Obj\func.r79
  PROGRAM MODULE, NAME : func

  SEGMENTS IN THE MODULE
  ======================
ELFBEGIN
  Relative segment, address: CODE_AREA 00000000, align: 0
  Segment part 0. ROOT.
           ENTRY                   ADDRESS         REF BY
           =====                   =======         ======
           ELF_BEGIN               00000000        Destructor (main)
    -------------------------------------------------------------------------
CODE
  Relative segment, address: CODE_AREA 00000418 - 0000041F (0x8 bytes), align: 2
  Segment part 1. ROOT.
           ENTRY                   ADDRESS         REF BY
           =====                   =======         ======
           kill_data               00000418        Canvas (main)
                                                   Destructor (main)
           seqkill                 0000041C 

    *************************************************************************

  FILE NAME : D:\SVN\SieELF\SieELF\ScrTool2\Release_ELKA\Obj\main.r79
  PROGRAM MODULE, NAME : main

  SEGMENTS IN THE MODULE
  ======================
CODE
  Segment part 38. NOT NEEDED.
    -------------------------------------------------------------------------
CODE
  Relative segment, address: CODE_AREA 00000420 - 0000046F (0x50 bytes), align: 2
  Segment part 39.            Intra module refs:   DoIt
                                                   MENU_ONKEY
           LOCAL                   ADDRESS         
           =====                   =======         
           RunAPP                  00000420 
               stack 1 = 00000000 ( 0000000C )
    -------------------------------------------------------------------------
CODE
  Segment part 40. NOT NEEDED.
    -------------------------------------------------------------------------
CODE
  Relative segment, address: CODE_AREA 00000470 - 000005DF (0x170 bytes), align: 2
  Segment part 41.            Intra module refs:   GetLunar
                                                   InitScreen
           LOCAL                   ADDRESS         
           =====                   =======         
           GetLDate                00000470 
               stack 1 = 00000000 ( 00000028 )
    -------------------------------------------------------------------------
CODE
  Segment part 42. NOT NEEDED.
    -------------------------------------------------------------------------
DATA_Z
  Relative segment, address: CODE_AREA 00004798 - 0000479F (0x8 bytes), align: 2
  Segment part 19.            Intra module refs:   GetLDate
    -------------------------------------------------------------------------
CODE
  Relative segment, address: CODE_AREA 000005E0 - 00000BEB (0x60c bytes), align: 2
  Segment part 43.            Intra module refs:   InitScreen
           LOCAL                   ADDRESS         
           =====                   =======         
           GetLunar                000005E0 
               stack 1 = 00000000 ( 00000084 )
    -------------------------------------------------------------------------
CODE
  Segment part 44. NOT NEEDED.
    -------------------------------------------------------------------------
CODE
  Relative segment, address: CODE_AREA 00000BEC - 00000C3F (0x54 bytes), align: 2
  Segment part 45.            Intra module refs:   DrawGUI
                                                   FillScreen
           LOCAL                   ADDRESS         
           =====                   =======         
           PixlsWidth              00000BEC 
               stack 1 = 00000000 ( 00000014 )
    -------------------------------------------------------------------------
CODE
  Segment part 46. NOT NEEDED.
    -------------------------------------------------------------------------
CODE
  Relative segment, address: CODE_AREA 00000C40 - 00000C8B (0x4c bytes), align: 2
  Segment part 47.            Intra module refs:   DaemonOnMessage
                                                   FindBCFGFile
           LOCAL                   ADDRESS         
           =====                   =======         
           strcmp_nocase           00000C40 
    -------------------------------------------------------------------------
CODE
  Segment part 48. NOT NEEDED.
    -------------------------------------------------------------------------
CODE
  Relative segment, address: CODE_AREA 00000C8C - 00000DAB (0x120 bytes), align: 2
  Segment part 49.            Intra module refs:   TaskCreate
           LOCAL                   ADDRESS         
           =====                   =======         
           PlayMusic               00000C8C 
               stack 1 = 00000000 ( 000000F4 )
    -------------------------------------------------------------------------
CODE
  Segment part 50. NOT NEEDED.
    -------------------------------------------------------------------------
CODE
  Relative segment, address: CODE_AREA 00000DAC - 00000E2B (0x80 bytes), align: 2
  Segment part 51.            Intra module refs:   DaemonOnMessage
                                                   InitScreen
           LOCAL                   ADDRESS         
           =====                   =======         
           MidStr                  00000DAC 
               stack 1 = 00000000 ( 00000118 )
    -------------------------------------------------------------------------
CODE
  Segment part 52. NOT NEEDED.
    -------------------------------------------------------------------------
DATA_Z
  Relative segment, address: CODE_AREA 000047A0 - 000047DF (0x40 bytes), align: 2
  Segment part 22.            Intra module refs:   Segment part 2
    -------------------------------------------------------------------------
DATA_Z
  Relative segment, address: CODE_AREA 000047E0 - 0000491F (0x140 bytes), align: 2
  Segment part 27.            Intra module refs:   FindBCFGFile
                                                   Segment part 112
                                                   Segment part 30
                                                   Segment part 78
    -------------------------------------------------------------------------
DATA_Z
  Relative segment, address: CODE_AREA 00004928 - 00004929 (0x2 bytes), align: 1
  Segment part 28.            Intra module refs:   Segment part 85
    -------------------------------------------------------------------------
DATA_I
  Relative segment, address: DATA_AREA 00000004 - 0000027B (0x278 bytes), align: 2
  Segment part 23.            Intra module refs:   DoIt
                                                   Segment part 130
                                                   Segment part 133
                                                   Segment part 58
                                                   Segment part 69
                                                   Segment part 92
                                                   TaskRedraw
           ENTRY                   ADDRESS         REF BY
           =====                   =======         ======
           OICSMOnClose            00000208 
    -------------------------------------------------------------------------
DATA_I
  Relative segment, address: DATA_AREA 0000027C - 00000287 (0xc bytes), align: 2
  Segment part 25.            Intra module refs:   DaemonKeyHook
    -------------------------------------------------------------------------
CODE
  Relative segment, address: CODE_AREA 00000E2C - 00000E7F (0x54 bytes), align: 2
  Segment part 53.            Intra module refs:   Segment part 30
           LOCAL                   ADDRESS         
           =====                   =======         
           MENU_HOOK               00000E2C 
               stack 1 = 00000000 ( 00000010 )
    -------------------------------------------------------------------------
CODE
  Segment part 54. NOT NEEDED.
    -------------------------------------------------------------------------
CODE
  Relative segment, address: CODE_AREA 00000E80 - 00000F5F (0xe0 bytes), align: 2
  Segment part 55.            Intra module refs:   Segment part 30
           LOCAL                   ADDRESS         
           =====                   =======         
           MENU_DRAW               00000E80 
               stack 1 = 00000000 ( 0000001C )
    -------------------------------------------------------------------------
CODE
  Segment part 56. NOT NEEDED.
    -------------------------------------------------------------------------
DATA_I
  Relative segment, address: DATA_AREA 00000288 - 000002C7 (0x40 bytes), align: 2
  Segment part 29.            Intra module refs:   TaskOnCreate
           ENTRY                   ADDRESS         REF BY
           =====                   =======         ======
           MENU_HDR                00000288 
           MENU_STRUCT             0000029C 
    -------------------------------------------------------------------------
DATA_I
  Relative segment, address: DATA_AREA 000002C8 - 000002D3 (0xc bytes), align: 2
  Segment part 31.            Intra module refs:   Segment part 30
    -------------------------------------------------------------------------
DATA_I
  Relative segment, address: DATA_AREA 000002D4 - 000002EB (0x18 bytes), align: 2
  Segment part 33.            Intra module refs:   Segment part 36
           ENTRY                   ADDRESS         REF BY
           =====                   =======         ======
           MENU_PRESS              000002D4 
    -------------------------------------------------------------------------
DATA_I
  Relative segment, address: DATA_AREA 000002EC - 000002F3 (0x8 bytes), align: 2
  Segment part 35.            Intra module refs:   Segment part 30
           ENTRY                   ADDRESS         REF BY
           =====                   =======         ======
           MENU_TAB                000002EC 
    -------------------------------------------------------------------------
CODE
  Relative segment, address: CODE_AREA 00000F60 - 00001003 (0xa4 bytes), align: 2
  Segment part 57.            Intra module refs:   Segment part 30
           LOCAL                   ADDRESS         
           =====                   =======         
           MENU_ONKEY              00000F60 
               stack 1 = 00000000 ( 00000018 )
    -------------------------------------------------------------------------
CODE
  Relative segment, address: CODE_AREA 00001004 - 00001007 (0x4 bytes), align: 2
  Segment part 58.            Intra module refs:   MENU_ONKEY
    -------------------------------------------------------------------------
CODE
  Segment part 59. NOT NEEDED.
    -------------------------------------------------------------------------
CODE
  Relative segment, address: CODE_AREA 00001008 - 000011AF (0x1a8 bytes), align: 2
  Segment part 60.            Intra module refs:   TaskOnCreate
           LOCAL                   ADDRESS         
           =====                   =======         
           FindBCFGFile            00001008 
               stack 1 = 00000000 ( 000003E4 )
    -------------------------------------------------------------------------
CODE
  Segment part 61. NOT NEEDED.
    -------------------------------------------------------------------------
CODE
  Relative segment, address: CODE_AREA 000011B0 - 00001273 (0xc4 bytes), align: 2
  Segment part 62.            Intra module refs:   InitShow
           LOCAL                   ADDRESS         
           =====                   =======         
           SetIDS                  000011B0 
               stack 1 = 00000000 ( 0000000C )
    -------------------------------------------------------------------------
CODE
  Segment part 63. NOT NEEDED.
    -------------------------------------------------------------------------
CODE
  Relative segment, address: CODE_AREA 00001274 - 0000171B (0x4a8 bytes), align: 2
  Segment part 64.            Intra module refs:   DaemonInit
                                                   DaemonOnMessage
           LOCAL                   ADDRESS         
           =====                   =======         
           InitShow                00001274 
               stack 1 = 00000000 ( 0000003C )
    -------------------------------------------------------------------------
CODE
  Segment part 65. NOT NEEDED.
    -------------------------------------------------------------------------
CODE
  Relative segment, address: CODE_AREA 0000171C - 000017B7 (0x9c bytes), align: 2
  Segment part 66.            Intra module refs:   InitScreen
           LOCAL                   ADDRESS         
           =====                   =======         
           FillScreen              0000171C 
               stack 1 = 00000000 ( 00000018 )
    -------------------------------------------------------------------------
CODE
  Segment part 67. NOT NEEDED.
    -------------------------------------------------------------------------
CODE
  Relative segment, address: CODE_AREA 000017B8 - 00002043 (0x88c bytes), align: 2
  Segment part 68.            Intra module refs:   DaemonOnMessage
           LOCAL                   ADDRESS         
           =====                   =======         
           InitScreen              000017B8 
               stack 1 = 00000000 ( 0000008C )
    -------------------------------------------------------------------------
CODE
  Relative segment, address: CODE_AREA 00002044 - 00002047 (0x4 bytes), align: 2
  Segment part 69.            Intra module refs:   InitScreen
                                                   InitShow
    -------------------------------------------------------------------------
CODE
  Relative segment, address: CODE_AREA 00002048 - 0000204B (0x4 bytes), align: 2
  Segment part 70.            Intra module refs:   InitScreen
    -------------------------------------------------------------------------
CODE
  Segment part 71. NOT NEEDED.
    -------------------------------------------------------------------------
CODE
  Relative segment, address: CODE_AREA 0000204C - 000029C7 (0x97c bytes), align: 2
  Segment part 72.            Intra module refs:   TaskRedraw
           LOCAL                   ADDRESS         
           =====                   =======         
           DrawGUI                 0000204C 
               stack 1 = 00000000 ( 000000B8 )
    -------------------------------------------------------------------------
CODE
  Relative segment, address: CODE_AREA 000029C8 - 000029CB (0x4 bytes), align: 2
  Segment part 73.            Intra module refs:   DrawGUI
    -------------------------------------------------------------------------
CODE
  Segment part 74. NOT NEEDED.
    -------------------------------------------------------------------------
CODE
  Relative segment, address: CODE_AREA 000029CC - 000029EB (0x20 bytes), align: 2
  Segment part 75.            Intra module refs:   Canvas
           LOCAL                   ADDRESS         
           =====                   =======         
           TaskRedraw              000029CC 
               stack 1 = 00000000 ( 00000004 )
    -------------------------------------------------------------------------
CODE
  Segment part 76. NOT NEEDED.
    -------------------------------------------------------------------------
CODE
  Relative segment, address: CODE_AREA 000029EC - 00002A33 (0x48 bytes), align: 2
  Segment part 77.            Intra module refs:   InitMenu
           LOCAL                   ADDRESS         
           =====                   =======         
           APP_TRAF                000029EC 
               stack 1 = 00000000 ( 00000008 )
    -------------------------------------------------------------------------
CODE
  Relative segment, address: CODE_AREA 00002A34 - 00002A37 (0x4 bytes), align: 2
  Segment part 78.            Intra module refs:   APP_TRAF
                                                   DrawGUI
    -------------------------------------------------------------------------
CODE
  Segment part 79. NOT NEEDED.
    -------------------------------------------------------------------------
CODE
  Relative segment, address: CODE_AREA 00002A38 - 00002CC3 (0x28c bytes), align: 2
  Segment part 80.            Intra module refs:   TaskCreate
           LOCAL                   ADDRESS         
           =====                   =======         
           InitMenu                00002A38 
               stack 1 = 00000000 ( 00000014 )
    -------------------------------------------------------------------------
CODE
  Segment part 81. NOT NEEDED.
    -------------------------------------------------------------------------
CODE
  Relative segment, address: CODE_AREA 00002CC4 - 00002D4F (0x8c bytes), align: 2
  Segment part 82.            Intra module refs:   Canvas
           LOCAL                   ADDRESS         
           =====                   =======         
           TaskCreate              00002CC4 
               stack 1 = 00000000 ( 00000014 )
    -------------------------------------------------------------------------
CODE
  Segment part 83. NOT NEEDED.
    -------------------------------------------------------------------------
CODE
  Relative segment, address: CODE_AREA 00002D50 - 00002DB7 (0x68 bytes), align: 2
  Segment part 84.            Intra module refs:   Canvas
           LOCAL                   ADDRESS         
           =====                   =======         
           TaskClose               00002D50 
               stack 1 = 00000000 ( 00000010 )
    -------------------------------------------------------------------------
CODE
  Relative segment, address: CODE_AREA 00002DB8 - 00002DBB (0x4 bytes), align: 2
  Segment part 85.            Intra module refs:   TaskClose
                                                   TaskCreate
    -------------------------------------------------------------------------
CODE
  Segment part 86. NOT NEEDED.
    -------------------------------------------------------------------------
CODE
  Relative segment, address: CODE_AREA 00002DBC - 00002DC7 (0xc bytes), align: 2
  Segment part 87.            Intra module refs:   Canvas
           LOCAL                   ADDRESS         
           =====                   =======         
           TaskFocus               00002DBC 
    -------------------------------------------------------------------------
CODE
  Segment part 88. NOT NEEDED.
    -------------------------------------------------------------------------
CODE
  Relative segment, address: CODE_AREA 00002DC8 - 00002DDB (0x14 bytes), align: 2
  Segment part 89.            Intra module refs:   Canvas
           LOCAL                   ADDRESS         
           =====                   =======         
           TaskUnfus               00002DC8 
    -------------------------------------------------------------------------
CODE
  Segment part 90. NOT NEEDED.
    -------------------------------------------------------------------------
CODE
  Relative segment, address: CODE_AREA 00002DDC - 00002F0F (0x134 bytes), align: 2
  Segment part 91.            Intra module refs:   Canvas
           LOCAL                   ADDRESS         
           =====                   =======         
           TaskKeypress            00002DDC 
               stack 1 = 00000000 ( 00000004 )
    -------------------------------------------------------------------------
CODE
  Relative segment, address: CODE_AREA 00002F10 - 00002F13 (0x4 bytes), align: 2
  Segment part 92.            Intra module refs:   APP_TRAF
                                                   DrawGUI
                                                   InitMenu
                                                   TaskClose
                                                   TaskCreate
                                                   TaskKeypress
    -------------------------------------------------------------------------
CODE
  Relative segment, address: CODE_AREA 00002F14 - 00002F17 (0x4 bytes), align: 2
  Segment part 93.            Intra module refs:   DrawGUI
                                                   TaskKeypress
    -------------------------------------------------------------------------
CODE
  Segment part 94. NOT NEEDED.
    -------------------------------------------------------------------------
CODE
  Relative segment, address: CODE_AREA 00002F18 - 00002F1B (0x4 bytes), align: 2
  Segment part 95.            Intra module refs:   Canvas
           LOCAL                   ADDRESS         
           =====                   =======         
           TaskMethod8             00002F18 
    -------------------------------------------------------------------------
CODE
  Segment part 96. NOT NEEDED.
    -------------------------------------------------------------------------
CODE
  Relative segment, address: CODE_AREA 00002F1C, align: 2
  Segment part 97.            Intra module refs:   Canvas
           LOCAL                   ADDRESS         
           =====                   =======         
           TaskMethod9             00002F1C 
    -------------------------------------------------------------------------
CODE
  Relative segment, address: CODE_AREA 00002F1C - 00002F23 (0x8 bytes), align: 2
  Segment part 98.            Intra module refs:   TaskMethod8
                                                   TaskMethod9
    -------------------------------------------------------------------------
CODE
  Segment part 99. NOT NEEDED.
    -------------------------------------------------------------------------
CODE
  Relative segment, address: CODE_AREA 00002F24 - 00003017 (0xf4 bytes), align: 2
  Segment part 100.           Intra module refs:   Segment part 2
           LOCAL                   ADDRESS         
           =====                   =======         
           TaskOnCreate            00002F24 
               stack 1 = 00000000 ( 00000028 )
    -------------------------------------------------------------------------
CODE
  Segment part 101. NOT NEEDED.
    -------------------------------------------------------------------------
CODE
  Relative segment, address: CODE_AREA 00003018 - 0000301B (0x4 bytes), align: 2
  Segment part 102.           Intra module refs:   TaskOnClose
           LOCAL                   ADDRESS         
           =====                   =======         
           TaskKiller              00003018 
    -------------------------------------------------------------------------
CODE
  Segment part 103. NOT NEEDED.
    -------------------------------------------------------------------------
CODE
  Relative segment, address: CODE_AREA 0000301C - 0000302F (0x14 bytes), align: 2
  Segment part 104.           Intra module refs:   Segment part 2
           LOCAL                   ADDRESS         
           =====                   =======         
           TaskOnClose             0000301C 
               stack 1 = 00000000 ( 00000004 )
    -------------------------------------------------------------------------
CODE
  Segment part 105. NOT NEEDED.
    -------------------------------------------------------------------------
CODE
  Relative segment, address: CODE_AREA 00003030 - 0000305B (0x2c bytes), align: 2
  Segment part 106.           Intra module refs:   Segment part 2
           LOCAL                   ADDRESS         
           =====                   =======         
           TaskOnMessage           00003030 
    -------------------------------------------------------------------------
CODE
  Segment part 107. NOT NEEDED.
    -------------------------------------------------------------------------
DATA_C
  Relative segment, address: CODE_AREA 00003D3C - 00004087 (0x34c bytes), align: 2
  Segment part 2.             Intra module refs:   DrawGUI
                                                   Segment part 109
                                                   Segment part 70
    -------------------------------------------------------------------------
DATA_C
  Segment part 3. NOT NEEDED.
    -------------------------------------------------------------------------
DATA_C
  Relative segment, address: CODE_AREA 00004088 - 0000408F (0x8 bytes), align: 2
  Segment part 4.             Intra module refs:   Segment part 34
    -------------------------------------------------------------------------
DATA_C
  Segment part 5. NOT NEEDED.
    -------------------------------------------------------------------------
DATA_C
  Segment part 6. NOT NEEDED.
    -------------------------------------------------------------------------
DATA_C
  Segment part 7. NOT NEEDED.
    -------------------------------------------------------------------------
DATA_C
  Relative segment, address: CODE_AREA 00004090 - 00004097 (0x8 bytes), align: 2
  Segment part 8.             Intra module refs:   MENU_DRAW
    -------------------------------------------------------------------------
DATA_C
  Segment part 9. NOT NEEDED.
    -------------------------------------------------------------------------
DATA_C
  Segment part 10. NOT NEEDED.
    -------------------------------------------------------------------------
DATA_C
  Relative segment, address: CODE_AREA 0000477D - 0000477E (0x2 bytes), align: 0
  Segment part 11.            Intra module refs:   Segment part 34
    -------------------------------------------------------------------------
DATA_C
  Relative segment, address: CODE_AREA 00004098 - 0000409F (0x8 bytes), align: 2
  Segment part 12.            Intra module refs:   Segment part 34
    -------------------------------------------------------------------------
DATA_C
  Relative segment, address: CODE_AREA 000040A0 - 000040BF (0x20 bytes), align: 2
  Segment part 13.            Intra module refs:   DaemonOnMessage
                                                   Segment part 20
    -------------------------------------------------------------------------
DATA_C
  Segment part 14. NOT NEEDED.
    -------------------------------------------------------------------------
DATA_C
  Segment part 15. NOT NEEDED.
    -------------------------------------------------------------------------
DATA_C
  Segment part 16. NOT NEEDED.
    -------------------------------------------------------------------------
DATA_C
  Relative segment, address: CODE_AREA 000040C0 - 0000453F (0x480 bytes), align: 2
  Segment part 17.            Intra module refs:   GetLunar
    -------------------------------------------------------------------------
DATA_C
  Relative segment, address: CODE_AREA 00004540 - 000046E7 (0x1a8 bytes), align: 2
  Segment part 18.            Intra module refs:   GetLDate
    -------------------------------------------------------------------------
DATA_C
  Relative segment, address: CODE_AREA 000046E8 - 000046F3 (0xc bytes), align: 2
  Segment part 20.            Intra module refs:   Segment part 134
    -------------------------------------------------------------------------
DATA_C
  Relative segment, address: CODE_AREA 000046F4 - 000046F7 (0x4 bytes), align: 2
  Segment part 21.            Intra module refs:   Segment part 2
    -------------------------------------------------------------------------
DATA_C
  Relative segment, address: CODE_AREA 000046F8 - 0000472B (0x34 bytes), align: 2
  Segment part 37.            Intra module refs:   TaskOnCreate
           ENTRY                   ADDRESS         REF BY
           =====                   =======         ======
           Canvas                  00004724 
    -------------------------------------------------------------------------
CODE
  Relative segment, address: CODE_AREA 0000305C - 000030AF (0x54 bytes), align: 2
  Segment part 108.           Intra module refs:   DaemonKeyHook
                                                   DaemonOnMessage
                                                   DoIt
           LOCAL                   ADDRESS         
           =====                   =======         
           BuildGUI                0000305C 
               stack 1 = 00000000 ( 00000040 )
    -------------------------------------------------------------------------
CODE
  Relative segment, address: CODE_AREA 000030B0 - 000030B3 (0x4 bytes), align: 2
  Segment part 109.           Intra module refs:   BuildGUI
                                                   DrawGUI
    -------------------------------------------------------------------------
CODE
  Segment part 110. NOT NEEDED.
    -------------------------------------------------------------------------
CODE
  Relative segment, address: CODE_AREA 000030B4 - 000031BB (0x108 bytes), align: 2
  Segment part 111.           Intra module refs:   TaskKeypress
           LOCAL                   ADDRESS         
           =====                   =======         
           DoIt                    000030B4 
               stack 1 = 00000000 ( 0000000C )
    -------------------------------------------------------------------------
CODE
  Relative segment, address: CODE_AREA 000031BC - 000031BF (0x4 bytes), align: 2
  Segment part 112.           Intra module refs:   DoIt
    -------------------------------------------------------------------------
CODE
  Segment part 113. NOT NEEDED.
    -------------------------------------------------------------------------
CODE
  Relative segment, address: CODE_AREA 000031C0 - 0000328F (0xd0 bytes), align: 2
  Segment part 114.           Intra module refs:   Segment part 136
           LOCAL                   ADDRESS         
           =====                   =======         
           DaemonKeyHook           000031C0 
               stack 1 = 00000000 ( 0000000C )
    -------------------------------------------------------------------------
CODE
  Relative segment, address: CODE_AREA 00003290 - 00003293 (0x4 bytes), align: 2
  Segment part 115.           Intra module refs:   DaemonKeyHook
                                                   TaskKeypress
    -------------------------------------------------------------------------
CODE
  Segment part 116. NOT NEEDED.
    -------------------------------------------------------------------------
CODE
  Relative segment, address: CODE_AREA 00003294 - 000032B7 (0x24 bytes), align: 2
  Segment part 117.           Intra module refs:   DaemonOnMessage
           LOCAL                   ADDRESS         
           =====                   =======         
           TimerProc               00003294 
               stack 1 = 00000000 ( 00000004 )
    -------------------------------------------------------------------------
CODE
  Segment part 118. NOT NEEDED.
    -------------------------------------------------------------------------
CODE
  Relative segment, address: CODE_AREA 000032B8 - 0000379B (0x4e4 bytes), align: 2
  Segment part 119.           Intra module refs:   main
           LOCAL                   ADDRESS         
           =====                   =======         
           DaemonOnMessage         000032B8 
               stack 1 = 00000000 ( 00000074 )
    -------------------------------------------------------------------------
CODE
  Relative segment, address: CODE_AREA 0000379C - 0000379F (0x4 bytes), align: 2
  Segment part 120.           Intra module refs:   DaemonOnMessage
                                                   DoIt
    -------------------------------------------------------------------------
CODE
  Relative segment, address: CODE_AREA 000037A0 - 000037A3 (0x4 bytes), align: 2
  Segment part 121.           Intra module refs:   DaemonOnMessage
    -------------------------------------------------------------------------
CODE
  Segment part 122. NOT NEEDED.
    -------------------------------------------------------------------------
CODE
  Relative segment, address: CODE_AREA 000037A4 - 0000388F (0xec bytes), align: 2
  Segment part 123.           Intra module refs:   main
           LOCAL                   ADDRESS         
           =====                   =======         
           DaemonInit              000037A4 
               stack 1 = 00000000 ( 00000020 )
    -------------------------------------------------------------------------
CODE
  Relative segment, address: CODE_AREA 00003890 - 00003893 (0x4 bytes), align: 2
  Segment part 124.           Intra module refs:   DaemonInit
                                                   DaemonOnMessage
    -------------------------------------------------------------------------
CODE
  Segment part 125. NOT NEEDED.
    -------------------------------------------------------------------------
CODE
  Relative segment, address: CODE_AREA 00003894 - 000038AF (0x1c bytes), align: 2
  Segment part 126.           Intra module refs:   Segment part 129
           LOCAL                   ADDRESS         
           =====                   =======         
           Destructor              00003894 
               stack 1 = 00000000 ( 00000004 )
    -------------------------------------------------------------------------
CODE
  Segment part 127. NOT NEEDED.
    -------------------------------------------------------------------------
CODE
  Relative segment, address: CODE_AREA 000038B0 - 00003923 (0x74 bytes), align: 2
  Segment part 128.           Intra module refs:   main
           LOCAL                   ADDRESS         
           =====                   =======         
           DaemonOnClose           000038B0 
               stack 1 = 00000000 ( 0000000C )
    -------------------------------------------------------------------------
CODE
  Relative segment, address: CODE_AREA 00003924 - 0000392F (0xc bytes), align: 2
  Segment part 129.           Intra module refs:   DaemonOnClose
                                                   DoIt
    -------------------------------------------------------------------------
CODE
  Relative segment, address: CODE_AREA 00003930 - 00003933 (0x4 bytes), align: 2
  Segment part 130.           Intra module refs:   DaemonInit
                                                   DaemonOnClose
                                                   DaemonOnMessage
    -------------------------------------------------------------------------
CODE
  Segment part 131. NOT NEEDED.
    -------------------------------------------------------------------------
CODE
  Relative segment, address: CODE_AREA 00003934 - 000039E3 (0xb0 bytes), align: 2
  Segment part 132.
           ENTRY                   ADDRESS         REF BY
           =====                   =======         ======
           main                    00003934        Absolute parts (?ABS_ENTRY_MOD)
               stack 1 = 00000000 ( 00000010 )
    -------------------------------------------------------------------------
CODE
  Relative segment, address: CODE_AREA 000039E4 - 000039E7 (0x4 bytes), align: 2
  Segment part 133.           Intra module refs:   BuildGUI
                                                   TaskOnCreate
                                                   main
    -------------------------------------------------------------------------
CODE
  Relative segment, address: CODE_AREA 000039E8 - 000039EB (0x4 bytes), align: 2
  Segment part 134.           Intra module refs:   TimerProc
                                                   main
    -------------------------------------------------------------------------
CODE
  Relative segment, address: CODE_AREA 000039EC - 000039EF (0x4 bytes), align: 2
  Segment part 135.           Intra module refs:   DaemonOnMessage
                                                   main
    -------------------------------------------------------------------------
CODE
  Relative segment, address: CODE_AREA 000039F0 - 000039F3 (0x4 bytes), align: 2
  Segment part 136.           Intra module refs:   DaemonOnClose
                                                   DaemonOnMessage
                                                   main
    -------------------------------------------------------------------------
CODE
  Segment part 137. NOT NEEDED.Intra module refs   DaemonOnMessage
                                                   DrawGUI
                                                   GetLunar
    -------------------------------------------------------------------------
CODE
  Segment part 138. NOT NEEDED.Intra module refs   DrawGUI
                                                   GetLunar
                                                   InitScreen
    -------------------------------------------------------------------------
CODE
  Segment part 139. NOT NEEDED.Intra module refs   DoIt
    -------------------------------------------------------------------------
CODE
  Segment part 140. NOT NEEDED.Intra module refs   DaemonOnMessage
                                                   main
    -------------------------------------------------------------------------
CODE
  Segment part 141. NOT NEEDED.Intra module refs   Destructor
    -------------------------------------------------------------------------
CSTACK
  Segment part 1. NOT NEEDED.
    -------------------------------------------------------------------------
DATA_ID
  Relative segment, address: CODE_AREA 00000004 - 0000027B (0x278 bytes), align: 2
  Segment part 24.            Intra module refs:   OICSMOnClose
    -------------------------------------------------------------------------
DATA_ID
  Relative segment, address: CODE_AREA 0000027C - 00000287 (0xc bytes), align: 2
  Segment part 26.            Intra module refs:   Segment part 25
    -------------------------------------------------------------------------
DATA_ID
  Relative segment, address: CODE_AREA 00000288 - 000002C7 (0x40 bytes), align: 2
  Segment part 30.            Intra module refs:   Segment part 29
    -------------------------------------------------------------------------
DATA_ID
  Relative segment, address: CODE_AREA 000002C8 - 000002D3 (0xc bytes), align: 2
  Segment part 32.            Intra module refs:   Segment part 31
    -------------------------------------------------------------------------
DATA_ID
  Relative segment, address: CODE_AREA 000002D4 - 000002EB (0x18 bytes), align: 2
  Segment part 34.            Intra module refs:   MENU_PRESS
    -------------------------------------------------------------------------
DATA_ID
  Relative segment, address: CODE_AREA 000002EC - 000002F3 (0x8 bytes), align: 2
  Segment part 36.            Intra module refs:   MENU_TAB
    -------------------------------------------------------------------------
DATA_ID
  Segment part 142. TENTATIVE. Used definition from conf_loader
           ENTRY                   ADDRESS         REF BY
           =====                   =======         ======
           ?*?DATA_ID              
    -------------------------------------------------------------------------
INITTAB
  Segment part 143. TENTATIVE. Used definition from conf_loader
           ENTRY                   ADDRESS         REF BY
           =====                   =======         ======
           ?init?tab?DATA_I        
    -------------------------------------------------------------------------
INITTAB
  Relative segment, address: CODE_AREA 0000478C - 00004797 (0xc bytes), align: 2
  Segment part 144. ROOT.
           ENTRY                   ADDRESS         REF BY
           =====                   =======         ======
           ?init?tab?DATA_Z        0000478C 

    *************************************************************************

  FILE NAME : D:\Program Files\IAR\Embedded Workbench 4.0 Evaluation\ARM\LIB\dl5tpainl8n.r79
  LIBRARY MODULE, NAME : ?errno

  SEGMENTS IN THE MODULE
  ======================
DATA_Z
  Relative segment, address: CODE_AREA 00004920 - 00004927 (0x8 bytes), align: 2
  Segment part 2.             Intra module refs:   _Geterrno
           ENTRY                   ADDRESS         REF BY
           =====                   =======         ======
           _Errno                  00004924 
           _Tls_setup__Errno       00004920 
    -------------------------------------------------------------------------
CODE
  Segment part 3. NOT NEEDED.
    -------------------------------------------------------------------------
CODE
  Relative segment, address: CODE_AREA 000039F4 - 00003A17 (0x24 bytes), align: 2
  Segment part 4.
           ENTRY                   ADDRESS         REF BY
           =====                   =======         ======
           _Geterrno               000039F4        _Stoul (?xstoul)
               stack 1 = 00000000 ( 00000008 )
    -------------------------------------------------------------------------
CSTACK
  Segment part 1. NOT NEEDED.
    -------------------------------------------------------------------------
INITTAB
  Segment part 5. TENTATIVE. Used definition from main
           ENTRY                   ADDRESS         REF BY
           =====                   =======         ======
           ?init?tab?DATA_Z        

    -------------------------------------------------------------------------
  LIBRARY MODULE, NAME : ?memchr

  SEGMENTS IN THE MODULE
  ======================
CODE
  Segment part 3. NOT NEEDED.
           ENTRY                   ADDRESS         REF BY
           =====                   =======         ======
           memchr                  
               not allocated function
    -------------------------------------------------------------------------
CODE
  Segment part 4. NOT NEEDED.
    -------------------------------------------------------------------------
DATA_C
  Segment part 2. NOT NEEDED.
           ENTRY                   ADDRESS         REF BY
           =====                   =======         ======
           _Instansiator_memchr    
    -------------------------------------------------------------------------
CODE
  Relative segment, address: CODE_AREA 00003A18 - 00003A47 (0x30 bytes), align: 2
  Segment part 5.
           ENTRY                   ADDRESS         REF BY
           =====                   =======         ======
           _Memchr                 00003A18        _Stoul (?xstoul)
    -------------------------------------------------------------------------
CSTACK
  Segment part 1. NOT NEEDED.

    -------------------------------------------------------------------------
  LIBRARY MODULE, NAME : ?strtoul

  SEGMENTS IN THE MODULE
  ======================
CODE
  Relative segment, address: CODE_AREA 00003A48 - 00003A57 (0x10 bytes), align: 2
  Segment part 3.
           ENTRY                   ADDRESS         REF BY
           =====                   =======         ======
           strtoul                 00003A48        DoIt (main)
               stack 1 = 00000000 ( 00000008 )
    -------------------------------------------------------------------------
CODE
  Segment part 4. NOT NEEDED. Intra module refs:   strtoul
    -------------------------------------------------------------------------
DATA_C
  Segment part 2. NOT NEEDED.
           ENTRY                   ADDRESS         REF BY
           =====                   =======         ======
           _Instansiator_strtoul   
    -------------------------------------------------------------------------
CSTACK
  Segment part 1. NOT NEEDED.

    -------------------------------------------------------------------------
  LIBRARY MODULE, NAME : ?xstoul

  SEGMENTS IN THE MODULE
  ======================
DATA_C
  Relative segment, address: CODE_AREA 0000472C - 0000477B (0x50 bytes), align: 2
  Segment part 2.             Intra module refs:   _Stoul
    -------------------------------------------------------------------------
CODE
  Segment part 3. NOT NEEDED.
    -------------------------------------------------------------------------
CODE
  Relative segment, address: CODE_AREA 00003A58 - 00003C07 (0x1b0 bytes), align: 2
  Segment part 4.
           ENTRY                   ADDRESS         REF BY
           =====                   =======         ======
           _Stoul                  00003A58        strtoul (?strtoul)
               stack 1 = 00000000 ( 00000030 )
    -------------------------------------------------------------------------
CODE
  Segment part 5. NOT NEEDED. Intra module refs:   _Stoul
    -------------------------------------------------------------------------
CODE
  Segment part 6. NOT NEEDED. Intra module refs:   _Stoul
    -------------------------------------------------------------------------
CODE
  Segment part 7. NOT NEEDED. Intra module refs:   _Stoul
    -------------------------------------------------------------------------
CSTACK
  Segment part 1. NOT NEEDED.

    -------------------------------------------------------------------------
  LIBRARY MODULE, NAME : ?div_module

  SEGMENTS IN THE MODULE
  ======================
CODE
  Segment part 0. NOT NEEDED.
           ENTRY                   ADDRESS         REF BY
           =====                   =======         ======
           ??divu8_t               
    -------------------------------------------------------------------------
CODE
  Segment part 1. NOT NEEDED.
           ENTRY                   ADDRESS         REF BY
           =====                   =======         ======
           ??divu8_a               
    -------------------------------------------------------------------------
CODE
  Segment part 2. NOT NEEDED.
           ENTRY                   ADDRESS         REF BY
           =====                   =======         ======
           ??divu16_t              
    -------------------------------------------------------------------------
CODE
  Segment part 3. NOT NEEDED.
           ENTRY                   ADDRESS         REF BY
           =====                   =======         ======
           ??divu16_a              
    -------------------------------------------------------------------------
CODE
  Segment part 4. NOT NEEDED.
           ENTRY                   ADDRESS         REF BY
           =====                   =======         ======
           ??divu32_t              
    -------------------------------------------------------------------------
CODE
  Relative segment, address: CODE_AREA 00003C08 - 00003C13 (0xc bytes), align: 2
  Segment part 5.
           ENTRY                   ADDRESS         REF BY
           =====                   =======         ======
           ??divu32_a              00003C08        DaemonOnMessage (main)
                                                   DrawGUI (main)
                                                   GetLunar (main)
                                                   _Stoul (?xstoul)
    -------------------------------------------------------------------------
CODE
  Segment part 6. NOT NEEDED.
           ENTRY                   ADDRESS         REF BY
           =====                   =======         ======
           ??div8_t                
    -------------------------------------------------------------------------
CODE
  Segment part 7. NOT NEEDED.
           ENTRY                   ADDRESS         REF BY
           =====                   =======         ======
           ??div8_a                
    -------------------------------------------------------------------------
CODE
  Segment part 8. NOT NEEDED.
           ENTRY                   ADDRESS         REF BY
           =====                   =======         ======
           ??div16_t               
    -------------------------------------------------------------------------
CODE
  Segment part 9. NOT NEEDED.
           ENTRY                   ADDRESS         REF BY
           =====                   =======         ======
           ??div16_a               
    -------------------------------------------------------------------------
CODE
  Segment part 10. NOT NEEDED.
           ENTRY                   ADDRESS         REF BY
           =====                   =======         ======
           ??div32_t               
    -------------------------------------------------------------------------
CODE
  Relative segment, address: CODE_AREA 00003C14 - 00003C2B (0x18 bytes), align: 2
  Segment part 11.
           ENTRY                   ADDRESS         REF BY
           =====                   =======         ======
           ??div32_a               00003C14        DrawGUI (main)
                                                   GetLunar (main)
                                                   InitScreen (main)
    -------------------------------------------------------------------------
CODE
  Relative segment, address: CODE_AREA 00003C2C - 00003D03 (0xd8 bytes), align: 2
  Segment part 12.            Intra module refs:   ??div32_a
                                                   ??divu32_a




                ****************************************
                *                                      *
                *            MODULE SUMMARY            *
                *                                      *
                ****************************************

Module             CODE   DATA
------             ----   ----
                  (Rel)  (Rel)
?div_module         252
?errno               44
?memchr              48
?strtoul             16
?xstoul             512
conf_loader         353      4
  + shared           12
config_data      16 028
func                  8
main             17 472    752
  + shared           12
N/A (alignment)
------           ------    ---
Total:           34 757    756


                ****************************************
                *                                      *
                *              CALL GRAPH              *
                *                                      *
                ****************************************

  ->Sub-tree of type: Indirectly called function tree that does not make
                    : indirect calls (Is not an interrupt and is not flagged
                    : as not overlayable)
                             CSTACK
    | Stack used (prev) :  00000000
  01  MENU_HOOK
      | Stack used (prev) :  00000000
      | + function block  :  00000010
  <-Sub-tree of type: Indirectly called function tree that does not make
                    : indirect calls (Is not an interrupt and is not flagged
                    : as not overlayable)
    | Stack used          :  00000010


  ->Sub-tree of type: Indirectly called function tree that does not make
                    : indirect calls (Is not an interrupt and is not flagged
                    : as not overlayable)
                             CSTACK
    | Stack used (prev) :  00000000
  01  MENU_DRAW
      | Stack used (prev) :  00000000
      | + function block  :  0000001C
  <-Sub-tree of type: Indirectly called function tree that does not make
                    : indirect calls (Is not an interrupt and is not flagged
                    : as not overlayable)
    | Stack used          :  0000001C


  ->Sub-tree of type: Indirectly called function tree that does not make
                    : indirect calls (Is not an interrupt and is not flagged
                    : as not overlayable)
                             CSTACK
    | Stack used (prev) :  00000000
  01  MENU_ONKEY
      | Stack used (prev) :  00000000
      | + function block  :  00000018
  <-Sub-tree of type: Indirectly called function tree that does not make
                    : indirect calls (Is not an interrupt and is not flagged
                    : as not overlayable)
    | Stack used          :  00000018


  ->Sub-tree of type: Indirectly called function tree that does not make
                    : indirect calls (Is not an interrupt and is not flagged
                    : as not overlayable)
                             CSTACK
    | Stack used (prev) :  00000000
  01  DrawGUI
      | Stack used (prev) :  00000000
      | + function block  :  000000B8
  <-Sub-tree of type: Indirectly called function tree that does not make
                    : indirect calls (Is not an interrupt and is not flagged
                    : as not overlayable)
    | Stack used          :  000000B8


  ->Sub-tree of type: Indirectly called function tree that does not make
                    : indirect calls (Is not an interrupt and is not flagged
                    : as not overlayable)
                             CSTACK
    | Stack used (prev) :  00000000
  01  TaskRedraw
      | Stack used (prev) :  00000000
      | + function block  :  00000004
  <-Sub-tree of type: Indirectly called function tree that does not make
                    : indirect calls (Is not an interrupt and is not flagged
                    : as not overlayable)
    | Stack used          :  00000004


  ->Sub-tree of type: Indirectly called function tree that does not make
                    : indirect calls (Is not an interrupt and is not flagged
                    : as not overlayable)
                             CSTACK
    | Stack used (prev) :  00000000
  01  TaskCreate
      | Stack used (prev) :  00000000
      | + function block  :  00000014
  <-Sub-tree of type: Indirectly called function tree that does not make
                    : indirect calls (Is not an interrupt and is not flagged
                    : as not overlayable)
    | Stack used          :  00000014


  ->Sub-tree of type: Indirectly called function tree that does not make
                    : indirect calls (Is not an interrupt and is not flagged
                    : as not overlayable)
                             CSTACK
    | Stack used (prev) :  00000000
  01  TaskClose
      | Stack used (prev) :  00000000
      | + function block  :  00000010
  <-Sub-tree of type: Indirectly called function tree that does not make
                    : indirect calls (Is not an interrupt and is not flagged
                    : as not overlayable)
    | Stack used          :  00000010


  ->Sub-tree of type: Indirectly called function tree that does not make
                    : indirect calls (Is not an interrupt and is not flagged
                    : as not overlayable)
                             CSTACK
    | Stack used (prev) :  00000000
  01  TaskFocus
      | Stack used (prev) :  00000000
      | + function block  :  00000000
  <-Sub-tree of type: Indirectly called function tree that does not make
                    : indirect calls (Is not an interrupt and is not flagged
                    : as not overlayable)
    | Stack used          :  00000000


  ->Sub-tree of type: Indirectly called function tree that does not make
                    : indirect calls (Is not an interrupt and is not flagged
                    : as not overlayable)
                             CSTACK
    | Stack used (prev) :  00000000
  01  TaskUnfus
      | Stack used (prev) :  00000000
      | + function block  :  00000000
  <-Sub-tree of type: Indirectly called function tree that does not make
                    : indirect calls (Is not an interrupt and is not flagged
                    : as not overlayable)
    | Stack used          :  00000000


  ->Sub-tree of type: Indirectly called function tree that does not make
                    : indirect calls (Is not an interrupt and is not flagged
                    : as not overlayable)
                             CSTACK
    | Stack used (prev) :  00000000
  01  TaskKeypress
      | Stack used (prev) :  00000000
      | + function block  :  00000004
  <-Sub-tree of type: Indirectly called function tree that does not make
                    : indirect calls (Is not an interrupt and is not flagged
                    : as not overlayable)
    | Stack used          :  00000004


  ->Sub-tree of type: Indirectly called function tree that does not make
                    : indirect calls (Is not an interrupt and is not flagged
                    : as not overlayable)
                             CSTACK
    | Stack used (prev) :  00000000
  01  TaskMethod8
      | Stack used (prev) :  00000000
      | + function block  :  00000000
  <-Sub-tree of type: Indirectly called function tree that does not make
                    : indirect calls (Is not an interrupt and is not flagged
                    : as not overlayable)
    | Stack used          :  00000000


  ->Sub-tree of type: Indirectly called function tree that does not make
                    : indirect calls (Is not an interrupt and is not flagged
                    : as not overlayable)
                             CSTACK
    | Stack used (prev) :  00000000
  01  TaskMethod9
      | Stack used (prev) :  00000000
      | + function block  :  00000000
  <-Sub-tree of type: Indirectly called function tree that does not make
                    : indirect calls (Is not an interrupt and is not flagged
                    : as not overlayable)
    | Stack used          :  00000000


  ->Sub-tree of type: Indirectly called function tree that does not make
                    : indirect calls (Is not an interrupt and is not flagged
                    : as not overlayable)
                             CSTACK
    | Stack used (prev) :  00000000
  01  TaskOnCreate
      | Stack used (prev) :  00000000
      | + function block  :  00000028
  <-Sub-tree of type: Indirectly called function tree that does not make
                    : indirect calls (Is not an interrupt and is not flagged
                    : as not overlayable)
    | Stack used          :  00000028


  ->Sub-tree of type: Indirectly called function tree that does not make
                    : indirect calls (Is not an interrupt and is not flagged
                    : as not overlayable)
                             CSTACK
    | Stack used (prev) :  00000000
  01  TaskKiller
      | Stack used (prev) :  00000000
      | + function block  :  00000000
  <-Sub-tree of type: Indirectly called function tree that does not make
                    : indirect calls (Is not an interrupt and is not flagged
                    : as not overlayable)
    | Stack used          :  00000000


  ->Sub-tree of type: Indirectly called function tree that does not make
                    : indirect calls (Is not an interrupt and is not flagged
                    : as not overlayable)
                             CSTACK
    | Stack used (prev) :  00000000
  01  TaskOnClose
      | Stack used (prev) :  00000000
      | + function block  :  00000004
  <-Sub-tree of type: Indirectly called function tree that does not make
                    : indirect calls (Is not an interrupt and is not flagged
                    : as not overlayable)
    | Stack used          :  00000004


  ->Sub-tree of type: Indirectly called function tree that does not make
                    : indirect calls (Is not an interrupt and is not flagged
                    : as not overlayable)
                             CSTACK
    | Stack used (prev) :  00000000
  01  TaskOnMessage
      | Stack used (prev) :  00000000
      | + function block  :  00000000
  <-Sub-tree of type: Indirectly called function tree that does not make
                    : indirect calls (Is not an interrupt and is not flagged
                    : as not overlayable)
    | Stack used          :  00000000


  ->Sub-tree of type: Indirectly called function tree that does not make
                    : indirect calls (Is not an interrupt and is not flagged
                    : as not overlayable)
                             CSTACK
    | Stack used (prev) :  00000000
  01  DaemonKeyHook
      | Stack used (prev) :  00000000
      | + function block  :  0000000C
  <-Sub-tree of type: Indirectly called function tree that does not make
                    : indirect calls (Is not an interrupt and is not flagged
                    : as not overlayable)
    | Stack used          :  0000000C


  ->Sub-tree of type: Indirectly called function tree that does not make
                    : indirect calls (Is not an interrupt and is not flagged
                    : as not overlayable)
                             CSTACK
    | Stack used (prev) :  00000000
  01  TimerProc
      | Stack used (prev) :  00000000
      | + function block  :  00000004
  <-Sub-tree of type: Indirectly called function tree that does not make
                    : indirect calls (Is not an interrupt and is not flagged
                    : as not overlayable)
    | Stack used          :  00000004


  ->Sub-tree of type: Indirectly called function tree that does not make
                    : indirect calls (Is not an interrupt and is not flagged
                    : as not overlayable)
                             CSTACK
    | Stack used (prev) :  00000000
  01  DaemonOnMessage
      | Stack used (prev) :  00000000
      | + function block  :  00000074
  <-Sub-tree of type: Indirectly called function tree that does not make
                    : indirect calls (Is not an interrupt and is not flagged
                    : as not overlayable)
    | Stack used          :  00000074


  ->Sub-tree of type: Indirectly called function tree that does not make
                    : indirect calls (Is not an interrupt and is not flagged
                    : as not overlayable)
                             CSTACK
    | Stack used (prev) :  00000000
  01  Destructor
      | Stack used (prev) :  00000000
      | + function block  :  00000004
  <-Sub-tree of type: Indirectly called function tree that does not make
                    : indirect calls (Is not an interrupt and is not flagged
                    : as not overlayable)
    | Stack used          :  00000004


  ->Sub-tree of type: Indirectly called function tree that does not make
                    : indirect calls (Is not an interrupt and is not flagged
                    : as not overlayable)
                             CSTACK
    | Stack used (prev) :  00000000
  01  DaemonOnClose
      | Stack used (prev) :  00000000
      | + function block  :  0000000C
  <-Sub-tree of type: Indirectly called function tree that does not make
                    : indirect calls (Is not an interrupt and is not flagged
                    : as not overlayable)
    | Stack used          :  0000000C


  ->Sub-tree of type: Indirectly called function tree that does not make
                    : indirect calls (Is not an interrupt and is not flagged
                    : as not overlayable)
                             CSTACK
    | Stack used (prev) :  00000000
  01  strtoul
      | Stack used (prev) :  00000000
      | + function block  :  00000008
  <-Sub-tree of type: Indirectly called function tree that does not make
                    : indirect calls (Is not an interrupt and is not flagged
                    : as not overlayable)
    | Stack used          :  00000008


  ->Sub-tree of type: Function tree
                             CSTACK
    | Stack used (prev) :  000000B8
  01  LoadConfigData
      | Stack used (prev) :  000000B8
      | + function block  :  00000024
  <-Sub-tree of type: Function tree
    | Stack used          :  000000DC


  ->Sub-tree of type: Function tree
                             CSTACK
    | Stack used (prev) :  000000DC
  01  InitConfig
      | Stack used (prev) :  000000DC
      | + function block  :  00000008
  <-Sub-tree of type: Function tree
    | Stack used          :  000000E4


  ->Sub-tree of type: Function tree
                             CSTACK
    | Stack used (prev) :  000000E4
  01  RunAPP
      | Stack used (prev) :  000000E4
      | + function block  :  0000000C
  <-Sub-tree of type: Function tree
    | Stack used          :  000000F0


  ->Sub-tree of type: Function tree
                             CSTACK
    | Stack used (prev) :  000000F0
  01  GetLDate
      | Stack used (prev) :  000000F0
      | + function block  :  00000028
  <-Sub-tree of type: Function tree
    | Stack used          :  00000118


  ->Sub-tree of type: Function tree
                             CSTACK
    | Stack used (prev) :  00000118
  01  GetLunar
      | Stack used (prev) :  00000118
      | + function block  :  00000084
  <-Sub-tree of type: Function tree
    | Stack used          :  0000019C


  ->Sub-tree of type: Function tree
                             CSTACK
    | Stack used (prev) :  0000019C
  01  PixlsWidth
      | Stack used (prev) :  0000019C
      | + function block  :  00000014
  <-Sub-tree of type: Function tree
    | Stack used          :  000001B0


  ->Sub-tree of type: Function tree
                             CSTACK
    | Stack used (prev) :  000001B0
  01  strcmp_nocase
      | Stack used (prev) :  000001B0
      | + function block  :  00000000
  <-Sub-tree of type: Function tree
    | Stack used          :  000001B0


  ->Sub-tree of type: Function tree
                             CSTACK
    | Stack used (prev) :  000001B0
  01  PlayMusic
      | Stack used (prev) :  000001B0
      | + function block  :  000000F4
  <-Sub-tree of type: Function tree
    | Stack used          :  000002A4


  ->Sub-tree of type: Function tree
                             CSTACK
    | Stack used (prev) :  000002A4
  01  MidStr
      | Stack used (prev) :  000002A4
      | + function block  :  00000118
  <-Sub-tree of type: Function tree
    | Stack used          :  000003BC


  ->Sub-tree of type: Function tree
                             CSTACK
    | Stack used (prev) :  000003BC
  01  FindBCFGFile
      | Stack used (prev) :  000003BC
      | + function block  :  000003E4
  <-Sub-tree of type: Function tree
    | Stack used          :  000007A0


  ->Sub-tree of type: Function tree
                             CSTACK
    | Stack used (prev) :  000007A0
  01  SetIDS
      | Stack used (prev) :  000007A0
      | + function block  :  0000000C
  <-Sub-tree of type: Function tree
    | Stack used          :  000007AC


  ->Sub-tree of type: Function tree
                             CSTACK
    | Stack used (prev) :  000007AC
  01  InitShow
      | Stack used (prev) :  000007AC
      | + function block  :  0000003C
  <-Sub-tree of type: Function tree
    | Stack used          :  000007E8


  ->Sub-tree of type: Function tree
                             CSTACK
    | Stack used (prev) :  000007E8
  01  FillScreen
      | Stack used (prev) :  000007E8
      | + function block  :  00000018
  <-Sub-tree of type: Function tree
    | Stack used          :  00000800


  ->Sub-tree of type: Function tree
                             CSTACK
    | Stack used (prev) :  00000800
  01  InitScreen
      | Stack used (prev) :  00000800
      | + function block  :  0000008C
  <-Sub-tree of type: Function tree
    | Stack used          :  0000088C


  ->Sub-tree of type: Function tree
                             CSTACK
    | Stack used (prev) :  0000088C
  01  APP_TRAF
      | Stack used (prev) :  0000088C
      | + function block  :  00000008
  <-Sub-tree of type: Function tree
    | Stack used          :  00000894


  ->Sub-tree of type: Function tree
                             CSTACK
    | Stack used (prev) :  00000894
  01  InitMenu
      | Stack used (prev) :  00000894
      | + function block  :  00000014
  <-Sub-tree of type: Function tree
    | Stack used          :  000008A8


  ->Sub-tree of type: Function tree
                             CSTACK
    | Stack used (prev) :  000008A8
  01  BuildGUI
      | Stack used (prev) :  000008A8
      | + function block  :  00000040
  <-Sub-tree of type: Function tree
    | Stack used          :  000008E8


  ->Sub-tree of type: Function tree
                             CSTACK
    | Stack used (prev) :  000008E8
  01  DoIt
      | Stack used (prev) :  000008E8
      | + function block  :  0000000C
  <-Sub-tree of type: Function tree
    | Stack used          :  000008F4


  ->Sub-tree of type: Function tree
                             CSTACK
    | Stack used (prev) :  000008F4
  01  DaemonInit
      | Stack used (prev) :  000008F4
      | + function block  :  00000020
  <-Sub-tree of type: Function tree
    | Stack used          :  00000914


  ->Sub-tree of type: Function tree
                             CSTACK
    | Stack used (prev) :  00000914
  01  main
      | Stack used (prev) :  00000914
      | + function block  :  00000010
  <-Sub-tree of type: Function tree
    | Stack used          :  00000924


  ->Sub-tree of type: Function tree
                             CSTACK
    | Stack used (prev) :  00000924
  01  _Geterrno
      | Stack used (prev) :  00000924
      | + function block  :  00000008
  <-Sub-tree of type: Function tree
    | Stack used          :  0000092C


  ->Sub-tree of type: Function tree
                             CSTACK
    | Stack used (prev) :  0000092C
  01  _Memchr
      | Stack used (prev) :  0000092C
      | + function block  :  00000000
  <-Sub-tree of type: Function tree
    | Stack used          :  0000092C


  ->Sub-tree of type: Function tree
                             CSTACK
    | Stack used (prev) :  0000092C
  01  _Stoul
      | Stack used (prev) :  0000092C
      | + function block  :  00000030
  <-Sub-tree of type: Function tree
    | Stack used          :  0000095C




                ****************************************
                *                                      *
                *      SEGMENTS IN ADDRESS ORDER       *
                *                                      *
                ****************************************


SEGMENT              SPACE    START ADDRESS   END ADDRESS     SIZE  TYPE  ALIGN
=======              =====    =============   ===========     ====  ====  =====
ELFBEGIN             CODE_AREA           00000000                     rel    0
DATA_ID              CODE_AREA      00000000 - 000002F3         2F4   rel    2
START                CODE_AREA           000002F4                     dse    0
CODE                 CODE_AREA      000002F4 - 00003D03        3A10   rel    2
DATA_C               CODE_AREA      00003D04 - 0000477E         A7B   rel    2
INITTAB              CODE_AREA      00004780 - 00004797          18   rel    2
DATA_Z               CODE_AREA      00004798 - 00004929         192   rel    2
DATA_N               CODE_AREA           0000492A                     dse    0
CONFIG_C             CODE_AREA      0000492C - 000087C7        3E9C   rel    2
DATA_I               DATA_AREA      00000000 - 000002F3         2F4   rel    2

                ****************************************
                *                                      *
                *        END OF CROSS REFERENCE        *
                *                                      *
                ****************************************

 34 757 bytes of CODE memory
    756 bytes of DATA memory

Errors: none
Warnings: none

