################################################################################
#                                                                              #
#      IAR Universal Linker V4.60I/386                                         #
#                                                                              #
#           Link time     =  01/Mar/2012  19:08:41                             #
#           Target CPU    =  ARM                                               #
#           List file     =  D:\SVN\SieELF\SieELF\Master\Release_SGOLD\List\Ma #
#                            ster_SGOLD.map                                    #
#           Output file 1 =  D:\SVN\SieELF\SieELF\Master\Master_SGOLD.elf      #
#                            Format: elf, variant: -ynpra                      #
#           Command line  =  D:\SVN\SieELF\SieELF\Master\Release_SGOLD\Obj\fun #
#                            c.r79                                             #
#                            D:\SVN\SieELF\SieELF\Master\Release_SGOLD\Obj\get #
#                            Config.r79                                        #
#                            D:\SVN\SieELF\SieELF\Master\Release_SGOLD\Obj\mai #
#                            n.r79                                             #
#                            D:\SVN\SieELF\SieELF\Master\Release_SGOLD\Obj\opt #
#                            ionMenu.r79                                       #
#                            D:\SVN\SieELF\SieELF\Master\Release_SGOLD\Obj\ptc #
#                            FileWork.r79                                      #
#                            D:\SVN\SieELF\SieELF\Master\Release_SGOLD\Obj\str #
#                            ing.r79                                           #
#                            D:\SVN\SieELF\SieELF\Master\Release_SGOLD\Obj\use #
#                            dstr.r79                                          #
#                            D:\SVN\SieELF\SieELF\Master\Release_SGOLD\Obj\vis #
#                            ual.r79                                           #
#                            -o D:\SVN\SieELF\SieELF\Master\Master_SGOLD.elf   #
#                            -Felf -l                                          #
#                            D:\SVN\SieELF\SieELF\Master\Release_SGOLD\List\Ma #
#                            ster_SGOLD.map                                    #
#                            -xmsnio -f D:\SVN\SieELF\SieELF\Master/test.xcl   #
#                            (-carm -V(CODE)CODE_AREA,12                       #
#                            -V(DATA)DATA_AREA,12                              #
#                            -Z(CODE_AREA)ELFBEGIN,DATA_ID,START,CODE,DATA_C,I #
#                            NITTAB,DATA_Z,DATA_N,CONFIG_C=0-FFFFFFFF          #
#                            -Z(DATA_AREA)DATA_I=0-FFFFFFFF) -ynpra            #
#                            "D:\Program Files\IAR\Embedded Workbench 4.0 Eval #
#                            uation\ARM\LIB\dl5tpainl8n.r79"                   #
#                            -s main                                           #
#                                                                              #
#                        Copyright 1987-2007 IAR Systems. All rights reserved. #
################################################################################





                ****************************************
                *                                      *
                *           CROSS REFERENCE            *
                *                                      *
                ****************************************

       Program entry at : CODE_AREA 00003FF0  Relocatable, from module : main




                ****************************************
                *                                      *
                *            RUNTIME MODEL             *
                *                                      *
                ****************************************

  StackAlign4  = USED
  __cpu_mode   = __pcs__interwork
  __data_model = absolute
  __endian     = little
  __rt_version = 6



                ****************************************
                *                                      *
                *              MODULE MAP              *
                *                                      *
                ****************************************


  DEFINED ABSOLUTE ENTRIES
    *************************************************************************

  DEFINED ABSOLUTE ENTRIES
    *************************************************************************

  FILE NAME : D:\SVN\SieELF\SieELF\Master\Release_SGOLD\Obj\func.r79
  PROGRAM MODULE, NAME : func

  SEGMENTS IN THE MODULE
  ======================
ELFBEGIN
  Relative segment, address: CODE_AREA 00000000, align: 0
  Segment part 0. ROOT.
           ENTRY                   ADDRESS         REF BY
           =====                   =======         ======
           ELF_BEGIN               00000000        Killer (main)
    -------------------------------------------------------------------------
CODE
  Relative segment, address: CODE_AREA 0000016C - 00000173 (0x8 bytes), align: 2
  Segment part 1. ROOT.
           ENTRY                   ADDRESS         REF BY
           =====                   =======         ======
           kill_data               0000016C        Killer (main)
                                                   method7_2 (visual)
                                                   method7_xy (visual)
           seqkill                 00000170 

    *************************************************************************

  FILE NAME : D:\SVN\SieELF\SieELF\Master\Release_SGOLD\Obj\getConfig.r79
  PROGRAM MODULE, NAME : getConfig

  SEGMENTS IN THE MODULE
  ======================
DATA_Z
  Relative segment, address: CODE_AREA 00009AA8 - 00015AA7 (0xc000 bytes), align: 2
  Segment part 43.            Intra module refs:   Segment part 47
                                                   Segment part 95
           ENTRY                   ADDRESS         REF BY
           =====                   =======         ======
           cfg_buf                 00009AA8 
    -------------------------------------------------------------------------
DATA_Z
  Relative segment, address: CODE_AREA 00015AA8 - 00015AAB (0x4 bytes), align: 2
  Segment part 44.            Intra module refs:   Segment part 118
                                                   Segment part 60
                                                   Segment part 77
                                                   doItemJob
           ENTRY                   ADDRESS         REF BY
           =====                   =======         ======
           ptcfgtop                00015AA8        saveAllConfig (ptcFileWork)
    -------------------------------------------------------------------------
CODE
  Segment part 45. NOT NEEDED.
    -------------------------------------------------------------------------
CODE
  Relative segment, address: CODE_AREA 00000174 - 00000253 (0xe0 bytes), align: 2
  Segment part 46.            Intra module refs:   readConfig
                                                   reloadThisPatch
           ENTRY                   ADDRESS         REF BY
           =====                   =======         ======
           loadConfig              00000174 
               stack 1 = 00000000 ( 000000BC )
    -------------------------------------------------------------------------
CODE
  Relative segment, address: CODE_AREA 00000254 - 00000257 (0x4 bytes), align: 2
  Segment part 47.            Intra module refs:   loadConfig
    -------------------------------------------------------------------------
CODE
  Segment part 48. NOT NEEDED.
    -------------------------------------------------------------------------
CODE
  Relative segment, address: CODE_AREA 00000258 - 000002CF (0x78 bytes), align: 2
  Segment part 49.            Intra module refs:   readConfig
           ENTRY                   ADDRESS         REF BY
           =====                   =======         ======
           addPatchConfigList      00000258 
               stack 1 = 00000000 ( 00000004 )
    -------------------------------------------------------------------------
CODE
  Segment part 50. NOT NEEDED.
    -------------------------------------------------------------------------
CODE
  Relative segment, address: CODE_AREA 000002D0 - 0000049F (0x1d0 bytes), align: 2
  Segment part 51.            Intra module refs:   readConfig
                                                   reloadThisPatch
           ENTRY                   ADDRESS         REF BY
           =====                   =======         ======
           addToPatchInfo          000002D0 
               stack 1 = 00000000 ( 00000018 )
    -------------------------------------------------------------------------
CODE
  Segment part 52. NOT NEEDED.
    -------------------------------------------------------------------------
CODE
  Relative segment, address: CODE_AREA 000004A0 - 000004D7 (0x38 bytes), align: 2
  Segment part 53.            Intra module refs:   addPrepareData
           ENTRY                   ADDRESS         REF BY
           =====                   =======         ======
           addPreItemToData        000004A0 
    -------------------------------------------------------------------------
CODE
  Segment part 54. NOT NEEDED.
    -------------------------------------------------------------------------
CODE
  Relative segment, address: CODE_AREA 000004D8 - 0000058B (0xb4 bytes), align: 2
  Segment part 55.            Intra module refs:   addPrepareData
                                                   doItemJob
                                                   doSubMenuJob
                                                   doTemplateWork
                                                   readConfig
                                                   subMenuCopy
           ENTRY                   ADDRESS         REF BY
           =====                   =======         ======
           addItemToConfig         000004D8 
               stack 1 = 00000000 ( 0000001C )
    -------------------------------------------------------------------------
CODE
  Segment part 56. NOT NEEDED.
    -------------------------------------------------------------------------
CODE
  Relative segment, address: CODE_AREA 0000058C - 000006F3 (0x168 bytes), align: 2
  Segment part 57.            Intra module refs:   readConfig
           ENTRY                   ADDRESS         REF BY
           =====                   =======         ======
           addPrepareData          0000058C 
               stack 1 = 00000000 ( 00000020 )
    -------------------------------------------------------------------------
CODE
  Segment part 58. NOT NEEDED.
    -------------------------------------------------------------------------
CODE
  Relative segment, address: CODE_AREA 000006F4 - 000007D7 (0xe4 bytes), align: 2
  Segment part 59.            Intra module refs:   doItemJob
           ENTRY                   ADDRESS         REF BY
           =====                   =======         ======
           addPreDataToCBoxItem    000006F4 
               stack 1 = 00000000 ( 00000018 )
    -------------------------------------------------------------------------
CODE
  Relative segment, address: CODE_AREA 000007D8 - 000007DB (0x4 bytes), align: 2
  Segment part 60.            Intra module refs:   addPatchConfigList
                                                   addPreDataToCBoxItem
                                                   addPrepareData
                                                   addToPatchInfo
    -------------------------------------------------------------------------
CODE
  Segment part 61. NOT NEEDED.
    -------------------------------------------------------------------------
CODE
  Relative segment, address: CODE_AREA 000007DC - 00000813 (0x38 bytes), align: 2
  Segment part 62.            Intra module refs:   cboxItemColon
           ENTRY                   ADDRESS         REF BY
           =====                   =======         ======
           addItemToCBox           000007DC 
    -------------------------------------------------------------------------
CODE
  Segment part 63. NOT NEEDED.
    -------------------------------------------------------------------------
CODE
  Relative segment, address: CODE_AREA 00000814 - 0000092B (0x118 bytes), align: 2
  Segment part 64.            Intra module refs:   doItemJob
           ENTRY                   ADDRESS         REF BY
           =====                   =======         ======
           cboxItemColon           00000814 
               stack 1 = 00000000 ( 0000001C )
    -------------------------------------------------------------------------
CODE
  Segment part 65. NOT NEEDED.
    -------------------------------------------------------------------------
CODE
  Relative segment, address: CODE_AREA 0000092C - 0000095B (0x30 bytes), align: 2
  Segment part 66.            Intra module refs:   doSubMenuJob
                                                   doTemplateWork
                                                   readConfig
           ENTRY                   ADDRESS         REF BY
           =====                   =======         ======
           isThatItem              0000092C 
    -------------------------------------------------------------------------
CODE
  Segment part 67. NOT NEEDED.
    -------------------------------------------------------------------------
CODE
  Relative segment, address: CODE_AREA 0000095C - 000009BF (0x64 bytes), align: 2
  Segment part 68.            Intra module refs:   doItemJob
           ENTRY                   ADDRESS         REF BY
           =====                   =======         ======
           findTemplate            0000095C 
               stack 1 = 00000000 ( 00000010 )
    -------------------------------------------------------------------------
CODE
  Segment part 69. NOT NEEDED.
    -------------------------------------------------------------------------
CODE
  Relative segment, address: CODE_AREA 000009C0 - 00000A2F (0x70 bytes), align: 2
  Segment part 70.            Intra module refs:   doItemJob
           ENTRY                   ADDRESS         REF BY
           =====                   =======         ======
           isCurrectItem           000009C0 
               stack 1 = 00000000 ( 00000008 )
    -------------------------------------------------------------------------
CODE
  Segment part 71. NOT NEEDED.
    -------------------------------------------------------------------------
CODE
  Relative segment, address: CODE_AREA 00000A30 - 0000283B (0x1e0c bytes), align: 2
  Segment part 72.            Intra module refs:   doSubMenuJob
                                                   doTemplateWork
                                                   readConfig
           ENTRY                   ADDRESS         REF BY
           =====                   =======         ======
           doItemJob               00000A30 
               stack 1 = 00000000 ( 000000B4 )
    -------------------------------------------------------------------------
CODE
  Segment part 73. NOT NEEDED.
    -------------------------------------------------------------------------
CODE
  Relative segment, address: CODE_AREA 0000283C - 00002A7B (0x240 bytes), align: 2
  Segment part 74.            Intra module refs:   doTemplateWork
                                                   readConfig
           ENTRY                   ADDRESS         REF BY
           =====                   =======         ======
           doSubMenuJob            0000283C 
               stack 1 = 00000000 ( 0000001C )
    -------------------------------------------------------------------------
CODE
  Segment part 75. NOT NEEDED.
    -------------------------------------------------------------------------
CODE
  Relative segment, address: CODE_AREA 00002A7C - 00002ACF (0x54 bytes), align: 2
  Segment part 76.            Intra module refs:   readConfig
           ENTRY                   ADDRESS         REF BY
           =====                   =======         ======
           addInfoToPatchInfo      00002A7C 
               stack 1 = 00000000 ( 00000010 )
    -------------------------------------------------------------------------
CODE
  Relative segment, address: CODE_AREA 00002AD0 - 00002AD3 (0x4 bytes), align: 2
  Segment part 77.            Intra module refs:   addInfoToPatchInfo
                                                   doItemJob
    -------------------------------------------------------------------------
CODE
  Segment part 78. NOT NEEDED.
    -------------------------------------------------------------------------
CODE
  Relative segment, address: CODE_AREA 00002AD4 - 00002B27 (0x54 bytes), align: 2
  Segment part 79.            Intra module refs:   readConfig
           ENTRY                   ADDRESS         REF BY
           =====                   =======         ======
           isPrepareItem           00002AD4 
    -------------------------------------------------------------------------
CODE
  Segment part 80. NOT NEEDED.
    -------------------------------------------------------------------------
CODE
  Relative segment, address: CODE_AREA 00002B28 - 00002D6F (0x248 bytes), align: 2
  Segment part 81.            Intra module refs:   readConfig
           ENTRY                   ADDRESS         REF BY
           =====                   =======         ======
           doTemplateWork          00002B28 
               stack 1 = 00000000 ( 00000018 )
    -------------------------------------------------------------------------
CODE
  Segment part 82. NOT NEEDED.
    -------------------------------------------------------------------------
CODE
  Relative segment, address: CODE_AREA 00002D70 - 0000325F (0x4f0 bytes), align: 2
  Segment part 83.            Intra module refs:   doItemJob
           ENTRY                   ADDRESS         REF BY
           =====                   =======         ======
           subMenuCopy             00002D70 
               stack 1 = 00000000 ( 00000028 )
    -------------------------------------------------------------------------
CODE
  Segment part 84. NOT NEEDED.
    -------------------------------------------------------------------------
CODE
  Relative segment, address: CODE_AREA 00003260 - 000035DB (0x37c bytes), align: 2
  Segment part 85.            Intra module refs:   getAllPatchData
                                                   reloadThisPatch
           ENTRY                   ADDRESS         REF BY
           =====                   =======         ======
           readConfig              00003260        deleteAllConfig (optionMenu)
               stack 1 = 00000000 ( 0000001C )
    -------------------------------------------------------------------------
CODE
  Relative segment, address: CODE_AREA 000035DC - 000035DF (0x4 bytes), align: 2
  Segment part 86.            Intra module refs:   readConfig
    -------------------------------------------------------------------------
CODE
  Relative segment, address: CODE_AREA 000035E0 - 000035E3 (0x4 bytes), align: 2
  Segment part 87.            Intra module refs:   doSubMenuJob
                                                   doTemplateWork
                                                   readConfig
    -------------------------------------------------------------------------
CODE
  Relative segment, address: CODE_AREA 000035E4 - 000035E7 (0x4 bytes), align: 2
  Segment part 88.            Intra module refs:   doSubMenuJob
                                                   doTemplateWork
                                                   readConfig
    -------------------------------------------------------------------------
CODE
  Segment part 89. NOT NEEDED.
    -------------------------------------------------------------------------
CODE
  Segment part 90. NOT NEEDED.
           ENTRY                   ADDRESS         REF BY
           =====                   =======         ======
           freeSubMenuItem         
               not allocated function
    -------------------------------------------------------------------------
CODE
  Segment part 91. NOT NEEDED.
    -------------------------------------------------------------------------
CODE
  Relative segment, address: CODE_AREA 000035E8 - 00003697 (0xb0 bytes), align: 2
  Segment part 92.            Intra module refs:   fuckThemAll
                                                   reloadThisPatch
           ENTRY                   ADDRESS         REF BY
           =====                   =======         ======
           freePatchItem           000035E8 
               stack 1 = 00000000 ( 0000000C )
    -------------------------------------------------------------------------
CODE
  Segment part 93. NOT NEEDED.
    -------------------------------------------------------------------------
CODE
  Relative segment, address: CODE_AREA 00003698 - 000037A3 (0x10c bytes), align: 2
  Segment part 94.
           ENTRY                   ADDRESS         REF BY
           =====                   =======         ======
           reloadThisPatch         00003698        deleteThis (optionMenu)
               stack 1 = 00000000 ( 00000018 )
    -------------------------------------------------------------------------
CODE
  Relative segment, address: CODE_AREA 000037A4 - 000037A7 (0x4 bytes), align: 2
  Segment part 95.            Intra module refs:   readConfig
                                                   reloadThisPatch
    -------------------------------------------------------------------------
CODE
  Segment part 96. NOT NEEDED.
    -------------------------------------------------------------------------
CODE
  Relative segment, address: CODE_AREA 000037A8 - 00003837 (0x90 bytes), align: 2
  Segment part 97.            Intra module refs:   sortPatchConfigList
           ENTRY                   ADDRESS         REF BY
           =====                   =======         ======
           swapPatchConfigList     000037A8 
               stack 1 = 00000000 ( 00000020 )
    -------------------------------------------------------------------------
CODE
  Segment part 98. NOT NEEDED.
    -------------------------------------------------------------------------
CODE
  Relative segment, address: CODE_AREA 00003838 - 00003897 (0x60 bytes), align: 2
  Segment part 99.            Intra module refs:   readConfig
           ENTRY                   ADDRESS         REF BY
           =====                   =======         ======
           sortPatchConfigList     00003838 
               stack 1 = 00000000 ( 0000000C )
    -------------------------------------------------------------------------
CODE
  Segment part 100. NOT NEEDED.
    -------------------------------------------------------------------------
CODE
  Relative segment, address: CODE_AREA 00003898 - 00003903 (0x6c bytes), align: 2
  Segment part 101.
           ENTRY                   ADDRESS         REF BY
           =====                   =======         ======
           fuckThemAll             00003898        Killer (main)
                                                   configRestore (optionMenu)
                                                   deleteAllConfig (optionMenu)
               stack 1 = 00000000 ( 0000000C )
    -------------------------------------------------------------------------
CODE
  Segment part 102. NOT NEEDED.
    -------------------------------------------------------------------------
CODE
  Relative segment, address: CODE_AREA 00003904 - 0000393B (0x38 bytes), align: 2
  Segment part 103.
           ENTRY                   ADDRESS         REF BY
           =====                   =======         ======
           getPatchConfigItem      00003904        deleteThis (optionMenu)
                                                   maincsm_onmessage (main)
                                                   menu_iconhndl (main)
                                                   menu_onkey (main)
                                                   profile_menu_iconhndl (optionMenu)
                                                   profile_menu_onkey (optionMenu)
                                                   showPatchInfo (optionMenu)
                                                   show_option_menu (optionMenu)
    -------------------------------------------------------------------------
CODE
  Segment part 104. NOT NEEDED.
    -------------------------------------------------------------------------
CODE
  Relative segment, address: CODE_AREA 0000393C - 0000395F (0x24 bytes), align: 2
  Segment part 105.
           ENTRY                   ADDRESS         REF BY
           =====                   =======         ======
           getMaxCBoxItem          0000393C        createEditGui (main)
    -------------------------------------------------------------------------
CODE
  Segment part 106. NOT NEEDED.
    -------------------------------------------------------------------------
CODE
  Relative segment, address: CODE_AREA 00003960 - 00003983 (0x24 bytes), align: 2
  Segment part 107.
           ENTRY                   ADDRESS         REF BY
           =====                   =======         ======
           getCurCBoxItem          00003960        edGHook (main)
    -------------------------------------------------------------------------
CODE
  Segment part 108. NOT NEEDED.
    -------------------------------------------------------------------------
CODE
  Relative segment, address: CODE_AREA 00003984 - 000039D7 (0x54 bytes), align: 2
  Segment part 109.
           ENTRY                   ADDRESS         REF BY
           =====                   =======         ======
           getInitCBoxItem         00003984        createEditGui (main)
               stack 1 = 00000000 ( 00000004 )
    -------------------------------------------------------------------------
CODE
  Segment part 110. NOT NEEDED.
    -------------------------------------------------------------------------
CODE
  Relative segment, address: CODE_AREA 000039D8 - 00003A1B (0x44 bytes), align: 2
  Segment part 111.
           ENTRY                   ADDRESS         REF BY
           =====                   =======         ======
           getAllPatchData         000039D8        configRestore (optionMenu)
                                                   main (main)
               stack 1 = 00000000 ( 00000008 )
    -------------------------------------------------------------------------
CODE
  Segment part 112. NOT NEEDED.
    -------------------------------------------------------------------------
CODE
  Relative segment, address: CODE_AREA 00003A1C - 00003A57 (0x3c bytes), align: 2
  Segment part 113.
           ENTRY                   ADDRESS         REF BY
           =====                   =======         ======
           setPatchOnOff           00003A1C        maincsm_onmessage (main)
                                                   menu_onkey (main)
                                                   profile_menu_onkey (optionMenu)
               stack 1 = 00000000 ( 00000010 )
    -------------------------------------------------------------------------
CODE
  Segment part 114. NOT NEEDED.
    -------------------------------------------------------------------------
CODE
  Relative segment, address: CODE_AREA 00003A58 - 00003A7F (0x28 bytes), align: 2
  Segment part 115.           Intra module refs:   setPatchOnOff
           ENTRY                   ADDRESS         REF BY
           =====                   =======         ======
           getPatchOnOff           00003A58        maincsm_onmessage (main)
                                                   menu_iconhndl (main)
                                                   menu_onkey (main)
                                                   profile_menu_iconhndl (optionMenu)
                                                   profile_menu_onkey (optionMenu)
                                                   savePatchConfig (ptcFileWork)
    -------------------------------------------------------------------------
CODE
  Segment part 116. NOT NEEDED.
    -------------------------------------------------------------------------
CODE
  Relative segment, address: CODE_AREA 00003A80 - 00003ACB (0x4c bytes), align: 2
  Segment part 117.
           ENTRY                   ADDRESS         REF BY
           =====                   =======         ======
           isPatchExistedByID      00003A80        delUnusedConfig (optionMenu)
               stack 1 = 00000000 ( 0000000C )
    -------------------------------------------------------------------------
CODE
  Relative segment, address: CODE_AREA 00003ACC - 00003ACF (0x4 bytes), align: 2
  Segment part 118.           Intra module refs:   doTemplateWork
                                                   fuckThemAll
                                                   getAllPatchData
                                                   getPatchConfigItem
                                                   isPatchExistedByID
                                                   readConfig
                                                   reloadThisPatch
                                                   sortPatchConfigList
    -------------------------------------------------------------------------
CODE
  Segment part 119. NOT NEEDED.Intra module refs   addInfoToPatchInfo
                                                   addPreDataToCBoxItem
                                                   addPrepareData
                                                   addToPatchInfo
                                                   cboxItemColon
                                                   doItemJob
                                                   doSubMenuJob
                                                   doTemplateWork
    -------------------------------------------------------------------------
CODE
  Segment part 120. NOT NEEDED.Intra module refs   addInfoToPatchInfo
                                                   addPreDataToCBoxItem
                                                   addPrepareData
                                                   addToPatchInfo
                                                   cboxItemColon
                                                   doItemJob
                                                   doSubMenuJob
                                                   doTemplateWork
    -------------------------------------------------------------------------
CODE
  Segment part 121. NOT NEEDED.Intra module refs   addInfoToPatchInfo
                                                   addPrepareData
                                                   addToPatchInfo
                                                   cboxItemColon
                                                   doItemJob
                                                   doSubMenuJob
                                                   doTemplateWork
                                                   readConfig
    -------------------------------------------------------------------------
CODE
  Segment part 122. NOT NEEDED.Intra module refs   addToPatchInfo
                                                   doItemJob
                                                   doSubMenuJob
                                                   doTemplateWork
                                                   readConfig
    -------------------------------------------------------------------------
CODE
  Segment part 123. NOT NEEDED.Intra module refs   addInfoToPatchInfo
                                                   addPreDataToCBoxItem
                                                   addPrepareData
                                                   addToPatchInfo
                                                   cboxItemColon
                                                   doItemJob
                                                   doSubMenuJob
                                                   doTemplateWork
                                                   isCurrectItem
                                                   readConfig
    -------------------------------------------------------------------------
CODE
  Segment part 124. NOT NEEDED.Intra module refs   addToPatchInfo
                                                   doItemJob
                                                   readConfig
    -------------------------------------------------------------------------
CODE
  Segment part 125. NOT NEEDED.Intra module refs   addItemToConfig
                                                   addPrepareData
    -------------------------------------------------------------------------
CODE
  Segment part 126. NOT NEEDED.Intra module refs   addPrepareData
                                                   cboxItemColon
                                                   doSubMenuJob
                                                   doTemplateWork
                                                   readConfig
    -------------------------------------------------------------------------
CODE
  Segment part 127. NOT NEEDED.Intra module refs   addPrepareData
                                                   cboxItemColon
    -------------------------------------------------------------------------
CODE
  Segment part 128. NOT NEEDED.Intra module refs   addPrepareData
                                                   cboxItemColon
                                                   doItemJob
    -------------------------------------------------------------------------
CODE
  Segment part 129. NOT NEEDED.Intra module refs   addPreDataToCBoxItem
                                                   findTemplate
                                                   isPatchExistedByID
                                                   sortPatchConfigList
    -------------------------------------------------------------------------
CODE
  Segment part 130. NOT NEEDED.Intra module refs   isCurrectItem
    -------------------------------------------------------------------------
CODE
  Segment part 131. NOT NEEDED.Intra module refs   doItemJob
    -------------------------------------------------------------------------
CODE
  Segment part 132. NOT NEEDED.Intra module refs   doItemJob
    -------------------------------------------------------------------------
CODE
  Segment part 133. NOT NEEDED.Intra module refs   doItemJob
    -------------------------------------------------------------------------
CODE
  Segment part 134. NOT NEEDED.Intra module refs   doItemJob
    -------------------------------------------------------------------------
CODE
  Segment part 135. NOT NEEDED.Intra module refs   doSubMenuJob
                                                   doTemplateWork
                                                   readConfig
    -------------------------------------------------------------------------
CODE
  Segment part 136. NOT NEEDED.Intra module refs   getAllPatchData
    -------------------------------------------------------------------------
CSTACK
  Segment part 1. NOT NEEDED.
    -------------------------------------------------------------------------
INITTAB
  Relative segment, address: CODE_AREA 00009A90 - 00009A9B (0xc bytes), align: 2
  Segment part 137. ROOT.
           ENTRY                   ADDRESS         REF BY
           =====                   =======         ======
           ?init?tab?DATA_Z        00009A90 
    -------------------------------------------------------------------------
DATA_C
  Relative segment, address: CODE_AREA 00008D58 - 00008D5F (0x8 bytes), align: 2
  Segment part 2.             Intra module refs:   addToPatchInfo
    -------------------------------------------------------------------------
DATA_C
  Relative segment, address: CODE_AREA 00008D60 - 00008D67 (0x8 bytes), align: 2
  Segment part 3.             Intra module refs:   readConfig
    -------------------------------------------------------------------------
DATA_C
  Relative segment, address: CODE_AREA 00008D68 - 00008DE7 (0x80 bytes), align: 2
  Segment part 4.             Intra module refs:   loadConfig
    -------------------------------------------------------------------------
DATA_C
  Relative segment, address: CODE_AREA 00008DE8 - 00008DEF (0x8 bytes), align: 2
  Segment part 5.             Intra module refs:   loadConfig
    -------------------------------------------------------------------------
DATA_C
  Relative segment, address: CODE_AREA 00008DF0 - 00008DFB (0xc bytes), align: 2
  Segment part 6.             Intra module refs:   loadConfig
    -------------------------------------------------------------------------
DATA_C
  Relative segment, address: CODE_AREA 00008DFC - 00008E03 (0x8 bytes), align: 2
  Segment part 7.             Intra module refs:   addToPatchInfo
    -------------------------------------------------------------------------
DATA_C
  Relative segment, address: CODE_AREA 00008E04 - 00008E0F (0xc bytes), align: 2
  Segment part 8.             Intra module refs:   addToPatchInfo
    -------------------------------------------------------------------------
DATA_C
  Segment part 9. NOT NEEDED.
    -------------------------------------------------------------------------
DATA_C
  Relative segment, address: CODE_AREA 00008E10 - 00008E1B (0xc bytes), align: 2
  Segment part 10.            Intra module refs:   addToPatchInfo
    -------------------------------------------------------------------------
DATA_C
  Segment part 11. NOT NEEDED.
    -------------------------------------------------------------------------
DATA_C
  Relative segment, address: CODE_AREA 00008E1C - 00008E23 (0x8 bytes), align: 2
  Segment part 12.            Intra module refs:   readConfig
    -------------------------------------------------------------------------
DATA_C
  Relative segment, address: CODE_AREA 00008E24 - 00008E2B (0x8 bytes), align: 2
  Segment part 13.            Intra module refs:   addToPatchInfo
    -------------------------------------------------------------------------
DATA_C
  Segment part 14. NOT NEEDED.
    -------------------------------------------------------------------------
DATA_C
  Relative segment, address: CODE_AREA 00008E2C - 00008E33 (0x8 bytes), align: 2
  Segment part 15.            Intra module refs:   doItemJob
    -------------------------------------------------------------------------
DATA_C
  Relative segment, address: CODE_AREA 00008E34 - 00008E3B (0x8 bytes), align: 2
  Segment part 16.            Intra module refs:   doItemJob
    -------------------------------------------------------------------------
DATA_C
  Segment part 17. NOT NEEDED.
    -------------------------------------------------------------------------
DATA_C
  Segment part 18. NOT NEEDED.
    -------------------------------------------------------------------------
DATA_C
  Relative segment, address: CODE_AREA 00008E3C - 00008E47 (0xc bytes), align: 2
  Segment part 19.            Intra module refs:   doItemJob
    -------------------------------------------------------------------------
DATA_C
  Relative segment, address: CODE_AREA 00008E48 - 00008E4F (0x8 bytes), align: 2
  Segment part 20.            Intra module refs:   doItemJob
    -------------------------------------------------------------------------
DATA_C
  Relative segment, address: CODE_AREA 00008E50 - 00008E57 (0x8 bytes), align: 2
  Segment part 21.            Intra module refs:   doItemJob
    -------------------------------------------------------------------------
DATA_C
  Segment part 22. NOT NEEDED.
    -------------------------------------------------------------------------
DATA_C
  Relative segment, address: CODE_AREA 00008E58 - 00008E63 (0xc bytes), align: 2
  Segment part 23.            Intra module refs:   doItemJob
    -------------------------------------------------------------------------
DATA_C
  Relative segment, address: CODE_AREA 00008E64 - 00008E6B (0x8 bytes), align: 2
  Segment part 24.            Intra module refs:   doItemJob
    -------------------------------------------------------------------------
DATA_C
  Segment part 25. NOT NEEDED.
    -------------------------------------------------------------------------
DATA_C
  Relative segment, address: CODE_AREA 00008E6C - 00008E73 (0x8 bytes), align: 2
  Segment part 26.            Intra module refs:   doItemJob
    -------------------------------------------------------------------------
DATA_C
  Relative segment, address: CODE_AREA 00008E74 - 00008E7B (0x8 bytes), align: 2
  Segment part 27.            Intra module refs:   doItemJob
    -------------------------------------------------------------------------
DATA_C
  Relative segment, address: CODE_AREA 00008E7C - 00008E8B (0x10 bytes), align: 2
  Segment part 28.            Intra module refs:   doItemJob
    -------------------------------------------------------------------------
DATA_C
  Relative segment, address: CODE_AREA 00008E8C - 00008E93 (0x8 bytes), align: 2
  Segment part 29.            Intra module refs:   doItemJob
    -------------------------------------------------------------------------
DATA_C
  Relative segment, address: CODE_AREA 00008E94 - 00008E9F (0xc bytes), align: 2
  Segment part 30.            Intra module refs:   doItemJob
    -------------------------------------------------------------------------
DATA_C
  Segment part 31. NOT NEEDED.
    -------------------------------------------------------------------------
DATA_C
  Relative segment, address: CODE_AREA 00008EA0 - 00008EAB (0xc bytes), align: 2
  Segment part 32.            Intra module refs:   doItemJob
    -------------------------------------------------------------------------
DATA_C
  Segment part 33. NOT NEEDED.
    -------------------------------------------------------------------------
DATA_C
  Relative segment, address: CODE_AREA 00008EAC - 00008EB7 (0xc bytes), align: 2
  Segment part 34.            Intra module refs:   doItemJob
    -------------------------------------------------------------------------
DATA_C
  Segment part 35. NOT NEEDED.
    -------------------------------------------------------------------------
DATA_C
  Relative segment, address: CODE_AREA 00008EB8 - 00008EBF (0x8 bytes), align: 2
  Segment part 36.            Intra module refs:   doItemJob
    -------------------------------------------------------------------------
DATA_C
  Relative segment, address: CODE_AREA 00008EC0 - 00008EC7 (0x8 bytes), align: 2
  Segment part 37.            Intra module refs:   doItemJob
    -------------------------------------------------------------------------
DATA_C
  Relative segment, address: CODE_AREA 00008EC8 - 00008ECF (0x8 bytes), align: 2
  Segment part 38.            Intra module refs:   readConfig
    -------------------------------------------------------------------------
DATA_C
  Relative segment, address: CODE_AREA 00008ED0 - 00008ED7 (0x8 bytes), align: 2
  Segment part 39.            Intra module refs:   readConfig
    -------------------------------------------------------------------------
DATA_C
  Segment part 40. NOT NEEDED.
    -------------------------------------------------------------------------
DATA_C
  Segment part 41. NOT NEEDED.
    -------------------------------------------------------------------------
DATA_C
  Segment part 42. NOT NEEDED.

    *************************************************************************

  FILE NAME : D:\SVN\SieELF\SieELF\Master\Release_SGOLD\Obj\main.r79
  PROGRAM MODULE, NAME : main

  SEGMENTS IN THE MODULE
  ======================
DATA_Z
  Relative segment, address: CODE_AREA 00015AAC - 00015AAF (0x4 bytes), align: 2
  Segment part 16.            Intra module refs:   Segment part 79
           ENTRY                   ADDRESS         REF BY
           =====                   =======         ======
           ptc_buf                 00015AAC        Segment part 25 (ptcFileWork)
    -------------------------------------------------------------------------
DATA_Z
  Relative segment, address: CODE_AREA 00015AB0 - 00015AB3 (0x4 bytes), align: 2
  Segment part 17.            Intra module refs:   createMainMenu
           ENTRY                   ADDRESS         REF BY
           =====                   =======         ======
           patch_n                 00015AB0        Segment part 136 (optionMenu)
                                                   addPatchConfigList (getConfig)
    -------------------------------------------------------------------------
DATA_Z
  Relative segment, address: CODE_AREA 00015AB4 - 00015AB7 (0x4 bytes), align: 2
  Segment part 18.            Intra module refs:   Segment part 99
           ENTRY                   ADDRESS         REF BY
           =====                   =======         ======
           isSubMenuNeed           00015AB4 
    -------------------------------------------------------------------------
DATA_Z
  Segment part 19. NOT NEEDED.
           ENTRY                   ADDRESS         REF BY
           =====                   =======         ======
           colorEditing            
    -------------------------------------------------------------------------
DATA_Z
  Relative segment, address: CODE_AREA 00015AB8 - 00015ABB (0x4 bytes), align: 2
  Segment part 20.            Intra module refs:   Segment part 69
           ENTRY                   ADDRESS         REF BY
           =====                   =======         ======
           PTCFG_CUR               00015AB8        Segment part 114 (optionMenu)
    -------------------------------------------------------------------------
DATA_Z
  Relative segment, address: CODE_AREA 00015ABC - 00015ABF (0x4 bytes), align: 2
  Segment part 21.            Intra module refs:   maincsm_oncreate
           ENTRY                   ADDRESS         REF BY
           =====                   =======         ======
           MAIN_GUI_ID             00015ABC 
    -------------------------------------------------------------------------
DATA_Z
  Relative segment, address: CODE_AREA 00015AC0 - 00015AC3 (0x4 bytes), align: 2
  Segment part 22.            Intra module refs:   Segment part 81
           ENTRY                   ADDRESS         REF BY
           =====                   =======         ======
           MAIN_CSM_ID             00015AC0        Segment part 138 (optionMenu)
                                                   Segment part 93 (optionMenu)
    -------------------------------------------------------------------------
DATA_Z
  Segment part 23. NOT NEEDED.
           ENTRY                   ADDRESS         REF BY
           =====                   =======         ======
           MAIN_EDGUI_ID           
    -------------------------------------------------------------------------
DATA_Z
  Relative segment, address: CODE_AREA 00015AC4 - 00015ACF (0xc bytes), align: 2
  Segment part 24.            Intra module refs:   Segment part 78
           ENTRY                   ADDRESS         REF BY
           =====                   =======         ======
           S_ICONS                 00015AC4        profile_menu_iconhndl (optionMenu)
    -------------------------------------------------------------------------
DATA_Z
  Relative segment, address: CODE_AREA 00015AD0 - 00015AD3 (0x4 bytes), align: 2
  Segment part 25.            Intra module refs:   Segment part 104
                                                   Segment part 109
           ENTRY                   ADDRESS         REF BY
           =====                   =======         ======
           ews                     00015AD0 
    -------------------------------------------------------------------------
DATA_I
  Relative segment, address: DATA_AREA 00000000 - 00000003 (0x4 bytes), align: 2
  Segment part 26.            Intra module refs:   Killer
           ENTRY                   ADDRESS         REF BY
           =====                   =======         ======
           isRunScanerNeed         00000000        menu_quit_without_rs (optionMenu)
    -------------------------------------------------------------------------
DATA_C
  Relative segment, address: CODE_AREA 00008ED8 - 00008EE3 (0xc bytes), align: 2
  Segment part 2.             Intra module refs:   on_sdec
    -------------------------------------------------------------------------
DATA_C
  Relative segment, address: CODE_AREA 00008EE4 - 00008EEB (0x8 bytes), align: 2
  Segment part 3.             Intra module refs:   menu_sk
    -------------------------------------------------------------------------
DATA_C
  Relative segment, address: CODE_AREA 00008EEC - 00008EF7 (0xc bytes), align: 2
  Segment part 4.             Intra module refs:   UpdateCSMname
                                                   menuheader
    -------------------------------------------------------------------------
DATA_C
  Relative segment, address: CODE_AREA 00008EF8 - 00008F07 (0x10 bytes), align: 2
  Segment part 5.             Intra module refs:   createEditGui
    -------------------------------------------------------------------------
DATA_C
  Relative segment, address: CODE_AREA 00008F08 - 00008F0F (0x8 bytes), align: 2
  Segment part 6.             Intra module refs:   createEditGui
    -------------------------------------------------------------------------
DATA_C
  Relative segment, address: CODE_AREA 00008F10 - 00008F1B (0xc bytes), align: 2
  Segment part 7.             Intra module refs:   createEditGui
    -------------------------------------------------------------------------
DATA_C
  Relative segment, address: CODE_AREA 00008F1C - 00008F23 (0x8 bytes), align: 2
  Segment part 8.             Intra module refs:   createEditGui
    -------------------------------------------------------------------------
DATA_C
  Relative segment, address: CODE_AREA 00008F24 - 00008F2B (0x8 bytes), align: 2
  Segment part 9.             Intra module refs:   Segment part 114
    -------------------------------------------------------------------------
DATA_C
  Relative segment, address: CODE_AREA 00008F2C - 00008F37 (0xc bytes), align: 2
  Segment part 10.            Intra module refs:   on_sfec
    -------------------------------------------------------------------------
DATA_C
  Relative segment, address: CODE_AREA 00008F38 - 00008F3F (0x8 bytes), align: 2
  Segment part 11.            Intra module refs:   menu_iconhndl
    -------------------------------------------------------------------------
DATA_C
  Relative segment, address: CODE_AREA 00008F40 - 00008F47 (0x8 bytes), align: 2
  Segment part 12.            Intra module refs:   SK_CLOSE
    -------------------------------------------------------------------------
DATA_C
  Relative segment, address: CODE_AREA 00008F48 - 00008F4F (0x8 bytes), align: 2
  Segment part 13.            Intra module refs:   SK_BACK
    -------------------------------------------------------------------------
DATA_C
  Relative segment, address: CODE_AREA 00008F50 - 00008F57 (0x8 bytes), align: 2
  Segment part 14.            Intra module refs:   SK_OK
    -------------------------------------------------------------------------
DATA_C
  Relative segment, address: CODE_AREA 00008F58 - 00008F5F (0x8 bytes), align: 2
  Segment part 15.            Intra module refs:   menu_sk
    -------------------------------------------------------------------------
DATA_C
  Relative segment, address: CODE_AREA 00008F60 - 00008F73 (0x14 bytes), align: 2
  Segment part 28.            Intra module refs:   createMainMenu
           ENTRY                   ADDRESS         REF BY
           =====                   =======         ======
           menuheader              00008F60 
    -------------------------------------------------------------------------
DATA_C
  Relative segment, address: CODE_AREA 00008F74 - 00008F7F (0xc bytes), align: 2
  Segment part 29.            Intra module refs:   main_menu
           ENTRY                   ADDRESS         REF BY
           =====                   =======         ======
           menusoftkeys            00008F74 
    -------------------------------------------------------------------------
DATA_C
  Relative segment, address: CODE_AREA 00008F80 - 00008F97 (0x18 bytes), align: 2
  Segment part 30.            Intra module refs:   menu_skt
           ENTRY                   ADDRESS         REF BY
           =====                   =======         ======
           menu_sk                 00008F80 
    -------------------------------------------------------------------------
DATA_C
  Relative segment, address: CODE_AREA 00008F98 - 00008F9F (0x8 bytes), align: 2
  Segment part 31.            Intra module refs:   Segment part 46
                                                   main_menu
           ENTRY                   ADDRESS         REF BY
           =====                   =======         ======
           menu_skt                00008F98 
    -------------------------------------------------------------------------
DATA_Z
  Relative segment, address: CODE_AREA 00015AD4 - 00015AD7 (0x4 bytes), align: 2
  Segment part 32.            Intra module refs:   Segment part 108
                                                   Segment part 88
           ENTRY                   ADDRESS         REF BY
           =====                   =======         ======
           editItemList            00015AD4 
    -------------------------------------------------------------------------
CODE
  Segment part 47. NOT NEEDED.
    -------------------------------------------------------------------------
CODE
  Relative segment, address: CODE_AREA 00003AD0 - 00003B33 (0x64 bytes), align: 2
  Segment part 48.            Intra module refs:   edOnKey
                                                   menu_onkey
           ENTRY                   ADDRESS         REF BY
           =====                   =======         ======
           pushToItemStack         00003AD0 
               stack 1 = 00000000 ( 00000008 )
    -------------------------------------------------------------------------
CODE
  Segment part 49. NOT NEEDED.
    -------------------------------------------------------------------------
CODE
  Relative segment, address: CODE_AREA 00003B34 - 00003B6B (0x38 bytes), align: 2
  Segment part 50.            Intra module refs:   maincsm_onmessage
           ENTRY                   ADDRESS         REF BY
           =====                   =======         ======
           popItemStack            00003B34 
               stack 1 = 00000000 ( 00000004 )
    -------------------------------------------------------------------------
CODE
  Segment part 51. NOT NEEDED.
    -------------------------------------------------------------------------
CODE
  Relative segment, address: CODE_AREA 00003B6C - 00003B8B (0x20 bytes), align: 2
  Segment part 52.            Intra module refs:   edOnKey
           ENTRY                   ADDRESS         REF BY
           =====                   =======         ======
           updateStackEditCurItem
                                   00003B6C 
    -------------------------------------------------------------------------
CODE
  Segment part 53. NOT NEEDED.
    -------------------------------------------------------------------------
CODE
  Relative segment, address: CODE_AREA 00003B8C - 00003BA3 (0x18 bytes), align: 2
  Segment part 54.            Intra module refs:   menu_onkey
           ENTRY                   ADDRESS         REF BY
           =====                   =======         ======
           updateStackPtcfg        00003B8C 
    -------------------------------------------------------------------------
CODE
  Segment part 55. NOT NEEDED.
    -------------------------------------------------------------------------
CODE
  Relative segment, address: CODE_AREA 00003BA4 - 00003BDB (0x38 bytes), align: 2
  Segment part 56.            Intra module refs:   edGHook
           ENTRY                   ADDRESS         REF BY
           =====                   =======         ======
           isTopSubMenu            00003BA4 
               stack 1 = 00000000 ( 00000004 )
    -------------------------------------------------------------------------
CODE
  Segment part 57. NOT NEEDED.
    -------------------------------------------------------------------------
CODE
  Relative segment, address: CODE_AREA 00003BDC - 00003CDF (0x104 bytes), align: 2
  Segment part 58.            Intra module refs:   main_menu
           ENTRY                   ADDRESS         REF BY
           =====                   =======         ======
           menu_onkey              00003BDC 
               stack 1 = 00000000 ( 00000010 )
    -------------------------------------------------------------------------
CODE
  Segment part 59. NOT NEEDED.
    -------------------------------------------------------------------------
CODE
  Relative segment, address: CODE_AREA 00003CE0 - 00003DBF (0xe0 bytes), align: 2
  Segment part 60.            Intra module refs:   main_menu
           ENTRY                   ADDRESS         REF BY
           =====                   =======         ======
           menu_iconhndl           00003CE0 
               stack 1 = 00000000 ( 0000001C )
    -------------------------------------------------------------------------
CODE
  Segment part 61. NOT NEEDED.
    -------------------------------------------------------------------------
CODE
  Relative segment, address: CODE_AREA 00003DC0 - 00003DD3 (0x14 bytes), align: 2
  Segment part 62.            Intra module refs:   main_menu
           ENTRY                   ADDRESS         REF BY
           =====                   =======         ======
           menu_ghook              00003DC0 
               stack 1 = 00000000 ( 00000004 )
    -------------------------------------------------------------------------
CODE
  Segment part 63. NOT NEEDED.
    -------------------------------------------------------------------------
DATA_C
  Relative segment, address: CODE_AREA 00008FA0 - 00008FCB (0x2c bytes), align: 2
  Segment part 33.            Intra module refs:   createMainMenu
           ENTRY                   ADDRESS         REF BY
           =====                   =======         ======
           main_menu               00008FA0 
    -------------------------------------------------------------------------
CODE
  Relative segment, address: CODE_AREA 00003DD4 - 00003E47 (0x74 bytes), align: 2
  Segment part 64.            Intra module refs:   maincsm_oncreate
                                                   maincsm_onmessage
           ENTRY                   ADDRESS         REF BY
           =====                   =======         ======
           createMainMenu          00003DD4 
               stack 1 = 00000000 ( 00000018 )
    -------------------------------------------------------------------------
CODE
  Segment part 65. NOT NEEDED.
    -------------------------------------------------------------------------
CODE
  Relative segment, address: CODE_AREA 00003E48 - 00003E67 (0x20 bytes), align: 2
  Segment part 66.            Intra module refs:   MAINCSM
           ENTRY                   ADDRESS         REF BY
           =====                   =======         ======
           maincsm_oncreate        00003E48 
               stack 1 = 00000000 ( 0000000C )
    -------------------------------------------------------------------------
CODE
  Segment part 67. NOT NEEDED.
    -------------------------------------------------------------------------
CODE
  Relative segment, address: CODE_AREA 00003E68 - 00003F6B (0x104 bytes), align: 2
  Segment part 68.            Intra module refs:   MAINCSM
           ENTRY                   ADDRESS         REF BY
           =====                   =======         ======
           maincsm_onmessage       00003E68 
               stack 1 = 00000000 ( 0000000C )
    -------------------------------------------------------------------------
CODE
  Relative segment, address: CODE_AREA 00003F6C - 00003F6F (0x4 bytes), align: 2
  Segment part 69.            Intra module refs:   createMainMenu
                                                   maincsm_onmessage
                                                   menu_onkey
    -------------------------------------------------------------------------
CODE
  Segment part 70. NOT NEEDED.
    -------------------------------------------------------------------------
CODE
  Relative segment, address: CODE_AREA 00003F70 - 00003FC3 (0x54 bytes), align: 2
  Segment part 71.            Intra module refs:   Segment part 80
           ENTRY                   ADDRESS         REF BY
           =====                   =======         ======
           Killer                  00003F70 
               stack 1 = 00000000 ( 00000004 )
    -------------------------------------------------------------------------
CODE
  Segment part 72. NOT NEEDED.
    -------------------------------------------------------------------------
CODE
  Relative segment, address: CODE_AREA 00003FC4 - 00003FD3 (0x10 bytes), align: 2
  Segment part 73.            Intra module refs:   MAINCSM
           ENTRY                   ADDRESS         REF BY
           =====                   =======         ======
           maincsm_onclose         00003FC4 
               stack 1 = 00000000 ( 00000004 )
    -------------------------------------------------------------------------
CODE
  Segment part 74. NOT NEEDED.
    -------------------------------------------------------------------------
DATA_C
  Relative segment, address: CODE_AREA 00008FCC - 00008FCF (0x4 bytes), align: 2
  Segment part 34.            Intra module refs:   MAINCSM
           ENTRY                   ADDRESS         REF BY
           =====                   =======         ======
           minus11                 00008FCC 
    -------------------------------------------------------------------------
DATA_C
  Relative segment, address: CODE_AREA 00008FD0 - 000090E7 (0x118 bytes), align: 2
  Segment part 35.            Intra module refs:   MAINCSM
           ENTRY                   ADDRESS         REF BY
           =====                   =======         ======
           maincsm_name_body       00008FD0 
    -------------------------------------------------------------------------
DATA_C
  Relative segment, address: CODE_AREA 000090E8 - 00009113 (0x2c bytes), align: 2
  Segment part 36.            Intra module refs:   UpdateCSMname
                                                   main
           ENTRY                   ADDRESS         REF BY
           =====                   =======         ======
           MAINCSM                 000090E8 
    -------------------------------------------------------------------------
CODE
  Relative segment, address: CODE_AREA 00003FD4 - 00003FEF (0x1c bytes), align: 2
  Segment part 75.            Intra module refs:   main
           ENTRY                   ADDRESS         REF BY
           =====                   =======         ======
           UpdateCSMname           00003FD4 
               stack 1 = 00000000 ( 00000004 )
    -------------------------------------------------------------------------
CODE
  Segment part 76. NOT NEEDED.
    -------------------------------------------------------------------------
CODE
  Relative segment, address: CODE_AREA 00003FF0 - 00004097 (0xa8 bytes), align: 2
  Segment part 77.
           ENTRY                   ADDRESS         REF BY
           =====                   =======         ======
           main                    00003FF0        Absolute parts (?ABS_ENTRY_MOD)
               stack 1 = 00000000 ( 00000034 )
    -------------------------------------------------------------------------
CODE
  Relative segment, address: CODE_AREA 00004098 - 0000409B (0x4 bytes), align: 2
  Segment part 78.            Intra module refs:   main
                                                   menu_iconhndl
    -------------------------------------------------------------------------
CODE
  Relative segment, address: CODE_AREA 0000409C - 0000409F (0x4 bytes), align: 2
  Segment part 79.            Intra module refs:   Killer
                                                   main
    -------------------------------------------------------------------------
CODE
  Relative segment, address: CODE_AREA 000040A0 - 000040A3 (0x4 bytes), align: 2
  Segment part 80.            Intra module refs:   main
                                                   maincsm_onclose
    -------------------------------------------------------------------------
CODE
  Relative segment, address: CODE_AREA 000040A4 - 000040A7 (0x4 bytes), align: 2
  Segment part 81.            Intra module refs:   main
                                                   menu_onkey
    -------------------------------------------------------------------------
CODE
  Segment part 82. NOT NEEDED.
    -------------------------------------------------------------------------
DATA_Z
  Relative segment, address: CODE_AREA 00015AD8 - 00015B57 (0x80 bytes), align: 2
  Segment part 37.            Intra module refs:   Segment part 39
                                                   updateEdHdr
           ENTRY                   ADDRESS         REF BY
           =====                   =======         ======
           ED_HDR_BODY             00015AD8 
    -------------------------------------------------------------------------
DATA_I
  Relative segment, address: DATA_AREA 00000004 - 00000017 (0x14 bytes), align: 2
  Segment part 38.            Intra module refs:   createEditGui
           ENTRY                   ADDRESS         REF BY
           =====                   =======         ======
           ED_HDR                  00000004 
    -------------------------------------------------------------------------
CODE
  Relative segment, address: CODE_AREA 000040A8 - 00004113 (0x6c bytes), align: 2
  Segment part 83.            Intra module refs:   edGHook
                                                   edOnKey
           ENTRY                   ADDRESS         REF BY
           =====                   =======         ======
           findPatchItemInED       000040A8 
    -------------------------------------------------------------------------
CODE
  Segment part 84. NOT NEEDED.
    -------------------------------------------------------------------------
CODE
  Relative segment, address: CODE_AREA 00004114 - 000041C3 (0xb0 bytes), align: 2
  Segment part 85.            Intra module refs:   edOnKey
           ENTRY                   ADDRESS         REF BY
           =====                   =======         ======
           getMaxFocus             00004114 
    -------------------------------------------------------------------------
CODE
  Segment part 86. NOT NEEDED.
    -------------------------------------------------------------------------
CODE
  Relative segment, address: CODE_AREA 000041C4 - 0000421F (0x5c bytes), align: 2
  Segment part 87.            Intra module refs:   edOnKey
           ENTRY                   ADDRESS         REF BY
           =====                   =======         ======
           getMinFocus             000041C4 
    -------------------------------------------------------------------------
CODE
  Relative segment, address: CODE_AREA 00004220 - 00004223 (0x4 bytes), align: 2
  Segment part 88.            Intra module refs:   findPatchItemInED
                                                   getMaxFocus
                                                   getMinFocus
                                                   isTopSubMenu
                                                   maincsm_onmessage
                                                   popItemStack
                                                   pushToItemStack
                                                   updateStackEditCurItem
                                                   updateStackPtcfg
    -------------------------------------------------------------------------
CODE
  Segment part 89. NOT NEEDED.
    -------------------------------------------------------------------------
CODE
  Relative segment, address: CODE_AREA 00004224 - 0000427F (0x5c bytes), align: 2
  Segment part 90.            Intra module refs:   createEditGui
           ENTRY                   ADDRESS         REF BY
           =====                   =======         ======
           updateEdHdr             00004224 
               stack 1 = 00000000 ( 00000010 )
    -------------------------------------------------------------------------
CODE
  Segment part 91. NOT NEEDED.
    -------------------------------------------------------------------------
CODE
  Relative segment, address: CODE_AREA 00004280 - 00004283 (0x4 bytes), align: 2
  Segment part 92.            Intra module refs:   Segment part 46
           ENTRY                   ADDRESS         REF BY
           =====                   =======         ======
           ed_locret               00004280 
    -------------------------------------------------------------------------
CODE
  Segment part 93. NOT NEEDED.
    -------------------------------------------------------------------------
DATA_Z
  Relative segment, address: CODE_AREA 00015B58 - 00015B5B (0x4 bytes), align: 2
  Segment part 40.            Intra module refs:   Segment part 100
           ENTRY                   ADDRESS         REF BY
           =====                   =======         ======
           sfItemTemp              00015B58 
    -------------------------------------------------------------------------
CODE
  Relative segment, address: CODE_AREA 00004284 - 00004303 (0x80 bytes), align: 2
  Segment part 94.            Intra module refs:   edOnKey
           ENTRY                   ADDRESS         REF BY
           =====                   =======         ======
           on_sfec                 00004284 
               stack 1 = 00000000 ( 00000010 )
    -------------------------------------------------------------------------
CODE
  Segment part 95. NOT NEEDED.
    -------------------------------------------------------------------------
CODE
  Relative segment, address: CODE_AREA 00004304 - 0000435B (0x58 bytes), align: 2
  Segment part 96.            Intra module refs:   edOnKey
           ENTRY                   ADDRESS         REF BY
           =====                   =======         ======
           on_sdec                 00004304        pathInputOnKey (optionMenu)
               stack 1 = 00000000 ( 00000008 )
    -------------------------------------------------------------------------
CODE
  Segment part 97. NOT NEEDED.
    -------------------------------------------------------------------------
CODE
  Relative segment, address: CODE_AREA 0000435C - 0000476B (0x410 bytes), align: 2
  Segment part 98.            Intra module refs:   Segment part 46
           ENTRY                   ADDRESS         REF BY
           =====                   =======         ======
           edOnKey                 0000435C 
               stack 1 = 00000000 ( 00000250 )
    -------------------------------------------------------------------------
CODE
  Relative segment, address: CODE_AREA 0000476C - 0000476F (0x4 bytes), align: 2
  Segment part 99.            Intra module refs:   edOnKey
                                                   maincsm_onmessage
                                                   menu_onkey
    -------------------------------------------------------------------------
CODE
  Relative segment, address: CODE_AREA 00004770 - 00004773 (0x4 bytes), align: 2
  Segment part 100.           Intra module refs:   edOnKey
                                                   on_sfec
    -------------------------------------------------------------------------
CODE
  Relative segment, address: CODE_AREA 00004774 - 00004777 (0x4 bytes), align: 2
  Segment part 101.           Intra module refs:   edOnKey
                                                   menu_iconhndl
                                                   on_sdec
                                                   on_sfec
    -------------------------------------------------------------------------
CODE
  Segment part 102. NOT NEEDED.
    -------------------------------------------------------------------------
DATA_C
  Relative segment, address: CODE_AREA 00009114 - 0000911B (0x8 bytes), align: 2
  Segment part 41.            Intra module refs:   edGHook
           ENTRY                   ADDRESS         REF BY
           =====                   =======         ======
           SK_OK                   00009114 
    -------------------------------------------------------------------------
DATA_C
  Relative segment, address: CODE_AREA 0000911C - 00009123 (0x8 bytes), align: 2
  Segment part 42.            Intra module refs:   edGHook
           ENTRY                   ADDRESS         REF BY
           =====                   =======         ======
           SK_BACK                 0000911C 
    -------------------------------------------------------------------------
DATA_C
  Relative segment, address: CODE_AREA 00009124 - 0000912B (0x8 bytes), align: 2
  Segment part 43.            Intra module refs:   edGHook
           ENTRY                   ADDRESS         REF BY
           =====                   =======         ======
           SK_CLOSE                00009124 
    -------------------------------------------------------------------------
DATA_C
  Relative segment, address: CODE_AREA 0000912C - 0000912F (0x4 bytes), align: 2
  Segment part 44.            Intra module refs:   Segment part 110
           ENTRY                   ADDRESS         REF BY
           =====                   =======         ======
           PT_PTM_FMT              0000912C 
    -------------------------------------------------------------------------
CODE
  Relative segment, address: CODE_AREA 00004778 - 00004C7B (0x504 bytes), align: 2
  Segment part 103.           Intra module refs:   Segment part 46
           ENTRY                   ADDRESS         REF BY
           =====                   =======         ======
           edGHook                 00004778 
               stack 1 = 00000000 ( 000002C4 )
    -------------------------------------------------------------------------
CODE
  Relative segment, address: CODE_AREA 00004C7C - 00004C7F (0x4 bytes), align: 2
  Segment part 104.           Intra module refs:   Killer
                                                   edGHook
                                                   edOnKey
                                                   main
    -------------------------------------------------------------------------
CODE
  Relative segment, address: CODE_AREA 00004C80 - 00004C83 (0x4 bytes), align: 2
  Segment part 105.           Intra module refs:   edGHook
                                                   edOnKey
    -------------------------------------------------------------------------
CODE
  Segment part 106. NOT NEEDED.
    -------------------------------------------------------------------------
DATA_I
  Relative segment, address: DATA_AREA 00000018 - 0000004F (0x38 bytes), align: 2
  Segment part 45.            Intra module refs:   createEditGui
           ENTRY                   ADDRESS         REF BY
           =====                   =======         ======
           ED_DESC                 00000018 
    -------------------------------------------------------------------------
CODE
  Relative segment, address: CODE_AREA 00004C84 - 000054E3 (0x860 bytes), align: 2
  Segment part 107.           Intra module refs:   maincsm_onmessage
           ENTRY                   ADDRESS         REF BY
           =====                   =======         ======
           createEditGui           00004C84 
               stack 1 = 00000000 ( 000002A8 )
    -------------------------------------------------------------------------
CODE
  Relative segment, address: CODE_AREA 000054E4 - 000054E7 (0x4 bytes), align: 2
  Segment part 108.           Intra module refs:   createEditGui
                                                   edGHook
    -------------------------------------------------------------------------
CODE
  Relative segment, address: CODE_AREA 000054E8 - 000054EB (0x4 bytes), align: 2
  Segment part 109.           Intra module refs:   createEditGui
    -------------------------------------------------------------------------
CODE
  Relative segment, address: CODE_AREA 000054EC - 000054EF (0x4 bytes), align: 2
  Segment part 110.           Intra module refs:   createEditGui
                                                   edGHook
    -------------------------------------------------------------------------
CODE
  Relative segment, address: CODE_AREA 000054F0 - 000054F3 (0x4 bytes), align: 2
  Segment part 111.           Intra module refs:   createEditGui
                                                   edGHook
    -------------------------------------------------------------------------
CODE
  Relative segment, address: CODE_AREA 000054F4 - 000054F7 (0x4 bytes), align: 2
  Segment part 112.           Intra module refs:   createEditGui
                                                   edGHook
    -------------------------------------------------------------------------
CODE
  Relative segment, address: CODE_AREA 000054F8 - 000054FB (0x4 bytes), align: 2
  Segment part 113.           Intra module refs:   createEditGui
                                                   edGHook
    -------------------------------------------------------------------------
CODE
  Relative segment, address: CODE_AREA 000054FC - 000054FF (0x4 bytes), align: 2
  Segment part 114.           Intra module refs:   createEditGui
                                                   edGHook
                                                   edOnKey
    -------------------------------------------------------------------------
CODE
  Relative segment, address: CODE_AREA 00005500 - 00005503 (0x4 bytes), align: 2
  Segment part 115.           Intra module refs:   createEditGui
    -------------------------------------------------------------------------
CODE
  Segment part 116. NOT NEEDED.Intra module refs   menu_onkey
    -------------------------------------------------------------------------
CODE
  Segment part 117. NOT NEEDED.Intra module refs   maincsm_onmessage
                                                   menu_iconhndl
                                                   menu_onkey
    -------------------------------------------------------------------------
CODE
  Segment part 118. NOT NEEDED.Intra module refs   maincsm_onmessage
                                                   menu_onkey
    -------------------------------------------------------------------------
CODE
  Segment part 119. NOT NEEDED.Intra module refs   maincsm_onmessage
                                                   menu_iconhndl
                                                   menu_onkey
    -------------------------------------------------------------------------
CODE
  Segment part 120. NOT NEEDED.Intra module refs   menu_onkey
    -------------------------------------------------------------------------
CODE
  Segment part 121. NOT NEEDED.Intra module refs   createEditGui
                                                   edGHook
                                                   menu_iconhndl
                                                   updateEdHdr
    -------------------------------------------------------------------------
CODE
  Segment part 122. NOT NEEDED.Intra module refs   createEditGui
                                                   edGHook
                                                   menu_iconhndl
                                                   updateEdHdr
    -------------------------------------------------------------------------
CODE
  Segment part 123. NOT NEEDED.Intra module refs   Killer
    -------------------------------------------------------------------------
CODE
  Segment part 124. NOT NEEDED.Intra module refs   Killer
    -------------------------------------------------------------------------
CODE
  Segment part 125. NOT NEEDED.Intra module refs   Killer
    -------------------------------------------------------------------------
CODE
  Segment part 126. NOT NEEDED.Intra module refs   main
    -------------------------------------------------------------------------
CODE
  Segment part 127. NOT NEEDED.Intra module refs   on_sdec
                                                   on_sfec
    -------------------------------------------------------------------------
CODE
  Segment part 128. NOT NEEDED.Intra module refs   edOnKey
    -------------------------------------------------------------------------
CODE
  Segment part 129. NOT NEEDED.Intra module refs   edOnKey
    -------------------------------------------------------------------------
CODE
  Segment part 130. NOT NEEDED.Intra module refs   edGHook
    -------------------------------------------------------------------------
CODE
  Segment part 131. NOT NEEDED.Intra module refs   edGHook
    -------------------------------------------------------------------------
CODE
  Segment part 132. NOT NEEDED.Intra module refs   edGHook
    -------------------------------------------------------------------------
CODE
  Segment part 133. NOT NEEDED.Intra module refs   edGHook
    -------------------------------------------------------------------------
CODE
  Segment part 134. NOT NEEDED.Intra module refs   edGHook
    -------------------------------------------------------------------------
CODE
  Segment part 135. NOT NEEDED.Intra module refs   edGHook
    -------------------------------------------------------------------------
CODE
  Segment part 136. NOT NEEDED.Intra module refs   edGHook
    -------------------------------------------------------------------------
CODE
  Segment part 137. NOT NEEDED.Intra module refs   createEditGui
    -------------------------------------------------------------------------
CODE
  Segment part 138. NOT NEEDED.Intra module refs   createEditGui
    -------------------------------------------------------------------------
CODE
  Segment part 139. NOT NEEDED.Intra module refs   createEditGui
    -------------------------------------------------------------------------
CODE
  Segment part 140. NOT NEEDED.Intra module refs   createEditGui
    -------------------------------------------------------------------------
CODE
  Segment part 141. NOT NEEDED.Intra module refs   createEditGui
    -------------------------------------------------------------------------
CODE
  Segment part 142. NOT NEEDED.Intra module refs   createEditGui
    -------------------------------------------------------------------------
CODE
  Segment part 143. NOT NEEDED.Intra module refs   createEditGui
    -------------------------------------------------------------------------
CSTACK
  Segment part 1. NOT NEEDED.
    -------------------------------------------------------------------------
DATA_ID
  Relative segment, address: CODE_AREA 00000000 - 00000003 (0x4 bytes), align: 2
  Segment part 27.            Intra module refs:   isRunScanerNeed
    -------------------------------------------------------------------------
DATA_ID
  Relative segment, address: CODE_AREA 00000004 - 00000017 (0x14 bytes), align: 2
  Segment part 39.            Intra module refs:   ED_HDR
    -------------------------------------------------------------------------
DATA_ID
  Relative segment, address: CODE_AREA 00000018 - 0000004F (0x38 bytes), align: 2
  Segment part 46.            Intra module refs:   ED_DESC
    -------------------------------------------------------------------------
DATA_ID
  Segment part 144. NOT NEEDED.
           ENTRY                   ADDRESS         REF BY
           =====                   =======         ======
           ?*?DATA_ID              
    -------------------------------------------------------------------------
INITTAB
  Relative segment, address: CODE_AREA 00009A9C - 00009AA7 (0xc bytes), align: 2
  Segment part 145. ROOT.
           ENTRY                   ADDRESS         REF BY
           =====                   =======         ======
           ?init?tab?DATA_I        00009A9C 
    -------------------------------------------------------------------------
INITTAB
  Segment part 146. TENTATIVE. Used definition from getConfig
           ENTRY                   ADDRESS         REF BY
           =====                   =======         ======
           ?init?tab?DATA_Z        

    *************************************************************************

  FILE NAME : D:\SVN\SieELF\SieELF\Master\Release_SGOLD\Obj\optionMenu.r79
  PROGRAM MODULE, NAME : optionMenu

  SEGMENTS IN THE MODULE
  ======================
DATA_Z
  Relative segment, address: CODE_AREA 00015B5C - 00015B5F (0x4 bytes), align: 2
  Segment part 42.            Intra module refs:   Segment part 123
           ENTRY                   ADDRESS         REF BY
           =====                   =======         ======
           PATH_TYPE               00015B5C 
    -------------------------------------------------------------------------
DATA_C
  Relative segment, address: CODE_AREA 00009130 - 00009137 (0x8 bytes), align: 2
  Segment part 2.             Intra module refs:   Segment part 130
    -------------------------------------------------------------------------
DATA_C
  Relative segment, address: CODE_AREA 00009138 - 0000913F (0x8 bytes), align: 2
  Segment part 3.             Intra module refs:   Segment part 133
    -------------------------------------------------------------------------
DATA_C
  Relative segment, address: CODE_AREA 00009140 - 00009153 (0x14 bytes), align: 2
  Segment part 4.             Intra module refs:   Segment part 137
    -------------------------------------------------------------------------
DATA_C
  Relative segment, address: CODE_AREA 00009154 - 0000915F (0xc bytes), align: 2
  Segment part 5.             Intra module refs:   deleteThis
    -------------------------------------------------------------------------
DATA_C
  Relative segment, address: CODE_AREA 00009160 - 00009173 (0x14 bytes), align: 2
  Segment part 6.             Intra module refs:   Segment part 125
    -------------------------------------------------------------------------
DATA_C
  Relative segment, address: CODE_AREA 00009174 - 0000917B (0x8 bytes), align: 2
  Segment part 7.             Intra module refs:   profile_menu_iconhndl
    -------------------------------------------------------------------------
DATA_C
  Relative segment, address: CODE_AREA 0000917C - 000091FB (0x80 bytes), align: 2
  Segment part 8.             Intra module refs:   delUnusedConfig
    -------------------------------------------------------------------------
DATA_C
  Relative segment, address: CODE_AREA 000091FC - 00009203 (0x8 bytes), align: 2
  Segment part 9.             Intra module refs:   option_menu_ITEMS
                                                   option_menu_ITEMS_1
    -------------------------------------------------------------------------
DATA_C
  Relative segment, address: CODE_AREA 00009204 - 0000920B (0x8 bytes), align: 2
  Segment part 10.            Intra module refs:   showPatchInfo
    -------------------------------------------------------------------------
DATA_C
  Relative segment, address: CODE_AREA 0000920C - 00009213 (0x8 bytes), align: 2
  Segment part 11.            Intra module refs:   showPatchInfo
    -------------------------------------------------------------------------
DATA_C
  Relative segment, address: CODE_AREA 00009214 - 0000921B (0x8 bytes), align: 2
  Segment part 12.            Intra module refs:   showPatchInfo
    -------------------------------------------------------------------------
DATA_C
  Segment part 13. NOT NEEDED.
    -------------------------------------------------------------------------
DATA_C
  Relative segment, address: CODE_AREA 0000921C - 00009223 (0x8 bytes), align: 2
  Segment part 14.            Intra module refs:   showPatchInfo
    -------------------------------------------------------------------------
DATA_C
  Relative segment, address: CODE_AREA 00009224 - 0000922F (0xc bytes), align: 2
  Segment part 15.            Intra module refs:   showPatchInfo
    -------------------------------------------------------------------------
DATA_C
  Relative segment, address: CODE_AREA 00009230 - 0000923F (0x10 bytes), align: 2
  Segment part 16.            Intra module refs:   pathInputDlg
    -------------------------------------------------------------------------
DATA_C
  Relative segment, address: CODE_AREA 00009240 - 0000925F (0x20 bytes), align: 2
  Segment part 17.            Intra module refs:   pathInputDlg
    -------------------------------------------------------------------------
DATA_C
  Relative segment, address: CODE_AREA 00009260 - 000092DF (0x80 bytes), align: 2
  Segment part 18.            Intra module refs:   configBackUp
    -------------------------------------------------------------------------
DATA_C
  Relative segment, address: CODE_AREA 000092E0 - 000092E7 (0x8 bytes), align: 2
  Segment part 19.            Intra module refs:   Segment part 135
    -------------------------------------------------------------------------
DATA_C
  Relative segment, address: CODE_AREA 000092E8 - 00009367 (0x80 bytes), align: 2
  Segment part 20.            Intra module refs:   configRestore
    -------------------------------------------------------------------------
DATA_C
  Relative segment, address: CODE_AREA 00009368 - 0000936F (0x8 bytes), align: 2
  Segment part 21.            Intra module refs:   configRestore
    -------------------------------------------------------------------------
DATA_C
  Relative segment, address: CODE_AREA 00009370 - 0000937B (0xc bytes), align: 2
  Segment part 22.            Intra module refs:   configRestore
    -------------------------------------------------------------------------
DATA_C
  Relative segment, address: CODE_AREA 0000937C - 00009383 (0x8 bytes), align: 2
  Segment part 23.            Intra module refs:   mmenu_sk
    -------------------------------------------------------------------------
DATA_C
  Relative segment, address: CODE_AREA 00009384 - 0000938B (0x8 bytes), align: 2
  Segment part 24.            Intra module refs:   mmenu_sk
    -------------------------------------------------------------------------
DATA_C
  Relative segment, address: CODE_AREA 0000938C - 00009397 (0xc bytes), align: 2
  Segment part 25.            Intra module refs:   option_menu_ITEMS
                                                   profile_menu_header
    -------------------------------------------------------------------------
DATA_C
  Relative segment, address: CODE_AREA 00009398 - 000093A3 (0xc bytes), align: 2
  Segment part 26.            Intra module refs:   Segment part 58
                                                   option_menu_ITEMS
                                                   option_menu_ITEMS_1
    -------------------------------------------------------------------------
DATA_C
  Relative segment, address: CODE_AREA 000093A4 - 000093B3 (0x10 bytes), align: 2
  Segment part 27.            Intra module refs:   option_menu_ITEMS
                                                   option_menu_ITEMS_1
    -------------------------------------------------------------------------
DATA_C
  Relative segment, address: CODE_AREA 000093B4 - 000093C3 (0x10 bytes), align: 2
  Segment part 28.            Intra module refs:   option_menu_ITEMS
                                                   option_menu_ITEMS_1
    -------------------------------------------------------------------------
DATA_C
  Relative segment, address: CODE_AREA 000093C4 - 000093D3 (0x10 bytes), align: 2
  Segment part 29.            Intra module refs:   option_menu_ITEMS
                                                   option_menu_ITEMS_1
    -------------------------------------------------------------------------
DATA_C
  Relative segment, address: CODE_AREA 000093D4 - 000093DF (0xc bytes), align: 2
  Segment part 30.            Intra module refs:   SK_BACKUP
                                                   option_menu_ITEMS
                                                   option_menu_ITEMS_1
    -------------------------------------------------------------------------
DATA_C
  Relative segment, address: CODE_AREA 000093E0 - 000093EB (0xc bytes), align: 2
  Segment part 31.            Intra module refs:   SK_RESTORE
                                                   option_menu_ITEMS
                                                   option_menu_ITEMS_1
    -------------------------------------------------------------------------
DATA_C
  Relative segment, address: CODE_AREA 000093EC - 000093FB (0x10 bytes), align: 2
  Segment part 32.            Intra module refs:   pathInputDlg
    -------------------------------------------------------------------------
DATA_C
  Relative segment, address: CODE_AREA 000093FC - 0000940B (0x10 bytes), align: 2
  Segment part 33.            Intra module refs:   option_menu_ITEMS
                                                   option_menu_ITEMS_1
    -------------------------------------------------------------------------
DATA_C
  Relative segment, address: CODE_AREA 0000940C - 00009413 (0x8 bytes), align: 2
  Segment part 34.            Intra module refs:   option_menu_ITEMS
                                                   option_menu_ITEMS_1
    -------------------------------------------------------------------------
DATA_C
  Relative segment, address: CODE_AREA 00009414 - 0000941B (0x8 bytes), align: 2
  Segment part 35.            Intra module refs:   option_menu_header
    -------------------------------------------------------------------------
DATA_C
  Relative segment, address: CODE_AREA 0000941C - 00009423 (0x8 bytes), align: 2
  Segment part 36.            Intra module refs:   profile_menu_sk
    -------------------------------------------------------------------------
DATA_C
  Relative segment, address: CODE_AREA 00009424 - 0000942B (0x8 bytes), align: 2
  Segment part 37.            Intra module refs:   profile_menu_sk
    -------------------------------------------------------------------------
DATA_C
  Relative segment, address: CODE_AREA 0000942C - 0000943B (0x10 bytes), align: 2
  Segment part 38.            Intra module refs:   Segment part 66
    -------------------------------------------------------------------------
DATA_C
  Relative segment, address: CODE_AREA 0000943C - 0000947F (0x44 bytes), align: 2
  Segment part 39.            Intra module refs:   menu_about
    -------------------------------------------------------------------------
DATA_C
  Relative segment, address: CODE_AREA 00009480 - 000094FF (0x80 bytes), align: 2
  Segment part 40.            Intra module refs:   deleteAllConfig
    -------------------------------------------------------------------------
DATA_C
  Relative segment, address: CODE_AREA 00009500 - 00009507 (0x8 bytes), align: 2
  Segment part 41.            Intra module refs:   Segment part 134
    -------------------------------------------------------------------------
DATA_C
  Relative segment, address: CODE_AREA 00009508 - 00009513 (0xc bytes), align: 2
  Segment part 43.            Intra module refs:   option_menu
                                                   option_menu_1
                                                   profile_menu
           ENTRY                   ADDRESS         REF BY
           =====                   =======         ======
           mmenusoftkeys           00009508 
    -------------------------------------------------------------------------
DATA_C
  Relative segment, address: CODE_AREA 00009514 - 0000952B (0x18 bytes), align: 2
  Segment part 44.            Intra module refs:   mmenu_skt
           ENTRY                   ADDRESS         REF BY
           =====                   =======         ======
           mmenu_sk                00009514 
    -------------------------------------------------------------------------
DATA_C
  Relative segment, address: CODE_AREA 0000952C - 00009533 (0x8 bytes), align: 2
  Segment part 45.            Intra module refs:   Segment part 60
                                                   Segment part 64
                                                   option_menu
                                                   option_menu_1
           ENTRY                   ADDRESS         REF BY
           =====                   =======         ======
           mmenu_skt               0000952C 
    -------------------------------------------------------------------------
CODE
  Segment part 67. NOT NEEDED.
    -------------------------------------------------------------------------
CODE
  Relative segment, address: CODE_AREA 00005504 - 00005517 (0x14 bytes), align: 2
  Segment part 68.            Intra module refs:   option_menu
                                                   option_menu_1
           ENTRY                   ADDRESS         REF BY
           =====                   =======         ======
           option_menu_ghook       00005504 
               stack 1 = 00000000 ( 00000004 )
    -------------------------------------------------------------------------
CODE
  Segment part 69. NOT NEEDED.
    -------------------------------------------------------------------------
CODE
  Relative segment, address: CODE_AREA 00005518 - 00005533 (0x1c bytes), align: 2
  Segment part 70.            Intra module refs:   option_menu_HNDLS
                                                   option_menu_HNDLS_1
           ENTRY                   ADDRESS         REF BY
           =====                   =======         ======
           menu_exit               00005518 
               stack 1 = 00000000 ( 00000004 )
    -------------------------------------------------------------------------
CODE
  Segment part 71. NOT NEEDED.
    -------------------------------------------------------------------------
CODE
  Relative segment, address: CODE_AREA 00005534 - 00005553 (0x20 bytes), align: 2
  Segment part 72.            Intra module refs:   option_menu_HNDLS
                                                   option_menu_HNDLS_1
           ENTRY                   ADDRESS         REF BY
           =====                   =======         ======
           menu_about              00005534 
               stack 1 = 00000000 ( 00000004 )
    -------------------------------------------------------------------------
CODE
  Segment part 73. NOT NEEDED.
    -------------------------------------------------------------------------
CODE
  Relative segment, address: CODE_AREA 00005554 - 00005567 (0x14 bytes), align: 2
  Segment part 74.            Intra module refs:   option_menu_HNDLS
           ENTRY                   ADDRESS         REF BY
           =====                   =======         ======
           menu_profile            00005554 
               stack 1 = 00000000 ( 00000004 )
    -------------------------------------------------------------------------
CODE
  Segment part 75. NOT NEEDED.
    -------------------------------------------------------------------------
CODE
  Relative segment, address: CODE_AREA 00005568 - 0000557B (0x14 bytes), align: 2
  Segment part 76.            Intra module refs:   option_menu_HNDLS
                                                   option_menu_HNDLS_1
           ENTRY                   ADDRESS         REF BY
           =====                   =======         ======
           menu_del_all            00005568 
               stack 1 = 00000000 ( 00000004 )
    -------------------------------------------------------------------------
CODE
  Segment part 77. NOT NEEDED.
    -------------------------------------------------------------------------
CODE
  Relative segment, address: CODE_AREA 0000557C - 0000558F (0x14 bytes), align: 2
  Segment part 78.            Intra module refs:   option_menu_HNDLS
                                                   option_menu_HNDLS_1
           ENTRY                   ADDRESS         REF BY
           =====                   =======         ======
           menu_del_this           0000557C 
               stack 1 = 00000000 ( 00000004 )
    -------------------------------------------------------------------------
CODE
  Segment part 79. NOT NEEDED.
    -------------------------------------------------------------------------
CODE
  Relative segment, address: CODE_AREA 00005590 - 000055A3 (0x14 bytes), align: 2
  Segment part 80.            Intra module refs:   option_menu_HNDLS
                                                   option_menu_HNDLS_1
           ENTRY                   ADDRESS         REF BY
           =====                   =======         ======
           menu_del_unused         00005590 
               stack 1 = 00000000 ( 00000004 )
    -------------------------------------------------------------------------
CODE
  Segment part 81. NOT NEEDED.
    -------------------------------------------------------------------------
CODE
  Relative segment, address: CODE_AREA 000055A4 - 000055B7 (0x14 bytes), align: 2
  Segment part 82.            Intra module refs:   option_menu_HNDLS
                                                   option_menu_HNDLS_1
           ENTRY                   ADDRESS         REF BY
           =====                   =======         ======
           menu_info               000055A4 
               stack 1 = 00000000 ( 00000004 )
    -------------------------------------------------------------------------
CODE
  Segment part 83. NOT NEEDED.
    -------------------------------------------------------------------------
CODE
  Relative segment, address: CODE_AREA 000055B8 - 000055D7 (0x20 bytes), align: 2
  Segment part 84.            Intra module refs:   option_menu_HNDLS
                                                   option_menu_HNDLS_1
           ENTRY                   ADDRESS         REF BY
           =====                   =======         ======
           menu_backup             000055B8 
               stack 1 = 00000000 ( 00000004 )
    -------------------------------------------------------------------------
CODE
  Segment part 85. NOT NEEDED.
    -------------------------------------------------------------------------
CODE
  Relative segment, address: CODE_AREA 000055D8 - 000055F7 (0x20 bytes), align: 2
  Segment part 86.            Intra module refs:   option_menu_HNDLS
                                                   option_menu_HNDLS_1
           ENTRY                   ADDRESS         REF BY
           =====                   =======         ======
           menu_restore            000055D8 
               stack 1 = 00000000 ( 00000004 )
    -------------------------------------------------------------------------
CODE
  Segment part 87. NOT NEEDED.
    -------------------------------------------------------------------------
CODE
  Relative segment, address: CODE_AREA 000055F8 - 00005623 (0x2c bytes), align: 2
  Segment part 88.            Intra module refs:   option_menu_HNDLS
                                                   option_menu_HNDLS_1
           ENTRY                   ADDRESS         REF BY
           =====                   =======         ======
           menu_quit_without_rs    000055F8 
               stack 1 = 00000000 ( 00000004 )
    -------------------------------------------------------------------------
CODE
  Segment part 89. NOT NEEDED.
    -------------------------------------------------------------------------
DATA_C
  Relative segment, address: CODE_AREA 00009534 - 0000955B (0x28 bytes), align: 2
  Segment part 46.            Intra module refs:   option_menu
           ENTRY                   ADDRESS         REF BY
           =====                   =======         ======
           option_menu_HNDLS       00009534 
    -------------------------------------------------------------------------
DATA_C
  Relative segment, address: CODE_AREA 0000955C - 00009673 (0x118 bytes), align: 2
  Segment part 47.            Intra module refs:   option_menu
           ENTRY                   ADDRESS         REF BY
           =====                   =======         ======
           option_menu_ITEMS       0000955C 
    -------------------------------------------------------------------------
DATA_C
  Relative segment, address: CODE_AREA 00009674 - 00009687 (0x14 bytes), align: 2
  Segment part 48.            Intra module refs:   show_option_menu
           ENTRY                   ADDRESS         REF BY
           =====                   =======         ======
           option_menu_header      00009674 
    -------------------------------------------------------------------------
DATA_C
  Relative segment, address: CODE_AREA 00009688 - 000096B3 (0x2c bytes), align: 2
  Segment part 49.            Intra module refs:   show_option_menu
           ENTRY                   ADDRESS         REF BY
           =====                   =======         ======
           option_menu             00009688 
    -------------------------------------------------------------------------
DATA_C
  Relative segment, address: CODE_AREA 000096B4 - 000096D7 (0x24 bytes), align: 2
  Segment part 50.            Intra module refs:   option_menu_1
           ENTRY                   ADDRESS         REF BY
           =====                   =======         ======
           option_menu_HNDLS_1     000096B4 
    -------------------------------------------------------------------------
DATA_C
  Relative segment, address: CODE_AREA 000096D8 - 000097D3 (0xfc bytes), align: 2
  Segment part 51.            Intra module refs:   option_menu_1
           ENTRY                   ADDRESS         REF BY
           =====                   =======         ======
           option_menu_ITEMS_1     000096D8 
    -------------------------------------------------------------------------
DATA_C
  Relative segment, address: CODE_AREA 000097D4 - 000097FF (0x2c bytes), align: 2
  Segment part 52.            Intra module refs:   show_option_menu
           ENTRY                   ADDRESS         REF BY
           =====                   =======         ======
           option_menu_1           000097D4 
    -------------------------------------------------------------------------
CODE
  Relative segment, address: CODE_AREA 00005624 - 000056B7 (0x94 bytes), align: 2
  Segment part 90.
           ENTRY                   ADDRESS         REF BY
           =====                   =======         ======
           show_option_menu        00005624        menu_onkey (main)
               stack 1 = 00000000 ( 00000018 )
    -------------------------------------------------------------------------
CODE
  Segment part 91. NOT NEEDED.
    -------------------------------------------------------------------------
CODE
  Relative segment, address: CODE_AREA 000056B8 - 00005797 (0xe0 bytes), align: 2
  Segment part 92.            Intra module refs:   menu_del_all
           ENTRY                   ADDRESS         REF BY
           =====                   =======         ======
           deleteAllConfig         000056B8 
               stack 1 = 00000000 ( 00000340 )
    -------------------------------------------------------------------------
CODE
  Relative segment, address: CODE_AREA 00005798 - 0000579B (0x4 bytes), align: 2
  Segment part 93.            Intra module refs:   deleteAllConfig
                                                   menu_exit
                                                   menu_quit_without_rs
    -------------------------------------------------------------------------
CODE
  Segment part 94. NOT NEEDED.
    -------------------------------------------------------------------------
CODE
  Relative segment, address: CODE_AREA 0000579C - 00005813 (0x78 bytes), align: 2
  Segment part 95.            Intra module refs:   menu_del_this
           ENTRY                   ADDRESS         REF BY
           =====                   =======         ======
           deleteThis              0000579C 
               stack 1 = 00000000 ( 000000B8 )
    -------------------------------------------------------------------------
CODE
  Segment part 96. NOT NEEDED.
    -------------------------------------------------------------------------
DATA_C
  Relative segment, address: CODE_AREA 00009800 - 00009813 (0x14 bytes), align: 2
  Segment part 53.            Intra module refs:   createProfileOnoffMenu
           ENTRY                   ADDRESS         REF BY
           =====                   =======         ======
           profile_menu_header     00009800 
    -------------------------------------------------------------------------
CODE
  Relative segment, address: CODE_AREA 00005814 - 000058B3 (0xa0 bytes), align: 2
  Segment part 97.            Intra module refs:   profile_menu
           ENTRY                   ADDRESS         REF BY
           =====                   =======         ======
           profile_menu_onkey      00005814 
               stack 1 = 00000000 ( 00000010 )
    -------------------------------------------------------------------------
CODE
  Segment part 98. NOT NEEDED.
    -------------------------------------------------------------------------
CODE
  Relative segment, address: CODE_AREA 000058B4 - 00005977 (0xc4 bytes), align: 2
  Segment part 99.            Intra module refs:   profile_menu
           ENTRY                   ADDRESS         REF BY
           =====                   =======         ======
           profile_menu_iconhndl   000058B4 
               stack 1 = 00000000 ( 00000018 )
    -------------------------------------------------------------------------
CODE
  Segment part 100. NOT NEEDED.
    -------------------------------------------------------------------------
CODE
  Relative segment, address: CODE_AREA 00005978 - 0000598B (0x14 bytes), align: 2
  Segment part 101.           Intra module refs:   profile_menu
           ENTRY                   ADDRESS         REF BY
           =====                   =======         ======
           profile_menu_ghook      00005978 
               stack 1 = 00000000 ( 00000004 )
    -------------------------------------------------------------------------
CODE
  Segment part 102. NOT NEEDED.
    -------------------------------------------------------------------------
DATA_C
  Relative segment, address: CODE_AREA 00009814 - 0000982B (0x18 bytes), align: 2
  Segment part 54.            Intra module refs:   profile_menu_skt
           ENTRY                   ADDRESS         REF BY
           =====                   =======         ======
           profile_menu_sk         00009814 
    -------------------------------------------------------------------------
DATA_C
  Relative segment, address: CODE_AREA 0000982C - 00009833 (0x8 bytes), align: 2
  Segment part 55.            Intra module refs:   profile_menu
           ENTRY                   ADDRESS         REF BY
           =====                   =======         ======
           profile_menu_skt        0000982C 
    -------------------------------------------------------------------------
DATA_C
  Relative segment, address: CODE_AREA 00009834 - 0000985F (0x2c bytes), align: 2
  Segment part 56.            Intra module refs:   createProfileOnoffMenu
           ENTRY                   ADDRESS         REF BY
           =====                   =======         ======
           profile_menu            00009834 
    -------------------------------------------------------------------------
CODE
  Relative segment, address: CODE_AREA 0000598C - 000059EB (0x60 bytes), align: 2
  Segment part 103.           Intra module refs:   menu_profile
           ENTRY                   ADDRESS         REF BY
           =====                   =======         ======
           createProfileOnoffMenu
                                   0000598C        menu_onkey (main)
               stack 1 = 00000000 ( 00000018 )
    -------------------------------------------------------------------------
CODE
  Segment part 104. NOT NEEDED.
    -------------------------------------------------------------------------
CODE
  Relative segment, address: CODE_AREA 000059EC - 00005ABB (0xd0 bytes), align: 2
  Segment part 105.           Intra module refs:   menu_del_unused
           ENTRY                   ADDRESS         REF BY
           =====                   =======         ======
           delUnusedConfig         000059EC 
               stack 1 = 00000000 ( 00000350 )
    -------------------------------------------------------------------------
CODE
  Segment part 106. NOT NEEDED.
    -------------------------------------------------------------------------
CODE
  Relative segment, address: CODE_AREA 00005ABC - 00005AEB (0x30 bytes), align: 2
  Segment part 107.           Intra module refs:   Segment part 60
           ENTRY                   ADDRESS         REF BY
           =====                   =======         ======
           infoOnKey               00005ABC 
    -------------------------------------------------------------------------
CODE
  Segment part 108. NOT NEEDED.
    -------------------------------------------------------------------------
CODE
  Relative segment, address: CODE_AREA 00005AEC - 00005B03 (0x18 bytes), align: 2
  Segment part 109.           Intra module refs:   Segment part 60
           ENTRY                   ADDRESS         REF BY
           =====                   =======         ======
           infoGHook               00005AEC 
               stack 1 = 00000000 ( 00000004 )
    -------------------------------------------------------------------------
CODE
  Segment part 110. NOT NEEDED.
    -------------------------------------------------------------------------
CODE
  Relative segment, address: CODE_AREA 00005B04 - 00005B07 (0x4 bytes), align: 2
  Segment part 111.           Intra module refs:   Segment part 60
                                                   Segment part 64
           ENTRY                   ADDRESS         REF BY
           =====                   =======         ======
           info_locret             00005B04 
    -------------------------------------------------------------------------
CODE
  Segment part 112. NOT NEEDED.
    -------------------------------------------------------------------------
DATA_I
  Relative segment, address: DATA_AREA 00000050 - 00000063 (0x14 bytes), align: 2
  Segment part 57.            Intra module refs:   showPatchInfo
           ENTRY                   ADDRESS         REF BY
           =====                   =======         ======
           INFO_HDR                00000050 
    -------------------------------------------------------------------------
DATA_I
  Relative segment, address: DATA_AREA 00000064 - 0000009B (0x38 bytes), align: 2
  Segment part 59.            Intra module refs:   showPatchInfo
           ENTRY                   ADDRESS         REF BY
           =====                   =======         ======
           INFO_DESC               00000064 
    -------------------------------------------------------------------------
CODE
  Relative segment, address: CODE_AREA 00005B08 - 00005DF7 (0x2f0 bytes), align: 2
  Segment part 113.           Intra module refs:   menu_info
           ENTRY                   ADDRESS         REF BY
           =====                   =======         ======
           showPatchInfo           00005B08 
               stack 1 = 00000000 ( 0000005C )
    -------------------------------------------------------------------------
CODE
  Relative segment, address: CODE_AREA 00005DF8 - 00005DFB (0x4 bytes), align: 2
  Segment part 114.           Intra module refs:   deleteThis
                                                   profile_menu_iconhndl
                                                   profile_menu_onkey
                                                   showPatchInfo
                                                   show_option_menu
    -------------------------------------------------------------------------
CODE
  Segment part 115. NOT NEEDED.
    -------------------------------------------------------------------------
DATA_C
  Relative segment, address: CODE_AREA 00009860 - 00009867 (0x8 bytes), align: 2
  Segment part 61.            Intra module refs:   pathInputGHook
           ENTRY                   ADDRESS         REF BY
           =====                   =======         ======
           SK_BACKUP               00009860 
    -------------------------------------------------------------------------
DATA_C
  Relative segment, address: CODE_AREA 00009868 - 0000986F (0x8 bytes), align: 2
  Segment part 62.            Intra module refs:   pathInputGHook
           ENTRY                   ADDRESS         REF BY
           =====                   =======         ======
           SK_RESTORE              00009868 
    -------------------------------------------------------------------------
CODE
  Relative segment, address: CODE_AREA 00005DFC - 00005F63 (0x168 bytes), align: 2
  Segment part 116.           Intra module refs:   configBackUp
                                                   configRestore
           ENTRY                   ADDRESS         REF BY
           =====                   =======         ======
           fcopy                   00005DFC 
               stack 1 = 00000000 ( 00000034 )
    -------------------------------------------------------------------------
CODE
  Segment part 117. NOT NEEDED.
    -------------------------------------------------------------------------
CODE
  Relative segment, address: CODE_AREA 00005F64 - 0000600F (0xac bytes), align: 2
  Segment part 118.           Intra module refs:   Segment part 64
           ENTRY                   ADDRESS         REF BY
           =====                   =======         ======
           pathInputOnKey          00005F64 
               stack 1 = 00000000 ( 000000B0 )
    -------------------------------------------------------------------------
CODE
  Segment part 119. NOT NEEDED.
    -------------------------------------------------------------------------
CODE
  Relative segment, address: CODE_AREA 00006010 - 00006053 (0x44 bytes), align: 2
  Segment part 120.           Intra module refs:   Segment part 64
           ENTRY                   ADDRESS         REF BY
           =====                   =======         ======
           pathInputGHook          00006010 
               stack 1 = 00000000 ( 00000004 )
    -------------------------------------------------------------------------
CODE
  Segment part 121. NOT NEEDED.
    -------------------------------------------------------------------------
DATA_I
  Relative segment, address: DATA_AREA 0000009C - 000000D3 (0x38 bytes), align: 2
  Segment part 63.            Intra module refs:   pathInputDlg
           ENTRY                   ADDRESS         REF BY
           =====                   =======         ======
           PATH_INPUT_DESC         0000009C 
    -------------------------------------------------------------------------
DATA_I
  Relative segment, address: DATA_AREA 000000D4 - 000000E7 (0x14 bytes), align: 2
  Segment part 65.            Intra module refs:   pathInputDlg
           ENTRY                   ADDRESS         REF BY
           =====                   =======         ======
           PATH_INPUT_HDR          000000D4 
    -------------------------------------------------------------------------
CODE
  Relative segment, address: CODE_AREA 00006054 - 000061F3 (0x1a0 bytes), align: 2
  Segment part 122.           Intra module refs:   menu_backup
                                                   menu_restore
           ENTRY                   ADDRESS         REF BY
           =====                   =======         ======
           pathInputDlg            00006054 
               stack 1 = 00000000 ( 0000005C )
    -------------------------------------------------------------------------
CODE
  Relative segment, address: CODE_AREA 000061F4 - 000061F7 (0x4 bytes), align: 2
  Segment part 123.           Intra module refs:   menu_backup
                                                   menu_restore
                                                   pathInputDlg
                                                   pathInputGHook
                                                   pathInputOnKey
    -------------------------------------------------------------------------
CODE
  Relative segment, address: CODE_AREA 000061F8 - 000061FB (0x4 bytes), align: 2
  Segment part 124.           Intra module refs:   pathInputDlg
                                                   profile_menu_iconhndl
                                                   showPatchInfo
    -------------------------------------------------------------------------
CODE
  Relative segment, address: CODE_AREA 000061FC - 000061FF (0x4 bytes), align: 2
  Segment part 125.           Intra module refs:   deleteThis
                                                   pathInputDlg
    -------------------------------------------------------------------------
CODE
  Segment part 126. NOT NEEDED.
    -------------------------------------------------------------------------
CODE
  Relative segment, address: CODE_AREA 00006200 - 00006293 (0x94 bytes), align: 2
  Segment part 127.           Intra module refs:   configBackUp
           ENTRY                   ADDRESS         REF BY
           =====                   =======         ======
           mkpath                  00006200 
               stack 1 = 00000000 ( 00000098 )
    -------------------------------------------------------------------------
CODE
  Segment part 128. NOT NEEDED.
    -------------------------------------------------------------------------
CODE
  Relative segment, address: CODE_AREA 00006294 - 0000637B (0xe8 bytes), align: 2
  Segment part 129.           Intra module refs:   pathInputOnKey
           ENTRY                   ADDRESS         REF BY
           =====                   =======         ======
           configBackUp            00006294 
               stack 1 = 00000000 ( 000003CC )
    -------------------------------------------------------------------------
CODE
  Relative segment, address: CODE_AREA 0000637C - 0000637F (0x4 bytes), align: 2
  Segment part 130.           Intra module refs:   configBackUp
                                                   delUnusedConfig
                                                   deleteAllConfig
    -------------------------------------------------------------------------
CODE
  Segment part 131. NOT NEEDED.
    -------------------------------------------------------------------------
CODE
  Relative segment, address: CODE_AREA 00006380 - 000064B7 (0x138 bytes), align: 2
  Segment part 132.           Intra module refs:   pathInputOnKey
           ENTRY                   ADDRESS         REF BY
           =====                   =======         ======
           configRestore           00006380 
               stack 1 = 00000000 ( 000003CC )
    -------------------------------------------------------------------------
CODE
  Relative segment, address: CODE_AREA 000064B8 - 000064BB (0x4 bytes), align: 2
  Segment part 133.           Intra module refs:   configBackUp
                                                   configRestore
                                                   delUnusedConfig
                                                   deleteAllConfig
    -------------------------------------------------------------------------
CODE
  Relative segment, address: CODE_AREA 000064BC - 000064BF (0x4 bytes), align: 2
  Segment part 134.           Intra module refs:   configBackUp
                                                   configRestore
                                                   delUnusedConfig
                                                   deleteAllConfig
                                                   deleteThis
    -------------------------------------------------------------------------
CODE
  Relative segment, address: CODE_AREA 000064C0 - 000064C3 (0x4 bytes), align: 2
  Segment part 135.           Intra module refs:   configBackUp
                                                   configRestore
    -------------------------------------------------------------------------
CODE
  Relative segment, address: CODE_AREA 000064C4 - 000064C7 (0x4 bytes), align: 2
  Segment part 136.           Intra module refs:   configRestore
                                                   deleteAllConfig
    -------------------------------------------------------------------------
CODE
  Relative segment, address: CODE_AREA 000064C8 - 000064CB (0x4 bytes), align: 2
  Segment part 137.           Intra module refs:   configRestore
                                                   deleteAllConfig
    -------------------------------------------------------------------------
CODE
  Relative segment, address: CODE_AREA 000064CC - 000064CF (0x4 bytes), align: 2
  Segment part 138.           Intra module refs:   configRestore
    -------------------------------------------------------------------------
CODE
  Segment part 139. NOT NEEDED.Intra module refs   deleteThis
                                                   profile_menu_iconhndl
                                                   profile_menu_onkey
                                                   showPatchInfo
                                                   show_option_menu
    -------------------------------------------------------------------------
CODE
  Segment part 140. NOT NEEDED.Intra module refs   configRestore
                                                   deleteAllConfig
    -------------------------------------------------------------------------
CODE
  Segment part 141. NOT NEEDED.Intra module refs   deleteAllConfig
    -------------------------------------------------------------------------
CODE
  Segment part 142. NOT NEEDED.Intra module refs   deleteThis
    -------------------------------------------------------------------------
CODE
  Segment part 143. NOT NEEDED.Intra module refs   profile_menu_onkey
    -------------------------------------------------------------------------
CODE
  Segment part 144. NOT NEEDED.Intra module refs   profile_menu_iconhndl
                                                   profile_menu_onkey
    -------------------------------------------------------------------------
CODE
  Segment part 145. NOT NEEDED.Intra module refs   delUnusedConfig
    -------------------------------------------------------------------------
CODE
  Segment part 146. NOT NEEDED.Intra module refs   showPatchInfo
    -------------------------------------------------------------------------
CODE
  Segment part 147. NOT NEEDED.Intra module refs   showPatchInfo
    -------------------------------------------------------------------------
CODE
  Segment part 148. NOT NEEDED.Intra module refs   configRestore
    -------------------------------------------------------------------------
CSTACK
  Segment part 1. NOT NEEDED.
    -------------------------------------------------------------------------
DATA_ID
  Relative segment, address: CODE_AREA 00000050 - 00000063 (0x14 bytes), align: 2
  Segment part 58.            Intra module refs:   INFO_HDR
    -------------------------------------------------------------------------
DATA_ID
  Relative segment, address: CODE_AREA 00000064 - 0000009B (0x38 bytes), align: 2
  Segment part 60.            Intra module refs:   INFO_DESC
    -------------------------------------------------------------------------
DATA_ID
  Relative segment, address: CODE_AREA 0000009C - 000000D3 (0x38 bytes), align: 2
  Segment part 64.            Intra module refs:   PATH_INPUT_DESC
    -------------------------------------------------------------------------
DATA_ID
  Relative segment, address: CODE_AREA 000000D4 - 000000E7 (0x14 bytes), align: 2
  Segment part 66.            Intra module refs:   PATH_INPUT_HDR
    -------------------------------------------------------------------------
DATA_ID
  Segment part 149. TENTATIVE. Used definition from main
           ENTRY                   ADDRESS         REF BY
           =====                   =======         ======
           ?*?DATA_ID              
    -------------------------------------------------------------------------
INITTAB
  Segment part 150. TENTATIVE. Used definition from main
           ENTRY                   ADDRESS         REF BY
           =====                   =======         ======
           ?init?tab?DATA_I        
    -------------------------------------------------------------------------
INITTAB
  Segment part 151. TENTATIVE. Used definition from getConfig
           ENTRY                   ADDRESS         REF BY
           =====                   =======         ======
           ?init?tab?DATA_Z        

    *************************************************************************

  FILE NAME : D:\SVN\SieELF\SieELF\Master\Release_SGOLD\Obj\ptcFileWork.r79
  PROGRAM MODULE, NAME : ptcFileWork

  SEGMENTS IN THE MODULE
  ======================
DATA_Z
  Relative segment, address: CODE_AREA 00015B60 - 00015B63 (0x4 bytes), align: 2
  Segment part 6.             Intra module refs:   initPatchConfig
           ENTRY                   ADDRESS         REF BY
           =====                   =======         ======
           ptcfilesize             00015B60 
    -------------------------------------------------------------------------
CODE
  Segment part 7. NOT NEEDED.
    -------------------------------------------------------------------------
CODE
  Relative segment, address: CODE_AREA 000064D0 - 0000672B (0x25c bytes), align: 2
  Segment part 8.             Intra module refs:   initPatchConfig
           ENTRY                   ADDRESS         REF BY
           =====                   =======         ======
           initPatchItem           000064D0 
               stack 1 = 00000000 ( 0000000C )
    -------------------------------------------------------------------------
CODE
  Segment part 9. NOT NEEDED.
    -------------------------------------------------------------------------
CODE
  Relative segment, address: CODE_AREA 0000672C - 000067EF (0xc4 bytes), align: 2
  Segment part 10.
           ENTRY                   ADDRESS         REF BY
           =====                   =======         ======
           initPatchConfig         0000672C        getAllPatchData (getConfig)
               stack 1 = 00000000 ( 000000A8 )
    -------------------------------------------------------------------------
CODE
  Segment part 11. NOT NEEDED.
    -------------------------------------------------------------------------
CODE
  Relative segment, address: CODE_AREA 000067F0 - 000068A3 (0xb4 bytes), align: 2
  Segment part 12.            Intra module refs:   fillItemDataToBuf
                                                   getPtcSize
           ENTRY                   ADDRESS         REF BY
           =====                   =======         ======
           findNextBposItem        000067F0 
               stack 1 = 00000000 ( 00000014 )
    -------------------------------------------------------------------------
CODE
  Segment part 13. NOT NEEDED.
    -------------------------------------------------------------------------
CODE
  Relative segment, address: CODE_AREA 000068A4 - 0000695B (0xb8 bytes), align: 2
  Segment part 14.            Intra module refs:   fillItemDataToBuf
           ENTRY                   ADDRESS         REF BY
           =====                   =======         ======
           getTheSameBPosCheckBox
                                   000068A4 
               stack 1 = 00000000 ( 00000014 )
    -------------------------------------------------------------------------
CODE
  Segment part 15. NOT NEEDED.
    -------------------------------------------------------------------------
CODE
  Relative segment, address: CODE_AREA 0000695C - 00006C17 (0x2bc bytes), align: 2
  Segment part 16.            Intra module refs:   savePatchConfig
           ENTRY                   ADDRESS         REF BY
           =====                   =======         ======
           fillItemDataToBuf       0000695C 
               stack 1 = 00000000 ( 00000010 )
    -------------------------------------------------------------------------
CODE
  Segment part 17. NOT NEEDED.
    -------------------------------------------------------------------------
CODE
  Relative segment, address: CODE_AREA 00006C18 - 00006D2B (0x114 bytes), align: 2
  Segment part 18.            Intra module refs:   savePatchConfig
           ENTRY                   ADDRESS         REF BY
           =====                   =======         ======
           getPtcSize              00006C18 
               stack 1 = 00000000 ( 0000000C )
    -------------------------------------------------------------------------
CODE
  Segment part 19. NOT NEEDED.
    -------------------------------------------------------------------------
CODE
  Relative segment, address: CODE_AREA 00006D2C - 00006EB7 (0x18c bytes), align: 2
  Segment part 20.            Intra module refs:   saveAllConfig
           ENTRY                   ADDRESS         REF BY
           =====                   =======         ======
           savePatchConfig         00006D2C 
               stack 1 = 00000000 ( 000000AC )
    -------------------------------------------------------------------------
CODE
  Relative segment, address: CODE_AREA 00006EB8 - 00006EBB (0x4 bytes), align: 2
  Segment part 21.            Intra module refs:   initPatchConfig
                                                   savePatchConfig
    -------------------------------------------------------------------------
CODE
  Relative segment, address: CODE_AREA 00006EBC - 00006EBF (0x4 bytes), align: 2
  Segment part 22.            Intra module refs:   initPatchConfig
                                                   savePatchConfig
    -------------------------------------------------------------------------
CODE
  Relative segment, address: CODE_AREA 00006EC0 - 00006EC3 (0x4 bytes), align: 2
  Segment part 23.            Intra module refs:   initPatchConfig
                                                   savePatchConfig
    -------------------------------------------------------------------------
CODE
  Relative segment, address: CODE_AREA 00006EC4 - 00006EC7 (0x4 bytes), align: 2
  Segment part 24.            Intra module refs:   initPatchConfig
                                                   savePatchConfig
    -------------------------------------------------------------------------
CODE
  Relative segment, address: CODE_AREA 00006EC8 - 00006ECB (0x4 bytes), align: 2
  Segment part 25.            Intra module refs:   fillItemDataToBuf
                                                   initPatchConfig
                                                   initPatchItem
                                                   savePatchConfig
    -------------------------------------------------------------------------
CODE
  Segment part 26. NOT NEEDED.
    -------------------------------------------------------------------------
CODE
  Relative segment, address: CODE_AREA 00006ECC - 00006EFB (0x30 bytes), align: 2
  Segment part 27.
           ENTRY                   ADDRESS         REF BY
           =====                   =======         ======
           saveAllConfig           00006ECC        Killer (main)
               stack 1 = 00000000 ( 00000008 )
    -------------------------------------------------------------------------
CODE
  Segment part 28. NOT NEEDED.Intra module refs:   savePatchConfig
    -------------------------------------------------------------------------
CSTACK
  Segment part 1. NOT NEEDED.
    -------------------------------------------------------------------------
INITTAB
  Segment part 29. TENTATIVE. Used definition from getConfig
           ENTRY                   ADDRESS         REF BY
           =====                   =======         ======
           ?init?tab?DATA_Z        
    -------------------------------------------------------------------------
DATA_C
  Relative segment, address: CODE_AREA 00009870 - 00009883 (0x14 bytes), align: 2
  Segment part 2.             Intra module refs:   Segment part 21
    -------------------------------------------------------------------------
DATA_C
  Relative segment, address: CODE_AREA 00009884 - 0000988B (0x8 bytes), align: 2
  Segment part 3.             Intra module refs:   Segment part 22
    -------------------------------------------------------------------------
DATA_C
  Relative segment, address: CODE_AREA 0000988C - 00009893 (0x8 bytes), align: 2
  Segment part 4.             Intra module refs:   Segment part 23
    -------------------------------------------------------------------------
DATA_C
  Relative segment, address: CODE_AREA 00009894 - 0000989B (0x8 bytes), align: 2
  Segment part 5.             Intra module refs:   Segment part 24

    *************************************************************************

  FILE NAME : D:\SVN\SieELF\SieELF\Master\Release_SGOLD\Obj\string.r79
  PROGRAM MODULE, NAME : string

  SEGMENTS IN THE MODULE
  ======================
CODE
  Segment part 2. NOT NEEDED.
    -------------------------------------------------------------------------
CODE
  Relative segment, address: CODE_AREA 00006EFC - 00006F2F (0x34 bytes), align: 2
  Segment part 3.
           ENTRY                   ADDRESS         REF BY
           =====                   =======         ======
           getnumwidth             00006EFC        createEditGui (main)
    -------------------------------------------------------------------------
CODE
  Segment part 4. NOT NEEDED.
    -------------------------------------------------------------------------
CODE
  Relative segment, address: CODE_AREA 00006F30 - 00006F97 (0x68 bytes), align: 2
  Segment part 5.
           ENTRY                   ADDRESS         REF BY
           =====                   =======         ======
           uni2ws                  00006F30        createEditGui (main)
               stack 1 = 00000000 ( 00000008 )
    -------------------------------------------------------------------------
CODE
  Segment part 6. NOT NEEDED.
    -------------------------------------------------------------------------
CODE
  Relative segment, address: CODE_AREA 00006F98 - 00006FFF (0x68 bytes), align: 2
  Segment part 7.
           ENTRY                   ADDRESS         REF BY
           =====                   =======         ======
           ws2uni                  00006F98        edGHook (main)
               stack 1 = 00000000 ( 00000008 )
    -------------------------------------------------------------------------
CODE
  Segment part 8. NOT NEEDED.
    -------------------------------------------------------------------------
CODE
  Relative segment, address: CODE_AREA 00007000 - 0000706F (0x70 bytes), align: 2
  Segment part 9.
           ENTRY                   ADDRESS         REF BY
           =====                   =======         ======
           hex2ws                  00007000        createEditGui (main)
               stack 1 = 00000000 ( 00000018 )
    -------------------------------------------------------------------------
CODE
  Segment part 10. NOT NEEDED.
    -------------------------------------------------------------------------
CODE
  Relative segment, address: CODE_AREA 00007070 - 00007117 (0xa8 bytes), align: 2
  Segment part 11.
           ENTRY                   ADDRESS         REF BY
           =====                   =======         ======
           uniFormatString2ws      00007070        createEditGui (main)
                                                   edGHook (main)
                                                   menu_iconhndl (main)
                                                   showPatchInfo (optionMenu)
                                                   updateEdHdr (main)
               stack 1 = 00000000 ( 00000020 )
    -------------------------------------------------------------------------
CODE
  Segment part 12. NOT NEEDED.
    -------------------------------------------------------------------------
CODE
  Relative segment, address: CODE_AREA 00007118 - 00007177 (0x60 bytes), align: 2
  Segment part 13.            Intra module refs:   uniFormatString2ws
           ENTRY                   ADDRESS         REF BY
           =====                   =======         ======
           isUniFormat             00007118        createEditGui (main)
                                                   edGHook (main)
                                                   menu_iconhndl (main)
                                                   showPatchInfo (optionMenu)
                                                   updateEdHdr (main)
    -------------------------------------------------------------------------
CODE
  Segment part 14. NOT NEEDED.
    -------------------------------------------------------------------------
CODE
  Relative segment, address: CODE_AREA 00007178 - 00007257 (0xe0 bytes), align: 2
  Segment part 15.
           ENTRY                   ADDRESS         REF BY
           =====                   =======         ======
           ws2hex                  00007178        edGHook (main)
               stack 1 = 00000000 ( 00000220 )
    -------------------------------------------------------------------------
CODE
  Segment part 16. NOT NEEDED.
    -------------------------------------------------------------------------
CODE
  Relative segment, address: CODE_AREA 00007258 - 000072E3 (0x8c bytes), align: 2
  Segment part 17.
           ENTRY                   ADDRESS         REF BY
           =====                   =======         ======
           bytes_2ws               00007258        createEditGui (main)
               stack 1 = 00000000 ( 00000018 )
    -------------------------------------------------------------------------
CODE
  Segment part 18. NOT NEEDED.
    -------------------------------------------------------------------------
CODE
  Relative segment, address: CODE_AREA 000072E4 - 0000736F (0x8c bytes), align: 2
  Segment part 19.
           ENTRY                   ADDRESS         REF BY
           =====                   =======         ======
           ints_2ws                000072E4        createEditGui (main)
               stack 1 = 00000000 ( 00000018 )
    -------------------------------------------------------------------------
CODE
  Relative segment, address: CODE_AREA 00007370 - 00007373 (0x4 bytes), align: 2
  Segment part 20.            Intra module refs:   bytes_2ws
                                                   ints_2ws
    -------------------------------------------------------------------------
CODE
  Relative segment, address: CODE_AREA 00007374 - 00007377 (0x4 bytes), align: 2
  Segment part 21.            Intra module refs:   bytes_2ws
                                                   ints_2ws
    -------------------------------------------------------------------------
CODE
  Segment part 22. NOT NEEDED.
    -------------------------------------------------------------------------
CODE
  Relative segment, address: CODE_AREA 00007378 - 000073CF (0x58 bytes), align: 2
  Segment part 23.            Intra module refs:   strstrInQuote
           ENTRY                   ADDRESS         REF BY
           =====                   =======         ======
           strncmpNoCase           00007378        addPreDataToCBoxItem (getConfig)
                                                   findTemplate (getConfig)
                                                   isPatchExistedByID (getConfig)
                                                   sortPatchConfigList (getConfig)
               stack 1 = 00000000 ( 00000004 )
    -------------------------------------------------------------------------
CODE
  Segment part 24. NOT NEEDED.
    -------------------------------------------------------------------------
CODE
  Relative segment, address: CODE_AREA 000073D0 - 00007413 (0x44 bytes), align: 2
  Segment part 25.            Intra module refs:   str2num
                                                   str2num_char
                                                   str2num_short
                                                   uniFormatString2ws
                                                   ws2hex
           ENTRY                   ADDRESS         REF BY
           =====                   =======         ======
           chr2num                 000073D0        doItemJob (getConfig)
    -------------------------------------------------------------------------
CODE
  Segment part 26. NOT NEEDED.
    -------------------------------------------------------------------------
CODE
  Relative segment, address: CODE_AREA 00007414 - 00007433 (0x20 bytes), align: 2
  Segment part 27.            Intra module refs:   gotoMyStrEnd
                                                   gotoMyStrStart
                                                   str2bytes
                                                   str2ints
           ENTRY                   ADDRESS         REF BY
           =====                   =======         ======
           gotoRealPos             00007414        addInfoToPatchInfo (getConfig)
                                                   addPreDataToCBoxItem (getConfig)
                                                   addPrepareData (getConfig)
                                                   addToPatchInfo (getConfig)
                                                   cboxItemColon (getConfig)
                                                   doItemJob (getConfig)
                                                   doSubMenuJob (getConfig)
                                                   doTemplateWork (getConfig)
                                                   isCurrectItem (getConfig)
                                                   readConfig (getConfig)
    -------------------------------------------------------------------------
CODE
  Segment part 28. NOT NEEDED.
    -------------------------------------------------------------------------
CODE
  Relative segment, address: CODE_AREA 00007434 - 0000748F (0x5c bytes), align: 2
  Segment part 29.
           ENTRY                   ADDRESS         REF BY
           =====                   =======         ======
           strstrInQuote           00007434        addToPatchInfo (getConfig)
                                                   doItemJob (getConfig)
                                                   doSubMenuJob (getConfig)
                                                   doTemplateWork (getConfig)
                                                   readConfig (getConfig)
               stack 1 = 00000000 ( 00000010 )
    -------------------------------------------------------------------------
CODE
  Segment part 30. NOT NEEDED.
    -------------------------------------------------------------------------
CODE
  Relative segment, address: CODE_AREA 00007490 - 000074BB (0x2c bytes), align: 2
  Segment part 31.            Intra module refs:   str2bytes
                                                   str2ints
           ENTRY                   ADDRESS         REF BY
           =====                   =======         ======
           strchrInQuote           00007490        isCurrectItem (getConfig)
    -------------------------------------------------------------------------
CODE
  Segment part 32. NOT NEEDED.
    -------------------------------------------------------------------------
CODE
  Relative segment, address: CODE_AREA 000074BC - 000074E3 (0x28 bytes), align: 2
  Segment part 33.
           ENTRY                   ADDRESS         REF BY
           =====                   =======         ======
           gotoQuoteStart          000074BC        doSubMenuJob (getConfig)
                                                   doTemplateWork (getConfig)
                                                   readConfig (getConfig)
    -------------------------------------------------------------------------
CODE
  Segment part 34. NOT NEEDED.
    -------------------------------------------------------------------------
CODE
  Relative segment, address: CODE_AREA 000074E4 - 0000750B (0x28 bytes), align: 2
  Segment part 35.
           ENTRY                   ADDRESS         REF BY
           =====                   =======         ======
           gotoQuoteEnd            000074E4        addPrepareData (getConfig)
                                                   cboxItemColon (getConfig)
                                                   doSubMenuJob (getConfig)
                                                   doTemplateWork (getConfig)
                                                   readConfig (getConfig)
    -------------------------------------------------------------------------
CODE
  Segment part 36. NOT NEEDED.
    -------------------------------------------------------------------------
CODE
  Relative segment, address: CODE_AREA 0000750C - 00007537 (0x2c bytes), align: 2
  Segment part 37.            Intra module refs:   gotoMyStrEnd
           ENTRY                   ADDRESS         REF BY
           =====                   =======         ======
           gotoNextNameQuote       0000750C 
    -------------------------------------------------------------------------
CODE
  Segment part 38. NOT NEEDED.
    -------------------------------------------------------------------------
CODE
  Relative segment, address: CODE_AREA 00007538 - 0000756F (0x38 bytes), align: 2
  Segment part 39.            Intra module refs:   gotoMyStrEnd
           ENTRY                   ADDRESS         REF BY
           =====                   =======         ======
           gotoStringEndByChr      00007538        addPrepareData (getConfig)
                                                   cboxItemColon (getConfig)
    -------------------------------------------------------------------------
CODE
  Segment part 40. NOT NEEDED.
    -------------------------------------------------------------------------
CODE
  Relative segment, address: CODE_AREA 00007570 - 00007597 (0x28 bytes), align: 2
  Segment part 41.
           ENTRY                   ADDRESS         REF BY
           =====                   =======         ======
           gotoMyStrStart          00007570        addInfoToPatchInfo (getConfig)
                                                   addPreDataToCBoxItem (getConfig)
                                                   addPrepareData (getConfig)
                                                   addToPatchInfo (getConfig)
                                                   cboxItemColon (getConfig)
                                                   doItemJob (getConfig)
                                                   doSubMenuJob (getConfig)
                                                   doTemplateWork (getConfig)
               stack 1 = 00000000 ( 00000004 )
    -------------------------------------------------------------------------
CODE
  Segment part 42. NOT NEEDED.
    -------------------------------------------------------------------------
CODE
  Relative segment, address: CODE_AREA 00007598 - 000075C3 (0x2c bytes), align: 2
  Segment part 43.
           ENTRY                   ADDRESS         REF BY
           =====                   =======         ======
           gotoMyStrEnd            00007598        addInfoToPatchInfo (getConfig)
                                                   addPreDataToCBoxItem (getConfig)
                                                   addPrepareData (getConfig)
                                                   addToPatchInfo (getConfig)
                                                   cboxItemColon (getConfig)
                                                   doItemJob (getConfig)
                                                   doSubMenuJob (getConfig)
                                                   doTemplateWork (getConfig)
               stack 1 = 00000000 ( 00000004 )
    -------------------------------------------------------------------------
CODE
  Segment part 44. NOT NEEDED.
    -------------------------------------------------------------------------
CODE
  Relative segment, address: CODE_AREA 000075C4 - 000075DF (0x1c bytes), align: 2
  Segment part 45.
           ENTRY                   ADDRESS         REF BY
           =====                   =======         ======
           strnCopyWithEnd         000075C4        addInfoToPatchInfo (getConfig)
                                                   addPrepareData (getConfig)
                                                   addToPatchInfo (getConfig)
                                                   cboxItemColon (getConfig)
                                                   doItemJob (getConfig)
                                                   doSubMenuJob (getConfig)
                                                   doTemplateWork (getConfig)
                                                   readConfig (getConfig)
               stack 1 = 00000000 ( 0000000C )
    -------------------------------------------------------------------------
CODE
  Segment part 46. NOT NEEDED.
    -------------------------------------------------------------------------
CODE
  Relative segment, address: CODE_AREA 000075E0 - 00007747 (0x168 bytes), align: 2
  Segment part 47.            Intra module refs:   str2ints
           ENTRY                   ADDRESS         REF BY
           =====                   =======         ======
           str2num                 000075E0        addToPatchInfo (getConfig)
                                                   doItemJob (getConfig)
                                                   edGHook (main)
                                                   readConfig (getConfig)
               stack 1 = 00000000 ( 00000020 )
    -------------------------------------------------------------------------
CODE
  Segment part 48. NOT NEEDED.
    -------------------------------------------------------------------------
CODE
  Relative segment, address: CODE_AREA 00007748 - 0000785F (0x118 bytes), align: 2
  Segment part 49.
           ENTRY                   ADDRESS         REF BY
           =====                   =======         ======
           str2num_short           00007748        doItemJob (getConfig)
               stack 1 = 00000000 ( 00000020 )
    -------------------------------------------------------------------------
CODE
  Segment part 50. NOT NEEDED.
    -------------------------------------------------------------------------
CODE
  Relative segment, address: CODE_AREA 00007860 - 000079D3 (0x174 bytes), align: 2
  Segment part 51.            Intra module refs:   str2bytes
           ENTRY                   ADDRESS         REF BY
           =====                   =======         ======
           str2num_char            00007860        addPrepareData (getConfig)
                                                   cboxItemColon (getConfig)
                                                   doItemJob (getConfig)
                                                   edGHook (main)
               stack 1 = 00000000 ( 00000024 )
    -------------------------------------------------------------------------
CODE
  Segment part 52. NOT NEEDED.
    -------------------------------------------------------------------------
CODE
  Relative segment, address: CODE_AREA 000079D4 - 00007A1F (0x4c bytes), align: 2
  Segment part 53.
           ENTRY                   ADDRESS         REF BY
           =====                   =======         ======
           cleanStrByChr           000079D4        addItemToConfig (getConfig)
                                                   addPrepareData (getConfig)
    -------------------------------------------------------------------------
CODE
  Segment part 54. NOT NEEDED.
    -------------------------------------------------------------------------
CODE
  Relative segment, address: CODE_AREA 00007A20 - 00007A8B (0x6c bytes), align: 2
  Segment part 55.
           ENTRY                   ADDRESS         REF BY
           =====                   =======         ======
           str2bytes               00007A20        doItemJob (getConfig)
                                                   edGHook (main)
               stack 1 = 00000000 ( 00000018 )
    -------------------------------------------------------------------------
CODE
  Segment part 56. NOT NEEDED.
    -------------------------------------------------------------------------
CODE
  Relative segment, address: CODE_AREA 00007A8C - 00007AF7 (0x6c bytes), align: 2
  Segment part 57.
           ENTRY                   ADDRESS         REF BY
           =====                   =======         ======
           str2ints                00007A8C        doItemJob (getConfig)
                                                   edGHook (main)
               stack 1 = 00000000 ( 00000018 )
    -------------------------------------------------------------------------
CSTACK
  Segment part 1. NOT NEEDED.

    *************************************************************************

  FILE NAME : D:\SVN\SieELF\SieELF\Master\Release_SGOLD\Obj\usedstr.r79
  PROGRAM MODULE, NAME : usedstr

  SEGMENTS IN THE MODULE
  ======================
DATA_C
  Relative segment, address: CODE_AREA 00009A78 - 00009A7A (0x3 bytes), align: 0
  Segment part 2.
           ENTRY                   ADDRESS         REF BY
           =====                   =======         ======
           PERCENT_T               00009A78        Segment part 101 (main)
                                                   Segment part 111 (main)
                                                   Segment part 124 (optionMenu)
                                                   uniFormatString2ws (string)
    -------------------------------------------------------------------------
DATA_C
  Relative segment, address: CODE_AREA 00009A7B - 00009A7D (0x3 bytes), align: 0
  Segment part 3.
           ENTRY                   ADDRESS         REF BY
           =====                   =======         ======
           PERCENT_D               00009A7B        Segment part 112 (main)
                                                   Segment part 20 (string)
    -------------------------------------------------------------------------
DATA_C
  Relative segment, address: CODE_AREA 0000989C - 000098A3 (0x8 bytes), align: 2
  Segment part 4.
           ENTRY                   ADDRESS         REF BY
           =====                   =======         ======
           PERCENT_D_D             0000989C        Segment part 105 (main)
                                                   Segment part 115 (main)
    -------------------------------------------------------------------------
DATA_C
  Relative segment, address: CODE_AREA 000098A4 - 000098AB (0x8 bytes), align: 2
  Segment part 5.
           ENTRY                   ADDRESS         REF BY
           =====                   =======         ======
           PERCENT_08X             000098A4        createEditGui (main)
    -------------------------------------------------------------------------
DATA_C
  Relative segment, address: CODE_AREA 000098AC - 000098B3 (0x8 bytes), align: 2
  Segment part 6.
           ENTRY                   ADDRESS         REF BY
           =====                   =======         ======
           PERCENT_02X             000098AC        hex2ws (string)
    -------------------------------------------------------------------------
DATA_C
  Relative segment, address: CODE_AREA 000098B4 - 000098C7 (0x14 bytes), align: 2
  Segment part 7.
           ENTRY                   ADDRESS         REF BY
           =====                   =======         ======
           PERCENT_02X_02X_        000098B4        Segment part 113 (main)
                                                   method0_2 (visual)
    -------------------------------------------------------------------------
DATA_C
  Relative segment, address: CODE_AREA 000098C8 - 000098CB (0x4 bytes), align: 2
  Segment part 8.
           ENTRY                   ADDRESS         REF BY
           =====                   =======         ======
           D_PERCENT_D             000098C8        Segment part 21 (string)
    -------------------------------------------------------------------------
DATA_C
  Relative segment, address: CODE_AREA 000098CC - 000098D3 (0x8 bytes), align: 2
  Segment part 9.
           ENTRY                   ADDRESS         REF BY
           =====                   =======         ======
           STR_CHKBOX1             000098CC        doItemJob (getConfig)
    -------------------------------------------------------------------------
DATA_C
  Relative segment, address: CODE_AREA 000098D4 - 000098DF (0xc bytes), align: 2
  Segment part 10.
           ENTRY                   ADDRESS         REF BY
           =====                   =======         ======
           STR_CHKBOX2             000098D4        doItemJob (getConfig)
    -------------------------------------------------------------------------
DATA_C
  Relative segment, address: CODE_AREA 000098E0 - 000098E3 (0x4 bytes), align: 2
  Segment part 11.
           ENTRY                   ADDRESS         REF BY
           =====                   =======         ======
           STR_VL                  000098E0        doItemJob (getConfig)
    -------------------------------------------------------------------------
DATA_C
  Relative segment, address: CODE_AREA 000098E4 - 000098EB (0x8 bytes), align: 2
  Segment part 12.
           ENTRY                   ADDRESS         REF BY
           =====                   =======         ======
           STR_VL1                 000098E4        doItemJob (getConfig)
    -------------------------------------------------------------------------
DATA_C
  Relative segment, address: CODE_AREA 000098EC - 000098F3 (0x8 bytes), align: 2
  Segment part 13.
           ENTRY                   ADDRESS         REF BY
           =====                   =======         ======
           STR_XY1                 000098EC        doItemJob (getConfig)
    -------------------------------------------------------------------------
DATA_C
  Relative segment, address: CODE_AREA 000098F4 - 000098FB (0x8 bytes), align: 2
  Segment part 14.
           ENTRY                   ADDRESS         REF BY
           =====                   =======         ======
           STR_XY2                 000098F4        doItemJob (getConfig)
    -------------------------------------------------------------------------
DATA_C
  Relative segment, address: CODE_AREA 000098FC - 000098FF (0x4 bytes), align: 2
  Segment part 15.
           ENTRY                   ADDRESS         REF BY
           =====                   =======         ======
           STR_X                   000098FC        doItemJob (getConfig)
    -------------------------------------------------------------------------
DATA_C
  Relative segment, address: CODE_AREA 00009900 - 00009903 (0x4 bytes), align: 2
  Segment part 16.
           ENTRY                   ADDRESS         REF BY
           =====                   =======         ======
           STR_Y                   00009900        doItemJob (getConfig)
    -------------------------------------------------------------------------
DATA_C
  Relative segment, address: CODE_AREA 00009904 - 00009907 (0x4 bytes), align: 2
  Segment part 17.
           ENTRY                   ADDRESS         REF BY
           =====                   =======         ======
           STR_WIDTH               00009904        doItemJob (getConfig)
    -------------------------------------------------------------------------
DATA_C
  Relative segment, address: CODE_AREA 00009908 - 0000990B (0x4 bytes), align: 2
  Segment part 18.
           ENTRY                   ADDRESS         REF BY
           =====                   =======         ======
           STR_HIGHT               00009908        doItemJob (getConfig)
    -------------------------------------------------------------------------
DATA_C
  Relative segment, address: CODE_AREA 00009A7E - 00009A80 (0x3 bytes), align: 0
  Segment part 19.
           ENTRY                   ADDRESS         REF BY
           =====                   =======         ======
           STR_CHOICE              00009A7E        Segment part 86 (getConfig)
                                                   doItemJob (getConfig)
    -------------------------------------------------------------------------
DATA_C
  Relative segment, address: CODE_AREA 00009A81 - 00009A83 (0x3 bytes), align: 0
  Segment part 20.
           ENTRY                   ADDRESS         REF BY
           =====                   =======         ======
           STR_CHOICE1             00009A81        readConfig (getConfig)
    -------------------------------------------------------------------------
DATA_C
  Relative segment, address: CODE_AREA 0000990C - 00009913 (0x8 bytes), align: 2
  Segment part 21.
           ENTRY                   ADDRESS         REF BY
           =====                   =======         ======
           STR_CHOICE2             0000990C        readConfig (getConfig)
    -------------------------------------------------------------------------
DATA_C
  Relative segment, address: CODE_AREA 00009914 - 0000991F (0xc bytes), align: 2
  Segment part 22.
           ENTRY                   ADDRESS         REF BY
           =====                   =======         ======
           STR_SLIDER1             00009914        doItemJob (getConfig)
    -------------------------------------------------------------------------
DATA_C
  Relative segment, address: CODE_AREA 00009920 - 00009927 (0x8 bytes), align: 2
  Segment part 23.
           ENTRY                   ADDRESS         REF BY
           =====                   =======         ======
           STR_SLIDER2             00009920        doItemJob (getConfig)
    -------------------------------------------------------------------------
DATA_C
  Relative segment, address: CODE_AREA 00009928 - 0000992F (0x8 bytes), align: 2
  Segment part 24.
           ENTRY                   ADDRESS         REF BY
           =====                   =======         ======
           STR_ENDSUBMENU1         00009928        doSubMenuJob (getConfig)
    -------------------------------------------------------------------------
DATA_C
  Relative segment, address: CODE_AREA 00009930 - 0000993B (0xc bytes), align: 2
  Segment part 25.
           ENTRY                   ADDRESS         REF BY
           =====                   =======         ======
           STR_ENDSUBMENU2         00009930        doSubMenuJob (getConfig)
    -------------------------------------------------------------------------
DATA_C
  Relative segment, address: CODE_AREA 0000993C - 00009943 (0x8 bytes), align: 2
  Segment part 26.
           ENTRY                   ADDRESS         REF BY
           =====                   =======         ======
           STR_SUBMENU1            0000993C        Segment part 88 (getConfig)
    -------------------------------------------------------------------------
DATA_C
  Relative segment, address: CODE_AREA 00009A84 - 00009A86 (0x3 bytes), align: 0
  Segment part 27.
           ENTRY                   ADDRESS         REF BY
           =====                   =======         ======
           STR_SUBMENU2            00009A84        Segment part 87 (getConfig)
    -------------------------------------------------------------------------
DATA_C
  Relative segment, address: CODE_AREA 00009A87 - 00009A89 (0x3 bytes), align: 0
  Segment part 28.
           ENTRY                   ADDRESS         REF BY
           =====                   =======         ======
           STR_TEMPLATE1           00009A87        readConfig (getConfig)
    -------------------------------------------------------------------------
DATA_C
  Relative segment, address: CODE_AREA 00009944 - 0000994F (0xc bytes), align: 2
  Segment part 29.
           ENTRY                   ADDRESS         REF BY
           =====                   =======         ======
           STR_TEMPLATE2           00009944        readConfig (getConfig)
    -------------------------------------------------------------------------
DATA_C
  Relative segment, address: CODE_AREA 00009950 - 00009957 (0x8 bytes), align: 2
  Segment part 30.
           ENTRY                   ADDRESS         REF BY
           =====                   =======         ======
           STR_ENDTEMPLATE1        00009950        doTemplateWork (getConfig)
    -------------------------------------------------------------------------
DATA_C
  Relative segment, address: CODE_AREA 00009958 - 00009963 (0xc bytes), align: 2
  Segment part 31.
           ENTRY                   ADDRESS         REF BY
           =====                   =======         ======
           STR_ENDTEMPLATE2        00009958        doTemplateWork (getConfig)
    -------------------------------------------------------------------------
DATA_C
  Relative segment, address: CODE_AREA 00009964 - 00009973 (0x10 bytes), align: 2
  Segment part 32.
           ENTRY                   ADDRESS         REF BY
           =====                   =======         ======
           STR_USETEMPLATE1        00009964        doItemJob (getConfig)
    -------------------------------------------------------------------------
DATA_C
  Relative segment, address: CODE_AREA 00009974 - 0000997B (0x8 bytes), align: 2
  Segment part 33.
           ENTRY                   ADDRESS         REF BY
           =====                   =======         ======
           STR_USRTEMPLATE2        00009974        doItemJob (getConfig)
    -------------------------------------------------------------------------
DATA_C
  Relative segment, address: CODE_AREA 0000997C - 00009987 (0xc bytes), align: 2
  Segment part 34.
           ENTRY                   ADDRESS         REF BY
           =====                   =======         ======
           STR_MS1                 0000997C        doItemJob (getConfig)
    -------------------------------------------------------------------------
DATA_C
  Relative segment, address: CODE_AREA 00009988 - 0000998F (0x8 bytes), align: 2
  Segment part 35.
           ENTRY                   ADDRESS         REF BY
           =====                   =======         ======
           STR_MS2                 00009988        doItemJob (getConfig)
    -------------------------------------------------------------------------
DATA_C
  Relative segment, address: CODE_AREA 00009990 - 00009997 (0x8 bytes), align: 2
  Segment part 36.
           ENTRY                   ADDRESS         REF BY
           =====                   =======         ======
           STR_DISPF1              00009990        addToPatchInfo (getConfig)
    -------------------------------------------------------------------------
DATA_C
  Relative segment, address: CODE_AREA 00009998 - 000099A3 (0xc bytes), align: 2
  Segment part 37.
           ENTRY                   ADDRESS         REF BY
           =====                   =======         ======
           STR_DISPF2              00009998        addToPatchInfo (getConfig)
    -------------------------------------------------------------------------
DATA_C
  Relative segment, address: CODE_AREA 000099A4 - 000099A7 (0x4 bytes), align: 2
  Segment part 38.
           ENTRY                   ADDRESS         REF BY
           =====                   =======         ======
           STR_RANGE1              000099A4        doItemJob (getConfig)
    -------------------------------------------------------------------------
DATA_C
  Relative segment, address: CODE_AREA 000099A8 - 000099AF (0x8 bytes), align: 2
  Segment part 39.
           ENTRY                   ADDRESS         REF BY
           =====                   =======         ======
           STR_RANGE2              000099A8        doItemJob (getConfig)
    -------------------------------------------------------------------------
DATA_C
  Relative segment, address: CODE_AREA 000099B0 - 000099B3 (0x4 bytes), align: 2
  Segment part 40.
           ENTRY                   ADDRESS         REF BY
           =====                   =======         ======
           STR_BYTES1              000099B0        doItemJob (getConfig)
    -------------------------------------------------------------------------
DATA_C
  Relative segment, address: CODE_AREA 000099B4 - 000099BB (0x8 bytes), align: 2
  Segment part 41.
           ENTRY                   ADDRESS         REF BY
           =====                   =======         ======
           STR_BYTES2              000099B4        doItemJob (getConfig)
    -------------------------------------------------------------------------
DATA_C
  Relative segment, address: CODE_AREA 000099BC - 000099BF (0x4 bytes), align: 2
  Segment part 42.
           ENTRY                   ADDRESS         REF BY
           =====                   =======         ======
           STR_INTS1               000099BC        doItemJob (getConfig)
    -------------------------------------------------------------------------
DATA_C
  Relative segment, address: CODE_AREA 000099C0 - 000099C7 (0x8 bytes), align: 2
  Segment part 43.
           ENTRY                   ADDRESS         REF BY
           =====                   =======         ======
           STR_INTS2               000099C0        doItemJob (getConfig)
    -------------------------------------------------------------------------
DATA_C
  Relative segment, address: CODE_AREA 000099C8 - 000099CF (0x8 bytes), align: 2
  Segment part 44.
           ENTRY                   ADDRESS         REF BY
           =====                   =======         ======
           STR_CONST               000099C8        doItemJob (getConfig)
    -------------------------------------------------------------------------
CSTACK
  Segment part 1. NOT NEEDED.

    *************************************************************************

  FILE NAME : D:\SVN\SieELF\SieELF\Master\Release_SGOLD\Obj\visual.r79
  PROGRAM MODULE, NAME : visual

  SEGMENTS IN THE MODULE
  ======================
DATA_I
  Relative segment, address: DATA_AREA 000000E8 - 000000F7 (0x10 bytes), align: 2
  Segment part 10.            Intra module refs:   Segment part 90
           ENTRY                   ADDRESS         REF BY
           =====                   =======         ======
           colors                  000000E8 
    -------------------------------------------------------------------------
DATA_I
  Relative segment, address: DATA_AREA 000000F8 - 000000FB (0x4 bytes), align: 2
  Segment part 12.            Intra module refs:   Segment part 87
           ENTRY                   ADDRESS         REF BY
           =====                   =======         ======
           black                   000000F8 
    -------------------------------------------------------------------------
DATA_I
  Relative segment, address: DATA_AREA 000000FC - 000000FF (0x4 bytes), align: 2
  Segment part 14.            Intra module refs:   Segment part 89
           ENTRY                   ADDRESS         REF BY
           =====                   =======         ======
           white                   000000FC 
    -------------------------------------------------------------------------
DATA_Z
  Relative segment, address: CODE_AREA 00015B64 - 00015B67 (0x4 bytes), align: 2
  Segment part 16.            Intra module refs:   Segment part 88
           ENTRY                   ADDRESS         REF BY
           =====                   =======         ======
           transparent             00015B64 
    -------------------------------------------------------------------------
DATA_C
  Relative segment, address: CODE_AREA 000099D0 - 000099D7 (0x8 bytes), align: 2
  Segment part 2.             Intra module refs:   Segment part 34
    -------------------------------------------------------------------------
DATA_C
  Relative segment, address: CODE_AREA 000099D8 - 000099DF (0x8 bytes), align: 2
  Segment part 3.             Intra module refs:   Segment part 34
    -------------------------------------------------------------------------
DATA_C
  Relative segment, address: CODE_AREA 00009A8A - 00009A8B (0x2 bytes), align: 0
  Segment part 4.             Intra module refs:   Segment part 34
    -------------------------------------------------------------------------
DATA_C
  Segment part 5. NOT NEEDED.
    -------------------------------------------------------------------------
DATA_C
  Relative segment, address: CODE_AREA 000099E0 - 000099E7 (0x8 bytes), align: 2
  Segment part 6.             Intra module refs:   Segment part 65
    -------------------------------------------------------------------------
DATA_C
  Relative segment, address: CODE_AREA 000099E8 - 000099EF (0x8 bytes), align: 2
  Segment part 7.             Intra module refs:   Segment part 135
    -------------------------------------------------------------------------
DATA_C
  Relative segment, address: CODE_AREA 000099F0 - 000099F7 (0x8 bytes), align: 2
  Segment part 8.             Intra module refs:   filelist_menu_iconhndl
    -------------------------------------------------------------------------
DATA_C
  Relative segment, address: CODE_AREA 000099F8 - 000099FF (0x8 bytes), align: 2
  Segment part 9.             Intra module refs:   CreateRootMenu
    -------------------------------------------------------------------------
DATA_C
  Relative segment, address: CODE_AREA 00009A00 - 00009A07 (0x8 bytes), align: 2
  Segment part 17.            Intra module refs:   imgPointer
           ENTRY                   ADDRESS         REF BY
           =====                   =======         ======
           Pointer                 00009A00 
    -------------------------------------------------------------------------
DATA_C
  Relative segment, address: CODE_AREA 00009A08 - 00009A0F (0x8 bytes), align: 2
  Segment part 18.            Intra module refs:   Segment part 66
           ENTRY                   ADDRESS         REF BY
           =====                   =======         ======
           imgPointer              00009A08 
    -------------------------------------------------------------------------
CODE
  Segment part 41. NOT NEEDED.
    -------------------------------------------------------------------------
CODE
  Relative segment, address: CODE_AREA 00007AF8 - 00007B53 (0x5c bytes), align: 2
  Segment part 42.            Intra module refs:   method0_xy
           ENTRY                   ADDRESS         REF BY
           =====                   =======         ======
           DrwImg                  00007AF8 
               stack 1 = 00000000 ( 00000040 )
    -------------------------------------------------------------------------
CODE
  Segment part 43. NOT NEEDED.
    -------------------------------------------------------------------------
CODE
  Segment part 44. NOT NEEDED.
           ENTRY                   ADDRESS         REF BY
           =====                   =======         ======
           method0_rect            
               not allocated function
    -------------------------------------------------------------------------
CODE
  Segment part 45. NOT NEEDED.
    -------------------------------------------------------------------------
CODE
  Segment part 46. NOT NEEDED.
           ENTRY                   ADDRESS         REF BY
           =====                   =======         ======
           method1_rect            
               not allocated function
    -------------------------------------------------------------------------
CODE
  Segment part 47. NOT NEEDED.
    -------------------------------------------------------------------------
CODE
  Segment part 48. NOT NEEDED.
           ENTRY                   ADDRESS         REF BY
           =====                   =======         ======
           method2_rect            
               not allocated function
    -------------------------------------------------------------------------
CODE
  Segment part 49. NOT NEEDED.
    -------------------------------------------------------------------------
CODE
  Segment part 50. NOT NEEDED.
           ENTRY                   ADDRESS         REF BY
           =====                   =======         ======
           method3_rect            
               not allocated function
    -------------------------------------------------------------------------
CODE
  Segment part 51. NOT NEEDED.
    -------------------------------------------------------------------------
CODE
  Segment part 52. NOT NEEDED.
           ENTRY                   ADDRESS         REF BY
           =====                   =======         ======
           method4_rect            
               not allocated function
    -------------------------------------------------------------------------
CODE
  Segment part 53. NOT NEEDED.
    -------------------------------------------------------------------------
CODE
  Segment part 54. NOT NEEDED.
           ENTRY                   ADDRESS         REF BY
           =====                   =======         ======
           method5_rect            
               not allocated function
    -------------------------------------------------------------------------
CODE
  Segment part 55. NOT NEEDED.
    -------------------------------------------------------------------------
CODE
  Segment part 56. NOT NEEDED.
           ENTRY                   ADDRESS         REF BY
           =====                   =======         ======
           method7_rect            
               not allocated function
    -------------------------------------------------------------------------
CODE
  Segment part 57. NOT NEEDED.
    -------------------------------------------------------------------------
CODE
  Segment part 58. NOT NEEDED.
           ENTRY                   ADDRESS         REF BY
           =====                   =======         ======
           method8_rect            
               not allocated function
    -------------------------------------------------------------------------
CODE
  Segment part 59. NOT NEEDED.
    -------------------------------------------------------------------------
CODE
  Segment part 60. NOT NEEDED.
           ENTRY                   ADDRESS         REF BY
           =====                   =======         ======
           method9_rect            
               not allocated function
    -------------------------------------------------------------------------
CODE
  Segment part 61. NOT NEEDED.
    -------------------------------------------------------------------------
DATA_C
  Segment part 19. NOT NEEDED.
           ENTRY                   ADDRESS         REF BY
           =====                   =======         ======
           gui_methods_rect        
    -------------------------------------------------------------------------
DATA_C
  Segment part 20. NOT NEEDED.
           ENTRY                   ADDRESS         REF BY
           =====                   =======         ======
           Canvas_1                
    -------------------------------------------------------------------------
CODE
  Segment part 62. NOT NEEDED.
           ENTRY                   ADDRESS         REF BY
           =====                   =======         ======
           EditCoordinates         
               not allocated function
    -------------------------------------------------------------------------
CODE
  Segment part 63. NOT NEEDED.
    -------------------------------------------------------------------------
CODE
  Relative segment, address: CODE_AREA 00007B54 - 00007CF7 (0x1a4 bytes), align: 2
  Segment part 64.            Intra module refs:   gui_methods_xy
           ENTRY                   ADDRESS         REF BY
           =====                   =======         ======
           method0_xy              00007B54 
               stack 1 = 00000000 ( 00000038 )
    -------------------------------------------------------------------------
CODE
  Relative segment, address: CODE_AREA 00007CF8 - 00007CFB (0x4 bytes), align: 2
  Segment part 65.            Intra module refs:   method0_xy
    -------------------------------------------------------------------------
CODE
  Relative segment, address: CODE_AREA 00007CFC - 00007CFF (0x4 bytes), align: 2
  Segment part 66.            Intra module refs:   method0_xy
    -------------------------------------------------------------------------
CODE
  Segment part 67. NOT NEEDED.
    -------------------------------------------------------------------------
CODE
  Relative segment, address: CODE_AREA 00007D00 - 00007D1F (0x20 bytes), align: 2
  Segment part 68.            Intra module refs:   gui_methods_xy
           ENTRY                   ADDRESS         REF BY
           =====                   =======         ======
           method1_xy              00007D00 
               stack 1 = 00000000 ( 00000008 )
    -------------------------------------------------------------------------
CODE
  Segment part 69. NOT NEEDED.
    -------------------------------------------------------------------------
CODE
  Relative segment, address: CODE_AREA 00007D20 - 00007D3B (0x1c bytes), align: 2
  Segment part 70.            Intra module refs:   gui_methods_xy
           ENTRY                   ADDRESS         REF BY
           =====                   =======         ======
           method2_xy              00007D20 
               stack 1 = 00000000 ( 00000008 )
    -------------------------------------------------------------------------
CODE
  Segment part 71. NOT NEEDED.
    -------------------------------------------------------------------------
CODE
  Relative segment, address: CODE_AREA 00007D3C - 00007D47 (0xc bytes), align: 2
  Segment part 72.            Intra module refs:   gui_methods_xy
           ENTRY                   ADDRESS         REF BY
           =====                   =======         ======
           method3_xy              00007D3C 
    -------------------------------------------------------------------------
CODE
  Segment part 73. NOT NEEDED.
    -------------------------------------------------------------------------
CODE
  Relative segment, address: CODE_AREA 00007D48 - 00007D5B (0x14 bytes), align: 2
  Segment part 74.            Intra module refs:   gui_methods_xy
           ENTRY                   ADDRESS         REF BY
           =====                   =======         ======
           method4_xy              00007D48 
    -------------------------------------------------------------------------
CODE
  Segment part 75. NOT NEEDED.
    -------------------------------------------------------------------------
CODE
  Relative segment, address: CODE_AREA 00007D5C - 00007F5B (0x200 bytes), align: 2
  Segment part 76.            Intra module refs:   gui_methods_xy
           ENTRY                   ADDRESS         REF BY
           =====                   =======         ======
           method5_xy              00007D5C 
               stack 1 = 00000000 ( 00000010 )
    -------------------------------------------------------------------------
CODE
  Segment part 77. NOT NEEDED.
    -------------------------------------------------------------------------
CODE
  Relative segment, address: CODE_AREA 00007F5C - 00007F5F (0x4 bytes), align: 2
  Segment part 78.            Intra module refs:   gui_methods_xy
           ENTRY                   ADDRESS         REF BY
           =====                   =======         ======
           method7_xy              00007F5C 
               stack 1 = 00000000 ( 00000004 )
    -------------------------------------------------------------------------
CODE
  Segment part 79. NOT NEEDED.
    -------------------------------------------------------------------------
CODE
  Relative segment, address: CODE_AREA 00007F60 - 00007F67 (0x8 bytes), align: 2
  Segment part 80.            Intra module refs:   gui_methods_xy
           ENTRY                   ADDRESS         REF BY
           =====                   =======         ======
           method8_xy              00007F60 
    -------------------------------------------------------------------------
CODE
  Segment part 81. NOT NEEDED.
    -------------------------------------------------------------------------
CODE
  Relative segment, address: CODE_AREA 00007F68 - 00007F6F (0x8 bytes), align: 2
  Segment part 82.            Intra module refs:   gui_methods_xy
           ENTRY                   ADDRESS         REF BY
           =====                   =======         ======
           method9_xy              00007F68 
    -------------------------------------------------------------------------
CODE
  Segment part 83. NOT NEEDED.
    -------------------------------------------------------------------------
DATA_C
  Relative segment, address: CODE_AREA 00009A10 - 00009A3B (0x2c bytes), align: 2
  Segment part 21.            Intra module refs:   EditPostionGUI
           ENTRY                   ADDRESS         REF BY
           =====                   =======         ======
           gui_methods_xy          00009A10 
    -------------------------------------------------------------------------
DATA_C
  Relative segment, address: CODE_AREA 00009A3C - 00009A43 (0x8 bytes), align: 2
  Segment part 22.            Intra module refs:   EditPostionGUI
           ENTRY                   ADDRESS         REF BY
           =====                   =======         ======
           Canvas_xy               00009A3C 
    -------------------------------------------------------------------------
CODE
  Relative segment, address: CODE_AREA 00007F70 - 00008017 (0xa8 bytes), align: 2
  Segment part 84.
           ENTRY                   ADDRESS         REF BY
           =====                   =======         ======
           EditPostionGUI          00007F70        edOnKey (main)
               stack 1 = 00000000 ( 00000018 )
    -------------------------------------------------------------------------
CODE
  Segment part 85. NOT NEEDED.
    -------------------------------------------------------------------------
CODE
  Relative segment, address: CODE_AREA 00008018 - 000082BF (0x2a8 bytes), align: 2
  Segment part 86.            Intra module refs:   gui_methods_2
           ENTRY                   ADDRESS         REF BY
           =====                   =======         ======
           method0_2               00008018 
               stack 1 = 00000000 ( 0000005C )
    -------------------------------------------------------------------------
CODE
  Relative segment, address: CODE_AREA 000082C0 - 000082C3 (0x4 bytes), align: 2
  Segment part 87.            Intra module refs:   method0_2
                                                   method0_xy
    -------------------------------------------------------------------------
CODE
  Relative segment, address: CODE_AREA 000082C4 - 000082C7 (0x4 bytes), align: 2
  Segment part 88.            Intra module refs:   method0_2
                                                   method0_xy
    -------------------------------------------------------------------------
CODE
  Relative segment, address: CODE_AREA 000082C8 - 000082CB (0x4 bytes), align: 2
  Segment part 89.            Intra module refs:   method0_2
                                                   method0_xy
    -------------------------------------------------------------------------
CODE
  Relative segment, address: CODE_AREA 000082CC - 000082CF (0x4 bytes), align: 2
  Segment part 90.            Intra module refs:   method0_2
                                                   method0_xy
    -------------------------------------------------------------------------
CODE
  Segment part 91. NOT NEEDED.
    -------------------------------------------------------------------------
CODE
  Relative segment, address: CODE_AREA 000082D0 - 000082EF (0x20 bytes), align: 2
  Segment part 92.            Intra module refs:   gui_methods_2
           ENTRY                   ADDRESS         REF BY
           =====                   =======         ======
           method1_2               000082D0 
               stack 1 = 00000000 ( 00000008 )
    -------------------------------------------------------------------------
CODE
  Segment part 93. NOT NEEDED.
    -------------------------------------------------------------------------
CODE
  Relative segment, address: CODE_AREA 000082F0 - 0000830B (0x1c bytes), align: 2
  Segment part 94.            Intra module refs:   gui_methods_2
           ENTRY                   ADDRESS         REF BY
           =====                   =======         ======
           method2_2               000082F0 
               stack 1 = 00000000 ( 00000008 )
    -------------------------------------------------------------------------
CODE
  Segment part 95. NOT NEEDED.
    -------------------------------------------------------------------------
CODE
  Relative segment, address: CODE_AREA 0000830C - 00008317 (0xc bytes), align: 2
  Segment part 96.            Intra module refs:   gui_methods_2
           ENTRY                   ADDRESS         REF BY
           =====                   =======         ======
           method3_2               0000830C 
    -------------------------------------------------------------------------
CODE
  Segment part 97. NOT NEEDED.
    -------------------------------------------------------------------------
CODE
  Relative segment, address: CODE_AREA 00008318 - 0000832B (0x14 bytes), align: 2
  Segment part 98.            Intra module refs:   gui_methods_2
           ENTRY                   ADDRESS         REF BY
           =====                   =======         ======
           method4_2               00008318 
    -------------------------------------------------------------------------
CODE
  Segment part 99. NOT NEEDED.
    -------------------------------------------------------------------------
CODE
  Relative segment, address: CODE_AREA 0000832C - 0000853B (0x210 bytes), align: 2
  Segment part 100.           Intra module refs:   gui_methods_2
           ENTRY                   ADDRESS         REF BY
           =====                   =======         ======
           method5_2               0000832C 
               stack 1 = 00000000 ( 0000001C )
    -------------------------------------------------------------------------
CODE
  Segment part 101. NOT NEEDED.
    -------------------------------------------------------------------------
CODE
  Relative segment, address: CODE_AREA 0000853C - 0000853F (0x4 bytes), align: 2
  Segment part 102.           Intra module refs:   gui_methods_2
           ENTRY                   ADDRESS         REF BY
           =====                   =======         ======
           method7_2               0000853C 
               stack 1 = 00000000 ( 00000004 )
    -------------------------------------------------------------------------
CODE
  Segment part 103. NOT NEEDED.
    -------------------------------------------------------------------------
CODE
  Relative segment, address: CODE_AREA 00008540 - 00008547 (0x8 bytes), align: 2
  Segment part 104.           Intra module refs:   gui_methods_2
           ENTRY                   ADDRESS         REF BY
           =====                   =======         ======
           method8_2               00008540 
    -------------------------------------------------------------------------
CODE
  Segment part 105. NOT NEEDED.
    -------------------------------------------------------------------------
CODE
  Relative segment, address: CODE_AREA 00008548 - 0000854F (0x8 bytes), align: 2
  Segment part 106.           Intra module refs:   gui_methods_2
           ENTRY                   ADDRESS         REF BY
           =====                   =======         ======
           method9_2               00008548 
    -------------------------------------------------------------------------
CODE
  Segment part 107. NOT NEEDED.
    -------------------------------------------------------------------------
DATA_C
  Relative segment, address: CODE_AREA 00009A44 - 00009A6F (0x2c bytes), align: 2
  Segment part 23.            Intra module refs:   EditColors
           ENTRY                   ADDRESS         REF BY
           =====                   =======         ======
           gui_methods_2           00009A44 
    -------------------------------------------------------------------------
DATA_C
  Relative segment, address: CODE_AREA 00009A70 - 00009A77 (0x8 bytes), align: 2
  Segment part 24.            Intra module refs:   EditColors
           ENTRY                   ADDRESS         REF BY
           =====                   =======         ======
           Canvas_2                00009A70 
    -------------------------------------------------------------------------
CODE
  Relative segment, address: CODE_AREA 00008550 - 000085E7 (0x98 bytes), align: 2
  Segment part 108.
           ENTRY                   ADDRESS         REF BY
           =====                   =======         ======
           EditColors              00008550        edOnKey (main)
               stack 1 = 00000000 ( 0000000C )
    -------------------------------------------------------------------------
CODE
  Segment part 109. NOT NEEDED.
    -------------------------------------------------------------------------
DATA_C
  Segment part 25. NOT NEEDED.
           ENTRY                   ADDRESS         REF BY
           =====                   =======         ======
           col_editor_minus11      
    -------------------------------------------------------------------------
DATA_Z
  Segment part 26. NOT NEEDED.
           ENTRY                   ADDRESS         REF BY
           =====                   =======         ======
           colorForEdit            
    -------------------------------------------------------------------------
DATA_C
  Segment part 27. NOT NEEDED.
           ENTRY                   ADDRESS         REF BY
           =====                   =======         ======
           MAINCSM_2               
    -------------------------------------------------------------------------
CODE
  Segment part 110. NOT NEEDED.
           ENTRY                   ADDRESS         REF BY
           =====                   =======         ======
           col_editor_csm_oncreate
                                   
               not allocated function
    -------------------------------------------------------------------------
CODE
  Segment part 111. NOT NEEDED.
    -------------------------------------------------------------------------
CODE
  Segment part 112. NOT NEEDED.
           ENTRY                   ADDRESS         REF BY
           =====                   =======         ======
           col_editor_csm_onmessage
                                   
               not allocated function
    -------------------------------------------------------------------------
CODE
  Segment part 113. NOT NEEDED.
    -------------------------------------------------------------------------
CODE
  Segment part 114. NOT NEEDED.
           ENTRY                   ADDRESS         REF BY
           =====                   =======         ======
           col_editor_csm_onclose
                                   
               not allocated function
    -------------------------------------------------------------------------
CODE
  Segment part 115. NOT NEEDED.
    -------------------------------------------------------------------------
CODE
  Segment part 116. NOT NEEDED.
           ENTRY                   ADDRESS         REF BY
           =====                   =======         ======
           col_editor_csm          
               not allocated function
    -------------------------------------------------------------------------
CODE
  Segment part 117. NOT NEEDED.
    -------------------------------------------------------------------------
CODE
  Segment part 118. NOT NEEDED.
    -------------------------------------------------------------------------
DATA_Z
  Relative segment, address: CODE_AREA 00015B68 - 00015B6B (0x4 bytes), align: 2
  Segment part 28.            Intra module refs:   Segment part 128
           ENTRY                   ADDRESS         REF BY
           =====                   =======         ======
           fltop                   00015B68 
    -------------------------------------------------------------------------
CODE
  Relative segment, address: CODE_AREA 000085E8 - 00008623 (0x3c bytes), align: 2
  Segment part 119.           Intra module refs:   CreateRootMenu
                                                   FindFiles
                                                   filelist_menu_ghook
           ENTRY                   ADDRESS         REF BY
           =====                   =======         ======
           Free_FLIST              000085E8 
               stack 1 = 00000000 ( 00000008 )
    -------------------------------------------------------------------------
CODE
  Segment part 120. NOT NEEDED.
    -------------------------------------------------------------------------
DATA_C
  Relative segment, address: CODE_AREA 00009A8C - 00009A8E (0x3 bytes), align: 0
  Segment part 29.            Intra module refs:   FindFiles
           ENTRY                   ADDRESS         REF BY
           =====                   =======         ======
           back                    00009A8C 
    -------------------------------------------------------------------------
CODE
  Relative segment, address: CODE_AREA 00008624 - 00008653 (0x30 bytes), align: 2
  Segment part 121.           Intra module refs:   AddToFList
                                                   FindFiles
           ENTRY                   ADDRESS         REF BY
           =====                   =======         ======
           strcmp_nocase           00008624 
    -------------------------------------------------------------------------
CODE
  Segment part 122. NOT NEEDED.
    -------------------------------------------------------------------------
CODE
  Relative segment, address: CODE_AREA 00008654 - 00008703 (0xb0 bytes), align: 2
  Segment part 123.           Intra module refs:   CreateRootMenu
                                                   FindFiles
           ENTRY                   ADDRESS         REF BY
           =====                   =======         ======
           AddToFList              00008654 
               stack 1 = 00000000 ( 00000018 )
    -------------------------------------------------------------------------
CODE
  Segment part 124. NOT NEEDED.
    -------------------------------------------------------------------------
CODE
  Relative segment, address: CODE_AREA 00008704 - 000088C7 (0x1c4 bytes), align: 2
  Segment part 125.           Intra module refs:   filelist_menu_onkey
                                                   open_select_file_gui
           ENTRY                   ADDRESS         REF BY
           =====                   =======         ======
           FindFiles               00008704 
               stack 1 = 00000000 ( 0000035C )
    -------------------------------------------------------------------------
CODE
  Segment part 126. NOT NEEDED.
    -------------------------------------------------------------------------
CODE
  Relative segment, address: CODE_AREA 000088C8 - 0000890B (0x44 bytes), align: 2
  Segment part 127.           Intra module refs:   FindFLISTtByN
           ENTRY                   ADDRESS         REF BY
           =====                   =======         ======
           FindFLISTtByNS          000088C8 
    -------------------------------------------------------------------------
CODE
  Relative segment, address: CODE_AREA 0000890C - 0000890F (0x4 bytes), align: 2
  Segment part 128.           Intra module refs:   AddToFList
                                                   FindFLISTtByNS
                                                   Free_FLIST
    -------------------------------------------------------------------------
CODE
  Segment part 129. NOT NEEDED.
    -------------------------------------------------------------------------
CODE
  Relative segment, address: CODE_AREA 00008910 - 00008963 (0x54 bytes), align: 2
  Segment part 130.           Intra module refs:   filelist_menu_iconhndl
                                                   filelist_menu_onkey
           ENTRY                   ADDRESS         REF BY
           =====                   =======         ======
           FindFLISTtByN           00008910 
               stack 1 = 00000000 ( 00000008 )
    -------------------------------------------------------------------------
CODE
  Segment part 131. NOT NEEDED.
    -------------------------------------------------------------------------
CODE
  Relative segment, address: CODE_AREA 00008964 - 000089AF (0x4c bytes), align: 2
  Segment part 132.           Intra module refs:   filelist_menu_onkey
           ENTRY                   ADDRESS         REF BY
           =====                   =======         ======
           SavePath                00008964 
               stack 1 = 00000000 ( 0000003C )
    -------------------------------------------------------------------------
CODE
  Segment part 133. NOT NEEDED.
    -------------------------------------------------------------------------
DATA_Z
  Relative segment, address: CODE_AREA 00015B6C - 00015BEB (0x80 bytes), align: 2
  Segment part 30.            Intra module refs:   Segment part 144
                                                   Segment part 38
           ENTRY                   ADDRESS         REF BY
           =====                   =======         ======
           header                  00015B6C 
    -------------------------------------------------------------------------
CODE
  Relative segment, address: CODE_AREA 000089B0 - 00008AA7 (0xf8 bytes), align: 2
  Segment part 134.           Intra module refs:   Segment part 40
           ENTRY                   ADDRESS         REF BY
           =====                   =======         ======
           filelist_menu_onkey     000089B0 
               stack 1 = 00000000 ( 00000014 )
    -------------------------------------------------------------------------
CODE
  Relative segment, address: CODE_AREA 00008AA8 - 00008AAB (0x4 bytes), align: 2
  Segment part 135.           Intra module refs:   FindFiles
                                                   filelist_menu_onkey
    -------------------------------------------------------------------------
CODE
  Segment part 136. NOT NEEDED.
    -------------------------------------------------------------------------
CODE
  Relative segment, address: CODE_AREA 00008AAC - 00008AE3 (0x38 bytes), align: 2
  Segment part 137.           Intra module refs:   Segment part 40
           ENTRY                   ADDRESS         REF BY
           =====                   =======         ======
           filelist_menu_ghook     00008AAC 
               stack 1 = 00000000 ( 0000000C )
    -------------------------------------------------------------------------
CODE
  Segment part 138. NOT NEEDED.
    -------------------------------------------------------------------------
CODE
  Relative segment, address: CODE_AREA 00008AE4 - 00008BB3 (0xd0 bytes), align: 2
  Segment part 139.           Intra module refs:   Segment part 40
           ENTRY                   ADDRESS         REF BY
           =====                   =======         ======
           filelist_menu_iconhndl
                                   00008AE4 
               stack 1 = 00000000 ( 0000001C )
    -------------------------------------------------------------------------
CODE
  Segment part 140. NOT NEEDED.
    -------------------------------------------------------------------------
DATA_I
  Relative segment, address: DATA_AREA 00000100 - 0000010B (0xc bytes), align: 2
  Segment part 31.            Intra module refs:   Segment part 40
           ENTRY                   ADDRESS         REF BY
           =====                   =======         ======
           fmenusoftkeys           00000100 
    -------------------------------------------------------------------------
DATA_I
  Relative segment, address: DATA_AREA 0000010C - 00000123 (0x18 bytes), align: 2
  Segment part 33.            Intra module refs:   Segment part 36
           ENTRY                   ADDRESS         REF BY
           =====                   =======         ======
           fmenu_sk                0000010C 
    -------------------------------------------------------------------------
DATA_I
  Relative segment, address: DATA_AREA 00000124 - 0000012B (0x8 bytes), align: 2
  Segment part 35.            Intra module refs:   Segment part 40
           ENTRY                   ADDRESS         REF BY
           =====                   =======         ======
           fmenu_skt               00000124 
    -------------------------------------------------------------------------
DATA_I
  Relative segment, address: DATA_AREA 0000012C - 0000013F (0x14 bytes), align: 2
  Segment part 37.            Intra module refs:   open_select_file_gui
           ENTRY                   ADDRESS         REF BY
           =====                   =======         ======
           filelist_HDR            0000012C 
    -------------------------------------------------------------------------
DATA_I
  Relative segment, address: DATA_AREA 00000140 - 0000016B (0x2c bytes), align: 2
  Segment part 39.            Intra module refs:   open_select_file_gui
           ENTRY                   ADDRESS         REF BY
           =====                   =======         ======
           filelist_STRUCT         00000140 
    -------------------------------------------------------------------------
CODE
  Relative segment, address: CODE_AREA 00008BB4 - 00008C37 (0x84 bytes), align: 2
  Segment part 141.           Intra module refs:   filelist_menu_onkey
                                                   open_select_file_gui
           ENTRY                   ADDRESS         REF BY
           =====                   =======         ======
           CreateRootMenu          00008BB4 
               stack 1 = 00000000 ( 00000030 )
    -------------------------------------------------------------------------
CODE
  Segment part 142. NOT NEEDED.
    -------------------------------------------------------------------------
CODE
  Relative segment, address: CODE_AREA 00008C38 - 00008D53 (0x11c bytes), align: 2
  Segment part 143.
           ENTRY                   ADDRESS         REF BY
           =====                   =======         ======
           open_select_file_gui    00008C38        on_sdec (main)
                                                   on_sfec (main)
               stack 1 = 00000000 ( 000000D8 )
    -------------------------------------------------------------------------
CODE
  Relative segment, address: CODE_AREA 00008D54 - 00008D57 (0x4 bytes), align: 2
  Segment part 144.           Intra module refs:   CreateRootMenu
                                                   filelist_menu_onkey
                                                   open_select_file_gui
    -------------------------------------------------------------------------
CODE
  Segment part 145. NOT NEEDED.Intra module refs   method7_2
                                                   method7_xy
    -------------------------------------------------------------------------
CSTACK
  Segment part 1. NOT NEEDED.
    -------------------------------------------------------------------------
DATA_ID
  Relative segment, address: CODE_AREA 000000E8 - 000000F7 (0x10 bytes), align: 2
  Segment part 11.            Intra module refs:   colors
    -------------------------------------------------------------------------
DATA_ID
  Relative segment, address: CODE_AREA 000000F8 - 000000FB (0x4 bytes), align: 2
  Segment part 13.            Intra module refs:   black
    -------------------------------------------------------------------------
DATA_ID
  Relative segment, address: CODE_AREA 000000FC - 000000FF (0x4 bytes), align: 2
  Segment part 15.            Intra module refs:   white
    -------------------------------------------------------------------------
DATA_ID
  Relative segment, address: CODE_AREA 00000100 - 0000010B (0xc bytes), align: 2
  Segment part 32.            Intra module refs:   fmenusoftkeys
    -------------------------------------------------------------------------
DATA_ID
  Relative segment, address: CODE_AREA 0000010C - 00000123 (0x18 bytes), align: 2
  Segment part 34.            Intra module refs:   fmenu_sk
    -------------------------------------------------------------------------
DATA_ID
  Relative segment, address: CODE_AREA 00000124 - 0000012B (0x8 bytes), align: 2
  Segment part 36.            Intra module refs:   fmenu_skt
    -------------------------------------------------------------------------
DATA_ID
  Relative segment, address: CODE_AREA 0000012C - 0000013F (0x14 bytes), align: 2
  Segment part 38.            Intra module refs:   filelist_HDR
    -------------------------------------------------------------------------
DATA_ID
  Relative segment, address: CODE_AREA 00000140 - 0000016B (0x2c bytes), align: 2
  Segment part 40.            Intra module refs:   filelist_STRUCT
    -------------------------------------------------------------------------
INITTAB
  Segment part 146. TENTATIVE. Used definition from getConfig
           ENTRY                   ADDRESS         REF BY
           =====                   =======         ======
           ?init?tab?DATA_Z        
    -------------------------------------------------------------------------
DATA_ID
  Segment part 147. TENTATIVE. Used definition from main
           ENTRY                   ADDRESS         REF BY
           =====                   =======         ======
           ?*?DATA_ID              
    -------------------------------------------------------------------------
INITTAB
  Segment part 148. TENTATIVE. Used definition from main
           ENTRY                   ADDRESS         REF BY
           =====                   =======         ======
           ?init?tab?DATA_I        




                ****************************************
                *                                      *
                *            MODULE SUMMARY            *
                *                                      *
                ****************************************

Module             CODE   DATA
------             ----   ----
                  (Rel)  (Rel)
func                  8
getConfig        64 224
  + shared           12
main              7 564     80
  + shared           12
optionMenu        6 056    152
ptcFileWork       2 652
string            3 068
usedstr             326
visual            5 145    132
N/A (alignment)
------           ------    ---
Total:           89 067    364


                ****************************************
                *                                      *
                *              CALL GRAPH              *
                *                                      *
                ****************************************

  ->Sub-tree of type: Indirectly called function tree that does not make
                    : indirect calls (Is not an interrupt and is not flagged
                    : as not overlayable)
                             CSTACK
    | Stack used (prev) :  00000000
  01  menu_onkey
      | Stack used (prev) :  00000000
      | + function block  :  00000010
  <-Sub-tree of type: Indirectly called function tree that does not make
                    : indirect calls (Is not an interrupt and is not flagged
                    : as not overlayable)
    | Stack used          :  00000010


  ->Sub-tree of type: Indirectly called function tree that does not make
                    : indirect calls (Is not an interrupt and is not flagged
                    : as not overlayable)
                             CSTACK
    | Stack used (prev) :  00000000
  01  menu_iconhndl
      | Stack used (prev) :  00000000
      | + function block  :  0000001C
  <-Sub-tree of type: Indirectly called function tree that does not make
                    : indirect calls (Is not an interrupt and is not flagged
                    : as not overlayable)
    | Stack used          :  0000001C


  ->Sub-tree of type: Indirectly called function tree that does not make
                    : indirect calls (Is not an interrupt and is not flagged
                    : as not overlayable)
                             CSTACK
    | Stack used (prev) :  00000000
  01  menu_ghook
      | Stack used (prev) :  00000000
      | + function block  :  00000004
  <-Sub-tree of type: Indirectly called function tree that does not make
                    : indirect calls (Is not an interrupt and is not flagged
                    : as not overlayable)
    | Stack used          :  00000004


  ->Sub-tree of type: Indirectly called function tree that does not make
                    : indirect calls (Is not an interrupt and is not flagged
                    : as not overlayable)
                             CSTACK
    | Stack used (prev) :  00000000
  01  maincsm_oncreate
      | Stack used (prev) :  00000000
      | + function block  :  0000000C
  <-Sub-tree of type: Indirectly called function tree that does not make
                    : indirect calls (Is not an interrupt and is not flagged
                    : as not overlayable)
    | Stack used          :  0000000C


  ->Sub-tree of type: Indirectly called function tree that does not make
                    : indirect calls (Is not an interrupt and is not flagged
                    : as not overlayable)
                             CSTACK
    | Stack used (prev) :  00000000
  01  maincsm_onmessage
      | Stack used (prev) :  00000000
      | + function block  :  0000000C
  <-Sub-tree of type: Indirectly called function tree that does not make
                    : indirect calls (Is not an interrupt and is not flagged
                    : as not overlayable)
    | Stack used          :  0000000C


  ->Sub-tree of type: Indirectly called function tree that does not make
                    : indirect calls (Is not an interrupt and is not flagged
                    : as not overlayable)
                             CSTACK
    | Stack used (prev) :  00000000
  01  Killer
      | Stack used (prev) :  00000000
      | + function block  :  00000004
  <-Sub-tree of type: Indirectly called function tree that does not make
                    : indirect calls (Is not an interrupt and is not flagged
                    : as not overlayable)
    | Stack used          :  00000004


  ->Sub-tree of type: Indirectly called function tree that does not make
                    : indirect calls (Is not an interrupt and is not flagged
                    : as not overlayable)
                             CSTACK
    | Stack used (prev) :  00000000
  01  maincsm_onclose
      | Stack used (prev) :  00000000
      | + function block  :  00000004
  <-Sub-tree of type: Indirectly called function tree that does not make
                    : indirect calls (Is not an interrupt and is not flagged
                    : as not overlayable)
    | Stack used          :  00000004


  ->Sub-tree of type: Indirectly called function tree that does not make
                    : indirect calls (Is not an interrupt and is not flagged
                    : as not overlayable)
                             CSTACK
    | Stack used (prev) :  00000000
  01  ed_locret
      | Stack used (prev) :  00000000
      | + function block  :  00000000
  <-Sub-tree of type: Indirectly called function tree that does not make
                    : indirect calls (Is not an interrupt and is not flagged
                    : as not overlayable)
    | Stack used          :  00000000


  ->Sub-tree of type: Indirectly called function tree that does not make
                    : indirect calls (Is not an interrupt and is not flagged
                    : as not overlayable)
                             CSTACK
    | Stack used (prev) :  00000000
  01  on_sfec
      | Stack used (prev) :  00000000
      | + function block  :  00000010
  <-Sub-tree of type: Indirectly called function tree that does not make
                    : indirect calls (Is not an interrupt and is not flagged
                    : as not overlayable)
    | Stack used          :  00000010


  ->Sub-tree of type: Indirectly called function tree that does not make
                    : indirect calls (Is not an interrupt and is not flagged
                    : as not overlayable)
                             CSTACK
    | Stack used (prev) :  00000000
  01  on_sdec
      | Stack used (prev) :  00000000
      | + function block  :  00000008
  <-Sub-tree of type: Indirectly called function tree that does not make
                    : indirect calls (Is not an interrupt and is not flagged
                    : as not overlayable)
    | Stack used          :  00000008


  ->Sub-tree of type: Indirectly called function tree that does not make
                    : indirect calls (Is not an interrupt and is not flagged
                    : as not overlayable)
                             CSTACK
    | Stack used (prev) :  00000000
  01  edOnKey
      | Stack used (prev) :  00000000
      | + function block  :  00000250
  <-Sub-tree of type: Indirectly called function tree that does not make
                    : indirect calls (Is not an interrupt and is not flagged
                    : as not overlayable)
    | Stack used          :  00000250


  ->Sub-tree of type: Indirectly called function tree that does not make
                    : indirect calls (Is not an interrupt and is not flagged
                    : as not overlayable)
                             CSTACK
    | Stack used (prev) :  00000000
  01  edGHook
      | Stack used (prev) :  00000000
      | + function block  :  000002C4
  <-Sub-tree of type: Indirectly called function tree that does not make
                    : indirect calls (Is not an interrupt and is not flagged
                    : as not overlayable)
    | Stack used          :  000002C4


  ->Sub-tree of type: Indirectly called function tree that does not make
                    : indirect calls (Is not an interrupt and is not flagged
                    : as not overlayable)
                             CSTACK
    | Stack used (prev) :  00000000
  01  option_menu_ghook
      | Stack used (prev) :  00000000
      | + function block  :  00000004
  <-Sub-tree of type: Indirectly called function tree that does not make
                    : indirect calls (Is not an interrupt and is not flagged
                    : as not overlayable)
    | Stack used          :  00000004


  ->Sub-tree of type: Indirectly called function tree that does not make
                    : indirect calls (Is not an interrupt and is not flagged
                    : as not overlayable)
                             CSTACK
    | Stack used (prev) :  00000000
  01  menu_exit
      | Stack used (prev) :  00000000
      | + function block  :  00000004
  <-Sub-tree of type: Indirectly called function tree that does not make
                    : indirect calls (Is not an interrupt and is not flagged
                    : as not overlayable)
    | Stack used          :  00000004


  ->Sub-tree of type: Indirectly called function tree that does not make
                    : indirect calls (Is not an interrupt and is not flagged
                    : as not overlayable)
                             CSTACK
    | Stack used (prev) :  00000000
  01  menu_about
      | Stack used (prev) :  00000000
      | + function block  :  00000004
  <-Sub-tree of type: Indirectly called function tree that does not make
                    : indirect calls (Is not an interrupt and is not flagged
                    : as not overlayable)
    | Stack used          :  00000004


  ->Sub-tree of type: Indirectly called function tree that does not make
                    : indirect calls (Is not an interrupt and is not flagged
                    : as not overlayable)
                             CSTACK
    | Stack used (prev) :  00000000
  01  menu_profile
      | Stack used (prev) :  00000000
      | + function block  :  00000004
  <-Sub-tree of type: Indirectly called function tree that does not make
                    : indirect calls (Is not an interrupt and is not flagged
                    : as not overlayable)
    | Stack used          :  00000004


  ->Sub-tree of type: Indirectly called function tree that does not make
                    : indirect calls (Is not an interrupt and is not flagged
                    : as not overlayable)
                             CSTACK
    | Stack used (prev) :  00000000
  01  menu_del_all
      | Stack used (prev) :  00000000
      | + function block  :  00000004
  <-Sub-tree of type: Indirectly called function tree that does not make
                    : indirect calls (Is not an interrupt and is not flagged
                    : as not overlayable)
    | Stack used          :  00000004


  ->Sub-tree of type: Indirectly called function tree that does not make
                    : indirect calls (Is not an interrupt and is not flagged
                    : as not overlayable)
                             CSTACK
    | Stack used (prev) :  00000000
  01  menu_del_this
      | Stack used (prev) :  00000000
      | + function block  :  00000004
  <-Sub-tree of type: Indirectly called function tree that does not make
                    : indirect calls (Is not an interrupt and is not flagged
                    : as not overlayable)
    | Stack used          :  00000004


  ->Sub-tree of type: Indirectly called function tree that does not make
                    : indirect calls (Is not an interrupt and is not flagged
                    : as not overlayable)
                             CSTACK
    | Stack used (prev) :  00000000
  01  menu_del_unused
      | Stack used (prev) :  00000000
      | + function block  :  00000004
  <-Sub-tree of type: Indirectly called function tree that does not make
                    : indirect calls (Is not an interrupt and is not flagged
                    : as not overlayable)
    | Stack used          :  00000004


  ->Sub-tree of type: Indirectly called function tree that does not make
                    : indirect calls (Is not an interrupt and is not flagged
                    : as not overlayable)
                             CSTACK
    | Stack used (prev) :  00000000
  01  menu_info
      | Stack used (prev) :  00000000
      | + function block  :  00000004
  <-Sub-tree of type: Indirectly called function tree that does not make
                    : indirect calls (Is not an interrupt and is not flagged
                    : as not overlayable)
    | Stack used          :  00000004


  ->Sub-tree of type: Indirectly called function tree that does not make
                    : indirect calls (Is not an interrupt and is not flagged
                    : as not overlayable)
                             CSTACK
    | Stack used (prev) :  00000000
  01  menu_backup
      | Stack used (prev) :  00000000
      | + function block  :  00000004
  <-Sub-tree of type: Indirectly called function tree that does not make
                    : indirect calls (Is not an interrupt and is not flagged
                    : as not overlayable)
    | Stack used          :  00000004


  ->Sub-tree of type: Indirectly called function tree that does not make
                    : indirect calls (Is not an interrupt and is not flagged
                    : as not overlayable)
                             CSTACK
    | Stack used (prev) :  00000000
  01  menu_restore
      | Stack used (prev) :  00000000
      | + function block  :  00000004
  <-Sub-tree of type: Indirectly called function tree that does not make
                    : indirect calls (Is not an interrupt and is not flagged
                    : as not overlayable)
    | Stack used          :  00000004


  ->Sub-tree of type: Indirectly called function tree that does not make
                    : indirect calls (Is not an interrupt and is not flagged
                    : as not overlayable)
                             CSTACK
    | Stack used (prev) :  00000000
  01  menu_quit_without_rs
      | Stack used (prev) :  00000000
      | + function block  :  00000004
  <-Sub-tree of type: Indirectly called function tree that does not make
                    : indirect calls (Is not an interrupt and is not flagged
                    : as not overlayable)
    | Stack used          :  00000004


  ->Sub-tree of type: Indirectly called function tree that does not make
                    : indirect calls (Is not an interrupt and is not flagged
                    : as not overlayable)
                             CSTACK
    | Stack used (prev) :  00000000
  01  profile_menu_onkey
      | Stack used (prev) :  00000000
      | + function block  :  00000010
  <-Sub-tree of type: Indirectly called function tree that does not make
                    : indirect calls (Is not an interrupt and is not flagged
                    : as not overlayable)
    | Stack used          :  00000010


  ->Sub-tree of type: Indirectly called function tree that does not make
                    : indirect calls (Is not an interrupt and is not flagged
                    : as not overlayable)
                             CSTACK
    | Stack used (prev) :  00000000
  01  profile_menu_iconhndl
      | Stack used (prev) :  00000000
      | + function block  :  00000018
  <-Sub-tree of type: Indirectly called function tree that does not make
                    : indirect calls (Is not an interrupt and is not flagged
                    : as not overlayable)
    | Stack used          :  00000018


  ->Sub-tree of type: Indirectly called function tree that does not make
                    : indirect calls (Is not an interrupt and is not flagged
                    : as not overlayable)
                             CSTACK
    | Stack used (prev) :  00000000
  01  profile_menu_ghook
      | Stack used (prev) :  00000000
      | + function block  :  00000004
  <-Sub-tree of type: Indirectly called function tree that does not make
                    : indirect calls (Is not an interrupt and is not flagged
                    : as not overlayable)
    | Stack used          :  00000004


  ->Sub-tree of type: Indirectly called function tree that does not make
                    : indirect calls (Is not an interrupt and is not flagged
                    : as not overlayable)
                             CSTACK
    | Stack used (prev) :  00000000
  01  infoOnKey
      | Stack used (prev) :  00000000
      | + function block  :  00000000
  <-Sub-tree of type: Indirectly called function tree that does not make
                    : indirect calls (Is not an interrupt and is not flagged
                    : as not overlayable)
    | Stack used          :  00000000


  ->Sub-tree of type: Indirectly called function tree that does not make
                    : indirect calls (Is not an interrupt and is not flagged
                    : as not overlayable)
                             CSTACK
    | Stack used (prev) :  00000000
  01  infoGHook
      | Stack used (prev) :  00000000
      | + function block  :  00000004
  <-Sub-tree of type: Indirectly called function tree that does not make
                    : indirect calls (Is not an interrupt and is not flagged
                    : as not overlayable)
    | Stack used          :  00000004


  ->Sub-tree of type: Indirectly called function tree that does not make
                    : indirect calls (Is not an interrupt and is not flagged
                    : as not overlayable)
                             CSTACK
    | Stack used (prev) :  00000000
  01  info_locret
      | Stack used (prev) :  00000000
      | + function block  :  00000000
  <-Sub-tree of type: Indirectly called function tree that does not make
                    : indirect calls (Is not an interrupt and is not flagged
                    : as not overlayable)
    | Stack used          :  00000000


  ->Sub-tree of type: Indirectly called function tree that does not make
                    : indirect calls (Is not an interrupt and is not flagged
                    : as not overlayable)
                             CSTACK
    | Stack used (prev) :  00000000
  01  pathInputOnKey
      | Stack used (prev) :  00000000
      | + function block  :  000000B0
  <-Sub-tree of type: Indirectly called function tree that does not make
                    : indirect calls (Is not an interrupt and is not flagged
                    : as not overlayable)
    | Stack used          :  000000B0


  ->Sub-tree of type: Indirectly called function tree that does not make
                    : indirect calls (Is not an interrupt and is not flagged
                    : as not overlayable)
                             CSTACK
    | Stack used (prev) :  00000000
  01  pathInputGHook
      | Stack used (prev) :  00000000
      | + function block  :  00000004
  <-Sub-tree of type: Indirectly called function tree that does not make
                    : indirect calls (Is not an interrupt and is not flagged
                    : as not overlayable)
    | Stack used          :  00000004


  ->Sub-tree of type: Indirectly called function tree that does not make
                    : indirect calls (Is not an interrupt and is not flagged
                    : as not overlayable)
                             CSTACK
    | Stack used (prev) :  00000000
  01  method0_xy
      | Stack used (prev) :  00000000
      | + function block  :  00000038
  <-Sub-tree of type: Indirectly called function tree that does not make
                    : indirect calls (Is not an interrupt and is not flagged
                    : as not overlayable)
    | Stack used          :  00000038


  ->Sub-tree of type: Indirectly called function tree that does not make
                    : indirect calls (Is not an interrupt and is not flagged
                    : as not overlayable)
                             CSTACK
    | Stack used (prev) :  00000000
  01  method1_xy
      | Stack used (prev) :  00000000
      | + function block  :  00000008
  <-Sub-tree of type: Indirectly called function tree that does not make
                    : indirect calls (Is not an interrupt and is not flagged
                    : as not overlayable)
    | Stack used          :  00000008


  ->Sub-tree of type: Indirectly called function tree that does not make
                    : indirect calls (Is not an interrupt and is not flagged
                    : as not overlayable)
                             CSTACK
    | Stack used (prev) :  00000000
  01  method2_xy
      | Stack used (prev) :  00000000
      | + function block  :  00000008
  <-Sub-tree of type: Indirectly called function tree that does not make
                    : indirect calls (Is not an interrupt and is not flagged
                    : as not overlayable)
    | Stack used          :  00000008


  ->Sub-tree of type: Indirectly called function tree that does not make
                    : indirect calls (Is not an interrupt and is not flagged
                    : as not overlayable)
                             CSTACK
    | Stack used (prev) :  00000000
  01  method3_xy
      | Stack used (prev) :  00000000
      | + function block  :  00000000
  <-Sub-tree of type: Indirectly called function tree that does not make
                    : indirect calls (Is not an interrupt and is not flagged
                    : as not overlayable)
    | Stack used          :  00000000


  ->Sub-tree of type: Indirectly called function tree that does not make
                    : indirect calls (Is not an interrupt and is not flagged
                    : as not overlayable)
                             CSTACK
    | Stack used (prev) :  00000000
  01  method4_xy
      | Stack used (prev) :  00000000
      | + function block  :  00000000
  <-Sub-tree of type: Indirectly called function tree that does not make
                    : indirect calls (Is not an interrupt and is not flagged
                    : as not overlayable)
    | Stack used          :  00000000


  ->Sub-tree of type: Indirectly called function tree that does not make
                    : indirect calls (Is not an interrupt and is not flagged
                    : as not overlayable)
                             CSTACK
    | Stack used (prev) :  00000000
  01  method5_xy
      | Stack used (prev) :  00000000
      | + function block  :  00000010
  <-Sub-tree of type: Indirectly called function tree that does not make
                    : indirect calls (Is not an interrupt and is not flagged
                    : as not overlayable)
    | Stack used          :  00000010


  ->Sub-tree of type: Indirectly called function tree that does not make
                    : indirect calls (Is not an interrupt and is not flagged
                    : as not overlayable)
                             CSTACK
    | Stack used (prev) :  00000000
  01  method7_xy
      | Stack used (prev) :  00000000
      | + function block  :  00000004
  <-Sub-tree of type: Indirectly called function tree that does not make
                    : indirect calls (Is not an interrupt and is not flagged
                    : as not overlayable)
    | Stack used          :  00000004


  ->Sub-tree of type: Indirectly called function tree that does not make
                    : indirect calls (Is not an interrupt and is not flagged
                    : as not overlayable)
                             CSTACK
    | Stack used (prev) :  00000000
  01  method8_xy
      | Stack used (prev) :  00000000
      | + function block  :  00000000
  <-Sub-tree of type: Indirectly called function tree that does not make
                    : indirect calls (Is not an interrupt and is not flagged
                    : as not overlayable)
    | Stack used          :  00000000


  ->Sub-tree of type: Indirectly called function tree that does not make
                    : indirect calls (Is not an interrupt and is not flagged
                    : as not overlayable)
                             CSTACK
    | Stack used (prev) :  00000000
  01  method9_xy
      | Stack used (prev) :  00000000
      | + function block  :  00000000
  <-Sub-tree of type: Indirectly called function tree that does not make
                    : indirect calls (Is not an interrupt and is not flagged
                    : as not overlayable)
    | Stack used          :  00000000


  ->Sub-tree of type: Indirectly called function tree that does not make
                    : indirect calls (Is not an interrupt and is not flagged
                    : as not overlayable)
                             CSTACK
    | Stack used (prev) :  00000000
  01  method0_2
      | Stack used (prev) :  00000000
      | + function block  :  0000005C
  <-Sub-tree of type: Indirectly called function tree that does not make
                    : indirect calls (Is not an interrupt and is not flagged
                    : as not overlayable)
    | Stack used          :  0000005C


  ->Sub-tree of type: Indirectly called function tree that does not make
                    : indirect calls (Is not an interrupt and is not flagged
                    : as not overlayable)
                             CSTACK
    | Stack used (prev) :  00000000
  01  method1_2
      | Stack used (prev) :  00000000
      | + function block  :  00000008
  <-Sub-tree of type: Indirectly called function tree that does not make
                    : indirect calls (Is not an interrupt and is not flagged
                    : as not overlayable)
    | Stack used          :  00000008


  ->Sub-tree of type: Indirectly called function tree that does not make
                    : indirect calls (Is not an interrupt and is not flagged
                    : as not overlayable)
                             CSTACK
    | Stack used (prev) :  00000000
  01  method2_2
      | Stack used (prev) :  00000000
      | + function block  :  00000008
  <-Sub-tree of type: Indirectly called function tree that does not make
                    : indirect calls (Is not an interrupt and is not flagged
                    : as not overlayable)
    | Stack used          :  00000008


  ->Sub-tree of type: Indirectly called function tree that does not make
                    : indirect calls (Is not an interrupt and is not flagged
                    : as not overlayable)
                             CSTACK
    | Stack used (prev) :  00000000
  01  method3_2
      | Stack used (prev) :  00000000
      | + function block  :  00000000
  <-Sub-tree of type: Indirectly called function tree that does not make
                    : indirect calls (Is not an interrupt and is not flagged
                    : as not overlayable)
    | Stack used          :  00000000


  ->Sub-tree of type: Indirectly called function tree that does not make
                    : indirect calls (Is not an interrupt and is not flagged
                    : as not overlayable)
                             CSTACK
    | Stack used (prev) :  00000000
  01  method4_2
      | Stack used (prev) :  00000000
      | + function block  :  00000000
  <-Sub-tree of type: Indirectly called function tree that does not make
                    : indirect calls (Is not an interrupt and is not flagged
                    : as not overlayable)
    | Stack used          :  00000000


  ->Sub-tree of type: Indirectly called function tree that does not make
                    : indirect calls (Is not an interrupt and is not flagged
                    : as not overlayable)
                             CSTACK
    | Stack used (prev) :  00000000
  01  method5_2
      | Stack used (prev) :  00000000
      | + function block  :  0000001C
  <-Sub-tree of type: Indirectly called function tree that does not make
                    : indirect calls (Is not an interrupt and is not flagged
                    : as not overlayable)
    | Stack used          :  0000001C


  ->Sub-tree of type: Indirectly called function tree that does not make
                    : indirect calls (Is not an interrupt and is not flagged
                    : as not overlayable)
                             CSTACK
    | Stack used (prev) :  00000000
  01  method7_2
      | Stack used (prev) :  00000000
      | + function block  :  00000004
  <-Sub-tree of type: Indirectly called function tree that does not make
                    : indirect calls (Is not an interrupt and is not flagged
                    : as not overlayable)
    | Stack used          :  00000004


  ->Sub-tree of type: Indirectly called function tree that does not make
                    : indirect calls (Is not an interrupt and is not flagged
                    : as not overlayable)
                             CSTACK
    | Stack used (prev) :  00000000
  01  method8_2
      | Stack used (prev) :  00000000
      | + function block  :  00000000
  <-Sub-tree of type: Indirectly called function tree that does not make
                    : indirect calls (Is not an interrupt and is not flagged
                    : as not overlayable)
    | Stack used          :  00000000


  ->Sub-tree of type: Indirectly called function tree that does not make
                    : indirect calls (Is not an interrupt and is not flagged
                    : as not overlayable)
                             CSTACK
    | Stack used (prev) :  00000000
  01  method9_2
      | Stack used (prev) :  00000000
      | + function block  :  00000000
  <-Sub-tree of type: Indirectly called function tree that does not make
                    : indirect calls (Is not an interrupt and is not flagged
                    : as not overlayable)
    | Stack used          :  00000000


  ->Sub-tree of type: Indirectly called function tree that does not make
                    : indirect calls (Is not an interrupt and is not flagged
                    : as not overlayable)
                             CSTACK
    | Stack used (prev) :  00000000
  01  filelist_menu_onkey
      | Stack used (prev) :  00000000
      | + function block  :  00000014
  <-Sub-tree of type: Indirectly called function tree that does not make
                    : indirect calls (Is not an interrupt and is not flagged
                    : as not overlayable)
    | Stack used          :  00000014


  ->Sub-tree of type: Indirectly called function tree that does not make
                    : indirect calls (Is not an interrupt and is not flagged
                    : as not overlayable)
                             CSTACK
    | Stack used (prev) :  00000000
  01  filelist_menu_ghook
      | Stack used (prev) :  00000000
      | + function block  :  0000000C
  <-Sub-tree of type: Indirectly called function tree that does not make
                    : indirect calls (Is not an interrupt and is not flagged
                    : as not overlayable)
    | Stack used          :  0000000C


  ->Sub-tree of type: Indirectly called function tree that does not make
                    : indirect calls (Is not an interrupt and is not flagged
                    : as not overlayable)
                             CSTACK
    | Stack used (prev) :  00000000
  01  filelist_menu_iconhndl
      | Stack used (prev) :  00000000
      | + function block  :  0000001C
  <-Sub-tree of type: Indirectly called function tree that does not make
                    : indirect calls (Is not an interrupt and is not flagged
                    : as not overlayable)
    | Stack used          :  0000001C


  ->Sub-tree of type: Function tree
                             CSTACK
    | Stack used (prev) :  000002C4
  01  loadConfig
      | Stack used (prev) :  000002C4
      | + function block  :  000000BC
  <-Sub-tree of type: Function tree
    | Stack used          :  00000380


  ->Sub-tree of type: Function tree
                             CSTACK
    | Stack used (prev) :  00000380
  01  addPatchConfigList
      | Stack used (prev) :  00000380
      | + function block  :  00000004
  <-Sub-tree of type: Function tree
    | Stack used          :  00000384


  ->Sub-tree of type: Function tree
                             CSTACK
    | Stack used (prev) :  00000384
  01  addToPatchInfo
      | Stack used (prev) :  00000384
      | + function block  :  00000018
  <-Sub-tree of type: Function tree
    | Stack used          :  0000039C


  ->Sub-tree of type: Function tree
                             CSTACK
    | Stack used (prev) :  0000039C
  01  addPreItemToData
      | Stack used (prev) :  0000039C
      | + function block  :  00000000
  <-Sub-tree of type: Function tree
    | Stack used          :  0000039C


  ->Sub-tree of type: Function tree
                             CSTACK
    | Stack used (prev) :  0000039C
  01  addItemToConfig
      | Stack used (prev) :  0000039C
      | + function block  :  0000001C
  <-Sub-tree of type: Function tree
    | Stack used          :  000003B8


  ->Sub-tree of type: Function tree
                             CSTACK
    | Stack used (prev) :  000003B8
  01  addPrepareData
      | Stack used (prev) :  000003B8
      | + function block  :  00000020
  <-Sub-tree of type: Function tree
    | Stack used          :  000003D8


  ->Sub-tree of type: Function tree
                             CSTACK
    | Stack used (prev) :  000003D8
  01  addPreDataToCBoxItem
      | Stack used (prev) :  000003D8
      | + function block  :  00000018
  <-Sub-tree of type: Function tree
    | Stack used          :  000003F0


  ->Sub-tree of type: Function tree
                             CSTACK
    | Stack used (prev) :  000003F0
  01  addItemToCBox
      | Stack used (prev) :  000003F0
      | + function block  :  00000000
  <-Sub-tree of type: Function tree
    | Stack used          :  000003F0


  ->Sub-tree of type: Function tree
                             CSTACK
    | Stack used (prev) :  000003F0
  01  cboxItemColon
      | Stack used (prev) :  000003F0
      | + function block  :  0000001C
  <-Sub-tree of type: Function tree
    | Stack used          :  0000040C


  ->Sub-tree of type: Function tree
                             CSTACK
    | Stack used (prev) :  0000040C
  01  isThatItem
      | Stack used (prev) :  0000040C
      | + function block  :  00000000
  <-Sub-tree of type: Function tree
    | Stack used          :  0000040C


  ->Sub-tree of type: Function tree
                             CSTACK
    | Stack used (prev) :  0000040C
  01  findTemplate
      | Stack used (prev) :  0000040C
      | + function block  :  00000010
  <-Sub-tree of type: Function tree
    | Stack used          :  0000041C


  ->Sub-tree of type: Function tree
                             CSTACK
    | Stack used (prev) :  0000041C
  01  isCurrectItem
      | Stack used (prev) :  0000041C
      | + function block  :  00000008
  <-Sub-tree of type: Function tree
    | Stack used          :  00000424


  ->Sub-tree of type: Function tree
                             CSTACK
    | Stack used (prev) :  00000424
  01  doItemJob
      | Stack used (prev) :  00000424
      | + function block  :  000000B4
  <-Sub-tree of type: Function tree
    | Stack used          :  000004D8


  ->Sub-tree of type: Function tree
                             CSTACK
    | Stack used (prev) :  000004D8
  01  doSubMenuJob
      | Stack used (prev) :  000004D8
      | + function block  :  0000001C
  <-Sub-tree of type: Function tree
    | Stack used          :  000004F4


  ->Sub-tree of type: Function tree
                             CSTACK
    | Stack used (prev) :  000004F4
  01  addInfoToPatchInfo
      | Stack used (prev) :  000004F4
      | + function block  :  00000010
  <-Sub-tree of type: Function tree
    | Stack used          :  00000504


  ->Sub-tree of type: Function tree
                             CSTACK
    | Stack used (prev) :  00000504
  01  isPrepareItem
      | Stack used (prev) :  00000504
      | + function block  :  00000000
  <-Sub-tree of type: Function tree
    | Stack used          :  00000504


  ->Sub-tree of type: Function tree
                             CSTACK
    | Stack used (prev) :  00000504
  01  doTemplateWork
      | Stack used (prev) :  00000504
      | + function block  :  00000018
  <-Sub-tree of type: Function tree
    | Stack used          :  0000051C


  ->Sub-tree of type: Function tree
                             CSTACK
    | Stack used (prev) :  0000051C
  01  subMenuCopy
      | Stack used (prev) :  0000051C
      | + function block  :  00000028
  <-Sub-tree of type: Function tree
    | Stack used          :  00000544


  ->Sub-tree of type: Function tree
                             CSTACK
    | Stack used (prev) :  00000544
  01  readConfig
      | Stack used (prev) :  00000544
      | + function block  :  0000001C
  <-Sub-tree of type: Function tree
    | Stack used          :  00000560


  ->Sub-tree of type: Function tree
                             CSTACK
    | Stack used (prev) :  00000560
  01  freePatchItem
      | Stack used (prev) :  00000560
      | + function block  :  0000000C
  <-Sub-tree of type: Function tree
    | Stack used          :  0000056C


  ->Sub-tree of type: Function tree
                             CSTACK
    | Stack used (prev) :  0000056C
  01  reloadThisPatch
      | Stack used (prev) :  0000056C
      | + function block  :  00000018
  <-Sub-tree of type: Function tree
    | Stack used          :  00000584


  ->Sub-tree of type: Function tree
                             CSTACK
    | Stack used (prev) :  00000584
  01  swapPatchConfigList
      | Stack used (prev) :  00000584
      | + function block  :  00000020
  <-Sub-tree of type: Function tree
    | Stack used          :  000005A4


  ->Sub-tree of type: Function tree
                             CSTACK
    | Stack used (prev) :  000005A4
  01  sortPatchConfigList
      | Stack used (prev) :  000005A4
      | + function block  :  0000000C
  <-Sub-tree of type: Function tree
    | Stack used          :  000005B0


  ->Sub-tree of type: Function tree
                             CSTACK
    | Stack used (prev) :  000005B0
  01  fuckThemAll
      | Stack used (prev) :  000005B0
      | + function block  :  0000000C
  <-Sub-tree of type: Function tree
    | Stack used          :  000005BC


  ->Sub-tree of type: Function tree
                             CSTACK
    | Stack used (prev) :  000005BC
  01  getPatchConfigItem
      | Stack used (prev) :  000005BC
      | + function block  :  00000000
  <-Sub-tree of type: Function tree
    | Stack used          :  000005BC


  ->Sub-tree of type: Function tree
                             CSTACK
    | Stack used (prev) :  000005BC
  01  getMaxCBoxItem
      | Stack used (prev) :  000005BC
      | + function block  :  00000000
  <-Sub-tree of type: Function tree
    | Stack used          :  000005BC


  ->Sub-tree of type: Function tree
                             CSTACK
    | Stack used (prev) :  000005BC
  01  getCurCBoxItem
      | Stack used (prev) :  000005BC
      | + function block  :  00000000
  <-Sub-tree of type: Function tree
    | Stack used          :  000005BC


  ->Sub-tree of type: Function tree
                             CSTACK
    | Stack used (prev) :  000005BC
  01  getInitCBoxItem
      | Stack used (prev) :  000005BC
      | + function block  :  00000004
  <-Sub-tree of type: Function tree
    | Stack used          :  000005C0


  ->Sub-tree of type: Function tree
                             CSTACK
    | Stack used (prev) :  000005C0
  01  getAllPatchData
      | Stack used (prev) :  000005C0
      | + function block  :  00000008
  <-Sub-tree of type: Function tree
    | Stack used          :  000005C8


  ->Sub-tree of type: Function tree
                             CSTACK
    | Stack used (prev) :  000005C8
  01  setPatchOnOff
      | Stack used (prev) :  000005C8
      | + function block  :  00000010
  <-Sub-tree of type: Function tree
    | Stack used          :  000005D8


  ->Sub-tree of type: Function tree
                             CSTACK
    | Stack used (prev) :  000005D8
  01  getPatchOnOff
      | Stack used (prev) :  000005D8
      | + function block  :  00000000
  <-Sub-tree of type: Function tree
    | Stack used          :  000005D8


  ->Sub-tree of type: Function tree
                             CSTACK
    | Stack used (prev) :  000005D8
  01  isPatchExistedByID
      | Stack used (prev) :  000005D8
      | + function block  :  0000000C
  <-Sub-tree of type: Function tree
    | Stack used          :  000005E4


  ->Sub-tree of type: Function tree
                             CSTACK
    | Stack used (prev) :  000005E4
  01  pushToItemStack
      | Stack used (prev) :  000005E4
      | + function block  :  00000008
  <-Sub-tree of type: Function tree
    | Stack used          :  000005EC


  ->Sub-tree of type: Function tree
                             CSTACK
    | Stack used (prev) :  000005EC
  01  popItemStack
      | Stack used (prev) :  000005EC
      | + function block  :  00000004
  <-Sub-tree of type: Function tree
    | Stack used          :  000005F0


  ->Sub-tree of type: Function tree
                             CSTACK
    | Stack used (prev) :  000005F0
  01  updateStackEditCurItem
      | Stack used (prev) :  000005F0
      | + function block  :  00000000
  <-Sub-tree of type: Function tree
    | Stack used          :  000005F0


  ->Sub-tree of type: Function tree
                             CSTACK
    | Stack used (prev) :  000005F0
  01  updateStackPtcfg
      | Stack used (prev) :  000005F0
      | + function block  :  00000000
  <-Sub-tree of type: Function tree
    | Stack used          :  000005F0


  ->Sub-tree of type: Function tree
                             CSTACK
    | Stack used (prev) :  000005F0
  01  isTopSubMenu
      | Stack used (prev) :  000005F0
      | + function block  :  00000004
  <-Sub-tree of type: Function tree
    | Stack used          :  000005F4


  ->Sub-tree of type: Function tree
                             CSTACK
    | Stack used (prev) :  000005F4
  01  createMainMenu
      | Stack used (prev) :  000005F4
      | + function block  :  00000018
  <-Sub-tree of type: Function tree
    | Stack used          :  0000060C


  ->Sub-tree of type: Function tree
                             CSTACK
    | Stack used (prev) :  0000060C
  01  UpdateCSMname
      | Stack used (prev) :  0000060C
      | + function block  :  00000004
  <-Sub-tree of type: Function tree
    | Stack used          :  00000610


  ->Sub-tree of type: Function tree
                             CSTACK
    | Stack used (prev) :  00000610
  01  main
      | Stack used (prev) :  00000610
      | + function block  :  00000034
  <-Sub-tree of type: Function tree
    | Stack used          :  00000644


  ->Sub-tree of type: Function tree
                             CSTACK
    | Stack used (prev) :  00000644
  01  findPatchItemInED
      | Stack used (prev) :  00000644
      | + function block  :  00000000
  <-Sub-tree of type: Function tree
    | Stack used          :  00000644


  ->Sub-tree of type: Function tree
                             CSTACK
    | Stack used (prev) :  00000644
  01  getMaxFocus
      | Stack used (prev) :  00000644
      | + function block  :  00000000
  <-Sub-tree of type: Function tree
    | Stack used          :  00000644


  ->Sub-tree of type: Function tree
                             CSTACK
    | Stack used (prev) :  00000644
  01  getMinFocus
      | Stack used (prev) :  00000644
      | + function block  :  00000000
  <-Sub-tree of type: Function tree
    | Stack used          :  00000644


  ->Sub-tree of type: Function tree
                             CSTACK
    | Stack used (prev) :  00000644
  01  updateEdHdr
      | Stack used (prev) :  00000644
      | + function block  :  00000010
  <-Sub-tree of type: Function tree
    | Stack used          :  00000654


  ->Sub-tree of type: Function tree
                             CSTACK
    | Stack used (prev) :  00000654
  01  createEditGui
      | Stack used (prev) :  00000654
      | + function block  :  000002A8
  <-Sub-tree of type: Function tree
    | Stack used          :  000008FC


  ->Sub-tree of type: Function tree
                             CSTACK
    | Stack used (prev) :  000008FC
  01  show_option_menu
      | Stack used (prev) :  000008FC
      | + function block  :  00000018
  <-Sub-tree of type: Function tree
    | Stack used          :  00000914


  ->Sub-tree of type: Function tree
                             CSTACK
    | Stack used (prev) :  00000914
  01  deleteAllConfig
      | Stack used (prev) :  00000914
      | + function block  :  00000340
  <-Sub-tree of type: Function tree
    | Stack used          :  00000C54


  ->Sub-tree of type: Function tree
                             CSTACK
    | Stack used (prev) :  00000C54
  01  deleteThis
      | Stack used (prev) :  00000C54
      | + function block  :  000000B8
  <-Sub-tree of type: Function tree
    | Stack used          :  00000D0C


  ->Sub-tree of type: Function tree
                             CSTACK
    | Stack used (prev) :  00000D0C
  01  createProfileOnoffMenu
      | Stack used (prev) :  00000D0C
      | + function block  :  00000018
  <-Sub-tree of type: Function tree
    | Stack used          :  00000D24


  ->Sub-tree of type: Function tree
                             CSTACK
    | Stack used (prev) :  00000D24
  01  delUnusedConfig
      | Stack used (prev) :  00000D24
      | + function block  :  00000350
  <-Sub-tree of type: Function tree
    | Stack used          :  00001074


  ->Sub-tree of type: Function tree
                             CSTACK
    | Stack used (prev) :  00001074
  01  showPatchInfo
      | Stack used (prev) :  00001074
      | + function block  :  0000005C
  <-Sub-tree of type: Function tree
    | Stack used          :  000010D0


  ->Sub-tree of type: Function tree
                             CSTACK
    | Stack used (prev) :  000010D0
  01  fcopy
      | Stack used (prev) :  000010D0
      | + function block  :  00000034
  <-Sub-tree of type: Function tree
    | Stack used          :  00001104


  ->Sub-tree of type: Function tree
                             CSTACK
    | Stack used (prev) :  00001104
  01  pathInputDlg
      | Stack used (prev) :  00001104
      | + function block  :  0000005C
  <-Sub-tree of type: Function tree
    | Stack used          :  00001160


  ->Sub-tree of type: Function tree
                             CSTACK
    | Stack used (prev) :  00001160
  01  mkpath
      | Stack used (prev) :  00001160
      | + function block  :  00000098
  <-Sub-tree of type: Function tree
    | Stack used          :  000011F8


  ->Sub-tree of type: Function tree
                             CSTACK
    | Stack used (prev) :  000011F8
  01  configBackUp
      | Stack used (prev) :  000011F8
      | + function block  :  000003CC
  <-Sub-tree of type: Function tree
    | Stack used          :  000015C4


  ->Sub-tree of type: Function tree
                             CSTACK
    | Stack used (prev) :  000015C4
  01  configRestore
      | Stack used (prev) :  000015C4
      | + function block  :  000003CC
  <-Sub-tree of type: Function tree
    | Stack used          :  00001990


  ->Sub-tree of type: Function tree
                             CSTACK
    | Stack used (prev) :  00001990
  01  initPatchItem
      | Stack used (prev) :  00001990
      | + function block  :  0000000C
  <-Sub-tree of type: Function tree
    | Stack used          :  0000199C


  ->Sub-tree of type: Function tree
                             CSTACK
    | Stack used (prev) :  0000199C
  01  initPatchConfig
      | Stack used (prev) :  0000199C
      | + function block  :  000000A8
  <-Sub-tree of type: Function tree
    | Stack used          :  00001A44


  ->Sub-tree of type: Function tree
                             CSTACK
    | Stack used (prev) :  00001A44
  01  findNextBposItem
      | Stack used (prev) :  00001A44
      | + function block  :  00000014
  <-Sub-tree of type: Function tree
    | Stack used          :  00001A58


  ->Sub-tree of type: Function tree
                             CSTACK
    | Stack used (prev) :  00001A58
  01  getTheSameBPosCheckBox
      | Stack used (prev) :  00001A58
      | + function block  :  00000014
  <-Sub-tree of type: Function tree
    | Stack used          :  00001A6C


  ->Sub-tree of type: Function tree
                             CSTACK
    | Stack used (prev) :  00001A6C
  01  fillItemDataToBuf
      | Stack used (prev) :  00001A6C
      | + function block  :  00000010
  <-Sub-tree of type: Function tree
    | Stack used          :  00001A7C


  ->Sub-tree of type: Function tree
                             CSTACK
    | Stack used (prev) :  00001A7C
  01  getPtcSize
      | Stack used (prev) :  00001A7C
      | + function block  :  0000000C
  <-Sub-tree of type: Function tree
    | Stack used          :  00001A88


  ->Sub-tree of type: Function tree
                             CSTACK
    | Stack used (prev) :  00001A88
  01  savePatchConfig
      | Stack used (prev) :  00001A88
      | + function block  :  000000AC
  <-Sub-tree of type: Function tree
    | Stack used          :  00001B34


  ->Sub-tree of type: Function tree
                             CSTACK
    | Stack used (prev) :  00001B34
  01  saveAllConfig
      | Stack used (prev) :  00001B34
      | + function block  :  00000008
  <-Sub-tree of type: Function tree
    | Stack used          :  00001B3C


  ->Sub-tree of type: Function tree
                             CSTACK
    | Stack used (prev) :  00001B3C
  01  getnumwidth
      | Stack used (prev) :  00001B3C
      | + function block  :  00000000
  <-Sub-tree of type: Function tree
    | Stack used          :  00001B3C


  ->Sub-tree of type: Function tree
                             CSTACK
    | Stack used (prev) :  00001B3C
  01  uni2ws
      | Stack used (prev) :  00001B3C
      | + function block  :  00000008
  <-Sub-tree of type: Function tree
    | Stack used          :  00001B44


  ->Sub-tree of type: Function tree
                             CSTACK
    | Stack used (prev) :  00001B44
  01  ws2uni
      | Stack used (prev) :  00001B44
      | + function block  :  00000008
  <-Sub-tree of type: Function tree
    | Stack used          :  00001B4C


  ->Sub-tree of type: Function tree
                             CSTACK
    | Stack used (prev) :  00001B4C
  01  hex2ws
      | Stack used (prev) :  00001B4C
      | + function block  :  00000018
  <-Sub-tree of type: Function tree
    | Stack used          :  00001B64


  ->Sub-tree of type: Function tree
                             CSTACK
    | Stack used (prev) :  00001B64
  01  uniFormatString2ws
      | Stack used (prev) :  00001B64
      | + function block  :  00000020
  <-Sub-tree of type: Function tree
    | Stack used          :  00001B84


  ->Sub-tree of type: Function tree
                             CSTACK
    | Stack used (prev) :  00001B84
  01  isUniFormat
      | Stack used (prev) :  00001B84
      | + function block  :  00000000
  <-Sub-tree of type: Function tree
    | Stack used          :  00001B84


  ->Sub-tree of type: Function tree
                             CSTACK
    | Stack used (prev) :  00001B84
  01  ws2hex
      | Stack used (prev) :  00001B84
      | + function block  :  00000220
  <-Sub-tree of type: Function tree
    | Stack used          :  00001DA4


  ->Sub-tree of type: Function tree
                             CSTACK
    | Stack used (prev) :  00001DA4
  01  bytes_2ws
      | Stack used (prev) :  00001DA4
      | + function block  :  00000018
  <-Sub-tree of type: Function tree
    | Stack used          :  00001DBC


  ->Sub-tree of type: Function tree
                             CSTACK
    | Stack used (prev) :  00001DBC
  01  ints_2ws
      | Stack used (prev) :  00001DBC
      | + function block  :  00000018
  <-Sub-tree of type: Function tree
    | Stack used          :  00001DD4


  ->Sub-tree of type: Function tree
                             CSTACK
    | Stack used (prev) :  00001DD4
  01  strncmpNoCase
      | Stack used (prev) :  00001DD4
      | + function block  :  00000004
  <-Sub-tree of type: Function tree
    | Stack used          :  00001DD8


  ->Sub-tree of type: Function tree
                             CSTACK
    | Stack used (prev) :  00001DD8
  01  chr2num
      | Stack used (prev) :  00001DD8
      | + function block  :  00000000
  <-Sub-tree of type: Function tree
    | Stack used          :  00001DD8


  ->Sub-tree of type: Function tree
                             CSTACK
    | Stack used (prev) :  00001DD8
  01  gotoRealPos
      | Stack used (prev) :  00001DD8
      | + function block  :  00000000
  <-Sub-tree of type: Function tree
    | Stack used          :  00001DD8


  ->Sub-tree of type: Function tree
                             CSTACK
    | Stack used (prev) :  00001DD8
  01  strstrInQuote
      | Stack used (prev) :  00001DD8
      | + function block  :  00000010
  <-Sub-tree of type: Function tree
    | Stack used          :  00001DE8


  ->Sub-tree of type: Function tree
                             CSTACK
    | Stack used (prev) :  00001DE8
  01  strchrInQuote
      | Stack used (prev) :  00001DE8
      | + function block  :  00000000
  <-Sub-tree of type: Function tree
    | Stack used          :  00001DE8


  ->Sub-tree of type: Function tree
                             CSTACK
    | Stack used (prev) :  00001DE8
  01  gotoQuoteStart
      | Stack used (prev) :  00001DE8
      | + function block  :  00000000
  <-Sub-tree of type: Function tree
    | Stack used          :  00001DE8


  ->Sub-tree of type: Function tree
                             CSTACK
    | Stack used (prev) :  00001DE8
  01  gotoQuoteEnd
      | Stack used (prev) :  00001DE8
      | + function block  :  00000000
  <-Sub-tree of type: Function tree
    | Stack used          :  00001DE8


  ->Sub-tree of type: Function tree
                             CSTACK
    | Stack used (prev) :  00001DE8
  01  gotoNextNameQuote
      | Stack used (prev) :  00001DE8
      | + function block  :  00000000
  <-Sub-tree of type: Function tree
    | Stack used          :  00001DE8


  ->Sub-tree of type: Function tree
                             CSTACK
    | Stack used (prev) :  00001DE8
  01  gotoStringEndByChr
      | Stack used (prev) :  00001DE8
      | + function block  :  00000000
  <-Sub-tree of type: Function tree
    | Stack used          :  00001DE8


  ->Sub-tree of type: Function tree
                             CSTACK
    | Stack used (prev) :  00001DE8
  01  gotoMyStrStart
      | Stack used (prev) :  00001DE8
      | + function block  :  00000004
  <-Sub-tree of type: Function tree
    | Stack used          :  00001DEC


  ->Sub-tree of type: Function tree
                             CSTACK
    | Stack used (prev) :  00001DEC
  01  gotoMyStrEnd
      | Stack used (prev) :  00001DEC
      | + function block  :  00000004
  <-Sub-tree of type: Function tree
    | Stack used          :  00001DF0


  ->Sub-tree of type: Function tree
                             CSTACK
    | Stack used (prev) :  00001DF0
  01  strnCopyWithEnd
      | Stack used (prev) :  00001DF0
      | + function block  :  0000000C
  <-Sub-tree of type: Function tree
    | Stack used          :  00001DFC


  ->Sub-tree of type: Function tree
                             CSTACK
    | Stack used (prev) :  00001DFC
  01  str2num
      | Stack used (prev) :  00001DFC
      | + function block  :  00000020
  <-Sub-tree of type: Function tree
    | Stack used          :  00001E1C


  ->Sub-tree of type: Function tree
                             CSTACK
    | Stack used (prev) :  00001E1C
  01  str2num_short
      | Stack used (prev) :  00001E1C
      | + function block  :  00000020
  <-Sub-tree of type: Function tree
    | Stack used          :  00001E3C


  ->Sub-tree of type: Function tree
                             CSTACK
    | Stack used (prev) :  00001E3C
  01  str2num_char
      | Stack used (prev) :  00001E3C
      | + function block  :  00000024
  <-Sub-tree of type: Function tree
    | Stack used          :  00001E60


  ->Sub-tree of type: Function tree
                             CSTACK
    | Stack used (prev) :  00001E60
  01  cleanStrByChr
      | Stack used (prev) :  00001E60
      | + function block  :  00000000
  <-Sub-tree of type: Function tree
    | Stack used          :  00001E60


  ->Sub-tree of type: Function tree
                             CSTACK
    | Stack used (prev) :  00001E60
  01  str2bytes
      | Stack used (prev) :  00001E60
      | + function block  :  00000018
  <-Sub-tree of type: Function tree
    | Stack used          :  00001E78


  ->Sub-tree of type: Function tree
                             CSTACK
    | Stack used (prev) :  00001E78
  01  str2ints
      | Stack used (prev) :  00001E78
      | + function block  :  00000018
  <-Sub-tree of type: Function tree
    | Stack used          :  00001E90


  ->Sub-tree of type: Function tree
                             CSTACK
    | Stack used (prev) :  00001E90
  01  DrwImg
      | Stack used (prev) :  00001E90
      | + function block  :  00000040
  <-Sub-tree of type: Function tree
    | Stack used          :  00001ED0


  ->Sub-tree of type: Function tree
                             CSTACK
    | Stack used (prev) :  00001ED0
  01  EditPostionGUI
      | Stack used (prev) :  00001ED0
      | + function block  :  00000018
  <-Sub-tree of type: Function tree
    | Stack used          :  00001EE8


  ->Sub-tree of type: Function tree
                             CSTACK
    | Stack used (prev) :  00001EE8
  01  EditColors
      | Stack used (prev) :  00001EE8
      | + function block  :  0000000C
  <-Sub-tree of type: Function tree
    | Stack used          :  00001EF4


  ->Sub-tree of type: Function tree
                             CSTACK
    | Stack used (prev) :  00001EF4
  01  Free_FLIST
      | Stack used (prev) :  00001EF4
      | + function block  :  00000008
  <-Sub-tree of type: Function tree
    | Stack used          :  00001EFC


  ->Sub-tree of type: Function tree
                             CSTACK
    | Stack used (prev) :  00001EFC
  01  strcmp_nocase
      | Stack used (prev) :  00001EFC
      | + function block  :  00000000
  <-Sub-tree of type: Function tree
    | Stack used          :  00001EFC


  ->Sub-tree of type: Function tree
                             CSTACK
    | Stack used (prev) :  00001EFC
  01  AddToFList
      | Stack used (prev) :  00001EFC
      | + function block  :  00000018
  <-Sub-tree of type: Function tree
    | Stack used          :  00001F14


  ->Sub-tree of type: Function tree
                             CSTACK
    | Stack used (prev) :  00001F14
  01  FindFiles
      | Stack used (prev) :  00001F14
      | + function block  :  0000035C
  <-Sub-tree of type: Function tree
    | Stack used          :  00002270


  ->Sub-tree of type: Function tree
                             CSTACK
    | Stack used (prev) :  00002270
  01  FindFLISTtByNS
      | Stack used (prev) :  00002270
      | + function block  :  00000000
  <-Sub-tree of type: Function tree
    | Stack used          :  00002270


  ->Sub-tree of type: Function tree
                             CSTACK
    | Stack used (prev) :  00002270
  01  FindFLISTtByN
      | Stack used (prev) :  00002270
      | + function block  :  00000008
  <-Sub-tree of type: Function tree
    | Stack used          :  00002278


  ->Sub-tree of type: Function tree
                             CSTACK
    | Stack used (prev) :  00002278
  01  SavePath
      | Stack used (prev) :  00002278
      | + function block  :  0000003C
  <-Sub-tree of type: Function tree
    | Stack used          :  000022B4


  ->Sub-tree of type: Function tree
                             CSTACK
    | Stack used (prev) :  000022B4
  01  CreateRootMenu
      | Stack used (prev) :  000022B4
      | + function block  :  00000030
  <-Sub-tree of type: Function tree
    | Stack used          :  000022E4


  ->Sub-tree of type: Function tree
                             CSTACK
    | Stack used (prev) :  000022E4
  01  open_select_file_gui
      | Stack used (prev) :  000022E4
      | + function block  :  000000D8
  <-Sub-tree of type: Function tree
    | Stack used          :  000023BC




                ****************************************
                *                                      *
                *      SEGMENTS IN ADDRESS ORDER       *
                *                                      *
                ****************************************


SEGMENT              SPACE    START ADDRESS   END ADDRESS     SIZE  TYPE  ALIGN
=======              =====    =============   ===========     ====  ====  =====
ELFBEGIN             CODE_AREA           00000000                     rel    0
DATA_ID              CODE_AREA      00000000 - 0000016B         16C   rel    2
START                CODE_AREA           0000016C                     dse    0
CODE                 CODE_AREA      0000016C - 00008D57        8BEC   rel    2
DATA_C               CODE_AREA      00008D58 - 00009A8E         D37   rel    2
INITTAB              CODE_AREA      00009A90 - 00009AA7          18   rel    2
DATA_Z               CODE_AREA      00009AA8 - 00015BEB        C144   rel    2
DATA_I               DATA_AREA      00000000 - 0000016B         16C   rel    2

                ****************************************
                *                                      *
                *        END OF CROSS REFERENCE        *
                *                                      *
                ****************************************

 89 067 bytes of CODE memory
    364 bytes of DATA memory

Errors: none
Warnings: none

